; Listing generated by Microsoft (R) Optimizing Compiler Version 13.10.3077 

	TITLE	.\License.cpp
	.386P
include listing.inc
if @Version gt 510
.model FLAT
else
_TEXT	SEGMENT PARA USE32 PUBLIC 'CODE'
_TEXT	ENDS
_DATA	SEGMENT DWORD USE32 PUBLIC 'DATA'
_DATA	ENDS
CONST	SEGMENT DWORD USE32 PUBLIC 'CONST'
CONST	ENDS
_BSS	SEGMENT DWORD USE32 PUBLIC 'BSS'
_BSS	ENDS
$$SYMBOLS	SEGMENT BYTE USE32 'DEBSYM'
$$SYMBOLS	ENDS
$$TYPES	SEGMENT BYTE USE32 'DEBTYP'
$$TYPES	ENDS
_TLS	SEGMENT DWORD USE32 PUBLIC 'TLS'
_TLS	ENDS
;	COMDAT ??_C@_0FG@EOHGAEB@?3Sun?3Sunday?3Mon?3Monday?3Tue?3Tuesd@
CONST	SEGMENT DWORD USE32 PUBLIC 'CONST'
CONST	ENDS
;	COMDAT ??_C@_0IH@HPGJLCCK@?3Jan?3January?3Feb?3February?3Mar?3Ma@
CONST	SEGMENT DWORD USE32 PUBLIC 'CONST'
CONST	ENDS
;	COMDAT ??_C@_04LOAJBDKD@true?$AA@
CONST	SEGMENT DWORD USE32 PUBLIC 'CONST'
CONST	ENDS
;	COMDAT ??_C@_0EH@NBFKEDIC@C?3?2Program?5Files?2Microsoft?5Visua@
CONST	SEGMENT DWORD USE32 PUBLIC 'CONST'
CONST	ENDS
;	COMDAT ??_C@_01GFHCPBMG@C?$AA@
CONST	SEGMENT DWORD USE32 PUBLIC 'CONST'
CONST	ENDS
;	COMDAT ??_C@_0CD@HFEEKIIE@mbstr?5?$DN?$DN?50?5?$HM?$HM?5result?5?$DM?$DN?5?$CIint?$CJcou@
CONST	SEGMENT DWORD USE32 PUBLIC 'CONST'
CONST	ENDS
;	COMDAT ??_C@_0FB@DNILBHEN@C?3?2Program?5Files?2Microsoft?5Visua@
CONST	SEGMENT DWORD USE32 PUBLIC 'CONST'
CONST	ENDS
;	COMDAT ??_C@_0CD@JADEDFCN@wcstr?5?$DN?$DN?50?5?$HM?$HM?5result?5?$DM?$DN?5?$CIint?$CJcou@
CONST	SEGMENT DWORD USE32 PUBLIC 'CONST'
CONST	ENDS
;	COMDAT ??_C@_0BA@CLMJJCOM@nSize?5?$DO?$DN?5nSizeW?$AA@
CONST	SEGMENT DWORD USE32 PUBLIC 'CONST'
CONST	ENDS
;	COMDAT ??_C@_0BF@DFFCODPF@m_pData?9?$DOnRefs?5?$DN?$DN?5?91?$AA@
CONST	SEGMENT DWORD USE32 PUBLIC 'CONST'
CONST	ENDS
;	COMDAT ??_C@_0BK@KFNMPDFA@m_pData?9?$DOnDataLength?5?$DN?$DN?50?$AA@
CONST	SEGMENT DWORD USE32 PUBLIC 'CONST'
CONST	ENDS
;	COMDAT ??_C@_0BC@JINHKJCC@pData?9?$DOnRefs?5?$DM?$DN?50?$AA@
CONST	SEGMENT DWORD USE32 PUBLIC 'CONST'
CONST	ENDS
;	COMDAT ??_C@_0BB@HNGMIMJM@pData?9?$DOnRefs?5?$DM?50?$AA@
CONST	SEGMENT DWORD USE32 PUBLIC 'CONST'
CONST	ENDS
;	COMDAT ??_C@_0FB@EIPLHBJE@CFixedStringMgr?3?3Allocate?$CI?$CJ?5spil@
CONST	SEGMENT DWORD USE32 PUBLIC 'CONST'
CONST	ENDS
;	COMDAT ??_C@_0FD@PINPFILO@CFixedStringMgr?3?3Reallocate?$CI?$CJ?5sp@
CONST	SEGMENT DWORD USE32 PUBLIC 'CONST'
CONST	ENDS
;	COMDAT ??_C@_0P@MDHCGOCC@m_pMemMgr?5?$DN?$DN?50?$AA@
CONST	SEGMENT DWORD USE32 PUBLIC 'CONST'
CONST	ENDS
;	COMDAT ??_C@_0EP@ENACCIMA@C?3?2Program?5Files?2Microsoft?5Visua@
CONST	SEGMENT DWORD USE32 PUBLIC 'CONST'
CONST	ENDS
;	COMDAT ??_C@_0BK@KICONMKH@pData?9?$DOpStringMgr?5?$DN?$DN?5this?$AA@
CONST	SEGMENT DWORD USE32 PUBLIC 'CONST'
CONST	ENDS
;	COMDAT ??_C@_0CG@HPMMCKHL@?$CI?$CIWORD?$CJ?$CI?$CIDWORD_PTR?$CJ?$CIpsz?$CJ?5?$DO?$DO?516?$CJ?$CJ@
CONST	SEGMENT DWORD USE32 PUBLIC 'CONST'
CONST	ENDS
;	COMDAT ??_C@_0N@BDLMIBLB@pFormat?5?$CB?$DN?50?$AA@
CONST	SEGMENT DWORD USE32 PUBLIC 'CONST'
CONST	ENDS
;	COMDAT ??_C@_0FA@JGFACAOB@C?3?2Program?5Files?2Microsoft?5Visua@
CONST	SEGMENT DWORD USE32 PUBLIC 'CONST'
CONST	ENDS
;	COMDAT ??_C@_05LLAMLEHD@?$CFI64d?$AA@
CONST	SEGMENT DWORD USE32 PUBLIC 'CONST'
CONST	ENDS
;	COMDAT ??_C@_05KCADNOJC@?$CF02ld?$AA@
CONST	SEGMENT DWORD USE32 PUBLIC 'CONST'
CONST	ENDS
;	COMDAT ??_C@_0CB@FKADHJGH@strFormat?4LoadStringA?$CInFormatID?$CJ@
CONST	SEGMENT DWORD USE32 PUBLIC 'CONST'
CONST	ENDS
;	COMDAT ??_C@_0BO@OBIGOAOM@AtlIsValidString?$CI?5pszFormat?5?$CJ?$AA@
CONST	SEGMENT DWORD USE32 PUBLIC 'CONST'
CONST	ENDS
;	COMDAT ??_C@_0BA@GOIMFHNK@pStringMgr?5?$CB?$DN?50?$AA@
CONST	SEGMENT DWORD USE32 PUBLIC 'CONST'
CONST	ENDS
;	COMDAT ??_C@_0CJ@FJEKGMMD@Warning?3?5implicit?5LoadString?$CI?$CFu?$CJ@
CONST	SEGMENT DWORD USE32 PUBLIC 'CONST'
CONST	ENDS
;	COMDAT ??_C@_0BA@GNIEOBOF@nNewLength?5?$DO?$DN?50?$AA@
CONST	SEGMENT DWORD USE32 PUBLIC 'CONST'
CONST	ENDS
;	COMDAT ??_C@_0EG@DKHIMJLN@C?3?2Program?5Files?2Microsoft?5Visua@
CONST	SEGMENT DWORD USE32 PUBLIC 'CONST'
CONST	ENDS
;	COMDAT ??_C@_08EPJLHIJG@bad?5cast?$AA@
CONST	SEGMENT DWORD USE32 PUBLIC 'CONST'
CONST	ENDS
text$yc	SEGMENT PARA USE32 PUBLIC 'CODE'
text$yc	ENDS
CRT$XCA	SEGMENT DWORD USE32 PUBLIC 'DATA'
CRT$XCA	ENDS
CRT$XCU	SEGMENT DWORD USE32 PUBLIC 'DATA'
CRT$XCU	ENDS
CRT$XCL	SEGMENT DWORD USE32 PUBLIC 'DATA'
CRT$XCL	ENDS
CRT$XCC	SEGMENT DWORD USE32 PUBLIC 'DATA'
CRT$XCC	ENDS
CRT$XCZ	SEGMENT DWORD USE32 PUBLIC 'DATA'
CRT$XCZ	ENDS
text$yd	SEGMENT PARA USE32 PUBLIC 'CODE'
text$yd	ENDS
ATL$__m	SEGMENT DWORD USE32 PUBLIC ''
ATL$__m	ENDS
ATL$__z	SEGMENT DWORD USE32 PUBLIC ''
ATL$__z	ENDS
ATL$__a	SEGMENT DWORD USE32 PUBLIC ''
ATL$__a	ENDS
xdata$x	SEGMENT DWORD USE32 PUBLIC 'CONST'
xdata$x	ENDS
;	COMDAT ??1bad_exception@std@@UAE@XZ
_TEXT	SEGMENT PARA USE32 PUBLIC 'CODE'
_TEXT	ENDS
;	COMDAT ??_Gbad_exception@std@@UAEPAXI@Z
_TEXT	SEGMENT PARA USE32 PUBLIC 'CODE'
_TEXT	ENDS
;	COMDAT ??1bad_alloc@std@@UAE@XZ
_TEXT	SEGMENT PARA USE32 PUBLIC 'CODE'
_TEXT	ENDS
;	COMDAT ??_Gbad_alloc@std@@UAEPAXI@Z
_TEXT	SEGMENT PARA USE32 PUBLIC 'CODE'
_TEXT	ENDS
;	COMDAT _wmemchr
_TEXT	SEGMENT PARA USE32 PUBLIC 'CODE'
_TEXT	ENDS
;	COMDAT _wmemcmp
_TEXT	SEGMENT PARA USE32 PUBLIC 'CODE'
_TEXT	ENDS
;	COMDAT _wmemcpy
_TEXT	SEGMENT PARA USE32 PUBLIC 'CODE'
_TEXT	ENDS
;	COMDAT _wmemmove
_TEXT	SEGMENT PARA USE32 PUBLIC 'CODE'
_TEXT	ENDS
;	COMDAT _wmemset
_TEXT	SEGMENT PARA USE32 PUBLIC 'CODE'
_TEXT	ENDS
;	COMDAT ?copy@?$char_traits@G@std@@SAPAGPAGPBGI@Z
_TEXT	SEGMENT PARA USE32 PUBLIC 'CODE'
_TEXT	ENDS
;	COMDAT ?to_char_type@?$char_traits@G@std@@SAGABG@Z
_TEXT	SEGMENT PARA USE32 PUBLIC 'CODE'
_TEXT	ENDS
;	COMDAT ?to_int_type@?$char_traits@G@std@@SAGABG@Z
_TEXT	SEGMENT PARA USE32 PUBLIC 'CODE'
_TEXT	ENDS
;	COMDAT ?eq_int_type@?$char_traits@G@std@@SA_NABG0@Z
_TEXT	SEGMENT PARA USE32 PUBLIC 'CODE'
_TEXT	ENDS
;	COMDAT ?eof@?$char_traits@G@std@@SAGXZ
_TEXT	SEGMENT PARA USE32 PUBLIC 'CODE'
_TEXT	ENDS
;	COMDAT ?assign@?$char_traits@D@std@@SAXAADABD@Z
_TEXT	SEGMENT PARA USE32 PUBLIC 'CODE'
_TEXT	ENDS
;	COMDAT ?compare@?$char_traits@D@std@@SAHPBD0I@Z
_TEXT	SEGMENT PARA USE32 PUBLIC 'CODE'
_TEXT	ENDS
;	COMDAT ?length@?$char_traits@D@std@@SAIPBD@Z
_TEXT	SEGMENT PARA USE32 PUBLIC 'CODE'
_TEXT	ENDS
;	COMDAT ?copy@?$char_traits@D@std@@SAPADPADPBDI@Z
_TEXT	SEGMENT PARA USE32 PUBLIC 'CODE'
_TEXT	ENDS
;	COMDAT ?move@?$char_traits@D@std@@SAPADPADPBDI@Z
_TEXT	SEGMENT PARA USE32 PUBLIC 'CODE'
_TEXT	ENDS
;	COMDAT ?to_char_type@?$char_traits@D@std@@SADABH@Z
_TEXT	SEGMENT PARA USE32 PUBLIC 'CODE'
_TEXT	ENDS
;	COMDAT ?to_int_type@?$char_traits@D@std@@SAHABD@Z
_TEXT	SEGMENT PARA USE32 PUBLIC 'CODE'
_TEXT	ENDS
;	COMDAT ?eq_int_type@?$char_traits@D@std@@SA_NABH0@Z
_TEXT	SEGMENT PARA USE32 PUBLIC 'CODE'
_TEXT	ENDS
;	COMDAT ?eof@?$char_traits@D@std@@SAHXZ
_TEXT	SEGMENT PARA USE32 PUBLIC 'CODE'
_TEXT	ENDS
;	COMDAT ??0logic_error@std@@QAE@ABV?$basic_string@DU?$char_traits@D@std@@V?$allocator@D@2@@1@@Z
_TEXT	SEGMENT PARA USE32 PUBLIC 'CODE'
_TEXT	ENDS
;	COMDAT ??1logic_error@std@@UAE@XZ
_TEXT	SEGMENT PARA USE32 PUBLIC 'CODE'
_TEXT	ENDS
;	COMDAT ?what@logic_error@std@@UBEPBDXZ
_TEXT	SEGMENT PARA USE32 PUBLIC 'CODE'
_TEXT	ENDS
;	COMDAT ??_Glogic_error@std@@UAEPAXI@Z
_TEXT	SEGMENT PARA USE32 PUBLIC 'CODE'
_TEXT	ENDS
;	COMDAT ??1domain_error@std@@UAE@XZ
_TEXT	SEGMENT PARA USE32 PUBLIC 'CODE'
_TEXT	ENDS
;	COMDAT ??_Gdomain_error@std@@UAEPAXI@Z
_TEXT	SEGMENT PARA USE32 PUBLIC 'CODE'
_TEXT	ENDS
;	COMDAT ??1invalid_argument@std@@UAE@XZ
_TEXT	SEGMENT PARA USE32 PUBLIC 'CODE'
_TEXT	ENDS
;	COMDAT ??_Ginvalid_argument@std@@UAEPAXI@Z
_TEXT	SEGMENT PARA USE32 PUBLIC 'CODE'
_TEXT	ENDS
;	COMDAT ??1length_error@std@@UAE@XZ
_TEXT	SEGMENT PARA USE32 PUBLIC 'CODE'
_TEXT	ENDS
;	COMDAT ??_Glength_error@std@@UAEPAXI@Z
_TEXT	SEGMENT PARA USE32 PUBLIC 'CODE'
_TEXT	ENDS
;	COMDAT ??1out_of_range@std@@UAE@XZ
_TEXT	SEGMENT PARA USE32 PUBLIC 'CODE'
_TEXT	ENDS
;	COMDAT ??_Gout_of_range@std@@UAEPAXI@Z
_TEXT	SEGMENT PARA USE32 PUBLIC 'CODE'
_TEXT	ENDS
;	COMDAT ??0runtime_error@std@@QAE@ABV?$basic_string@DU?$char_traits@D@std@@V?$allocator@D@2@@1@@Z
_TEXT	SEGMENT PARA USE32 PUBLIC 'CODE'
_TEXT	ENDS
;	COMDAT ??1runtime_error@std@@UAE@XZ
_TEXT	SEGMENT PARA USE32 PUBLIC 'CODE'
_TEXT	ENDS
;	COMDAT ?what@runtime_error@std@@UBEPBDXZ
_TEXT	SEGMENT PARA USE32 PUBLIC 'CODE'
_TEXT	ENDS
;	COMDAT ??_Gruntime_error@std@@UAEPAXI@Z
_TEXT	SEGMENT PARA USE32 PUBLIC 'CODE'
_TEXT	ENDS
;	COMDAT ??1overflow_error@std@@UAE@XZ
_TEXT	SEGMENT PARA USE32 PUBLIC 'CODE'
_TEXT	ENDS
;	COMDAT ??_Goverflow_error@std@@UAEPAXI@Z
_TEXT	SEGMENT PARA USE32 PUBLIC 'CODE'
_TEXT	ENDS
;	COMDAT ??1underflow_error@std@@UAE@XZ
_TEXT	SEGMENT PARA USE32 PUBLIC 'CODE'
_TEXT	ENDS
;	COMDAT ??_Gunderflow_error@std@@UAEPAXI@Z
_TEXT	SEGMENT PARA USE32 PUBLIC 'CODE'
_TEXT	ENDS
;	COMDAT ??1range_error@std@@UAE@XZ
_TEXT	SEGMENT PARA USE32 PUBLIC 'CODE'
_TEXT	ENDS
;	COMDAT ??_Grange_error@std@@UAEPAXI@Z
_TEXT	SEGMENT PARA USE32 PUBLIC 'CODE'
_TEXT	ENDS
;	COMDAT ??B_DebugHeapString@std@@QBE?AV?$basic_string@DU?$char_traits@D@std@@V?$allocator@D@2@@1@XZ
_TEXT	SEGMENT PARA USE32 PUBLIC 'CODE'
_TEXT	ENDS
;	COMDAT ??0_Timevec@std@@QAE@PAX@Z
_TEXT	SEGMENT PARA USE32 PUBLIC 'CODE'
_TEXT	ENDS
;	COMDAT ??1_Timevec@std@@QAE@XZ
_TEXT	SEGMENT PARA USE32 PUBLIC 'CODE'
_TEXT	ENDS
;	COMDAT ??4_Timevec@std@@QAEAAV01@ABV01@@Z
_TEXT	SEGMENT PARA USE32 PUBLIC 'CODE'
_TEXT	ENDS
;	COMDAT ?_Getctype@_Locinfo@std@@QBE?AU_Ctypevec@@XZ
_TEXT	SEGMENT PARA USE32 PUBLIC 'CODE'
_TEXT	ENDS
;	COMDAT ?_Getcvt@_Locinfo@std@@QBE?AU_Cvtvec@@XZ
_TEXT	SEGMENT PARA USE32 PUBLIC 'CODE'
_TEXT	ENDS
;	COMDAT ??Bid@locale@std@@QAEIXZ
_TEXT	SEGMENT PARA USE32 PUBLIC 'CODE'
_TEXT	ENDS
;	COMDAT ?_Incref@facet@locale@std@@QAEXXZ
_TEXT	SEGMENT PARA USE32 PUBLIC 'CODE'
_TEXT	ENDS
;	COMDAT ?_Decref@facet@locale@std@@QAEPAV123@XZ
_TEXT	SEGMENT PARA USE32 PUBLIC 'CODE'
_TEXT	ENDS
;	COMDAT ??1facet@locale@std@@UAE@XZ
_TEXT	SEGMENT PARA USE32 PUBLIC 'CODE'
_TEXT	ENDS
;	COMDAT ??0facet@locale@std@@IAE@I@Z
_TEXT	SEGMENT PARA USE32 PUBLIC 'CODE'
_TEXT	ENDS
;	COMDAT ??0locale@std@@QAE@ABV01@@Z
_TEXT	SEGMENT PARA USE32 PUBLIC 'CODE'
_TEXT	ENDS
;	COMDAT ??1locale@std@@QAE@XZ
_TEXT	SEGMENT PARA USE32 PUBLIC 'CODE'
_TEXT	ENDS
;	COMDAT ??_Gfacet@locale@std@@UAEPAXI@Z
_TEXT	SEGMENT PARA USE32 PUBLIC 'CODE'
_TEXT	ENDS
;	COMDAT ??0codecvt_base@std@@QAE@I@Z
_TEXT	SEGMENT PARA USE32 PUBLIC 'CODE'
_TEXT	ENDS
;	COMDAT ??1codecvt_base@std@@UAE@XZ
_TEXT	SEGMENT PARA USE32 PUBLIC 'CODE'
_TEXT	ENDS
;	COMDAT ?do_always_noconv@codecvt_base@std@@MBE_NXZ
_TEXT	SEGMENT PARA USE32 PUBLIC 'CODE'
_TEXT	ENDS
;	COMDAT ?do_max_length@codecvt_base@std@@MBEHXZ
_TEXT	SEGMENT PARA USE32 PUBLIC 'CODE'
_TEXT	ENDS
;	COMDAT ?do_encoding@codecvt_base@std@@MBEHXZ
_TEXT	SEGMENT PARA USE32 PUBLIC 'CODE'
_TEXT	ENDS
;	COMDAT ??_Gcodecvt_base@std@@UAEPAXI@Z
_TEXT	SEGMENT PARA USE32 PUBLIC 'CODE'
_TEXT	ENDS
;	COMDAT ??0?$codecvt@GDH@std@@QAE@I@Z
_TEXT	SEGMENT PARA USE32 PUBLIC 'CODE'
_TEXT	ENDS
;	COMDAT ??1?$codecvt@GDH@std@@MAE@XZ
_TEXT	SEGMENT PARA USE32 PUBLIC 'CODE'
_TEXT	ENDS
;	COMDAT ?_Init@?$codecvt@GDH@std@@IAEXABV_Locinfo@2@@Z
_TEXT	SEGMENT PARA USE32 PUBLIC 'CODE'
_TEXT	ENDS
;	COMDAT ?do_in@?$codecvt@GDH@std@@MBEHAAHPBD1AAPBDPAG3AAPAG@Z
_TEXT	SEGMENT PARA USE32 PUBLIC 'CODE'
_TEXT	ENDS
;	COMDAT ?do_out@?$codecvt@GDH@std@@MBEHAAHPBG1AAPBGPAD3AAPAD@Z
_TEXT	SEGMENT PARA USE32 PUBLIC 'CODE'
_TEXT	ENDS
;	COMDAT ?do_unshift@?$codecvt@GDH@std@@MBEHAAHPAD1AAPAD@Z
_TEXT	SEGMENT PARA USE32 PUBLIC 'CODE'
_TEXT	ENDS
;	COMDAT ?do_length@?$codecvt@GDH@std@@MBEHABHPBD1I@Z
_TEXT	SEGMENT PARA USE32 PUBLIC 'CODE'
_TEXT	ENDS
;	COMDAT ?do_always_noconv@?$codecvt@GDH@std@@MBE_NXZ
_TEXT	SEGMENT PARA USE32 PUBLIC 'CODE'
_TEXT	ENDS
;	COMDAT ?do_max_length@?$codecvt@GDH@std@@MBEHXZ
_TEXT	SEGMENT PARA USE32 PUBLIC 'CODE'
_TEXT	ENDS
;	COMDAT ?do_encoding@?$codecvt@GDH@std@@MBEHXZ
_TEXT	SEGMENT PARA USE32 PUBLIC 'CODE'
_TEXT	ENDS
;	COMDAT ??_G?$codecvt@GDH@std@@MAEPAXI@Z
_TEXT	SEGMENT PARA USE32 PUBLIC 'CODE'
_TEXT	ENDS
;	COMDAT ??0ctype_base@std@@QAE@I@Z
_TEXT	SEGMENT PARA USE32 PUBLIC 'CODE'
_TEXT	ENDS
;	COMDAT ??1ctype_base@std@@UAE@XZ
_TEXT	SEGMENT PARA USE32 PUBLIC 'CODE'
_TEXT	ENDS
;	COMDAT ??_Gctype_base@std@@UAEPAXI@Z
_TEXT	SEGMENT PARA USE32 PUBLIC 'CODE'
_TEXT	ENDS
;	COMDAT ?is@?$ctype@D@std@@QBE_NFD@Z
_TEXT	SEGMENT PARA USE32 PUBLIC 'CODE'
_TEXT	ENDS
;	COMDAT ??0?$ctype@D@std@@QAE@PBF_NI@Z
_TEXT	SEGMENT PARA USE32 PUBLIC 'CODE'
_TEXT	ENDS
;	COMDAT ?_Getcat@?$ctype@D@std@@SAIPAPBVfacet@locale@2@@Z
_TEXT	SEGMENT PARA USE32 PUBLIC 'CODE'
_TEXT	ENDS
;	COMDAT ??1?$ctype@D@std@@MAE@XZ
_TEXT	SEGMENT PARA USE32 PUBLIC 'CODE'
_TEXT	ENDS
;	COMDAT ?_Init@?$ctype@D@std@@IAEXABV_Locinfo@2@@Z
_TEXT	SEGMENT PARA USE32 PUBLIC 'CODE'
_TEXT	ENDS
;	COMDAT ?_Tidy@?$ctype@D@std@@IAEXXZ
_TEXT	SEGMENT PARA USE32 PUBLIC 'CODE'
_TEXT	ENDS
;	COMDAT ?do_tolower@?$ctype@D@std@@MBEDD@Z
_TEXT	SEGMENT PARA USE32 PUBLIC 'CODE'
_TEXT	ENDS
;	COMDAT ?do_tolower@?$ctype@D@std@@MBEPBDPADPBD@Z
_TEXT	SEGMENT PARA USE32 PUBLIC 'CODE'
_TEXT	ENDS
;	COMDAT ?do_toupper@?$ctype@D@std@@MBEDD@Z
_TEXT	SEGMENT PARA USE32 PUBLIC 'CODE'
_TEXT	ENDS
;	COMDAT ?do_toupper@?$ctype@D@std@@MBEPBDPADPBD@Z
_TEXT	SEGMENT PARA USE32 PUBLIC 'CODE'
_TEXT	ENDS
;	COMDAT ?do_widen@?$ctype@D@std@@MBEDD@Z
_TEXT	SEGMENT PARA USE32 PUBLIC 'CODE'
_TEXT	ENDS
;	COMDAT ?do_widen@?$ctype@D@std@@MBEPBDPBD0PAD@Z
_TEXT	SEGMENT PARA USE32 PUBLIC 'CODE'
_TEXT	ENDS
;	COMDAT ?do_narrow@?$ctype@D@std@@MBEDDD@Z
_TEXT	SEGMENT PARA USE32 PUBLIC 'CODE'
_TEXT	ENDS
;	COMDAT ?do_narrow@?$ctype@D@std@@MBEPBDPBD0DPAD@Z
_TEXT	SEGMENT PARA USE32 PUBLIC 'CODE'
_TEXT	ENDS
;	COMDAT ?table@?$ctype@D@std@@IBEPBFXZ
_TEXT	SEGMENT PARA USE32 PUBLIC 'CODE'
_TEXT	ENDS
;	COMDAT ?is@?$ctype@G@std@@QBE_NFG@Z
_TEXT	SEGMENT PARA USE32 PUBLIC 'CODE'
_TEXT	ENDS
;	COMDAT ??0?$ctype@G@std@@QAE@I@Z
_TEXT	SEGMENT PARA USE32 PUBLIC 'CODE'
_TEXT	ENDS
;	COMDAT ?_Getcat@?$ctype@G@std@@SAIPAPBVfacet@locale@2@@Z
_TEXT	SEGMENT PARA USE32 PUBLIC 'CODE'
_TEXT	ENDS
;	COMDAT ??1?$ctype@G@std@@MAE@XZ
_TEXT	SEGMENT PARA USE32 PUBLIC 'CODE'
_TEXT	ENDS
;	COMDAT ?_Init@?$ctype@G@std@@IAEXABV_Locinfo@2@@Z
_TEXT	SEGMENT PARA USE32 PUBLIC 'CODE'
_TEXT	ENDS
;	COMDAT ?do_is@?$ctype@G@std@@MBE_NFG@Z
_TEXT	SEGMENT PARA USE32 PUBLIC 'CODE'
_TEXT	ENDS
;	COMDAT ?do_is@?$ctype@G@std@@MBEPBGPBG0PAF@Z
_TEXT	SEGMENT PARA USE32 PUBLIC 'CODE'
_TEXT	ENDS
;	COMDAT ?do_scan_is@?$ctype@G@std@@MBEPBGFPBG0@Z
_TEXT	SEGMENT PARA USE32 PUBLIC 'CODE'
_TEXT	ENDS
;	COMDAT ?do_scan_not@?$ctype@G@std@@MBEPBGFPBG0@Z
_TEXT	SEGMENT PARA USE32 PUBLIC 'CODE'
_TEXT	ENDS
;	COMDAT ?do_tolower@?$ctype@G@std@@MBEGG@Z
_TEXT	SEGMENT PARA USE32 PUBLIC 'CODE'
_TEXT	ENDS
;	COMDAT ?do_tolower@?$ctype@G@std@@MBEPBGPAGPBG@Z
_TEXT	SEGMENT PARA USE32 PUBLIC 'CODE'
_TEXT	ENDS
;	COMDAT ?do_toupper@?$ctype@G@std@@MBEGG@Z
_TEXT	SEGMENT PARA USE32 PUBLIC 'CODE'
_TEXT	ENDS
;	COMDAT ?do_toupper@?$ctype@G@std@@MBEPBGPAGPBG@Z
_TEXT	SEGMENT PARA USE32 PUBLIC 'CODE'
_TEXT	ENDS
;	COMDAT ?_Dowiden@?$ctype@G@std@@IBEGD@Z
_TEXT	SEGMENT PARA USE32 PUBLIC 'CODE'
_TEXT	ENDS
;	COMDAT ?do_widen@?$ctype@G@std@@MBEGD@Z
_TEXT	SEGMENT PARA USE32 PUBLIC 'CODE'
_TEXT	ENDS
;	COMDAT ?do_widen@?$ctype@G@std@@MBEPBDPBD0PAG@Z
_TEXT	SEGMENT PARA USE32 PUBLIC 'CODE'
_TEXT	ENDS
;	COMDAT ?_Donarrow@?$ctype@G@std@@IBEDGD@Z
_TEXT	SEGMENT PARA USE32 PUBLIC 'CODE'
_TEXT	ENDS
;	COMDAT ?do_narrow@?$ctype@G@std@@MBEDGD@Z
_TEXT	SEGMENT PARA USE32 PUBLIC 'CODE'
_TEXT	ENDS
;	COMDAT ?do_narrow@?$ctype@G@std@@MBEPBGPBG0DPAD@Z
_TEXT	SEGMENT PARA USE32 PUBLIC 'CODE'
_TEXT	ENDS
;	COMDAT ??_G?$ctype@D@std@@MAEPAXI@Z
_TEXT	SEGMENT PARA USE32 PUBLIC 'CODE'
_TEXT	ENDS
;	COMDAT ??_G?$ctype@G@std@@MAEPAXI@Z
_TEXT	SEGMENT PARA USE32 PUBLIC 'CODE'
_TEXT	ENDS
;	COMDAT ??1failure@ios_base@std@@UAE@XZ
_TEXT	SEGMENT PARA USE32 PUBLIC 'CODE'
_TEXT	ENDS
;	COMDAT ?clear@ios_base@std@@QAEXH@Z
_TEXT	SEGMENT PARA USE32 PUBLIC 'CODE'
_TEXT	ENDS
;	COMDAT ?rdstate@ios_base@std@@QBEHXZ
_TEXT	SEGMENT PARA USE32 PUBLIC 'CODE'
_TEXT	ENDS
;	COMDAT ?setstate@ios_base@std@@QAEXH@Z
_TEXT	SEGMENT PARA USE32 PUBLIC 'CODE'
_TEXT	ENDS
;	COMDAT ?good@ios_base@std@@QBE_NXZ
_TEXT	SEGMENT PARA USE32 PUBLIC 'CODE'
_TEXT	ENDS
;	COMDAT ?eof@ios_base@std@@QBE_NXZ
_TEXT	SEGMENT PARA USE32 PUBLIC 'CODE'
_TEXT	ENDS
;	COMDAT ?fail@ios_base@std@@QBE_NXZ
_TEXT	SEGMENT PARA USE32 PUBLIC 'CODE'
_TEXT	ENDS
;	COMDAT ?exceptions@ios_base@std@@QAEXH@Z
_TEXT	SEGMENT PARA USE32 PUBLIC 'CODE'
_TEXT	ENDS
;	COMDAT ?flags@ios_base@std@@QBEHXZ
_TEXT	SEGMENT PARA USE32 PUBLIC 'CODE'
_TEXT	ENDS
;	COMDAT ?setf@ios_base@std@@QAEHH@Z
_TEXT	SEGMENT PARA USE32 PUBLIC 'CODE'
_TEXT	ENDS
;	COMDAT ?setf@ios_base@std@@QAEHHH@Z
_TEXT	SEGMENT PARA USE32 PUBLIC 'CODE'
_TEXT	ENDS
;	COMDAT ?unsetf@ios_base@std@@QAEXH@Z
_TEXT	SEGMENT PARA USE32 PUBLIC 'CODE'
_TEXT	ENDS
;	COMDAT ?width@ios_base@std@@QBEHXZ
_TEXT	SEGMENT PARA USE32 PUBLIC 'CODE'
_TEXT	ENDS
;	COMDAT ?width@ios_base@std@@QAEHH@Z
_TEXT	SEGMENT PARA USE32 PUBLIC 'CODE'
_TEXT	ENDS
;	COMDAT ?getloc@ios_base@std@@QBE?AVlocale@2@XZ
_TEXT	SEGMENT PARA USE32 PUBLIC 'CODE'
_TEXT	ENDS
;	COMDAT ??_Gfailure@ios_base@std@@UAEPAXI@Z
_TEXT	SEGMENT PARA USE32 PUBLIC 'CODE'
_TEXT	ENDS
;	COMDAT ??_Gios_base@std@@UAEPAXI@Z
_TEXT	SEGMENT PARA USE32 PUBLIC 'CODE'
_TEXT	ENDS
;	COMDAT ??1sentry@?$basic_istream@GU?$char_traits@G@std@@@std@@QAE@XZ
_TEXT	SEGMENT PARA USE32 PUBLIC 'CODE'
_TEXT	ENDS
;	COMDAT ??1sentry@?$basic_istream@DU?$char_traits@D@std@@@std@@QAE@XZ
_TEXT	SEGMENT PARA USE32 PUBLIC 'CODE'
_TEXT	ENDS
;	COMDAT ?_AtlInstallStringThunk@ATL@@YAXPAPAXPAX1@Z
_TEXT	SEGMENT PARA USE32 PUBLIC 'CODE'
_TEXT	ENDS
;	COMDAT ?GetEnvironmentVariableWFake@ATL@@YGKPBGPAGK@Z
_TEXT	SEGMENT PARA USE32 PUBLIC 'CODE'
_TEXT	ENDS
;	COMDAT ?GetEnvironmentVariableWThunk@ATL@@YGKPBGPAGK@Z
_TEXT	SEGMENT PARA USE32 PUBLIC 'CODE'
_TEXT	ENDS
;	COMDAT ?CompareStringWFake@ATL@@YGHKKPBGH0H@Z
_TEXT	SEGMENT PARA USE32 PUBLIC 'CODE'
_TEXT	ENDS
;	COMDAT ?CompareStringWThunk@ATL@@YGHKKPBGH0H@Z
_TEXT	SEGMENT PARA USE32 PUBLIC 'CODE'
_TEXT	ENDS
;	COMDAT ?GetStringTypeExWFake@ATL@@YGHKKPBGHPAG@Z
_TEXT	SEGMENT PARA USE32 PUBLIC 'CODE'
_TEXT	ENDS
;	COMDAT ?GetStringTypeExWThunk@ATL@@YGHKKPBGHPAG@Z
_TEXT	SEGMENT PARA USE32 PUBLIC 'CODE'
_TEXT	ENDS
;	COMDAT ?lstrcmpiWFake@ATL@@YGHPBG0@Z
_TEXT	SEGMENT PARA USE32 PUBLIC 'CODE'
_TEXT	ENDS
;	COMDAT ?lstrcmpiWThunk@ATL@@YGHPBG0@Z
_TEXT	SEGMENT PARA USE32 PUBLIC 'CODE'
_TEXT	ENDS
;	COMDAT ?CharLowerWFake@ATL@@YGPAGPAG@Z
_TEXT	SEGMENT PARA USE32 PUBLIC 'CODE'
_TEXT	ENDS
;	COMDAT ?CharLowerWThunk@ATL@@YGPAGPAG@Z
_TEXT	SEGMENT PARA USE32 PUBLIC 'CODE'
_TEXT	ENDS
;	COMDAT ?CharUpperWFake@ATL@@YGPAGPAG@Z
_TEXT	SEGMENT PARA USE32 PUBLIC 'CODE'
_TEXT	ENDS
;	COMDAT ?CharUpperWThunk@ATL@@YGPAGPAG@Z
_TEXT	SEGMENT PARA USE32 PUBLIC 'CODE'
_TEXT	ENDS
;	COMDAT ?_GetEnvironmentVariableW@?$ChTraitsCRT@G@ATL@@CGKPBGPAGK@Z
_TEXT	SEGMENT PARA USE32 PUBLIC 'CODE'
_TEXT	ENDS
;	COMDAT ?StringFindString@?$ChTraitsCRT@G@ATL@@SAPBGPBG0@Z
_TEXT	SEGMENT PARA USE32 PUBLIC 'CODE'
_TEXT	ENDS
;	COMDAT ??1CFixedStringMgr@ATL@@UAE@XZ
_TEXT	SEGMENT PARA USE32 PUBLIC 'CODE'
_TEXT	ENDS
;	COMDAT ?Allocate@CFixedStringMgr@ATL@@UAEPAUCStringData@2@HH@Z
_TEXT	SEGMENT PARA USE32 PUBLIC 'CODE'
_TEXT	ENDS
;	COMDAT ?Free@CFixedStringMgr@ATL@@UAEXPAUCStringData@2@@Z
_TEXT	SEGMENT PARA USE32 PUBLIC 'CODE'
_TEXT	ENDS
;	COMDAT ?Reallocate@CFixedStringMgr@ATL@@UAEPAUCStringData@2@PAU32@HH@Z
_TEXT	SEGMENT PARA USE32 PUBLIC 'CODE'
_TEXT	ENDS
;	COMDAT ?GetNilString@CFixedStringMgr@ATL@@UAEPAUCStringData@2@XZ
_TEXT	SEGMENT PARA USE32 PUBLIC 'CODE'
_TEXT	ENDS
;	COMDAT ?Clone@CFixedStringMgr@ATL@@UAEPAUIAtlStringMgr@2@XZ
_TEXT	SEGMENT PARA USE32 PUBLIC 'CODE'
_TEXT	ENDS
;	COMDAT ??_GCFixedStringMgr@ATL@@UAEPAXI@Z
_TEXT	SEGMENT PARA USE32 PUBLIC 'CODE'
_TEXT	ENDS
;	COMDAT ??1CFixedStringLog@ATL@@UAE@XZ
_TEXT	SEGMENT PARA USE32 PUBLIC 'CODE'
_TEXT	ENDS
;	COMDAT ?OnAllocateSpill@CFixedStringLog@ATL@@UAEXHHPBUCStringData@2@@Z
_TEXT	SEGMENT PARA USE32 PUBLIC 'CODE'
_TEXT	ENDS
;	COMDAT ?OnReallocateSpill@CFixedStringLog@ATL@@UAEXHHPBUCStringData@2@@Z
_TEXT	SEGMENT PARA USE32 PUBLIC 'CODE'
_TEXT	ENDS
;	COMDAT ??_GCFixedStringLog@ATL@@UAEPAXI@Z
_TEXT	SEGMENT PARA USE32 PUBLIC 'CODE'
_TEXT	ENDS
;	COMDAT ??0IFixedStringLog@ATL@@QAE@XZ
_TEXT	SEGMENT PARA USE32 PUBLIC 'CODE'
_TEXT	ENDS
;	COMDAT ??1CAtlStringMgr@ATL@@UAE@XZ
_TEXT	SEGMENT PARA USE32 PUBLIC 'CODE'
_TEXT	ENDS
;	COMDAT ?Allocate@CAtlStringMgr@ATL@@UAEPAUCStringData@2@HH@Z
_TEXT	SEGMENT PARA USE32 PUBLIC 'CODE'
_TEXT	ENDS
;	COMDAT ?Free@CAtlStringMgr@ATL@@UAEXPAUCStringData@2@@Z
_TEXT	SEGMENT PARA USE32 PUBLIC 'CODE'
_TEXT	ENDS
;	COMDAT ?Reallocate@CAtlStringMgr@ATL@@UAEPAUCStringData@2@PAU32@HH@Z
_TEXT	SEGMENT PARA USE32 PUBLIC 'CODE'
_TEXT	ENDS
;	COMDAT ?GetNilString@CAtlStringMgr@ATL@@UAEPAUCStringData@2@XZ
_TEXT	SEGMENT PARA USE32 PUBLIC 'CODE'
_TEXT	ENDS
;	COMDAT ?Clone@CAtlStringMgr@ATL@@UAEPAUIAtlStringMgr@2@XZ
_TEXT	SEGMENT PARA USE32 PUBLIC 'CODE'
_TEXT	ENDS
;	COMDAT ??_GCAtlStringMgr@ATL@@UAEPAXI@Z
_TEXT	SEGMENT PARA USE32 PUBLIC 'CODE'
_TEXT	ENDS
;	COMDAT ?CompareStringW@?$ChTraitsOS@G@ATL@@KGHKKPBGH0H@Z
_TEXT	SEGMENT PARA USE32 PUBLIC 'CODE'
_TEXT	ENDS
;	COMDAT ?GetStringTypeExW@?$ChTraitsOS@G@ATL@@KGHKKPBGHPAG@Z
_TEXT	SEGMENT PARA USE32 PUBLIC 'CODE'
_TEXT	ENDS
;	COMDAT ?lstrcmpiW@?$ChTraitsOS@G@ATL@@KGHPBG0@Z
_TEXT	SEGMENT PARA USE32 PUBLIC 'CODE'
_TEXT	ENDS
;	COMDAT ?CharLowerW@?$ChTraitsOS@G@ATL@@KGPAGPAG@Z
_TEXT	SEGMENT PARA USE32 PUBLIC 'CODE'
_TEXT	ENDS
;	COMDAT ?CharUpperW@?$ChTraitsOS@G@ATL@@KGPAGPAG@Z
_TEXT	SEGMENT PARA USE32 PUBLIC 'CODE'
_TEXT	ENDS
;	COMDAT ?strchr@?$ChTraitsOS@G@ATL@@SAPBGPBGG@Z
_TEXT	SEGMENT PARA USE32 PUBLIC 'CODE'
_TEXT	ENDS
;	COMDAT ?strrchr@?$ChTraitsOS@G@ATL@@SAPBGPBGG@Z
_TEXT	SEGMENT PARA USE32 PUBLIC 'CODE'
_TEXT	ENDS
;	COMDAT ?_strrev@?$ChTraitsOS@G@ATL@@SAPAGPAG@Z
_TEXT	SEGMENT PARA USE32 PUBLIC 'CODE'
_TEXT	ENDS
;	COMDAT ?strstr@?$ChTraitsOS@G@ATL@@SAPBGPBG0@Z
_TEXT	SEGMENT PARA USE32 PUBLIC 'CODE'
_TEXT	ENDS
;	COMDAT ?strspn@?$ChTraitsOS@G@ATL@@SAHPBG0@Z
_TEXT	SEGMENT PARA USE32 PUBLIC 'CODE'
_TEXT	ENDS
;	COMDAT ?strcspn@?$ChTraitsOS@G@ATL@@SAHPBG0@Z
_TEXT	SEGMENT PARA USE32 PUBLIC 'CODE'
_TEXT	ENDS
;	COMDAT ?strpbrk@?$ChTraitsOS@G@ATL@@SAPBGPBG0@Z
_TEXT	SEGMENT PARA USE32 PUBLIC 'CODE'
_TEXT	ENDS
;	COMDAT ?StringFindString@?$ChTraitsOS@G@ATL@@SAPBGPBG0@Z
_TEXT	SEGMENT PARA USE32 PUBLIC 'CODE'
_TEXT	ENDS
;	COMDAT ?Format@CTimeSpan@ATL@@QBE?AV?$CStringT@DV?$StrTraitATL@DV?$ChTraitsCRT@D@ATL@@@ATL@@@2@PBD@Z
_TEXT	SEGMENT PARA USE32 PUBLIC 'CODE'
_TEXT	ENDS
;	COMDAT ?Format@CTime@ATL@@QBE?AV?$CStringT@DV?$StrTraitATL@DV?$ChTraitsCRT@D@ATL@@@ATL@@@2@PBD@Z
_TEXT	SEGMENT PARA USE32 PUBLIC 'CODE'
_TEXT	ENDS
;	COMDAT ?FormatGmt@CTime@ATL@@QBE?AV?$CStringT@DV?$StrTraitATL@DV?$ChTraitsCRT@D@ATL@@@ATL@@@2@PBD@Z
_TEXT	SEGMENT PARA USE32 PUBLIC 'CODE'
_TEXT	ENDS
;	COMDAT ??_GCLicense@@UAEPAXI@Z
_TEXT	SEGMENT PARA USE32 PUBLIC 'CODE'
_TEXT	ENDS
;	COMDAT ??B?$CComPtrBase@UITypeInfo2@@@ATL@@QBEPAUITypeInfo2@@XZ
_TEXT	SEGMENT PARA USE32 PUBLIC 'CODE'
_TEXT	ENDS
;	COMDAT ??B?$CSimpleStringT@D$0A@@ATL@@QBEPBDXZ
_TEXT	SEGMENT PARA USE32 PUBLIC 'CODE'
_TEXT	ENDS
;	COMDAT ?Preallocate@?$CSimpleStringT@D$0A@@ATL@@QAEXH@Z
_TEXT	SEGMENT PARA USE32 PUBLIC 'CODE'
_TEXT	ENDS
;	COMDAT ??0?$CComObject@VCAxFrameWindow@ATL@@@ATL@@QAE@PAX@Z
_TEXT	SEGMENT PARA USE32 PUBLIC 'CODE'
_TEXT	ENDS
;	COMDAT ??0?$CComObject@VCAxUIWindow@ATL@@@ATL@@QAE@PAX@Z
_TEXT	SEGMENT PARA USE32 PUBLIC 'CODE'
_TEXT	ENDS
;	COMDAT ?copy@?$_CopyInterface@UIUnknown@@@ATL@@SAJPAPAUIUnknown@@0@Z
_TEXT	SEGMENT PARA USE32 PUBLIC 'CODE'
_TEXT	ENDS
;	COMDAT ?init@?$_CopyInterface@UIUnknown@@@ATL@@SAXPAPAUIUnknown@@@Z
_TEXT	SEGMENT PARA USE32 PUBLIC 'CODE'
_TEXT	ENDS
;	COMDAT ?destroy@?$_CopyInterface@UIUnknown@@@ATL@@SAXPAPAUIUnknown@@@Z
_TEXT	SEGMENT PARA USE32 PUBLIC 'CODE'
_TEXT	ENDS
;	COMDAT ??0?$basic_string@DU?$char_traits@D@std@@V?$allocator@D@2@@std@@QAE@XZ
_TEXT	SEGMENT PARA USE32 PUBLIC 'CODE'
_TEXT	ENDS
;	COMDAT ??0?$basic_string@DU?$char_traits@D@std@@V?$allocator@D@2@@std@@QAE@ABV01@@Z
_TEXT	SEGMENT PARA USE32 PUBLIC 'CODE'
_TEXT	ENDS
;	COMDAT ??0?$basic_string@DU?$char_traits@D@std@@V?$allocator@D@2@@std@@QAE@PBD@Z
_TEXT	SEGMENT PARA USE32 PUBLIC 'CODE'
_TEXT	ENDS
;	COMDAT ??1?$basic_string@DU?$char_traits@D@std@@V?$allocator@D@2@@std@@QAE@XZ
_TEXT	SEGMENT PARA USE32 PUBLIC 'CODE'
_TEXT	ENDS
;	COMDAT ??4?$basic_string@DU?$char_traits@D@std@@V?$allocator@D@2@@std@@QAEAAV01@PBD@Z
_TEXT	SEGMENT PARA USE32 PUBLIC 'CODE'
_TEXT	ENDS
;	COMDAT ?c_str@?$basic_string@DU?$char_traits@D@std@@V?$allocator@D@2@@std@@QBEPBDXZ
_TEXT	SEGMENT PARA USE32 PUBLIC 'CODE'
_TEXT	ENDS
;	COMDAT ?length@?$basic_string@DU?$char_traits@D@std@@V?$allocator@D@2@@std@@QBEIXZ
_TEXT	SEGMENT PARA USE32 PUBLIC 'CODE'
_TEXT	ENDS
;	COMDAT ?size@?$basic_string@DU?$char_traits@D@std@@V?$allocator@D@2@@std@@QBEIXZ
_TEXT	SEGMENT PARA USE32 PUBLIC 'CODE'
_TEXT	ENDS
;	COMDAT ??0?$basic_string@DU?$char_traits@D@std@@V?$_DebugHeapAllocator@D@2@@std@@QAE@XZ
_TEXT	SEGMENT PARA USE32 PUBLIC 'CODE'
_TEXT	ENDS
;	COMDAT ??0?$basic_string@DU?$char_traits@D@std@@V?$_DebugHeapAllocator@D@2@@std@@QAE@ABV01@@Z
_TEXT	SEGMENT PARA USE32 PUBLIC 'CODE'
_TEXT	ENDS
;	COMDAT ??0?$basic_string@DU?$char_traits@D@std@@V?$_DebugHeapAllocator@D@2@@std@@QAE@PBD@Z
_TEXT	SEGMENT PARA USE32 PUBLIC 'CODE'
_TEXT	ENDS
;	COMDAT ??1?$basic_string@DU?$char_traits@D@std@@V?$_DebugHeapAllocator@D@2@@std@@QAE@XZ
_TEXT	SEGMENT PARA USE32 PUBLIC 'CODE'
_TEXT	ENDS
;	COMDAT ?c_str@?$basic_string@DU?$char_traits@D@std@@V?$_DebugHeapAllocator@D@2@@std@@QBEPBDXZ
_TEXT	SEGMENT PARA USE32 PUBLIC 'CODE'
_TEXT	ENDS
;	COMDAT ??1?$basic_ostream@GU?$char_traits@G@std@@@std@@UAE@XZ
_TEXT	SEGMENT PARA USE32 PUBLIC 'CODE'
_TEXT	ENDS
;	COMDAT ?put@?$basic_ostream@GU?$char_traits@G@std@@@std@@QAEAAV12@G@Z
_TEXT	SEGMENT PARA USE32 PUBLIC 'CODE'
_TEXT	ENDS
;	COMDAT ?flush@?$basic_ostream@GU?$char_traits@G@std@@@std@@QAEAAV12@XZ
_TEXT	SEGMENT PARA USE32 PUBLIC 'CODE'
_TEXT	ENDS
;	COMDAT ??1?$basic_ios@GU?$char_traits@G@std@@@std@@UAE@XZ
_TEXT	SEGMENT PARA USE32 PUBLIC 'CODE'
_TEXT	ENDS
;	COMDAT ?setstate@?$basic_ios@GU?$char_traits@G@std@@@std@@QAEXH_N@Z
_TEXT	SEGMENT PARA USE32 PUBLIC 'CODE'
_TEXT	ENDS
;	COMDAT ?rdbuf@?$basic_ios@GU?$char_traits@G@std@@@std@@QBEPAV?$basic_streambuf@GU?$char_traits@G@std@@@2@XZ
_TEXT	SEGMENT PARA USE32 PUBLIC 'CODE'
_TEXT	ENDS
;	COMDAT ?fill@?$basic_ios@GU?$char_traits@G@std@@@std@@QBEGXZ
_TEXT	SEGMENT PARA USE32 PUBLIC 'CODE'
_TEXT	ENDS
;	COMDAT ??0sentry@?$basic_ostream@GU?$char_traits@G@std@@@std@@QAE@AAV12@@Z
_TEXT	SEGMENT PARA USE32 PUBLIC 'CODE'
_TEXT	ENDS
;	COMDAT ??1sentry@?$basic_ostream@GU?$char_traits@G@std@@@std@@QAE@XZ
_TEXT	SEGMENT PARA USE32 PUBLIC 'CODE'
_TEXT	ENDS
;	COMDAT ??Bsentry@?$basic_ostream@GU?$char_traits@G@std@@@std@@QBE_NXZ
_TEXT	SEGMENT PARA USE32 PUBLIC 'CODE'
_TEXT	ENDS
;	COMDAT ??1?$basic_streambuf@GU?$char_traits@G@std@@@std@@UAE@XZ
_TEXT	SEGMENT PARA USE32 PUBLIC 'CODE'
_TEXT	ENDS
;	COMDAT ?sbumpc@?$basic_streambuf@GU?$char_traits@G@std@@@std@@QAEGXZ
_TEXT	SEGMENT PARA USE32 PUBLIC 'CODE'
_TEXT	ENDS
;	COMDAT ?sgetc@?$basic_streambuf@GU?$char_traits@G@std@@@std@@QAEGXZ
_TEXT	SEGMENT PARA USE32 PUBLIC 'CODE'
_TEXT	ENDS
;	COMDAT ?snextc@?$basic_streambuf@GU?$char_traits@G@std@@@std@@QAEGXZ
_TEXT	SEGMENT PARA USE32 PUBLIC 'CODE'
_TEXT	ENDS
;	COMDAT ?sputc@?$basic_streambuf@GU?$char_traits@G@std@@@std@@QAEGG@Z
_TEXT	SEGMENT PARA USE32 PUBLIC 'CODE'
_TEXT	ENDS
;	COMDAT ?overflow@?$basic_streambuf@GU?$char_traits@G@std@@@std@@MAEGG@Z
_TEXT	SEGMENT PARA USE32 PUBLIC 'CODE'
_TEXT	ENDS
;	COMDAT ?pbackfail@?$basic_streambuf@GU?$char_traits@G@std@@@std@@MAEGG@Z
_TEXT	SEGMENT PARA USE32 PUBLIC 'CODE'
_TEXT	ENDS
;	COMDAT ?showmanyc@?$basic_streambuf@GU?$char_traits@G@std@@@std@@MAEHXZ
_TEXT	SEGMENT PARA USE32 PUBLIC 'CODE'
_TEXT	ENDS
;	COMDAT ?underflow@?$basic_streambuf@GU?$char_traits@G@std@@@std@@MAEGXZ
_TEXT	SEGMENT PARA USE32 PUBLIC 'CODE'
_TEXT	ENDS
;	COMDAT ?uflow@?$basic_streambuf@GU?$char_traits@G@std@@@std@@MAEGXZ
_TEXT	SEGMENT PARA USE32 PUBLIC 'CODE'
_TEXT	ENDS
;	COMDAT ?xsgetn@?$basic_streambuf@GU?$char_traits@G@std@@@std@@MAEHPAGH@Z
_TEXT	SEGMENT PARA USE32 PUBLIC 'CODE'
_TEXT	ENDS
;	COMDAT ?xsputn@?$basic_streambuf@GU?$char_traits@G@std@@@std@@MAEHPBGH@Z
_TEXT	SEGMENT PARA USE32 PUBLIC 'CODE'
_TEXT	ENDS
;	COMDAT ?seekoff@?$basic_streambuf@GU?$char_traits@G@std@@@std@@MAE?AV?$fpos@H@2@JHH@Z
_TEXT	SEGMENT PARA USE32 PUBLIC 'CODE'
_TEXT	ENDS
;	COMDAT ?seekpos@?$basic_streambuf@GU?$char_traits@G@std@@@std@@MAE?AV?$fpos@H@2@V32@H@Z
_TEXT	SEGMENT PARA USE32 PUBLIC 'CODE'
_TEXT	ENDS
;	COMDAT ?setbuf@?$basic_streambuf@GU?$char_traits@G@std@@@std@@MAEPAV12@PAGH@Z
_TEXT	SEGMENT PARA USE32 PUBLIC 'CODE'
_TEXT	ENDS
;	COMDAT ?sync@?$basic_streambuf@GU?$char_traits@G@std@@@std@@MAEHXZ
_TEXT	SEGMENT PARA USE32 PUBLIC 'CODE'
_TEXT	ENDS
;	COMDAT ?imbue@?$basic_streambuf@GU?$char_traits@G@std@@@std@@MAEXABVlocale@2@@Z
_TEXT	SEGMENT PARA USE32 PUBLIC 'CODE'
_TEXT	ENDS
;	COMDAT ??1?$basic_ostream@DU?$char_traits@D@std@@@std@@UAE@XZ
_TEXT	SEGMENT PARA USE32 PUBLIC 'CODE'
_TEXT	ENDS
;	COMDAT ?put@?$basic_ostream@DU?$char_traits@D@std@@@std@@QAEAAV12@D@Z
_TEXT	SEGMENT PARA USE32 PUBLIC 'CODE'
_TEXT	ENDS
;	COMDAT ?flush@?$basic_ostream@DU?$char_traits@D@std@@@std@@QAEAAV12@XZ
_TEXT	SEGMENT PARA USE32 PUBLIC 'CODE'
_TEXT	ENDS
;	COMDAT ??1?$basic_ios@DU?$char_traits@D@std@@@std@@UAE@XZ
_TEXT	SEGMENT PARA USE32 PUBLIC 'CODE'
_TEXT	ENDS
;	COMDAT ?setstate@?$basic_ios@DU?$char_traits@D@std@@@std@@QAEXH_N@Z
_TEXT	SEGMENT PARA USE32 PUBLIC 'CODE'
_TEXT	ENDS
;	COMDAT ?rdbuf@?$basic_ios@DU?$char_traits@D@std@@@std@@QBEPAV?$basic_streambuf@DU?$char_traits@D@std@@@2@XZ
_TEXT	SEGMENT PARA USE32 PUBLIC 'CODE'
_TEXT	ENDS
;	COMDAT ??1?$basic_istream@GU?$char_traits@G@std@@@std@@UAE@XZ
_TEXT	SEGMENT PARA USE32 PUBLIC 'CODE'
_TEXT	ENDS
;	COMDAT ??0sentry@?$basic_istream@GU?$char_traits@G@std@@@std@@QAE@AAV12@_N@Z
_TEXT	SEGMENT PARA USE32 PUBLIC 'CODE'
_TEXT	ENDS
;	COMDAT ??Bsentry@?$basic_istream@GU?$char_traits@G@std@@@std@@QBE_NXZ
_TEXT	SEGMENT PARA USE32 PUBLIC 'CODE'
_TEXT	ENDS
;	COMDAT ??1_Sentry_base@?$basic_istream@GU?$char_traits@G@std@@@std@@QAE@XZ
_TEXT	SEGMENT PARA USE32 PUBLIC 'CODE'
_TEXT	ENDS
;	COMDAT ??1?$basic_istream@DU?$char_traits@D@std@@@std@@UAE@XZ
_TEXT	SEGMENT PARA USE32 PUBLIC 'CODE'
_TEXT	ENDS
;	COMDAT ??0sentry@?$basic_istream@DU?$char_traits@D@std@@@std@@QAE@AAV12@_N@Z
_TEXT	SEGMENT PARA USE32 PUBLIC 'CODE'
_TEXT	ENDS
;	COMDAT ??Bsentry@?$basic_istream@DU?$char_traits@D@std@@@std@@QBE_NXZ
_TEXT	SEGMENT PARA USE32 PUBLIC 'CODE'
_TEXT	ENDS
;	COMDAT ??1_Sentry_base@?$basic_istream@DU?$char_traits@D@std@@@std@@QAE@XZ
_TEXT	SEGMENT PARA USE32 PUBLIC 'CODE'
_TEXT	ENDS
;	COMDAT ??1?$basic_streambuf@DU?$char_traits@D@std@@@std@@UAE@XZ
_TEXT	SEGMENT PARA USE32 PUBLIC 'CODE'
_TEXT	ENDS
;	COMDAT ?sgetc@?$basic_streambuf@DU?$char_traits@D@std@@@std@@QAEHXZ
_TEXT	SEGMENT PARA USE32 PUBLIC 'CODE'
_TEXT	ENDS
;	COMDAT ?snextc@?$basic_streambuf@DU?$char_traits@D@std@@@std@@QAEHXZ
_TEXT	SEGMENT PARA USE32 PUBLIC 'CODE'
_TEXT	ENDS
;	COMDAT ?overflow@?$basic_streambuf@DU?$char_traits@D@std@@@std@@MAEHH@Z
_TEXT	SEGMENT PARA USE32 PUBLIC 'CODE'
_TEXT	ENDS
;	COMDAT ?pbackfail@?$basic_streambuf@DU?$char_traits@D@std@@@std@@MAEHH@Z
_TEXT	SEGMENT PARA USE32 PUBLIC 'CODE'
_TEXT	ENDS
;	COMDAT ?showmanyc@?$basic_streambuf@DU?$char_traits@D@std@@@std@@MAEHXZ
_TEXT	SEGMENT PARA USE32 PUBLIC 'CODE'
_TEXT	ENDS
;	COMDAT ?underflow@?$basic_streambuf@DU?$char_traits@D@std@@@std@@MAEHXZ
_TEXT	SEGMENT PARA USE32 PUBLIC 'CODE'
_TEXT	ENDS
;	COMDAT ?uflow@?$basic_streambuf@DU?$char_traits@D@std@@@std@@MAEHXZ
_TEXT	SEGMENT PARA USE32 PUBLIC 'CODE'
_TEXT	ENDS
;	COMDAT ?xsgetn@?$basic_streambuf@DU?$char_traits@D@std@@@std@@MAEHPADH@Z
_TEXT	SEGMENT PARA USE32 PUBLIC 'CODE'
_TEXT	ENDS
;	COMDAT ?xsputn@?$basic_streambuf@DU?$char_traits@D@std@@@std@@MAEHPBDH@Z
_TEXT	SEGMENT PARA USE32 PUBLIC 'CODE'
_TEXT	ENDS
;	COMDAT ?seekoff@?$basic_streambuf@DU?$char_traits@D@std@@@std@@MAE?AV?$fpos@H@2@JHH@Z
_TEXT	SEGMENT PARA USE32 PUBLIC 'CODE'
_TEXT	ENDS
;	COMDAT ?seekpos@?$basic_streambuf@DU?$char_traits@D@std@@@std@@MAE?AV?$fpos@H@2@V32@H@Z
_TEXT	SEGMENT PARA USE32 PUBLIC 'CODE'
_TEXT	ENDS
;	COMDAT ?setbuf@?$basic_streambuf@DU?$char_traits@D@std@@@std@@MAEPAV12@PADH@Z
_TEXT	SEGMENT PARA USE32 PUBLIC 'CODE'
_TEXT	ENDS
;	COMDAT ?sync@?$basic_streambuf@DU?$char_traits@D@std@@@std@@MAEHXZ
_TEXT	SEGMENT PARA USE32 PUBLIC 'CODE'
_TEXT	ENDS
;	COMDAT ?imbue@?$basic_streambuf@DU?$char_traits@D@std@@@std@@MAEXABVlocale@2@@Z
_TEXT	SEGMENT PARA USE32 PUBLIC 'CODE'
_TEXT	ENDS
;	COMDAT ??0?$CW2AEX@$0IA@@ATL@@QAE@PBG@Z
_TEXT	SEGMENT PARA USE32 PUBLIC 'CODE'
_TEXT	ENDS
;	COMDAT ??1?$CW2AEX@$0IA@@ATL@@QAE@XZ
_TEXT	SEGMENT PARA USE32 PUBLIC 'CODE'
_TEXT	ENDS
;	COMDAT ??B?$CW2AEX@$0IA@@ATL@@QBEPADXZ
_TEXT	SEGMENT PARA USE32 PUBLIC 'CODE'
_TEXT	ENDS
;	COMDAT ??0?$CStringT@DV?$StrTraitATL@DV?$ChTraitsCRT@D@ATL@@@ATL@@@ATL@@QAE@XZ
_TEXT	SEGMENT PARA USE32 PUBLIC 'CODE'
_TEXT	ENDS
;	COMDAT ??0?$CStringT@DV?$StrTraitATL@DV?$ChTraitsCRT@D@ATL@@@ATL@@@ATL@@QAE@ABV01@@Z
_TEXT	SEGMENT PARA USE32 PUBLIC 'CODE'
_TEXT	ENDS
;	COMDAT ??0?$CStringT@DV?$StrTraitATL@DV?$ChTraitsCRT@D@ATL@@@ATL@@@ATL@@QAE@PBD@Z
_TEXT	SEGMENT PARA USE32 PUBLIC 'CODE'
_TEXT	ENDS
;	COMDAT ??1?$CStringT@DV?$StrTraitATL@DV?$ChTraitsCRT@D@ATL@@@ATL@@@ATL@@QAE@XZ
_TEXT	SEGMENT PARA USE32 PUBLIC 'CODE'
_TEXT	ENDS
;	COMDAT ??Y?$CStringT@DV?$StrTraitATL@DV?$ChTraitsCRT@D@ATL@@@ATL@@@ATL@@QAEAAV01@D@Z
_TEXT	SEGMENT PARA USE32 PUBLIC 'CODE'
_TEXT	ENDS
;	COMDAT ?AppendFormat@?$CStringT@DV?$StrTraitATL@DV?$ChTraitsCRT@D@ATL@@@ATL@@@ATL@@QAAXPBDZZ
_TEXT	SEGMENT PARA USE32 PUBLIC 'CODE'
_TEXT	ENDS
;	COMDAT ?LoadStringA@?$CStringT@DV?$StrTraitATL@DV?$ChTraitsCRT@D@ATL@@@ATL@@@ATL@@QAEHI@Z
_TEXT	SEGMENT PARA USE32 PUBLIC 'CODE'
_TEXT	ENDS
;	COMDAT ??0?$_DebugHeapAllocator@D@std@@QAE@XZ
_TEXT	SEGMENT PARA USE32 PUBLIC 'CODE'
_TEXT	ENDS
;	COMDAT ??0?$_DebugHeapAllocator@D@std@@QAE@ABV01@@Z
_TEXT	SEGMENT PARA USE32 PUBLIC 'CODE'
_TEXT	ENDS
;	COMDAT ??_G?$basic_ostream@GU?$char_traits@G@std@@@std@@UAEPAXI@Z
_TEXT	SEGMENT PARA USE32 PUBLIC 'CODE'
_TEXT	ENDS
;	COMDAT ??_G?$basic_ios@GU?$char_traits@G@std@@@std@@UAEPAXI@Z
_TEXT	SEGMENT PARA USE32 PUBLIC 'CODE'
_TEXT	ENDS
;	COMDAT ??_G?$basic_streambuf@GU?$char_traits@G@std@@@std@@UAEPAXI@Z
_TEXT	SEGMENT PARA USE32 PUBLIC 'CODE'
_TEXT	ENDS
;	COMDAT ??_G?$basic_ostream@DU?$char_traits@D@std@@@std@@UAEPAXI@Z
_TEXT	SEGMENT PARA USE32 PUBLIC 'CODE'
_TEXT	ENDS
;	COMDAT ??_G?$basic_ios@DU?$char_traits@D@std@@@std@@UAEPAXI@Z
_TEXT	SEGMENT PARA USE32 PUBLIC 'CODE'
_TEXT	ENDS
;	COMDAT ??_G?$basic_istream@GU?$char_traits@G@std@@@std@@UAEPAXI@Z
_TEXT	SEGMENT PARA USE32 PUBLIC 'CODE'
_TEXT	ENDS
;	COMDAT ??_G?$basic_istream@DU?$char_traits@D@std@@@std@@UAEPAXI@Z
_TEXT	SEGMENT PARA USE32 PUBLIC 'CODE'
_TEXT	ENDS
;	COMDAT ??_G?$basic_streambuf@DU?$char_traits@D@std@@@std@@UAEPAXI@Z
_TEXT	SEGMENT PARA USE32 PUBLIC 'CODE'
_TEXT	ENDS
;	COMDAT ??_D?$basic_ostream@GU?$char_traits@G@std@@@std@@QAEXXZ
_TEXT	SEGMENT PARA USE32 PUBLIC 'CODE'
_TEXT	ENDS
;	COMDAT ??_D?$basic_ostream@DU?$char_traits@D@std@@@std@@QAEXXZ
_TEXT	SEGMENT PARA USE32 PUBLIC 'CODE'
_TEXT	ENDS
;	COMDAT ??_D?$basic_istream@GU?$char_traits@G@std@@@std@@QAEXXZ
_TEXT	SEGMENT PARA USE32 PUBLIC 'CODE'
_TEXT	ENDS
;	COMDAT ??_D?$basic_istream@DU?$char_traits@D@std@@@std@@QAEXXZ
_TEXT	SEGMENT PARA USE32 PUBLIC 'CODE'
_TEXT	ENDS
;	COMDAT ??0?$CSimpleStringT@D$0A@@ATL@@QAE@PAUIAtlStringMgr@1@@Z
_TEXT	SEGMENT PARA USE32 PUBLIC 'CODE'
_TEXT	ENDS
;	COMDAT ??0?$CSimpleStringT@D$0A@@ATL@@QAE@ABV01@@Z
_TEXT	SEGMENT PARA USE32 PUBLIC 'CODE'
_TEXT	ENDS
;	COMDAT ??1?$CSimpleStringT@D$0A@@ATL@@QAE@XZ
_TEXT	SEGMENT PARA USE32 PUBLIC 'CODE'
_TEXT	ENDS
;	COMDAT ??Y?$CSimpleStringT@D$0A@@ATL@@QAEAAV01@D@Z
_TEXT	SEGMENT PARA USE32 PUBLIC 'CODE'
_TEXT	ENDS
;	COMDAT ?assign@?$basic_string@DU?$char_traits@D@std@@V?$allocator@D@2@@std@@QAEAAV12@ABV12@II@Z
_TEXT	SEGMENT PARA USE32 PUBLIC 'CODE'
_TEXT	ENDS
;	COMDAT ?assign@?$basic_string@DU?$char_traits@D@std@@V?$allocator@D@2@@std@@QAEAAV12@PBD@Z
_TEXT	SEGMENT PARA USE32 PUBLIC 'CODE'
_TEXT	ENDS
;	COMDAT ?_Tidy@?$basic_string@DU?$char_traits@D@std@@V?$allocator@D@2@@std@@IAEX_NI@Z
_TEXT	SEGMENT PARA USE32 PUBLIC 'CODE'
_TEXT	ENDS
;	COMDAT ?_Myptr@?$basic_string@DU?$char_traits@D@std@@V?$allocator@D@2@@std@@QBEPBDXZ
_TEXT	SEGMENT PARA USE32 PUBLIC 'CODE'
_TEXT	ENDS
;	COMDAT ??0?$_String_val@DV?$allocator@D@std@@@std@@IAE@V?$allocator@D@1@@Z
_TEXT	SEGMENT PARA USE32 PUBLIC 'CODE'
_TEXT	ENDS
;	COMDAT ??0?$allocator@D@std@@QAE@XZ
_TEXT	SEGMENT PARA USE32 PUBLIC 'CODE'
_TEXT	ENDS
;	COMDAT ??0?$allocator@D@std@@QAE@ABV01@@Z
_TEXT	SEGMENT PARA USE32 PUBLIC 'CODE'
_TEXT	ENDS
;	COMDAT ?assign@?$basic_string@DU?$char_traits@D@std@@V?$_DebugHeapAllocator@D@2@@std@@QAEAAV12@ABV12@II@Z
_TEXT	SEGMENT PARA USE32 PUBLIC 'CODE'
_TEXT	ENDS
;	COMDAT ?assign@?$basic_string@DU?$char_traits@D@std@@V?$_DebugHeapAllocator@D@2@@std@@QAEAAV12@PBD@Z
_TEXT	SEGMENT PARA USE32 PUBLIC 'CODE'
_TEXT	ENDS
;	COMDAT ?_Tidy@?$basic_string@DU?$char_traits@D@std@@V?$_DebugHeapAllocator@D@2@@std@@IAEX_NI@Z
_TEXT	SEGMENT PARA USE32 PUBLIC 'CODE'
_TEXT	ENDS
;	COMDAT ?_Myptr@?$basic_string@DU?$char_traits@D@std@@V?$_DebugHeapAllocator@D@2@@std@@QBEPBDXZ
_TEXT	SEGMENT PARA USE32 PUBLIC 'CODE'
_TEXT	ENDS
;	COMDAT ??0?$_String_val@DV?$_DebugHeapAllocator@D@std@@@std@@IAE@V?$_DebugHeapAllocator@D@1@@Z
_TEXT	SEGMENT PARA USE32 PUBLIC 'CODE'
_TEXT	ENDS
;	COMDAT ?_Osfx@?$basic_ostream@GU?$char_traits@G@std@@@std@@QAEXXZ
_TEXT	SEGMENT PARA USE32 PUBLIC 'CODE'
_TEXT	ENDS
;	COMDAT ?clear@?$basic_ios@GU?$char_traits@G@std@@@std@@QAEXH_N@Z
_TEXT	SEGMENT PARA USE32 PUBLIC 'CODE'
_TEXT	ENDS
;	COMDAT ?tie@?$basic_ios@GU?$char_traits@G@std@@@std@@QBEPAV?$basic_ostream@GU?$char_traits@G@std@@@2@XZ
_TEXT	SEGMENT PARA USE32 PUBLIC 'CODE'
_TEXT	ENDS
;	COMDAT ??0_Sentry_base@?$basic_ostream@GU?$char_traits@G@std@@@std@@QAE@AAV12@@Z
_TEXT	SEGMENT PARA USE32 PUBLIC 'CODE'
_TEXT	ENDS
;	COMDAT ??1_Sentry_base@?$basic_ostream@GU?$char_traits@G@std@@@std@@QAE@XZ
_TEXT	SEGMENT PARA USE32 PUBLIC 'CODE'
_TEXT	ENDS
;	COMDAT ?pubsync@?$basic_streambuf@GU?$char_traits@G@std@@@std@@QAEHXZ
_TEXT	SEGMENT PARA USE32 PUBLIC 'CODE'
_TEXT	ENDS
;	COMDAT ?_Unlock@?$basic_streambuf@GU?$char_traits@G@std@@@std@@QAEXXZ
_TEXT	SEGMENT PARA USE32 PUBLIC 'CODE'
_TEXT	ENDS
;	COMDAT ?gptr@?$basic_streambuf@GU?$char_traits@G@std@@@std@@IBEPAGXZ
_TEXT	SEGMENT PARA USE32 PUBLIC 'CODE'
_TEXT	ENDS
;	COMDAT ?pptr@?$basic_streambuf@GU?$char_traits@G@std@@@std@@IBEPAGXZ
_TEXT	SEGMENT PARA USE32 PUBLIC 'CODE'
_TEXT	ENDS
;	COMDAT ?egptr@?$basic_streambuf@GU?$char_traits@G@std@@@std@@IBEPAGXZ
_TEXT	SEGMENT PARA USE32 PUBLIC 'CODE'
_TEXT	ENDS
;	COMDAT ?gbump@?$basic_streambuf@GU?$char_traits@G@std@@@std@@IAEXH@Z
_TEXT	SEGMENT PARA USE32 PUBLIC 'CODE'
_TEXT	ENDS
;	COMDAT ?epptr@?$basic_streambuf@GU?$char_traits@G@std@@@std@@IBEPAGXZ
_TEXT	SEGMENT PARA USE32 PUBLIC 'CODE'
_TEXT	ENDS
;	COMDAT ?_Gninc@?$basic_streambuf@GU?$char_traits@G@std@@@std@@IAEPAGXZ
_TEXT	SEGMENT PARA USE32 PUBLIC 'CODE'
_TEXT	ENDS
;	COMDAT ?pbump@?$basic_streambuf@GU?$char_traits@G@std@@@std@@IAEXH@Z
_TEXT	SEGMENT PARA USE32 PUBLIC 'CODE'
_TEXT	ENDS
;	COMDAT ?_Pninc@?$basic_streambuf@GU?$char_traits@G@std@@@std@@IAEPAGXZ
_TEXT	SEGMENT PARA USE32 PUBLIC 'CODE'
_TEXT	ENDS
;	COMDAT ?clear@?$basic_ios@DU?$char_traits@D@std@@@std@@QAEXH_N@Z
_TEXT	SEGMENT PARA USE32 PUBLIC 'CODE'
_TEXT	ENDS
;	COMDAT ?_Ipfx@?$basic_istream@GU?$char_traits@G@std@@@std@@QAE_N_N@Z
_TEXT	SEGMENT PARA USE32 PUBLIC 'CODE'
_TEXT	ENDS
;	COMDAT ??0_Sentry_base@?$basic_istream@GU?$char_traits@G@std@@@std@@QAE@AAV12@@Z
_TEXT	SEGMENT PARA USE32 PUBLIC 'CODE'
_TEXT	ENDS
;	COMDAT ?_Ipfx@?$basic_istream@DU?$char_traits@D@std@@@std@@QAE_N_N@Z
_TEXT	SEGMENT PARA USE32 PUBLIC 'CODE'
_TEXT	ENDS
;	COMDAT ??0_Sentry_base@?$basic_istream@DU?$char_traits@D@std@@@std@@QAE@AAV12@@Z
_TEXT	SEGMENT PARA USE32 PUBLIC 'CODE'
_TEXT	ENDS
;	COMDAT ?pubsync@?$basic_streambuf@DU?$char_traits@D@std@@@std@@QAEHXZ
_TEXT	SEGMENT PARA USE32 PUBLIC 'CODE'
_TEXT	ENDS
;	COMDAT ?sbumpc@?$basic_streambuf@DU?$char_traits@D@std@@@std@@QAEHXZ
_TEXT	SEGMENT PARA USE32 PUBLIC 'CODE'
_TEXT	ENDS
;	COMDAT ?sputc@?$basic_streambuf@DU?$char_traits@D@std@@@std@@QAEHD@Z
_TEXT	SEGMENT PARA USE32 PUBLIC 'CODE'
_TEXT	ENDS
;	COMDAT ?_Unlock@?$basic_streambuf@DU?$char_traits@D@std@@@std@@QAEXXZ
_TEXT	SEGMENT PARA USE32 PUBLIC 'CODE'
_TEXT	ENDS
;	COMDAT ?gptr@?$basic_streambuf@DU?$char_traits@D@std@@@std@@IBEPADXZ
_TEXT	SEGMENT PARA USE32 PUBLIC 'CODE'
_TEXT	ENDS
;	COMDAT ?pptr@?$basic_streambuf@DU?$char_traits@D@std@@@std@@IBEPADXZ
_TEXT	SEGMENT PARA USE32 PUBLIC 'CODE'
_TEXT	ENDS
;	COMDAT ?egptr@?$basic_streambuf@DU?$char_traits@D@std@@@std@@IBEPADXZ
_TEXT	SEGMENT PARA USE32 PUBLIC 'CODE'
_TEXT	ENDS
;	COMDAT ?gbump@?$basic_streambuf@DU?$char_traits@D@std@@@std@@IAEXH@Z
_TEXT	SEGMENT PARA USE32 PUBLIC 'CODE'
_TEXT	ENDS
;	COMDAT ?epptr@?$basic_streambuf@DU?$char_traits@D@std@@@std@@IBEPADXZ
_TEXT	SEGMENT PARA USE32 PUBLIC 'CODE'
_TEXT	ENDS
;	COMDAT ?_Gninc@?$basic_streambuf@DU?$char_traits@D@std@@@std@@IAEPADXZ
_TEXT	SEGMENT PARA USE32 PUBLIC 'CODE'
_TEXT	ENDS
;	COMDAT ?pbump@?$basic_streambuf@DU?$char_traits@D@std@@@std@@IAEXH@Z
_TEXT	SEGMENT PARA USE32 PUBLIC 'CODE'
_TEXT	ENDS
;	COMDAT ?Init@?$CW2AEX@$0IA@@ATL@@AAEXPBGI@Z
_TEXT	SEGMENT PARA USE32 PUBLIC 'CODE'
_TEXT	ENDS
;	COMDAT ??4?$CStringT@DV?$StrTraitATL@DV?$ChTraitsCRT@D@ATL@@@ATL@@@ATL@@QAEAAV01@PBD@Z
_TEXT	SEGMENT PARA USE32 PUBLIC 'CODE'
_TEXT	ENDS
;	COMDAT ?AppendFormatV@?$CStringT@DV?$StrTraitATL@DV?$ChTraitsCRT@D@ATL@@@ATL@@@ATL@@QAEXPBDPAD@Z
_TEXT	SEGMENT PARA USE32 PUBLIC 'CODE'
_TEXT	ENDS
;	COMDAT ?LoadStringA@?$CStringT@DV?$StrTraitATL@DV?$ChTraitsCRT@D@ATL@@@ATL@@@ATL@@QAEHPAUHINSTANCE__@@I@Z
_TEXT	SEGMENT PARA USE32 PUBLIC 'CODE'
_TEXT	ENDS
;	COMDAT ?CheckImplicitLoad@?$CStringT@DV?$StrTraitATL@DV?$ChTraitsCRT@D@ATL@@@ATL@@@ATL@@AAE_NPBX@Z
_TEXT	SEGMENT PARA USE32 PUBLIC 'CODE'
_TEXT	ENDS
;	COMDAT ?FindStringResourceInstance@?$StrTraitATL@DV?$ChTraitsCRT@D@ATL@@@ATL@@SAPAUHINSTANCE__@@I@Z
_TEXT	SEGMENT PARA USE32 PUBLIC 'CODE'
_TEXT	ENDS
;	COMDAT ?GetDefaultManager@?$StrTraitATL@DV?$ChTraitsCRT@D@ATL@@@ATL@@SAPAUIAtlStringMgr@2@XZ
_TEXT	SEGMENT PARA USE32 PUBLIC 'CODE'
_TEXT	ENDS
;	COMDAT ??0?$fpos@H@std@@QAE@J@Z
_TEXT	SEGMENT PARA USE32 PUBLIC 'CODE'
_TEXT	ENDS
;	COMDAT ??0sentry@?$basic_ostream@DU?$char_traits@D@std@@@std@@QAE@AAV12@@Z
_TEXT	SEGMENT PARA USE32 PUBLIC 'CODE'
_TEXT	ENDS
;	COMDAT ??1sentry@?$basic_ostream@DU?$char_traits@D@std@@@std@@QAE@XZ
_TEXT	SEGMENT PARA USE32 PUBLIC 'CODE'
_TEXT	ENDS
;	COMDAT ??Bsentry@?$basic_ostream@DU?$char_traits@D@std@@@std@@QBE_NXZ
_TEXT	SEGMENT PARA USE32 PUBLIC 'CODE'
_TEXT	ENDS
;	COMDAT ??4?$CSimpleStringT@D$0A@@ATL@@QAEAAV01@PBD@Z
_TEXT	SEGMENT PARA USE32 PUBLIC 'CODE'
_TEXT	ENDS
;	COMDAT ?AppendChar@?$CSimpleStringT@D$0A@@ATL@@QAEXD@Z
_TEXT	SEGMENT PARA USE32 PUBLIC 'CODE'
_TEXT	ENDS
;	COMDAT ?GetLength@?$CSimpleStringT@D$0A@@ATL@@QBEHXZ
_TEXT	SEGMENT PARA USE32 PUBLIC 'CODE'
_TEXT	ENDS
;	COMDAT ?ReleaseBufferSetLength@?$CSimpleStringT@D$0A@@ATL@@QAEXH@Z
_TEXT	SEGMENT PARA USE32 PUBLIC 'CODE'
_TEXT	ENDS
;	COMDAT ?CloneData@?$CSimpleStringT@D$0A@@ATL@@CAPAUCStringData@2@PAU32@@Z
_TEXT	SEGMENT PARA USE32 PUBLIC 'CODE'
_TEXT	ENDS
;	COMDAT ?assign@?$basic_string@DU?$char_traits@D@std@@V?$allocator@D@2@@std@@QAEAAV12@PBDI@Z
_TEXT	SEGMENT PARA USE32 PUBLIC 'CODE'
_TEXT	ENDS
;	COMDAT ?erase@?$basic_string@DU?$char_traits@D@std@@V?$allocator@D@2@@std@@QAEAAV12@II@Z
_TEXT	SEGMENT PARA USE32 PUBLIC 'CODE'
_TEXT	ENDS
;	COMDAT ?_Eos@?$basic_string@DU?$char_traits@D@std@@V?$allocator@D@2@@std@@IAEXI@Z
_TEXT	SEGMENT PARA USE32 PUBLIC 'CODE'
_TEXT	ENDS
;	COMDAT ?_Grow@?$basic_string@DU?$char_traits@D@std@@V?$allocator@D@2@@std@@IAE_NI_N@Z
_TEXT	SEGMENT PARA USE32 PUBLIC 'CODE'
_TEXT	ENDS
;	COMDAT ?_Myptr@?$basic_string@DU?$char_traits@D@std@@V?$allocator@D@2@@std@@QAEPADXZ
_TEXT	SEGMENT PARA USE32 PUBLIC 'CODE'
_TEXT	ENDS
;	COMDAT ?deallocate@?$allocator@D@std@@QAEXPADI@Z
_TEXT	SEGMENT PARA USE32 PUBLIC 'CODE'
_TEXT	ENDS
;	COMDAT ?assign@?$basic_string@DU?$char_traits@D@std@@V?$_DebugHeapAllocator@D@2@@std@@QAEAAV12@PBDI@Z
_TEXT	SEGMENT PARA USE32 PUBLIC 'CODE'
_TEXT	ENDS
;	COMDAT ?erase@?$basic_string@DU?$char_traits@D@std@@V?$_DebugHeapAllocator@D@2@@std@@QAEAAV12@II@Z
_TEXT	SEGMENT PARA USE32 PUBLIC 'CODE'
_TEXT	ENDS
;	COMDAT ?size@?$basic_string@DU?$char_traits@D@std@@V?$_DebugHeapAllocator@D@2@@std@@QBEIXZ
_TEXT	SEGMENT PARA USE32 PUBLIC 'CODE'
_TEXT	ENDS
;	COMDAT ?_Eos@?$basic_string@DU?$char_traits@D@std@@V?$_DebugHeapAllocator@D@2@@std@@IAEXI@Z
_TEXT	SEGMENT PARA USE32 PUBLIC 'CODE'
_TEXT	ENDS
;	COMDAT ?_Grow@?$basic_string@DU?$char_traits@D@std@@V?$_DebugHeapAllocator@D@2@@std@@IAE_NI_N@Z
_TEXT	SEGMENT PARA USE32 PUBLIC 'CODE'
_TEXT	ENDS
;	COMDAT ?_Myptr@?$basic_string@DU?$char_traits@D@std@@V?$_DebugHeapAllocator@D@2@@std@@QAEPADXZ
_TEXT	SEGMENT PARA USE32 PUBLIC 'CODE'
_TEXT	ENDS
;	COMDAT ?deallocate@?$_DebugHeapAllocator@D@std@@QAEXPADI@Z
_TEXT	SEGMENT PARA USE32 PUBLIC 'CODE'
_TEXT	ENDS
;	COMDAT ?_Lock@?$basic_streambuf@GU?$char_traits@G@std@@@std@@QAEXXZ
_TEXT	SEGMENT PARA USE32 PUBLIC 'CODE'
_TEXT	ENDS
;	COMDAT ?_Osfx@?$basic_ostream@DU?$char_traits@D@std@@@std@@QAEXXZ
_TEXT	SEGMENT PARA USE32 PUBLIC 'CODE'
_TEXT	ENDS
;	COMDAT ?tie@?$basic_ios@DU?$char_traits@D@std@@@std@@QBEPAV?$basic_ostream@DU?$char_traits@D@std@@@2@XZ
_TEXT	SEGMENT PARA USE32 PUBLIC 'CODE'
_TEXT	ENDS
;	COMDAT ?_Lock@?$basic_streambuf@DU?$char_traits@D@std@@@std@@QAEXXZ
_TEXT	SEGMENT PARA USE32 PUBLIC 'CODE'
_TEXT	ENDS
;	COMDAT ?_Pninc@?$basic_streambuf@DU?$char_traits@D@std@@@std@@IAEPADXZ
_TEXT	SEGMENT PARA USE32 PUBLIC 'CODE'
_TEXT	ENDS
;	COMDAT ?GetFormattedLength@?$ChTraitsCRT@D@ATL@@SAHPBDPAD@Z
_TEXT	SEGMENT PARA USE32 PUBLIC 'CODE'
_TEXT	ENDS
;	COMDAT ?Format@?$ChTraitsCRT@D@ATL@@SAHPADPBD0@Z
_TEXT	SEGMENT PARA USE32 PUBLIC 'CODE'
_TEXT	ENDS
;	COMDAT ?GetBaseTypeLength@?$ChTraitsCRT@D@ATL@@SAHPBGH@Z
_TEXT	SEGMENT PARA USE32 PUBLIC 'CODE'
_TEXT	ENDS
;	COMDAT ?ConvertToBaseType@?$ChTraitsCRT@D@ATL@@SAXPADHPBGH@Z
_TEXT	SEGMENT PARA USE32 PUBLIC 'CODE'
_TEXT	ENDS
;	COMDAT ??0_Sentry_base@?$basic_ostream@DU?$char_traits@D@std@@@std@@QAE@AAV12@@Z
_TEXT	SEGMENT PARA USE32 PUBLIC 'CODE'
_TEXT	ENDS
;	COMDAT ??1_Sentry_base@?$basic_ostream@DU?$char_traits@D@std@@@std@@QAE@XZ
_TEXT	SEGMENT PARA USE32 PUBLIC 'CODE'
_TEXT	ENDS
;	COMDAT ?SetString@?$CSimpleStringT@D$0A@@ATL@@QAEXPBD@Z
_TEXT	SEGMENT PARA USE32 PUBLIC 'CODE'
_TEXT	ENDS
;	COMDAT ?max_size@?$basic_string@DU?$char_traits@D@std@@V?$allocator@D@2@@std@@QBEIXZ
_TEXT	SEGMENT PARA USE32 PUBLIC 'CODE'
_TEXT	ENDS
;	COMDAT ?_Copy@?$basic_string@DU?$char_traits@D@std@@V?$allocator@D@2@@std@@IAEXII@Z
_TEXT	SEGMENT PARA USE32 PUBLIC 'CODE'
_TEXT	ENDS
;	COMDAT ?_Inside@?$basic_string@DU?$char_traits@D@std@@V?$allocator@D@2@@std@@IAE_NPBD@Z
_TEXT	SEGMENT PARA USE32 PUBLIC 'CODE'
_TEXT	ENDS
;	COMDAT ?max_size@?$basic_string@DU?$char_traits@D@std@@V?$_DebugHeapAllocator@D@2@@std@@QBEIXZ
_TEXT	SEGMENT PARA USE32 PUBLIC 'CODE'
_TEXT	ENDS
;	COMDAT ?_Copy@?$basic_string@DU?$char_traits@D@std@@V?$_DebugHeapAllocator@D@2@@std@@IAEXII@Z
_TEXT	SEGMENT PARA USE32 PUBLIC 'CODE'
_TEXT	ENDS
;	COMDAT ?_Inside@?$basic_string@DU?$char_traits@D@std@@V?$_DebugHeapAllocator@D@2@@std@@IAE_NPBD@Z
_TEXT	SEGMENT PARA USE32 PUBLIC 'CODE'
_TEXT	ENDS
;	COMDAT ?SetString@?$CSimpleStringT@D$0A@@ATL@@QAEXPBDH@Z
_TEXT	SEGMENT PARA USE32 PUBLIC 'CODE'
_TEXT	ENDS
;	COMDAT ?allocate@?$allocator@D@std@@QAEPADI@Z
_TEXT	SEGMENT PARA USE32 PUBLIC 'CODE'
_TEXT	ENDS
;	COMDAT ?max_size@?$allocator@D@std@@QBEIXZ
_TEXT	SEGMENT PARA USE32 PUBLIC 'CODE'
_TEXT	ENDS
;	COMDAT ?allocate@?$_DebugHeapAllocator@D@std@@QAEPADI@Z
_TEXT	SEGMENT PARA USE32 PUBLIC 'CODE'
_TEXT	ENDS
;	COMDAT ?GetString@?$CSimpleStringT@D$0A@@ATL@@QBEPBDXZ
_TEXT	SEGMENT PARA USE32 PUBLIC 'CODE'
_TEXT	ENDS
;	COMDAT ?CopyCharsOverlapped@?$CSimpleStringT@D$0A@@ATL@@SAXPADPBDH@Z
_TEXT	SEGMENT PARA USE32 PUBLIC 'CODE'
_TEXT	ENDS
;	COMDAT ?Unlock@?$CComCritSecLock@VCComCriticalSection@ATL@@@ATL@@QAEXXZ
_TEXT	SEGMENT PARA USE32 PUBLIC 'CODE'
_TEXT	ENDS
;	COMDAT ?CreateInstance@?$CComObject@V?$CComEnum@UIEnumUnknown@@$1?_GUID_00000100_0000_0000_c000_000000000046@@3U__s_GUID@@BPAUIUnknown@@V?$_CopyInterface@UIUnknown@@@ATL@@VCComSingleThreadModel@6@@ATL@@@ATL@@SGJPAPAV12@@Z
_TEXT	SEGMENT PARA USE32 PUBLIC 'CODE'
_TEXT	ENDS
;	COMDAT ??$_DebugHeapDelete@Vfacet@locale@std@@@std@@YAXPAVfacet@locale@0@@Z
_TEXT	SEGMENT PARA USE32 PUBLIC 'CODE'
_TEXT	ENDS
;	COMDAT ??$use_facet@V?$ctype@D@std@@@std@@YAABV?$ctype@D@0@ABVlocale@0@@Z
_TEXT	SEGMENT PARA USE32 PUBLIC 'CODE'
_TEXT	ENDS
;	COMDAT ??$use_facet@V?$ctype@G@std@@@std@@YAABV?$ctype@G@0@ABVlocale@0@@Z
_TEXT	SEGMENT PARA USE32 PUBLIC 'CODE'
_TEXT	ENDS
;	COMDAT ??$AtlAlignUp@H@ATL@@YGHHK@Z
_TEXT	SEGMENT PARA USE32 PUBLIC 'CODE'
_TEXT	ENDS
;	COMDAT ??$?HDU?$char_traits@D@std@@V?$allocator@D@1@@std@@YA?AV?$basic_string@DU?$char_traits@D@std@@V?$allocator@D@2@@0@ABV10@0@Z
_TEXT	SEGMENT PARA USE32 PUBLIC 'CODE'
_TEXT	ENDS
;	COMDAT ??$?9DU?$char_traits@D@std@@V?$allocator@D@1@@std@@YA_NABV?$basic_string@DU?$char_traits@D@std@@V?$allocator@D@2@@0@0@Z
_TEXT	SEGMENT PARA USE32 PUBLIC 'CODE'
_TEXT	ENDS
;	COMDAT ??$_DebugHeapDelete@Vlocale@std@@@std@@YAXPAVlocale@0@@Z
_TEXT	SEGMENT PARA USE32 PUBLIC 'CODE'
_TEXT	ENDS
;	COMDAT ??$_DebugHeapDelete@X@std@@YAXPAX@Z
_TEXT	SEGMENT PARA USE32 PUBLIC 'CODE'
_TEXT	ENDS
;	COMDAT ??$_Allocate@D@std@@YAPADIPAD@Z
_TEXT	SEGMENT PARA USE32 PUBLIC 'CODE'
_TEXT	ENDS
;	COMDAT ??_Glocale@std@@QAEPAXI@Z
_TEXT	SEGMENT PARA USE32 PUBLIC 'CODE'
_TEXT	ENDS
;	COMDAT ??Y?$basic_string@DU?$char_traits@D@std@@V?$allocator@D@2@@std@@QAEAAV01@ABV01@@Z
_TEXT	SEGMENT PARA USE32 PUBLIC 'CODE'
_TEXT	ENDS
;	COMDAT ?append@?$basic_string@DU?$char_traits@D@std@@V?$allocator@D@2@@std@@QAEAAV12@ABV12@@Z
_TEXT	SEGMENT PARA USE32 PUBLIC 'CODE'
_TEXT	ENDS
;	COMDAT ?append@?$basic_string@DU?$char_traits@D@std@@V?$allocator@D@2@@std@@QAEAAV12@ABV12@II@Z
_TEXT	SEGMENT PARA USE32 PUBLIC 'CODE'
_TEXT	ENDS
;	COMDAT ??$?8DU?$char_traits@D@std@@V?$allocator@D@1@@std@@YA_NABV?$basic_string@DU?$char_traits@D@std@@V?$allocator@D@2@@0@0@Z
_TEXT	SEGMENT PARA USE32 PUBLIC 'CODE'
_TEXT	ENDS
;	COMDAT ?compare@?$basic_string@DU?$char_traits@D@std@@V?$allocator@D@2@@std@@QBEHABV12@@Z
_TEXT	SEGMENT PARA USE32 PUBLIC 'CODE'
_TEXT	ENDS
;	COMDAT ?compare@?$basic_string@DU?$char_traits@D@std@@V?$allocator@D@2@@std@@QBEHIIPBDI@Z
_TEXT	SEGMENT PARA USE32 PUBLIC 'CODE'
_TEXT	ENDS
;	COMDAT ?_Psave@?$_Facetptr@V?$ctype@G@std@@@std@@2PBVfacet@locale@2@B
_DATA	SEGMENT DWORD USE32 PUBLIC 'DATA'
_DATA	ENDS
;	COMDAT __CTA2?AVbad_cast@@
xdata$x	SEGMENT DWORD USE32 PUBLIC 'CONST'
xdata$x	ENDS
;	COMDAT __CT??_R0?AVexception@@@8??0exception@@QAE@ABV0@@Z12
xdata$x	SEGMENT DWORD USE32 PUBLIC 'CONST'
xdata$x	ENDS
;	COMDAT __CT??_R0?AVbad_cast@@@8??0bad_cast@@QAE@ABV0@@Z12
xdata$x	SEGMENT DWORD USE32 PUBLIC 'CONST'
xdata$x	ENDS
;	COMDAT ??_R0?AVexception@@@8
_DATA	SEGMENT DWORD USE32 PUBLIC 'DATA'
_DATA	ENDS
;	COMDAT ??_R0?AVbad_cast@@@8
_DATA	SEGMENT DWORD USE32 PUBLIC 'DATA'
_DATA	ENDS
;	COMDAT __TI2?AVbad_cast@@
xdata$x	SEGMENT DWORD USE32 PUBLIC 'CONST'
xdata$x	ENDS
;	COMDAT ?_Psave@?$_Facetptr@V?$ctype@D@std@@@std@@2PBVfacet@locale@2@B
_DATA	SEGMENT DWORD USE32 PUBLIC 'DATA'
_DATA	ENDS
;	COMDAT ?InternalFinalConstructRelease@CComObjectRootBase@ATL@@QAEXXZ
_TEXT	SEGMENT PARA USE32 PUBLIC 'CODE'
_TEXT	ENDS
;	COMDAT ??_C@_0N@JELNCKOF@m_dwRef?5?$DN?$DN?50?$AA@
CONST	SEGMENT DWORD USE32 PUBLIC 'CONST'
CONST	ENDS
;	COMDAT ??_C@_0EP@FBJOMLAB@C?3?2Program?5Files?2Microsoft?5Visua@
CONST	SEGMENT DWORD USE32 PUBLIC 'CONST'
CONST	ENDS
;	COMDAT ?_AtlFinalConstruct@CComObjectRootBase@ATL@@QAEJXZ
_TEXT	SEGMENT PARA USE32 PUBLIC 'CODE'
_TEXT	ENDS
;	COMDAT ?FinalConstruct@CComObjectRootBase@ATL@@QAEJXZ
_TEXT	SEGMENT PARA USE32 PUBLIC 'CODE'
_TEXT	ENDS
;	COMDAT ?InternalFinalConstructAddRef@CComObjectRootBase@ATL@@QAEXXZ
_TEXT	SEGMENT PARA USE32 PUBLIC 'CODE'
_TEXT	ENDS
;	COMDAT ?SetVoid@CComObjectRootBase@ATL@@QAEXPAX@Z
_TEXT	SEGMENT PARA USE32 PUBLIC 'CODE'
_TEXT	ENDS
;	COMDAT ??0?$CComObject@V?$CComEnum@UIEnumUnknown@@$1?_GUID_00000100_0000_0000_c000_000000000046@@3U__s_GUID@@BPAUIUnknown@@V?$_CopyInterface@UIUnknown@@@ATL@@VCComSingleThreadModel@6@@ATL@@@ATL@@QAE@PAX@Z
_TEXT	SEGMENT PARA USE32 PUBLIC 'CODE'
_TEXT	ENDS
;	COMDAT ??0?$CComEnum@UIEnumUnknown@@$1?_GUID_00000100_0000_0000_c000_000000000046@@3U__s_GUID@@BPAUIUnknown@@V?$_CopyInterface@UIUnknown@@@ATL@@VCComSingleThreadModel@6@@ATL@@QAE@XZ
_TEXT	SEGMENT PARA USE32 PUBLIC 'CODE'
_TEXT	ENDS
;	COMDAT ??0?$CComEnumImpl@UIEnumUnknown@@$1?_GUID_00000100_0000_0000_c000_000000000046@@3U__s_GUID@@BPAUIUnknown@@V?$_CopyInterface@UIUnknown@@@ATL@@@ATL@@QAE@XZ
_TEXT	SEGMENT PARA USE32 PUBLIC 'CODE'
_TEXT	ENDS
;	COMDAT ??0IEnumUnknown@@QAE@XZ
_TEXT	SEGMENT PARA USE32 PUBLIC 'CODE'
_TEXT	ENDS
;	COMDAT ??0IUnknown@@QAE@XZ
_TEXT	SEGMENT PARA USE32 PUBLIC 'CODE'
_TEXT	ENDS
;	COMDAT ??0?$CComPtr@UIUnknown@@@ATL@@QAE@XZ
_TEXT	SEGMENT PARA USE32 PUBLIC 'CODE'
_TEXT	ENDS
;	COMDAT ??0?$CComPtrBase@UIUnknown@@@ATL@@IAE@XZ
_TEXT	SEGMENT PARA USE32 PUBLIC 'CODE'
_TEXT	ENDS
;	COMDAT ??1?$CComPtrBase@UIUnknown@@@ATL@@QAE@XZ
_TEXT	SEGMENT PARA USE32 PUBLIC 'CODE'
_TEXT	ENDS
;	COMDAT ??1?$CComPtr@UIUnknown@@@ATL@@QAE@XZ
_TEXT	SEGMENT PARA USE32 PUBLIC 'CODE'
_TEXT	ENDS
;	COMDAT ??1?$CComEnumImpl@UIEnumUnknown@@$1?_GUID_00000100_0000_0000_c000_000000000046@@3U__s_GUID@@BPAUIUnknown@@V?$_CopyInterface@UIUnknown@@@ATL@@@ATL@@UAE@XZ
_TEXT	SEGMENT PARA USE32 PUBLIC 'CODE'
_TEXT	ENDS
;	COMDAT ??0?$CComObjectRootEx@VCComSingleThreadModel@ATL@@@ATL@@QAE@XZ
_TEXT	SEGMENT PARA USE32 PUBLIC 'CODE'
_TEXT	ENDS
;	COMDAT ??0CComObjectRootBase@ATL@@QAE@XZ
_TEXT	SEGMENT PARA USE32 PUBLIC 'CODE'
_TEXT	ENDS
;	COMDAT ??1?$CComEnum@UIEnumUnknown@@$1?_GUID_00000100_0000_0000_c000_000000000046@@3U__s_GUID@@BPAUIUnknown@@V?$_CopyInterface@UIUnknown@@@ATL@@VCComSingleThreadModel@6@@ATL@@UAE@XZ
_TEXT	SEGMENT PARA USE32 PUBLIC 'CODE'
_TEXT	ENDS
;	COMDAT ??_7?$CComObject@V?$CComEnum@UIEnumUnknown@@$1?_GUID_00000100_0000_0000_c000_000000000046@@3U__s_GUID@@BPAUIUnknown@@V?$_CopyInterface@UIUnknown@@@ATL@@VCComSingleThreadModel@6@@ATL@@@ATL@@6B@
CONST	SEGMENT DWORD USE32 PUBLIC 'CONST'
CONST	ENDS
;	COMDAT ?QueryInterface@?$CComObject@V?$CComEnum@UIEnumUnknown@@$1?_GUID_00000100_0000_0000_c000_000000000046@@3U__s_GUID@@BPAUIUnknown@@V?$_CopyInterface@UIUnknown@@@ATL@@VCComSingleThreadModel@6@@ATL@@@ATL@@UAGJABU_GUID@@PAPAX@Z
_TEXT	SEGMENT PARA USE32 PUBLIC 'CODE'
_TEXT	ENDS
;	COMDAT ?_InternalQueryInterface@?$CComEnum@UIEnumUnknown@@$1?_GUID_00000100_0000_0000_c000_000000000046@@3U__s_GUID@@BPAUIUnknown@@V?$_CopyInterface@UIUnknown@@@ATL@@VCComSingleThreadModel@6@@ATL@@QAEJABU_GUID@@PAPAX@Z
_TEXT	SEGMENT PARA USE32 PUBLIC 'CODE'
_TEXT	ENDS
;	COMDAT ?InternalQueryInterface@CComObjectRootBase@ATL@@SGJPAXPBU_ATL_INTMAP_ENTRY@2@ABU_GUID@@PAPAX@Z
_TEXT	SEGMENT PARA USE32 PUBLIC 'CODE'
_TEXT	ENDS
;	COMDAT ??_C@_0P@BMHEGBAP@ppvObject?5?$CB?$DN?50?$AA@
CONST	SEGMENT DWORD USE32 PUBLIC 'CONST'
CONST	ENDS
;	COMDAT ??_C@_0L@DBHNDLKF@pThis?5?$CB?$DN?50?$AA@
CONST	SEGMENT DWORD USE32 PUBLIC 'CONST'
CONST	ENDS
;	COMDAT ??_C@_0DC@BBKMJDPM@pEntries?9?$DOpFunc?5?$DN?$DN?5?$CI?$CIATL?3?3_ATL_C@
CONST	SEGMENT DWORD USE32 PUBLIC 'CONST'
CONST	ENDS
;	COMDAT ?_GetEntries@?$CComEnum@UIEnumUnknown@@$1?_GUID_00000100_0000_0000_c000_000000000046@@3U__s_GUID@@BPAUIUnknown@@V?$_CopyInterface@UIUnknown@@@ATL@@VCComSingleThreadModel@6@@ATL@@SGPBU_ATL_INTMAP_ENTRY@2@XZ
_TEXT	SEGMENT PARA USE32 PUBLIC 'CODE'
_TEXT	ENDS
;	COMDAT ??_C@_09BEHAHIFA@_CComEnum?$AA@
CONST	SEGMENT DWORD USE32 PUBLIC 'CONST'
CONST	ENDS
;	COMDAT __GUID_00000100_0000_0000_c000_000000000046
CONST	SEGMENT DWORD USE32 PUBLIC 'CONST'
CONST	ENDS
;	COMDAT ?_entries@?1??_GetEntries@?$CComEnum@UIEnumUnknown@@$1?_GUID_00000100_0000_0000_c000_000000000046@@3U__s_GUID@@BPAUIUnknown@@V?$_CopyInterface@UIUnknown@@@ATL@@VCComSingleThreadModel@6@@ATL@@SGPBU_ATL_INTMAP_ENTRY@3@XZ@4QBU43@B
CONST	SEGMENT DWORD USE32 PUBLIC 'CONST'
CONST	ENDS
;	COMDAT ?AddRef@?$CComObject@V?$CComEnum@UIEnumUnknown@@$1?_GUID_00000100_0000_0000_c000_000000000046@@3U__s_GUID@@BPAUIUnknown@@V?$_CopyInterface@UIUnknown@@@ATL@@VCComSingleThreadModel@6@@ATL@@@ATL@@UAGKXZ
_TEXT	SEGMENT PARA USE32 PUBLIC 'CODE'
_TEXT	ENDS
;	COMDAT ?InternalAddRef@?$CComObjectRootEx@VCComSingleThreadModel@ATL@@@ATL@@QAEKXZ
_TEXT	SEGMENT PARA USE32 PUBLIC 'CODE'
_TEXT	ENDS
;	COMDAT ??_C@_0P@IDNKKMJE@m_dwRef?5?$CB?$DN?5?91L?$AA@
CONST	SEGMENT DWORD USE32 PUBLIC 'CONST'
CONST	ENDS
;	COMDAT ?Increment@CComSingleThreadModel@ATL@@SGKPAJ@Z
_TEXT	SEGMENT PARA USE32 PUBLIC 'CODE'
_TEXT	ENDS
;	COMDAT ?Release@?$CComObject@V?$CComEnum@UIEnumUnknown@@$1?_GUID_00000100_0000_0000_c000_000000000046@@3U__s_GUID@@BPAUIUnknown@@V?$_CopyInterface@UIUnknown@@@ATL@@VCComSingleThreadModel@6@@ATL@@@ATL@@UAGKXZ
_TEXT	SEGMENT PARA USE32 PUBLIC 'CODE'
_TEXT	ENDS
;	COMDAT ?InternalRelease@?$CComObjectRootEx@VCComSingleThreadModel@ATL@@@ATL@@QAEKXZ
_TEXT	SEGMENT PARA USE32 PUBLIC 'CODE'
_TEXT	ENDS
;	COMDAT ?Decrement@CComSingleThreadModel@ATL@@SGKPAJ@Z
_TEXT	SEGMENT PARA USE32 PUBLIC 'CODE'
_TEXT	ENDS
;	COMDAT ??_C@_0EC@FOHBGNDM@0?5?$CG?$CG?5?$CCRelease?5called?5on?5a?5pointe@
CONST	SEGMENT DWORD USE32 PUBLIC 'CONST'
CONST	ENDS
;	COMDAT ?Next@?$CComEnumImpl@UIEnumUnknown@@$1?_GUID_00000100_0000_0000_c000_000000000046@@3U__s_GUID@@BPAUIUnknown@@V?$_CopyInterface@UIUnknown@@@ATL@@@ATL@@UAGJKPAPAUIUnknown@@PAK@Z
_TEXT	SEGMENT PARA USE32 PUBLIC 'CODE'
_TEXT	ENDS
;	COMDAT ?Skip@?$CComEnumImpl@UIEnumUnknown@@$1?_GUID_00000100_0000_0000_c000_000000000046@@3U__s_GUID@@BPAUIUnknown@@V?$_CopyInterface@UIUnknown@@@ATL@@@ATL@@UAGJK@Z
_TEXT	SEGMENT PARA USE32 PUBLIC 'CODE'
_TEXT	ENDS
;	COMDAT ?Reset@?$CComEnumImpl@UIEnumUnknown@@$1?_GUID_00000100_0000_0000_c000_000000000046@@3U__s_GUID@@BPAUIUnknown@@V?$_CopyInterface@UIUnknown@@@ATL@@@ATL@@UAGJXZ
_TEXT	SEGMENT PARA USE32 PUBLIC 'CODE'
_TEXT	ENDS
;	COMDAT ?Clone@?$CComEnumImpl@UIEnumUnknown@@$1?_GUID_00000100_0000_0000_c000_000000000046@@3U__s_GUID@@BPAUIUnknown@@V?$_CopyInterface@UIUnknown@@@ATL@@@ATL@@UAGJPAPAUIEnumUnknown@@@Z
_TEXT	SEGMENT PARA USE32 PUBLIC 'CODE'
_TEXT	ENDS
;	COMDAT ?Init@?$CComEnumImpl@UIEnumUnknown@@$1?_GUID_00000100_0000_0000_c000_000000000046@@3U__s_GUID@@BPAUIUnknown@@V?$_CopyInterface@UIUnknown@@@ATL@@@ATL@@QAEJPAPAUIUnknown@@0PAU3@W4CComEnumFlags@2@@Z
_TEXT	SEGMENT PARA USE32 PUBLIC 'CODE'
_TEXT	ENDS
;	COMDAT ??4?$CComPtr@UIUnknown@@@ATL@@QAEPAUIUnknown@@PAU2@@Z
_TEXT	SEGMENT PARA USE32 PUBLIC 'CODE'
_TEXT	ENDS
;	COMDAT ??B?$CComPtrBase@UIUnknown@@@ATL@@QBEPAUIUnknown@@XZ
_TEXT	SEGMENT PARA USE32 PUBLIC 'CODE'
_TEXT	ENDS
;	COMDAT ??0?$CComPtr@UIUnknown@@@ATL@@QAE@PAUIUnknown@@@Z
_TEXT	SEGMENT PARA USE32 PUBLIC 'CODE'
_TEXT	ENDS
;	COMDAT ??0?$CComPtrBase@UIUnknown@@@ATL@@IAE@PAUIUnknown@@@Z
_TEXT	SEGMENT PARA USE32 PUBLIC 'CODE'
_TEXT	ENDS
;	COMDAT ??_G?$CComObject@V?$CComEnum@UIEnumUnknown@@$1?_GUID_00000100_0000_0000_c000_000000000046@@3U__s_GUID@@BPAUIUnknown@@V?$_CopyInterface@UIUnknown@@@ATL@@VCComSingleThreadModel@6@@ATL@@@ATL@@UAEPAXI@Z
_TEXT	SEGMENT PARA USE32 PUBLIC 'CODE'
_TEXT	ENDS
;	COMDAT ??1?$CComObject@V?$CComEnum@UIEnumUnknown@@$1?_GUID_00000100_0000_0000_c000_000000000046@@3U__s_GUID@@BPAUIUnknown@@V?$_CopyInterface@UIUnknown@@@ATL@@VCComSingleThreadModel@6@@ATL@@@ATL@@UAE@XZ
_TEXT	SEGMENT PARA USE32 PUBLIC 'CODE'
_TEXT	ENDS
;	COMDAT ?FinalRelease@CComObjectRootBase@ATL@@QAEXXZ
_TEXT	SEGMENT PARA USE32 PUBLIC 'CODE'
_TEXT	ENDS
;	COMDAT ?Unlock@CComCriticalSection@ATL@@QAEJXZ
_TEXT	SEGMENT PARA USE32 PUBLIC 'CODE'
_TEXT	ENDS
;	COMDAT ??_C@_0FA@KBNNCCJL@C?3?2Program?5Files?2Microsoft?5Visua@
CONST	SEGMENT DWORD USE32 PUBLIC 'CONST'
CONST	ENDS
;	COMDAT ??_C@_09HIEJFN@m_bLocked?$AA@
CONST	SEGMENT DWORD USE32 PUBLIC 'CONST'
CONST	ENDS
;	COMDAT ?Empty@?$CSimpleStringT@D$0A@@ATL@@QAEXXZ
_TEXT	SEGMENT PARA USE32 PUBLIC 'CODE'
_TEXT	ENDS
;	COMDAT ?StringLength@?$CSimpleStringT@D$0A@@ATL@@SAHPBD@Z
_TEXT	SEGMENT PARA USE32 PUBLIC 'CODE'
_TEXT	ENDS
;	COMDAT ?CopyChars@?$CSimpleStringT@D$0A@@ATL@@SAXPADPBDH@Z
_TEXT	SEGMENT PARA USE32 PUBLIC 'CODE'
_TEXT	ENDS
;	COMDAT ?ThrowMemoryException@?$CSimpleStringT@D$0A@@ATL@@KAXXZ
_TEXT	SEGMENT PARA USE32 PUBLIC 'CODE'
_TEXT	ENDS
;	COMDAT ?IsLocked@CStringData@ATL@@QBE_NXZ
_TEXT	SEGMENT PARA USE32 PUBLIC 'CODE'
_TEXT	ENDS
;	COMDAT ?SetLength@?$CSimpleStringT@D$0A@@ATL@@AAEXH@Z
_TEXT	SEGMENT PARA USE32 PUBLIC 'CODE'
_TEXT	ENDS
;	COMDAT ??_C@_0N@ILOMLJGA@nLength?5?$DO?$DN?50?$AA@
CONST	SEGMENT DWORD USE32 PUBLIC 'CONST'
CONST	ENDS
;	COMDAT ??_C@_0CD@EEFFJEGJ@nLength?5?$DM?$DN?5GetData?$CI?$CJ?9?$DOnAllocLeng@
CONST	SEGMENT DWORD USE32 PUBLIC 'CONST'
CONST	ENDS
;	COMDAT ?_Stz@?$fpos@H@std@@0HA
_BSS	SEGMENT DWORD USE32 PUBLIC 'BSS'
_BSS	ENDS
;	COMDAT ?AtlFindStringResourceInstance@ATL@@YAPAUHINSTANCE__@@IG@Z
_TEXT	SEGMENT PARA USE32 PUBLIC 'CODE'
_TEXT	ENDS
;	COMDAT ?AtlGetStringResourceImage@ATL@@YAPBUATLSTRINGRESOURCEIMAGE@1@PAUHINSTANCE__@@IG@Z
_TEXT	SEGMENT PARA USE32 PUBLIC 'CODE'
_TEXT	ENDS
;	COMDAT ?_AtlGetStringResourceImage@ATL@@YAPBUATLSTRINGRESOURCEIMAGE@1@PAUHINSTANCE__@@PAUHRSRC__@@I@Z
_TEXT	SEGMENT PARA USE32 PUBLIC 'CODE'
_TEXT	ENDS
;	COMDAT ?AtlGetStringResourceImage@ATL@@YAPBUATLSTRINGRESOURCEIMAGE@1@PAUHINSTANCE__@@I@Z
_TEXT	SEGMENT PARA USE32 PUBLIC 'CODE'
_TEXT	ENDS
;	COMDAT ?GetBuffer@?$CSimpleStringT@D$0A@@ATL@@QAEPADH@Z
_TEXT	SEGMENT PARA USE32 PUBLIC 'CODE'
_TEXT	ENDS
;	COMDAT ?AtlThrowLastWin32@ATL@@YGXXZ
_TEXT	SEGMENT PARA USE32 PUBLIC 'CODE'
_TEXT	ENDS
;	COMDAT ?Release@CStringData@ATL@@QAEXXZ
_TEXT	SEGMENT PARA USE32 PUBLIC 'CODE'
_TEXT	ENDS
;	COMDAT ??_C@_0L@OIIMFBNE@nRefs?5?$CB?$DN?50?$AA@
CONST	SEGMENT DWORD USE32 PUBLIC 'CONST'
CONST	ENDS
;	COMDAT ?GetData@?$CSimpleStringT@D$0A@@ATL@@ABEPAUCStringData@2@XZ
_TEXT	SEGMENT PARA USE32 PUBLIC 'CODE'
_TEXT	ENDS
;	COMDAT ?Attach@?$CSimpleStringT@D$0A@@ATL@@AAEXPAUCStringData@2@@Z
_TEXT	SEGMENT PARA USE32 PUBLIC 'CODE'
_TEXT	ENDS
;	COMDAT ??_C@_0FD@MKDEOELP@C?3?2Program?5Files?2Microsoft?5Visua@
CONST	SEGMENT DWORD USE32 PUBLIC 'CONST'
CONST	ENDS
;	COMDAT ?AtlIsValidString@ATL@@YAHPBDI@Z
_TEXT	SEGMENT PARA USE32 PUBLIC 'CODE'
_TEXT	ENDS
;	COMDAT ??_7?$basic_streambuf@DU?$char_traits@D@std@@@std@@6B@
CONST	SEGMENT DWORD USE32 PUBLIC 'CONST'
CONST	ENDS
;	COMDAT ??_7?$basic_istream@DU?$char_traits@D@std@@@std@@6B@
CONST	SEGMENT DWORD USE32 PUBLIC 'CONST'
CONST	ENDS
;	COMDAT ??_7?$basic_istream@GU?$char_traits@G@std@@@std@@6B@
CONST	SEGMENT DWORD USE32 PUBLIC 'CONST'
CONST	ENDS
;	COMDAT ??_7?$basic_ios@DU?$char_traits@D@std@@@std@@6B@
CONST	SEGMENT DWORD USE32 PUBLIC 'CONST'
CONST	ENDS
;	COMDAT ??_7?$basic_ostream@DU?$char_traits@D@std@@@std@@6B@
CONST	SEGMENT DWORD USE32 PUBLIC 'CONST'
CONST	ENDS
;	COMDAT ??_7?$basic_streambuf@GU?$char_traits@G@std@@@std@@6B@
CONST	SEGMENT DWORD USE32 PUBLIC 'CONST'
CONST	ENDS
;	COMDAT ??_7?$basic_ios@GU?$char_traits@G@std@@@std@@6B@
CONST	SEGMENT DWORD USE32 PUBLIC 'CONST'
CONST	ENDS
;	COMDAT ??_7?$basic_ostream@GU?$char_traits@G@std@@@std@@6B@
CONST	SEGMENT DWORD USE32 PUBLIC 'CONST'
CONST	ENDS
;	COMDAT ?npos@?$basic_string@DU?$char_traits@D@std@@V?$_DebugHeapAllocator@D@2@@std@@2IB
CONST	SEGMENT DWORD USE32 PUBLIC 'CONST'
CONST	ENDS
;	COMDAT ?npos@?$basic_string@DU?$char_traits@D@std@@V?$allocator@D@2@@std@@2IB
CONST	SEGMENT DWORD USE32 PUBLIC 'CONST'
CONST	ENDS
;	COMDAT ??_7?$CComObject@VCAxUIWindow@ATL@@@ATL@@6BIOleInPlaceUIWindow@@@
CONST	SEGMENT DWORD USE32 PUBLIC 'CONST'
CONST	ENDS
;	COMDAT ?QueryInterface@?$CComObject@VCAxUIWindow@ATL@@@ATL@@UAGJABU_GUID@@PAPAX@Z
_TEXT	SEGMENT PARA USE32 PUBLIC 'CODE'
_TEXT	ENDS
;	COMDAT ?_InternalQueryInterface@CAxUIWindow@ATL@@QAEJABU_GUID@@PAPAX@Z
_TEXT	SEGMENT PARA USE32 PUBLIC 'CODE'
_TEXT	ENDS
;	COMDAT ?_GetEntries@CAxUIWindow@ATL@@SGPBU_ATL_INTMAP_ENTRY@2@XZ
_TEXT	SEGMENT PARA USE32 PUBLIC 'CODE'
_TEXT	ENDS
;	COMDAT ??_C@_0M@EHKCMBND@CAxUIWindow?$AA@
CONST	SEGMENT DWORD USE32 PUBLIC 'CONST'
CONST	ENDS
;	COMDAT __GUID_00000115_0000_0000_c000_000000000046
CONST	SEGMENT DWORD USE32 PUBLIC 'CONST'
CONST	ENDS
;	COMDAT __GUID_00000114_0000_0000_c000_000000000046
CONST	SEGMENT DWORD USE32 PUBLIC 'CONST'
CONST	ENDS
;	COMDAT ?_entries@?1??_GetEntries@CAxUIWindow@ATL@@SGPBU_ATL_INTMAP_ENTRY@3@XZ@4QBU43@B
CONST	SEGMENT DWORD USE32 PUBLIC 'CONST'
CONST	ENDS
;	COMDAT ?AddRef@?$CComObject@VCAxUIWindow@ATL@@@ATL@@UAGKXZ
_TEXT	SEGMENT PARA USE32 PUBLIC 'CODE'
_TEXT	ENDS
;	COMDAT ?Release@?$CComObject@VCAxUIWindow@ATL@@@ATL@@UAGKXZ
_TEXT	SEGMENT PARA USE32 PUBLIC 'CODE'
_TEXT	ENDS
;	COMDAT ?GetWindow@CAxUIWindow@ATL@@UAGJPAPAUHWND__@@@Z
_TEXT	SEGMENT PARA USE32 PUBLIC 'CODE'
_TEXT	ENDS
;	COMDAT ?Create@?$CWindowImpl@VCAxUIWindow@ATL@@VCWindow@2@V?$CWinTraits@$0FGAAAAAA@$0A@@2@@ATL@@QAEPAUHWND__@@PAU3@V_U_RECT@2@PBDKKV_U_MENUorID@2@PAX@Z
_TEXT	SEGMENT PARA USE32 PUBLIC 'CODE'
_TEXT	ENDS
;	COMDAT ?GetWndClassName@CWindow@ATL@@SAPBDXZ
_TEXT	SEGMENT PARA USE32 PUBLIC 'CODE'
_TEXT	ENDS
;	COMDAT ?Register@_ATL_WNDCLASSINFOA@ATL@@QAEGPAP6GJPAUHWND__@@IIJ@Z@Z
_TEXT	SEGMENT PARA USE32 PUBLIC 'CODE'
_TEXT	ENDS
;	COMDAT ?_AtlWinModule@ATL@@3VCAtlWinModule@1@A
_BSS	SEGMENT DWORD USE32 PUBLIC 'BSS'
_BSS	ENDS
;	COMDAT _$E1
text$yc	SEGMENT PARA USE32 PUBLIC 'CODE'
text$yc	ENDS
;	COMDAT ??0CAtlWinModule@ATL@@QAE@XZ
_TEXT	SEGMENT PARA USE32 PUBLIC 'CODE'
_TEXT	ENDS
;	COMDAT ??0_ATL_WIN_MODULE70@ATL@@QAE@XZ
_TEXT	SEGMENT PARA USE32 PUBLIC 'CODE'
_TEXT	ENDS
;	COMDAT ??0CComCriticalSection@ATL@@QAE@XZ
_TEXT	SEGMENT PARA USE32 PUBLIC 'CODE'
_TEXT	ENDS
;	COMDAT ??0?$CSimpleArray@GV?$CSimpleArrayEqualHelper@G@ATL@@@ATL@@QAE@XZ
_TEXT	SEGMENT PARA USE32 PUBLIC 'CODE'
_TEXT	ENDS
;	COMDAT ??1?$CSimpleArray@GV?$CSimpleArrayEqualHelper@G@ATL@@@ATL@@QAE@XZ
_TEXT	SEGMENT PARA USE32 PUBLIC 'CODE'
_TEXT	ENDS
;	COMDAT ?RemoveAll@?$CSimpleArray@GV?$CSimpleArrayEqualHelper@G@ATL@@@ATL@@QAEXXZ
_TEXT	SEGMENT PARA USE32 PUBLIC 'CODE'
_TEXT	ENDS
;	COMDAT ??1_ATL_WIN_MODULE70@ATL@@QAE@XZ
_TEXT	SEGMENT PARA USE32 PUBLIC 'CODE'
_TEXT	ENDS
;	COMDAT ?m_bInitFailed@CAtlBaseModule@ATL@@2_NA
_DATA	SEGMENT DWORD USE32 PUBLIC 'DATA'
_DATA	ENDS
;	COMDAT _$E2
text$yd	SEGMENT PARA USE32 PUBLIC 'CODE'
text$yd	ENDS
;	COMDAT ??1CAtlWinModule@ATL@@QAE@XZ
_TEXT	SEGMENT PARA USE32 PUBLIC 'CODE'
_TEXT	ENDS
;	COMDAT ?Term@CAtlWinModule@ATL@@QAEXXZ
_TEXT	SEGMENT PARA USE32 PUBLIC 'CODE'
_TEXT	ENDS
;	COMDAT ?GetModuleInstance@CAtlBaseModule@ATL@@QAEPAUHINSTANCE__@@XZ
_TEXT	SEGMENT PARA USE32 PUBLIC 'CODE'
_TEXT	ENDS
;	COMDAT CRT$XCU
CRT$XCU	SEGMENT DWORD USE32 PUBLIC 'DATA'
CRT$XCU	ENDS
;	COMDAT ?GetWndClassInfo@?$CWindowImpl@VCAxUIWindow@ATL@@VCWindow@2@V?$CWinTraits@$0FGAAAAAA@$0A@@2@@ATL@@SAAAU_ATL_WNDCLASSINFOA@2@XZ
_TEXT	SEGMENT PARA USE32 PUBLIC 'CODE'
_TEXT	ENDS
;	COMDAT ?StartWindowProc@?$CWindowImplBaseT@VCWindow@ATL@@V?$CWinTraits@$0FGAAAAAA@$0A@@2@@ATL@@SGJPAUHWND__@@IIJ@Z
_TEXT	SEGMENT PARA USE32 PUBLIC 'CODE'
_TEXT	ENDS
;	COMDAT ?ExtractCreateWndData@CAtlWinModule@ATL@@QAEPAXXZ
_TEXT	SEGMENT PARA USE32 PUBLIC 'CODE'
_TEXT	ENDS
;	COMDAT ?Init@CWndProcThunk@ATL@@QAEXP6GJPAUHWND__@@IIJ@ZPAX@Z
_TEXT	SEGMENT PARA USE32 PUBLIC 'CODE'
_TEXT	ENDS
;	COMDAT ?Init@CDynamicStdCallThunk@ATL@@QAEXKPAX@Z
_TEXT	SEGMENT PARA USE32 PUBLIC 'CODE'
_TEXT	ENDS
;	COMDAT ??_C@_06CIAHICCP@pThunk?$AA@
CONST	SEGMENT DWORD USE32 PUBLIC 'CONST'
CONST	ENDS
;	COMDAT ?Init@_stdcallthunk@ATL@@QAEXKPAX@Z
_TEXT	SEGMENT PARA USE32 PUBLIC 'CODE'
_TEXT	ENDS
;	COMDAT ?GetWNDPROC@CWndProcThunk@ATL@@QAEP6GJPAUHWND__@@IIJ@ZXZ
_TEXT	SEGMENT PARA USE32 PUBLIC 'CODE'
_TEXT	ENDS
;	COMDAT ?GetCodeAddress@CDynamicStdCallThunk@ATL@@QAEPAXXZ
_TEXT	SEGMENT PARA USE32 PUBLIC 'CODE'
_TEXT	ENDS
;	COMDAT ?GetCodeAddress@_stdcallthunk@ATL@@QAEPAXXZ
_TEXT	SEGMENT PARA USE32 PUBLIC 'CODE'
_TEXT	ENDS
;	COMDAT ?SetWindowLongPtrA@@YAJPAUHWND__@@HJ@Z
_TEXT	SEGMENT PARA USE32 PUBLIC 'CODE'
_TEXT	ENDS
;	COMDAT ?wc@?1??GetWndClassInfo@?$CWindowImpl@VCAxUIWindow@ATL@@VCWindow@2@V?$CWinTraits@$0FGAAAAAA@$0A@@2@@ATL@@SAAAU_ATL_WNDCLASSINFOA@3@XZ@4U43@A
_DATA	SEGMENT DWORD USE32 PUBLIC 'DATA'
_DATA	ENDS
;	COMDAT ?GetWndStyle@?$CWindowImplBaseT@VCWindow@ATL@@V?$CWinTraits@$0FGAAAAAA@$0A@@2@@ATL@@SAKK@Z
_TEXT	SEGMENT PARA USE32 PUBLIC 'CODE'
_TEXT	ENDS
;	COMDAT ?GetWndStyle@?$CWinTraits@$0FGAAAAAA@$0A@@ATL@@SAKK@Z
_TEXT	SEGMENT PARA USE32 PUBLIC 'CODE'
_TEXT	ENDS
;	COMDAT ?GetWndExStyle@?$CWindowImplBaseT@VCWindow@ATL@@V?$CWinTraits@$0FGAAAAAA@$0A@@2@@ATL@@SAKK@Z
_TEXT	SEGMENT PARA USE32 PUBLIC 'CODE'
_TEXT	ENDS
;	COMDAT ?GetWndExStyle@?$CWinTraits@$0FGAAAAAA@$0A@@ATL@@SAKK@Z
_TEXT	SEGMENT PARA USE32 PUBLIC 'CODE'
_TEXT	ENDS
;	COMDAT ?GetWndCaption@?$CWindowImpl@VCAxUIWindow@ATL@@VCWindow@2@V?$CWinTraits@$0FGAAAAAA@$0A@@2@@ATL@@SAPBDXZ
_TEXT	SEGMENT PARA USE32 PUBLIC 'CODE'
_TEXT	ENDS
;	COMDAT ?Create@?$CWindowImplBaseT@VCWindow@ATL@@V?$CWinTraits@$0FGAAAAAA@$0A@@2@@ATL@@QAEPAUHWND__@@PAU3@V_U_RECT@2@PBDKKV_U_MENUorID@2@GPAX@Z
_TEXT	SEGMENT PARA USE32 PUBLIC 'CODE'
_TEXT	ENDS
;	COMDAT ?AddCreateWndData@CAtlWinModule@ATL@@QAEXPAU_AtlCreateWndData@2@PAX@Z
_TEXT	SEGMENT PARA USE32 PUBLIC 'CODE'
_TEXT	ENDS
;	COMDAT ?rcDefault@CWindow@ATL@@2UtagRECT@@A
_DATA	SEGMENT DWORD USE32 PUBLIC 'DATA'
_DATA	ENDS
;	COMDAT ??0_U_MENUorID@ATL@@QAE@I@Z
_TEXT	SEGMENT PARA USE32 PUBLIC 'CODE'
_TEXT	ENDS
;	COMDAT ??_C@_0BA@FJBCDDKK@AXWIN?5UI?5Window?$AA@
CONST	SEGMENT DWORD USE32 PUBLIC 'CONST'
CONST	ENDS
;	COMDAT ??0_U_RECT@ATL@@QAE@PAUtagRECT@@@Z
_TEXT	SEGMENT PARA USE32 PUBLIC 'CODE'
_TEXT	ENDS
;	COMDAT ?ContextSensitiveHelp@CAxUIWindow@ATL@@UAGJH@Z
_TEXT	SEGMENT PARA USE32 PUBLIC 'CODE'
_TEXT	ENDS
;	COMDAT ?GetBorder@CAxUIWindow@ATL@@UAGJPAUtagRECT@@@Z
_TEXT	SEGMENT PARA USE32 PUBLIC 'CODE'
_TEXT	ENDS
;	COMDAT ?RequestBorderSpace@CAxUIWindow@ATL@@UAGJPBUtagRECT@@@Z
_TEXT	SEGMENT PARA USE32 PUBLIC 'CODE'
_TEXT	ENDS
;	COMDAT ?SetBorderSpace@CAxUIWindow@ATL@@UAGJPBUtagRECT@@@Z
_TEXT	SEGMENT PARA USE32 PUBLIC 'CODE'
_TEXT	ENDS
;	COMDAT ?SetActiveObject@CAxUIWindow@ATL@@UAGJPAUIOleInPlaceActiveObject@@PBG@Z
_TEXT	SEGMENT PARA USE32 PUBLIC 'CODE'
_TEXT	ENDS
;	COMDAT ??4?$CComPtr@UIOleInPlaceActiveObject@@@ATL@@QAEPAUIOleInPlaceActiveObject@@PAU2@@Z
_TEXT	SEGMENT PARA USE32 PUBLIC 'CODE'
_TEXT	ENDS
;	COMDAT ??_7?$CComObject@VCAxUIWindow@ATL@@@ATL@@6B?$CWindowImpl@VCAxUIWindow@ATL@@VCWindow@2@V?$CWinTraits@$0FGAAAAAA@$0A@@2@@1@@
CONST	SEGMENT DWORD USE32 PUBLIC 'CONST'
CONST	ENDS
;	COMDAT ?ProcessWindowMessage@CAxUIWindow@ATL@@UAEHPAUHWND__@@IIJAAJK@Z
_TEXT	SEGMENT PARA USE32 PUBLIC 'CODE'
_TEXT	ENDS
;	COMDAT ??_G?$CComObject@VCAxUIWindow@ATL@@@ATL@@UAEPAXI@Z
_TEXT	SEGMENT PARA USE32 PUBLIC 'CODE'
_TEXT	ENDS
;	COMDAT ??1?$CComObject@VCAxUIWindow@ATL@@@ATL@@UAE@XZ
_TEXT	SEGMENT PARA USE32 PUBLIC 'CODE'
_TEXT	ENDS
;	COMDAT ?FinalRelease@CAxUIWindow@ATL@@QAEXXZ
_TEXT	SEGMENT PARA USE32 PUBLIC 'CODE'
_TEXT	ENDS
;	COMDAT ?Release@?$CComPtrBase@UIOleInPlaceActiveObject@@@ATL@@QAEXXZ
_TEXT	SEGMENT PARA USE32 PUBLIC 'CODE'
_TEXT	ENDS
;	COMDAT ?DestroyWindow@?$CWindowImplBaseT@VCWindow@ATL@@V?$CWinTraits@$0FGAAAAAA@$0A@@2@@ATL@@QAEHXZ
_TEXT	SEGMENT PARA USE32 PUBLIC 'CODE'
_TEXT	ENDS
;	COMDAT ??_C@_0BD@OAFOKPBM@?3?3IsWindow?$CIm_hWnd?$CJ?$AA@
CONST	SEGMENT DWORD USE32 PUBLIC 'CONST'
CONST	ENDS
;	COMDAT ??_C@_0EP@FECMNBMC@C?3?2Program?5Files?2Microsoft?5Visua@
CONST	SEGMENT DWORD USE32 PUBLIC 'CONST'
CONST	ENDS
;	COMDAT ?GetWindowProc@?$CWindowImplBaseT@VCWindow@ATL@@V?$CWinTraits@$0FGAAAAAA@$0A@@2@@ATL@@UAEP6GJPAUHWND__@@IIJ@ZXZ
_TEXT	SEGMENT PARA USE32 PUBLIC 'CODE'
_TEXT	ENDS
;	COMDAT ?WindowProc@?$CWindowImplBaseT@VCWindow@ATL@@V?$CWinTraits@$0FGAAAAAA@$0A@@2@@ATL@@SGJPAUHWND__@@IIJ@Z
_TEXT	SEGMENT PARA USE32 PUBLIC 'CODE'
_TEXT	ENDS
;	COMDAT ??0_ATL_MSG@ATL@@QAE@PAUHWND__@@IIJH@Z
_TEXT	SEGMENT PARA USE32 PUBLIC 'CODE'
_TEXT	ENDS
;	COMDAT ?DefWindowProcA@?$CWindowImplBaseT@VCWindow@ATL@@V?$CWinTraits@$0FGAAAAAA@$0A@@2@@ATL@@QAEJIIJ@Z
_TEXT	SEGMENT PARA USE32 PUBLIC 'CODE'
_TEXT	ENDS
;	COMDAT ?GetWindowLongPtrA@@YAJPAUHWND__@@H@Z
_TEXT	SEGMENT PARA USE32 PUBLIC 'CODE'
_TEXT	ENDS
;	COMDAT ?OnFinalMessage@?$CWindowImplBaseT@VCWindow@ATL@@V?$CWinTraits@$0FGAAAAAA@$0A@@2@@ATL@@UAEXPAUHWND__@@@Z
_TEXT	SEGMENT PARA USE32 PUBLIC 'CODE'
_TEXT	ENDS
;	COMDAT ??1CAxUIWindow@ATL@@UAE@XZ
_TEXT	SEGMENT PARA USE32 PUBLIC 'CODE'
_TEXT	ENDS
;	COMDAT ??1?$CWindowImpl@VCAxUIWindow@ATL@@VCWindow@2@V?$CWinTraits@$0FGAAAAAA@$0A@@2@@ATL@@UAE@XZ
_TEXT	SEGMENT PARA USE32 PUBLIC 'CODE'
_TEXT	ENDS
;	COMDAT ??1?$CWindowImplBaseT@VCWindow@ATL@@V?$CWinTraits@$0FGAAAAAA@$0A@@2@@ATL@@UAE@XZ
_TEXT	SEGMENT PARA USE32 PUBLIC 'CODE'
_TEXT	ENDS
;	COMDAT ??1?$CWindowImplRoot@VCWindow@ATL@@@ATL@@UAE@XZ
_TEXT	SEGMENT PARA USE32 PUBLIC 'CODE'
_TEXT	ENDS
;	COMDAT ??1CWndProcThunk@ATL@@QAE@XZ
_TEXT	SEGMENT PARA USE32 PUBLIC 'CODE'
_TEXT	ENDS
;	COMDAT ??1CDynamicStdCallThunk@ATL@@QAE@XZ
_TEXT	SEGMENT PARA USE32 PUBLIC 'CODE'
_TEXT	ENDS
;	COMDAT ??_C@_0DE@JJEOCICO@ERROR?5?9?5Object?5deleted?5before?5wi@
CONST	SEGMENT DWORD USE32 PUBLIC 'CONST'
CONST	ENDS
;	COMDAT ??1?$CComPtr@UIOleInPlaceActiveObject@@@ATL@@QAE@XZ
_TEXT	SEGMENT PARA USE32 PUBLIC 'CODE'
_TEXT	ENDS
;	COMDAT ??1?$CComPtrBase@UIOleInPlaceActiveObject@@@ATL@@QAE@XZ
_TEXT	SEGMENT PARA USE32 PUBLIC 'CODE'
_TEXT	ENDS
;	COMDAT ??0CAxUIWindow@ATL@@QAE@XZ
_TEXT	SEGMENT PARA USE32 PUBLIC 'CODE'
_TEXT	ENDS
;	COMDAT ??0?$CWindowImpl@VCAxUIWindow@ATL@@VCWindow@2@V?$CWinTraits@$0FGAAAAAA@$0A@@2@@ATL@@QAE@XZ
_TEXT	SEGMENT PARA USE32 PUBLIC 'CODE'
_TEXT	ENDS
;	COMDAT ??0?$CWindowImplBaseT@VCWindow@ATL@@V?$CWinTraits@$0FGAAAAAA@$0A@@2@@ATL@@QAE@XZ
_TEXT	SEGMENT PARA USE32 PUBLIC 'CODE'
_TEXT	ENDS
;	COMDAT ??0?$CWindowImplRoot@VCWindow@ATL@@@ATL@@QAE@XZ
_TEXT	SEGMENT PARA USE32 PUBLIC 'CODE'
_TEXT	ENDS
;	COMDAT ??0CWindow@ATL@@QAE@PAUHWND__@@@Z
_TEXT	SEGMENT PARA USE32 PUBLIC 'CODE'
_TEXT	ENDS
;	COMDAT ??0CMessageMap@ATL@@QAE@XZ
_TEXT	SEGMENT PARA USE32 PUBLIC 'CODE'
_TEXT	ENDS
;	COMDAT ??0CWndProcThunk@ATL@@QAE@XZ
_TEXT	SEGMENT PARA USE32 PUBLIC 'CODE'
_TEXT	ENDS
;	COMDAT ??0CDynamicStdCallThunk@ATL@@QAE@XZ
_TEXT	SEGMENT PARA USE32 PUBLIC 'CODE'
_TEXT	ENDS
;	COMDAT ??0IOleInPlaceUIWindow@@QAE@XZ
_TEXT	SEGMENT PARA USE32 PUBLIC 'CODE'
_TEXT	ENDS
;	COMDAT ??0IOleWindow@@QAE@XZ
_TEXT	SEGMENT PARA USE32 PUBLIC 'CODE'
_TEXT	ENDS
;	COMDAT ??0?$CComPtr@UIOleInPlaceActiveObject@@@ATL@@QAE@XZ
_TEXT	SEGMENT PARA USE32 PUBLIC 'CODE'
_TEXT	ENDS
;	COMDAT ??0?$CComPtrBase@UIOleInPlaceActiveObject@@@ATL@@IAE@XZ
_TEXT	SEGMENT PARA USE32 PUBLIC 'CODE'
_TEXT	ENDS
;	COMDAT ?_pAtlModule@ATL@@3PAVCAtlModule@1@A
_DATA	SEGMENT DWORD USE32 PUBLIC 'DATA'
_DATA	ENDS
;	COMDAT ??_7?$CComObject@VCAxFrameWindow@ATL@@@ATL@@6BIOleInPlaceFrame@@@
CONST	SEGMENT DWORD USE32 PUBLIC 'CONST'
CONST	ENDS
;	COMDAT ?QueryInterface@?$CComObject@VCAxFrameWindow@ATL@@@ATL@@UAGJABU_GUID@@PAPAX@Z
_TEXT	SEGMENT PARA USE32 PUBLIC 'CODE'
_TEXT	ENDS
;	COMDAT ?_InternalQueryInterface@CAxFrameWindow@ATL@@QAEJABU_GUID@@PAPAX@Z
_TEXT	SEGMENT PARA USE32 PUBLIC 'CODE'
_TEXT	ENDS
;	COMDAT ?_GetEntries@CAxFrameWindow@ATL@@SGPBU_ATL_INTMAP_ENTRY@2@XZ
_TEXT	SEGMENT PARA USE32 PUBLIC 'CODE'
_TEXT	ENDS
;	COMDAT ??_C@_0P@MFMDEJMN@CAxFrameWindow?$AA@
CONST	SEGMENT DWORD USE32 PUBLIC 'CONST'
CONST	ENDS
;	COMDAT __GUID_00000116_0000_0000_c000_000000000046
CONST	SEGMENT DWORD USE32 PUBLIC 'CONST'
CONST	ENDS
;	COMDAT ?_entries@?1??_GetEntries@CAxFrameWindow@ATL@@SGPBU_ATL_INTMAP_ENTRY@3@XZ@4QBU43@B
CONST	SEGMENT DWORD USE32 PUBLIC 'CONST'
CONST	ENDS
;	COMDAT ?AddRef@?$CComObject@VCAxFrameWindow@ATL@@@ATL@@UAGKXZ
_TEXT	SEGMENT PARA USE32 PUBLIC 'CODE'
_TEXT	ENDS
;	COMDAT ?Release@?$CComObject@VCAxFrameWindow@ATL@@@ATL@@UAGKXZ
_TEXT	SEGMENT PARA USE32 PUBLIC 'CODE'
_TEXT	ENDS
;	COMDAT ?GetWindow@CAxFrameWindow@ATL@@UAGJPAPAUHWND__@@@Z
_TEXT	SEGMENT PARA USE32 PUBLIC 'CODE'
_TEXT	ENDS
;	COMDAT ??_C@_0L@JIHHHPOK@phwnd?5?$CB?$DN?50?$AA@
CONST	SEGMENT DWORD USE32 PUBLIC 'CONST'
CONST	ENDS
;	COMDAT ??_C@_0FA@NHACCMFP@C?3?2Program?5Files?2Microsoft?5Visua@
CONST	SEGMENT DWORD USE32 PUBLIC 'CONST'
CONST	ENDS
;	COMDAT ?Create@?$CWindowImpl@VCAxFrameWindow@ATL@@VCWindow@2@V?$CWinTraits@$0FGAAAAAA@$0A@@2@@ATL@@QAEPAUHWND__@@PAU3@V_U_RECT@2@PBDKKV_U_MENUorID@2@PAX@Z
_TEXT	SEGMENT PARA USE32 PUBLIC 'CODE'
_TEXT	ENDS
;	COMDAT ?GetWndClassInfo@?$CWindowImpl@VCAxFrameWindow@ATL@@VCWindow@2@V?$CWinTraits@$0FGAAAAAA@$0A@@2@@ATL@@SAAAU_ATL_WNDCLASSINFOA@2@XZ
_TEXT	SEGMENT PARA USE32 PUBLIC 'CODE'
_TEXT	ENDS
;	COMDAT ?wc@?1??GetWndClassInfo@?$CWindowImpl@VCAxFrameWindow@ATL@@VCWindow@2@V?$CWinTraits@$0FGAAAAAA@$0A@@2@@ATL@@SAAAU_ATL_WNDCLASSINFOA@3@XZ@4U43@A
_DATA	SEGMENT DWORD USE32 PUBLIC 'DATA'
_DATA	ENDS
;	COMDAT ?GetWndCaption@?$CWindowImpl@VCAxFrameWindow@ATL@@VCWindow@2@V?$CWinTraits@$0FGAAAAAA@$0A@@2@@ATL@@SAPBDXZ
_TEXT	SEGMENT PARA USE32 PUBLIC 'CODE'
_TEXT	ENDS
;	COMDAT ??_C@_0BD@LIOMMJMF@AXWIN?5Frame?5Window?$AA@
CONST	SEGMENT DWORD USE32 PUBLIC 'CONST'
CONST	ENDS
;	COMDAT ?ContextSensitiveHelp@CAxFrameWindow@ATL@@UAGJH@Z
_TEXT	SEGMENT PARA USE32 PUBLIC 'CODE'
_TEXT	ENDS
;	COMDAT ?GetBorder@CAxFrameWindow@ATL@@UAGJPAUtagRECT@@@Z
_TEXT	SEGMENT PARA USE32 PUBLIC 'CODE'
_TEXT	ENDS
;	COMDAT ?RequestBorderSpace@CAxFrameWindow@ATL@@UAGJPBUtagRECT@@@Z
_TEXT	SEGMENT PARA USE32 PUBLIC 'CODE'
_TEXT	ENDS
;	COMDAT ?SetBorderSpace@CAxFrameWindow@ATL@@UAGJPBUtagRECT@@@Z
_TEXT	SEGMENT PARA USE32 PUBLIC 'CODE'
_TEXT	ENDS
;	COMDAT ?SetActiveObject@CAxFrameWindow@ATL@@UAGJPAUIOleInPlaceActiveObject@@PBG@Z
_TEXT	SEGMENT PARA USE32 PUBLIC 'CODE'
_TEXT	ENDS
;	COMDAT ?InsertMenus@CAxFrameWindow@ATL@@UAGJPAUHMENU__@@PAUtagOleMenuGroupWidths@@@Z
_TEXT	SEGMENT PARA USE32 PUBLIC 'CODE'
_TEXT	ENDS
;	COMDAT ?SetMenu@CAxFrameWindow@ATL@@UAGJPAUHMENU__@@PAXPAUHWND__@@@Z
_TEXT	SEGMENT PARA USE32 PUBLIC 'CODE'
_TEXT	ENDS
;	COMDAT ?RemoveMenus@CAxFrameWindow@ATL@@UAGJPAUHMENU__@@@Z
_TEXT	SEGMENT PARA USE32 PUBLIC 'CODE'
_TEXT	ENDS
;	COMDAT ?SetStatusText@CAxFrameWindow@ATL@@UAGJPBG@Z
_TEXT	SEGMENT PARA USE32 PUBLIC 'CODE'
_TEXT	ENDS
;	COMDAT ?EnableModeless@CAxFrameWindow@ATL@@UAGJH@Z
_TEXT	SEGMENT PARA USE32 PUBLIC 'CODE'
_TEXT	ENDS
;	COMDAT ?TranslateAcceleratorA@CAxFrameWindow@ATL@@UAGJPAUtagMSG@@G@Z
_TEXT	SEGMENT PARA USE32 PUBLIC 'CODE'
_TEXT	ENDS
;	COMDAT ??_7?$CComObject@VCAxFrameWindow@ATL@@@ATL@@6B?$CWindowImpl@VCAxFrameWindow@ATL@@VCWindow@2@V?$CWinTraits@$0FGAAAAAA@$0A@@2@@1@@
CONST	SEGMENT DWORD USE32 PUBLIC 'CONST'
CONST	ENDS
;	COMDAT ?ProcessWindowMessage@CAxFrameWindow@ATL@@UAEHPAUHWND__@@IIJAAJK@Z
_TEXT	SEGMENT PARA USE32 PUBLIC 'CODE'
_TEXT	ENDS
;	COMDAT ??_G?$CComObject@VCAxFrameWindow@ATL@@@ATL@@UAEPAXI@Z
_TEXT	SEGMENT PARA USE32 PUBLIC 'CODE'
_TEXT	ENDS
;	COMDAT ??1?$CComObject@VCAxFrameWindow@ATL@@@ATL@@UAE@XZ
_TEXT	SEGMENT PARA USE32 PUBLIC 'CODE'
_TEXT	ENDS
;	COMDAT ?FinalRelease@CAxFrameWindow@ATL@@QAEXXZ
_TEXT	SEGMENT PARA USE32 PUBLIC 'CODE'
_TEXT	ENDS
;	COMDAT ??1CAxFrameWindow@ATL@@UAE@XZ
_TEXT	SEGMENT PARA USE32 PUBLIC 'CODE'
_TEXT	ENDS
;	COMDAT ??1?$CWindowImpl@VCAxFrameWindow@ATL@@VCWindow@2@V?$CWinTraits@$0FGAAAAAA@$0A@@2@@ATL@@UAE@XZ
_TEXT	SEGMENT PARA USE32 PUBLIC 'CODE'
_TEXT	ENDS
;	COMDAT ??0CAxFrameWindow@ATL@@QAE@XZ
_TEXT	SEGMENT PARA USE32 PUBLIC 'CODE'
_TEXT	ENDS
;	COMDAT ??0?$CWindowImpl@VCAxFrameWindow@ATL@@VCWindow@2@V?$CWinTraits@$0FGAAAAAA@$0A@@2@@ATL@@QAE@XZ
_TEXT	SEGMENT PARA USE32 PUBLIC 'CODE'
_TEXT	ENDS
;	COMDAT ??0IOleInPlaceFrame@@QAE@XZ
_TEXT	SEGMENT PARA USE32 PUBLIC 'CODE'
_TEXT	ENDS
;	COMDAT ?PrepareWrite@?$CSimpleStringT@D$0A@@ATL@@AAEPADH@Z
_TEXT	SEGMENT PARA USE32 PUBLIC 'CODE'
_TEXT	ENDS
;	COMDAT ?PrepareWrite2@?$CSimpleStringT@D$0A@@ATL@@AAEXH@Z
_TEXT	SEGMENT PARA USE32 PUBLIC 'CODE'
_TEXT	ENDS
;	COMDAT ?IsShared@CStringData@ATL@@QBE_NXZ
_TEXT	SEGMENT PARA USE32 PUBLIC 'CODE'
_TEXT	ENDS
;	COMDAT ?Fork@?$CSimpleStringT@D$0A@@ATL@@AAEXH@Z
_TEXT	SEGMENT PARA USE32 PUBLIC 'CODE'
_TEXT	ENDS
;	COMDAT ?Reallocate@?$CSimpleStringT@D$0A@@ATL@@AAEXH@Z
_TEXT	SEGMENT PARA USE32 PUBLIC 'CODE'
_TEXT	ENDS
;	COMDAT ??_C@_0CB@GFHAPKDK@pOldData?9?$DOnAllocLength?5?$DM?5nLength@
CONST	SEGMENT DWORD USE32 PUBLIC 'CONST'
CONST	ENDS
;	COMDAT ?A2WBSTR@@YAPAGPBDH@Z
_TEXT	SEGMENT PARA USE32 PUBLIC 'CODE'
_TEXT	ENDS
;	COMDAT ??_C@_0BJ@OGJFCAD@nResult?5?$DN?$DN?5nConvertedLen?$AA@
CONST	SEGMENT DWORD USE32 PUBLIC 'CONST'
CONST	ENDS
;	COMDAT ??_C@_0FA@OHHMODBN@C?3?2Program?5Files?2Microsoft?5Visua@
CONST	SEGMENT DWORD USE32 PUBLIC 'CONST'
CONST	ENDS
;	COMDAT ??_7CLicense@@6B@
CONST	SEGMENT DWORD USE32 PUBLIC 'CONST'
CONST	ENDS
;	COMDAT ?licenseTimeout@CLicense@@0HB
CONST	SEGMENT DWORD USE32 PUBLIC 'CONST'
CONST	ENDS
;	COMDAT ??_C@_01GBGANLPD@0?$AA@
CONST	SEGMENT DWORD USE32 PUBLIC 'CONST'
CONST	ENDS
;	COMDAT ?szInvalidDateTimeSpan@ATL@@3QBDB
CONST	SEGMENT DWORD USE32 PUBLIC 'CONST'
CONST	ENDS
;	COMDAT ?szInvalidDateTime@ATL@@3QBDB
CONST	SEGMENT DWORD USE32 PUBLIC 'CONST'
CONST	ENDS
;	COMDAT ?Week@CFileTime@ATL@@2_KB
CONST	SEGMENT DWORD USE32 PUBLIC 'CONST'
CONST	ENDS
;	COMDAT ?Day@CFileTime@ATL@@2_KB
CONST	SEGMENT DWORD USE32 PUBLIC 'CONST'
CONST	ENDS
;	COMDAT ?Hour@CFileTime@ATL@@2_KB
CONST	SEGMENT DWORD USE32 PUBLIC 'CONST'
CONST	ENDS
;	COMDAT ?Minute@CFileTime@ATL@@2_KB
CONST	SEGMENT DWORD USE32 PUBLIC 'CONST'
CONST	ENDS
;	COMDAT ?Second@CFileTime@ATL@@2_KB
CONST	SEGMENT DWORD USE32 PUBLIC 'CONST'
CONST	ENDS
;	COMDAT ?Millisecond@CFileTime@ATL@@2_KB
CONST	SEGMENT DWORD USE32 PUBLIC 'CONST'
CONST	ENDS
;	COMDAT ?c_bIsMFCDLLTraits@?$_MFCDLLTraitsCheck@GV?$StrTraitATL@GV?$ChTraitsCRT@G@ATL@@@ATL@@@_CSTRING_IMPL_@ATL@@2_NB
CONST	SEGMENT DWORD USE32 PUBLIC 'CONST'
CONST	ENDS
;	COMDAT ?c_bIsMFCDLLTraits@?$_MFCDLLTraitsCheck@DV?$StrTraitATL@DV?$ChTraitsCRT@D@ATL@@@ATL@@@_CSTRING_IMPL_@ATL@@2_NB
CONST	SEGMENT DWORD USE32 PUBLIC 'CONST'
CONST	ENDS
;	COMDAT ??_C@_09BBJEMDLA@nRet?5?$CB?$DN?50?$AA@
CONST	SEGMENT DWORD USE32 PUBLIC 'CONST'
CONST	ENDS
;	COMDAT ?AddRef@CStringData@ATL@@QAEXXZ
_TEXT	SEGMENT PARA USE32 PUBLIC 'CODE'
_TEXT	ENDS
;	COMDAT ??_C@_09EEBKLCFA@nRefs?5?$DO?50?$AA@
CONST	SEGMENT DWORD USE32 PUBLIC 'CONST'
CONST	ENDS
;	COMDAT ?SetManager@CNilStringData@ATL@@QAEXPAUIAtlStringMgr@2@@Z
_TEXT	SEGMENT PARA USE32 PUBLIC 'CODE'
_TEXT	ENDS
;	COMDAT ??_C@_0BA@MLJMCNFJ@pStringMgr?5?$DN?$DN?50?$AA@
CONST	SEGMENT DWORD USE32 PUBLIC 'CONST'
CONST	ENDS
;	COMDAT ??0CNilStringData@ATL@@QAE@XZ
_TEXT	SEGMENT PARA USE32 PUBLIC 'CODE'
_TEXT	ENDS
;	COMDAT ??_7CAtlStringMgr@ATL@@6B@
CONST	SEGMENT DWORD USE32 PUBLIC 'CONST'
CONST	ENDS
;	COMDAT ??_7IFixedStringLog@ATL@@6B@
CONST	SEGMENT DWORD USE32 PUBLIC 'CONST'
CONST	ENDS
;	COMDAT ??BCTraceCategory@ATL@@QBEKXZ
_TEXT	SEGMENT PARA USE32 PUBLIC 'CODE'
_TEXT	ENDS
;	COMDAT ??0CTraceFileAndLineInfo@ATL@@QAE@PBDH@Z
_TEXT	SEGMENT PARA USE32 PUBLIC 'CODE'
_TEXT	ENDS
;	COMDAT ??RCTraceFileAndLineInfo@ATL@@QBAXKIPBDZZ
_TEXT	SEGMENT PARA USE32 PUBLIC 'CODE'
_TEXT	ENDS
;	COMDAT ?TraceV@CTrace@ATL@@QBAXPBDHKI0PAD@Z
_TEXT	SEGMENT PARA USE32 PUBLIC 'CODE'
_TEXT	ENDS
;	COMDAT ??_7CFixedStringLog@ATL@@6B@
CONST	SEGMENT DWORD USE32 PUBLIC 'CONST'
CONST	ENDS
;	COMDAT ?s_pLog@CFixedStringMgr@ATL@@2PAVIFixedStringLog@2@A
_DATA	SEGMENT DWORD USE32 PUBLIC 'DATA'
_DATA	ENDS
;	COMDAT ?data@CStringData@ATL@@QAEPAXXZ
_TEXT	SEGMENT PARA USE32 PUBLIC 'CODE'
_TEXT	ENDS
;	COMDAT ??_7CFixedStringMgr@ATL@@6B@
CONST	SEGMENT DWORD USE32 PUBLIC 'CONST'
CONST	ENDS
;	COMDAT ?AtlA2WHelper@@YGPAGPAGPBDHI@Z
_TEXT	SEGMENT PARA USE32 PUBLIC 'CODE'
_TEXT	ENDS
;	COMDAT ??_C@_08DMHHBMMN@lpa?5?$CB?$DN?50?$AA@
CONST	SEGMENT DWORD USE32 PUBLIC 'CONST'
CONST	ENDS
;	COMDAT ??_C@_08DIHJLFDJ@lpw?5?$CB?$DN?50?$AA@
CONST	SEGMENT DWORD USE32 PUBLIC 'CONST'
CONST	ENDS
;	COMDAT ?AtlThrow@ATL@@YGXJ@Z
_TEXT	SEGMENT PARA USE32 PUBLIC 'CODE'
_TEXT	ENDS
;	COMDAT ??_C@_0FC@CFIFHLCH@C?3?2Program?5Files?2Microsoft?5Visua@
CONST	SEGMENT DWORD USE32 PUBLIC 'CONST'
CONST	ENDS
;	COMDAT ??_C@_0BF@IAAKIJDJ@AtlThrow?3?5hr?5?$DN?50x?$CFx?6?$AA@
CONST	SEGMENT DWORD USE32 PUBLIC 'CONST'
CONST	ENDS
;	COMDAT ??0CAtlException@ATL@@QAE@J@Z
_TEXT	SEGMENT PARA USE32 PUBLIC 'CODE'
_TEXT	ENDS
;	COMDAT __TI1?AVCAtlException@ATL@@
xdata$x	SEGMENT DWORD USE32 PUBLIC 'CONST'
xdata$x	ENDS
;	COMDAT __CTA1?AVCAtlException@ATL@@
xdata$x	SEGMENT DWORD USE32 PUBLIC 'CONST'
xdata$x	ENDS
;	COMDAT __CT??_R0?AVCAtlException@ATL@@@84
xdata$x	SEGMENT DWORD USE32 PUBLIC 'CONST'
xdata$x	ENDS
;	COMDAT ??_R0?AVCAtlException@ATL@@@8
_DATA	SEGMENT DWORD USE32 PUBLIC 'DATA'
_DATA	ENDS
;	COMDAT ?Allocate@?$CAtlSafeAllocBufferManager@VCCRTAllocator@ATL@@@_ATL_SAFE_ALLOCA_IMPL@ATL@@QAEPAXK@Z
_TEXT	SEGMENT PARA USE32 PUBLIC 'CODE'
_TEXT	ENDS
;	COMDAT ?Allocate@CCRTAllocator@ATL@@SAPAXI@Z
_TEXT	SEGMENT PARA USE32 PUBLIC 'CODE'
_TEXT	ENDS
;	COMDAT ?GetData@CAtlSafeAllocBufferNode@?$CAtlSafeAllocBufferManager@VCCRTAllocator@ATL@@@_ATL_SAFE_ALLOCA_IMPL@ATL@@QAEPAXXZ
_TEXT	SEGMENT PARA USE32 PUBLIC 'CODE'
_TEXT	ENDS
;	COMDAT ?_AtlVerifyStackAvailable@_ATL_SAFE_ALLOCA_IMPL@ATL@@YA_NK@Z
_TEXT	SEGMENT PARA USE32 PUBLIC 'CODE'
_TEXT	ENDS
;	COMDAT ?AtlW2AHelper@@YGPADPADPBGHI@Z
_TEXT	SEGMENT PARA USE32 PUBLIC 'CODE'
_TEXT	ENDS
;	COMDAT ??1?$CAtlSafeAllocBufferManager@VCCRTAllocator@ATL@@@_ATL_SAFE_ALLOCA_IMPL@ATL@@QAE@XZ
_TEXT	SEGMENT PARA USE32 PUBLIC 'CODE'
_TEXT	ENDS
;	COMDAT ?Free@CCRTAllocator@ATL@@SAXPAX@Z
_TEXT	SEGMENT PARA USE32 PUBLIC 'CODE'
_TEXT	ENDS
;	COMDAT ??0?$CAtlSafeAllocBufferManager@VCCRTAllocator@ATL@@@_ATL_SAFE_ALLOCA_IMPL@ATL@@QAE@XZ
_TEXT	SEGMENT PARA USE32 PUBLIC 'CODE'
_TEXT	ENDS
;	COMDAT ?_strthunks@ATL@@3U_AtlStringThunks@1@A
_DATA	SEGMENT DWORD USE32 PUBLIC 'DATA'
_DATA	ENDS
;	COMDAT ??B?$CTempBuffer@D$0IA@VCCRTAllocator@ATL@@@ATL@@QBEPADXZ
_TEXT	SEGMENT PARA USE32 PUBLIC 'CODE'
_TEXT	ENDS
;	COMDAT ?Allocate@?$CTempBuffer@D$0IA@VCCRTAllocator@ATL@@@ATL@@QAEPADI@Z
_TEXT	SEGMENT PARA USE32 PUBLIC 'CODE'
_TEXT	ENDS
;	COMDAT ?AllocateBytes@?$CTempBuffer@D$0IA@VCCRTAllocator@ATL@@@ATL@@QAEPADI@Z
_TEXT	SEGMENT PARA USE32 PUBLIC 'CODE'
_TEXT	ENDS
;	COMDAT ??_C@_08GPODJFIN@m_p?5?$DN?$DN?50?$AA@
CONST	SEGMENT DWORD USE32 PUBLIC 'CONST'
CONST	ENDS
;	COMDAT ??_C@_0FB@IAFJMJBP@C?3?2Program?5Files?2Microsoft?5Visua@
CONST	SEGMENT DWORD USE32 PUBLIC 'CONST'
CONST	ENDS
;	COMDAT ?AllocateHeap@?$CTempBuffer@D$0IA@VCCRTAllocator@ATL@@@ATL@@AAEXI@Z
_TEXT	SEGMENT PARA USE32 PUBLIC 'CODE'
_TEXT	ENDS
;	COMDAT ??1?$CTempBuffer@D$0IA@VCCRTAllocator@ATL@@@ATL@@QAE@XZ
_TEXT	SEGMENT PARA USE32 PUBLIC 'CODE'
_TEXT	ENDS
;	COMDAT ?FreeHeap@?$CTempBuffer@D$0IA@VCCRTAllocator@ATL@@@ATL@@AAEXXZ
_TEXT	SEGMENT PARA USE32 PUBLIC 'CODE'
_TEXT	ENDS
;	COMDAT ??0?$CTempBuffer@D$0IA@VCCRTAllocator@ATL@@@ATL@@QAE@XZ
_TEXT	SEGMENT PARA USE32 PUBLIC 'CODE'
_TEXT	ENDS
;	COMDAT ?InterlockedExchangePointer@@YGPAXPAPAXPAX@Z
_TEXT	SEGMENT PARA USE32 PUBLIC 'CODE'
_TEXT	ENDS
;	COMDAT ?s_bWin9x@?1??_AtlInstallStringThunk@ATL@@YAXPAPAXPAX1@Z@4_NA
_BSS	SEGMENT DWORD USE32 PUBLIC 'BSS'
_BSS	ENDS
;	COMDAT ??_B?1??_AtlInstallStringThunk@ATL@@YAXPAPAXPAX1@Z@51
_BSS	SEGMENT DWORD USE32 PUBLIC 'BSS'
_BSS	ENDS
;	COMDAT ?_AtlGetConversionACP@ATL@@YGIXZ
_TEXT	SEGMENT PARA USE32 PUBLIC 'CODE'
_TEXT	ENDS
;	COMDAT ?g_pfnGetThreadACP@ATL@@3P6GIXZA
_DATA	SEGMENT DWORD USE32 PUBLIC 'DATA'
_DATA	ENDS
;	COMDAT ?_AtlGetThreadACPThunk@ATL@@YGIXZ
_TEXT	SEGMENT PARA USE32 PUBLIC 'CODE'
_TEXT	ENDS
;	COMDAT ?_AtlGetThreadACPReal@ATL@@YGIXZ
_TEXT	SEGMENT PARA USE32 PUBLIC 'CODE'
_TEXT	ENDS
;	COMDAT ?_AtlGetThreadACPFake@ATL@@YGIXZ
_TEXT	SEGMENT PARA USE32 PUBLIC 'CODE'
_TEXT	ENDS
;	COMDAT ??_7ios_base@std@@6B@
CONST	SEGMENT DWORD USE32 PUBLIC 'CONST'
CONST	ENDS
;	COMDAT ??_7failure@ios_base@std@@6B@
CONST	SEGMENT DWORD USE32 PUBLIC 'CONST'
CONST	ENDS
;	COMDAT ?end@?$_Iosb@H@std@@2W4_Seekdir@12@B
CONST	SEGMENT DWORD USE32 PUBLIC 'CONST'
CONST	ENDS
;	COMDAT ?cur@?$_Iosb@H@std@@2W4_Seekdir@12@B
CONST	SEGMENT DWORD USE32 PUBLIC 'CONST'
CONST	ENDS
;	COMDAT ?beg@?$_Iosb@H@std@@2W4_Seekdir@12@B
CONST	SEGMENT DWORD USE32 PUBLIC 'CONST'
CONST	ENDS
;	COMDAT ?binary@?$_Iosb@H@std@@2W4_Openmode@12@B
CONST	SEGMENT DWORD USE32 PUBLIC 'CONST'
CONST	ENDS
;	COMDAT ?_Noreplace@?$_Iosb@H@std@@2W4_Openmode@12@B
CONST	SEGMENT DWORD USE32 PUBLIC 'CONST'
CONST	ENDS
;	COMDAT ?_Nocreate@?$_Iosb@H@std@@2W4_Openmode@12@B
CONST	SEGMENT DWORD USE32 PUBLIC 'CONST'
CONST	ENDS
;	COMDAT ?trunc@?$_Iosb@H@std@@2W4_Openmode@12@B
CONST	SEGMENT DWORD USE32 PUBLIC 'CONST'
CONST	ENDS
;	COMDAT ?app@?$_Iosb@H@std@@2W4_Openmode@12@B
CONST	SEGMENT DWORD USE32 PUBLIC 'CONST'
CONST	ENDS
;	COMDAT ?ate@?$_Iosb@H@std@@2W4_Openmode@12@B
CONST	SEGMENT DWORD USE32 PUBLIC 'CONST'
CONST	ENDS
;	COMDAT ?out@?$_Iosb@H@std@@2W4_Openmode@12@B
CONST	SEGMENT DWORD USE32 PUBLIC 'CONST'
CONST	ENDS
;	COMDAT ?in@?$_Iosb@H@std@@2W4_Openmode@12@B
CONST	SEGMENT DWORD USE32 PUBLIC 'CONST'
CONST	ENDS
;	COMDAT ?_Hardfail@?$_Iosb@H@std@@2W4_Iostate@12@B
CONST	SEGMENT DWORD USE32 PUBLIC 'CONST'
CONST	ENDS
;	COMDAT ?badbit@?$_Iosb@H@std@@2W4_Iostate@12@B
CONST	SEGMENT DWORD USE32 PUBLIC 'CONST'
CONST	ENDS
;	COMDAT ?failbit@?$_Iosb@H@std@@2W4_Iostate@12@B
CONST	SEGMENT DWORD USE32 PUBLIC 'CONST'
CONST	ENDS
;	COMDAT ?eofbit@?$_Iosb@H@std@@2W4_Iostate@12@B
CONST	SEGMENT DWORD USE32 PUBLIC 'CONST'
CONST	ENDS
;	COMDAT ?goodbit@?$_Iosb@H@std@@2W4_Iostate@12@B
CONST	SEGMENT DWORD USE32 PUBLIC 'CONST'
CONST	ENDS
;	COMDAT ?floatfield@?$_Iosb@H@std@@2W4_Fmtflags@12@B
CONST	SEGMENT DWORD USE32 PUBLIC 'CONST'
CONST	ENDS
;	COMDAT ?basefield@?$_Iosb@H@std@@2W4_Fmtflags@12@B
CONST	SEGMENT DWORD USE32 PUBLIC 'CONST'
CONST	ENDS
;	COMDAT ?adjustfield@?$_Iosb@H@std@@2W4_Fmtflags@12@B
CONST	SEGMENT DWORD USE32 PUBLIC 'CONST'
CONST	ENDS
;	COMDAT ?_Stdio@?$_Iosb@H@std@@2W4_Fmtflags@12@B
CONST	SEGMENT DWORD USE32 PUBLIC 'CONST'
CONST	ENDS
;	COMDAT ?boolalpha@?$_Iosb@H@std@@2W4_Fmtflags@12@B
CONST	SEGMENT DWORD USE32 PUBLIC 'CONST'
CONST	ENDS
;	COMDAT ?fixed@?$_Iosb@H@std@@2W4_Fmtflags@12@B
CONST	SEGMENT DWORD USE32 PUBLIC 'CONST'
CONST	ENDS
;	COMDAT ?scientific@?$_Iosb@H@std@@2W4_Fmtflags@12@B
CONST	SEGMENT DWORD USE32 PUBLIC 'CONST'
CONST	ENDS
;	COMDAT ?hex@?$_Iosb@H@std@@2W4_Fmtflags@12@B
CONST	SEGMENT DWORD USE32 PUBLIC 'CONST'
CONST	ENDS
;	COMDAT ?oct@?$_Iosb@H@std@@2W4_Fmtflags@12@B
CONST	SEGMENT DWORD USE32 PUBLIC 'CONST'
CONST	ENDS
;	COMDAT ?dec@?$_Iosb@H@std@@2W4_Fmtflags@12@B
CONST	SEGMENT DWORD USE32 PUBLIC 'CONST'
CONST	ENDS
;	COMDAT ?internal@?$_Iosb@H@std@@2W4_Fmtflags@12@B
CONST	SEGMENT DWORD USE32 PUBLIC 'CONST'
CONST	ENDS
;	COMDAT ?right@?$_Iosb@H@std@@2W4_Fmtflags@12@B
CONST	SEGMENT DWORD USE32 PUBLIC 'CONST'
CONST	ENDS
;	COMDAT ?left@?$_Iosb@H@std@@2W4_Fmtflags@12@B
CONST	SEGMENT DWORD USE32 PUBLIC 'CONST'
CONST	ENDS
;	COMDAT ?showpos@?$_Iosb@H@std@@2W4_Fmtflags@12@B
CONST	SEGMENT DWORD USE32 PUBLIC 'CONST'
CONST	ENDS
;	COMDAT ?showpoint@?$_Iosb@H@std@@2W4_Fmtflags@12@B
CONST	SEGMENT DWORD USE32 PUBLIC 'CONST'
CONST	ENDS
;	COMDAT ?showbase@?$_Iosb@H@std@@2W4_Fmtflags@12@B
CONST	SEGMENT DWORD USE32 PUBLIC 'CONST'
CONST	ENDS
;	COMDAT ?uppercase@?$_Iosb@H@std@@2W4_Fmtflags@12@B
CONST	SEGMENT DWORD USE32 PUBLIC 'CONST'
CONST	ENDS
;	COMDAT ?unitbuf@?$_Iosb@H@std@@2W4_Fmtflags@12@B
CONST	SEGMENT DWORD USE32 PUBLIC 'CONST'
CONST	ENDS
;	COMDAT ?skipws@?$_Iosb@H@std@@2W4_Fmtflags@12@B
CONST	SEGMENT DWORD USE32 PUBLIC 'CONST'
CONST	ENDS
;	COMDAT ??_7?$ctype@G@std@@6B@
CONST	SEGMENT DWORD USE32 PUBLIC 'CONST'
CONST	ENDS
;	COMDAT ??_7?$ctype@D@std@@6B@
CONST	SEGMENT DWORD USE32 PUBLIC 'CONST'
CONST	ENDS
;	COMDAT ??_7ctype_base@std@@6B@
CONST	SEGMENT DWORD USE32 PUBLIC 'CONST'
CONST	ENDS
;	COMDAT ??_7?$codecvt@GDH@std@@6B@
CONST	SEGMENT DWORD USE32 PUBLIC 'CONST'
CONST	ENDS
;	COMDAT ??_7codecvt_base@std@@6B@
CONST	SEGMENT DWORD USE32 PUBLIC 'CONST'
CONST	ENDS
;	COMDAT ??_7facet@locale@std@@6B@
CONST	SEGMENT DWORD USE32 PUBLIC 'CONST'
CONST	ENDS
;	COMDAT ?none@?$_Locbase@H@std@@2HB
CONST	SEGMENT DWORD USE32 PUBLIC 'CONST'
CONST	ENDS
;	COMDAT ?all@?$_Locbase@H@std@@2HB
CONST	SEGMENT DWORD USE32 PUBLIC 'CONST'
CONST	ENDS
;	COMDAT ?messages@?$_Locbase@H@std@@2HB
CONST	SEGMENT DWORD USE32 PUBLIC 'CONST'
CONST	ENDS
;	COMDAT ?time@?$_Locbase@H@std@@2HB
CONST	SEGMENT DWORD USE32 PUBLIC 'CONST'
CONST	ENDS
;	COMDAT ?numeric@?$_Locbase@H@std@@2HB
CONST	SEGMENT DWORD USE32 PUBLIC 'CONST'
CONST	ENDS
;	COMDAT ?monetary@?$_Locbase@H@std@@2HB
CONST	SEGMENT DWORD USE32 PUBLIC 'CONST'
CONST	ENDS
;	COMDAT ?ctype@?$_Locbase@H@std@@2HB
CONST	SEGMENT DWORD USE32 PUBLIC 'CONST'
CONST	ENDS
;	COMDAT ?collate@?$_Locbase@H@std@@2HB
CONST	SEGMENT DWORD USE32 PUBLIC 'CONST'
CONST	ENDS
;	COMDAT ??_C@_05LAPONLG@false?$AA@
CONST	SEGMENT DWORD USE32 PUBLIC 'CONST'
CONST	ENDS
;	COMDAT ??_7range_error@std@@6B@
CONST	SEGMENT DWORD USE32 PUBLIC 'CONST'
CONST	ENDS
;	COMDAT ??_7underflow_error@std@@6B@
CONST	SEGMENT DWORD USE32 PUBLIC 'CONST'
CONST	ENDS
;	COMDAT ??_7overflow_error@std@@6B@
CONST	SEGMENT DWORD USE32 PUBLIC 'CONST'
CONST	ENDS
;	COMDAT ??_7runtime_error@std@@6B@
CONST	SEGMENT DWORD USE32 PUBLIC 'CONST'
CONST	ENDS
;	COMDAT ??_7out_of_range@std@@6B@
CONST	SEGMENT DWORD USE32 PUBLIC 'CONST'
CONST	ENDS
;	COMDAT ??_7length_error@std@@6B@
CONST	SEGMENT DWORD USE32 PUBLIC 'CONST'
CONST	ENDS
;	COMDAT ??_7invalid_argument@std@@6B@
CONST	SEGMENT DWORD USE32 PUBLIC 'CONST'
CONST	ENDS
;	COMDAT ??_7domain_error@std@@6B@
CONST	SEGMENT DWORD USE32 PUBLIC 'CONST'
CONST	ENDS
;	COMDAT ??_7logic_error@std@@6B@
CONST	SEGMENT DWORD USE32 PUBLIC 'CONST'
CONST	ENDS
;	COMDAT ??_7bad_alloc@std@@6B@
CONST	SEGMENT DWORD USE32 PUBLIC 'CONST'
CONST	ENDS
;	COMDAT ??_7bad_exception@std@@6B@
CONST	SEGMENT DWORD USE32 PUBLIC 'CONST'
CONST	ENDS
sxdata	SEGMENT DWORD USE32 'SXDATA'
sxdata	ENDS
FLAT	GROUP _DATA, CONST, _BSS, CRT$XCU
	ASSUME	CS: FLAT, DS: FLAT, SS: FLAT
endif

INCLUDELIB LIBCMTD
INCLUDELIB OLDNAMES

PUBLIC	?skipws@?$_Iosb@H@std@@2W4_Fmtflags@12@B	; std::_Iosb<int>::skipws
PUBLIC	?g_pfnGetThreadACP@ATL@@3P6GIXZA		; ATL::g_pfnGetThreadACP
PUBLIC	?_AtlGetThreadACPThunk@ATL@@YGIXZ		; ATL::_AtlGetThreadACPThunk
PUBLIC	?unitbuf@?$_Iosb@H@std@@2W4_Fmtflags@12@B	; std::_Iosb<int>::unitbuf
PUBLIC	?uppercase@?$_Iosb@H@std@@2W4_Fmtflags@12@B	; std::_Iosb<int>::uppercase
PUBLIC	?showbase@?$_Iosb@H@std@@2W4_Fmtflags@12@B	; std::_Iosb<int>::showbase
PUBLIC	?showpoint@?$_Iosb@H@std@@2W4_Fmtflags@12@B	; std::_Iosb<int>::showpoint
PUBLIC	?showpos@?$_Iosb@H@std@@2W4_Fmtflags@12@B	; std::_Iosb<int>::showpos
PUBLIC	?left@?$_Iosb@H@std@@2W4_Fmtflags@12@B		; std::_Iosb<int>::left
PUBLIC	?right@?$_Iosb@H@std@@2W4_Fmtflags@12@B		; std::_Iosb<int>::right
PUBLIC	?internal@?$_Iosb@H@std@@2W4_Fmtflags@12@B	; std::_Iosb<int>::internal
PUBLIC	?dec@?$_Iosb@H@std@@2W4_Fmtflags@12@B		; std::_Iosb<int>::dec
PUBLIC	?oct@?$_Iosb@H@std@@2W4_Fmtflags@12@B		; std::_Iosb<int>::oct
PUBLIC	?hex@?$_Iosb@H@std@@2W4_Fmtflags@12@B		; std::_Iosb<int>::hex
PUBLIC	?scientific@?$_Iosb@H@std@@2W4_Fmtflags@12@B	; std::_Iosb<int>::scientific
PUBLIC	?fixed@?$_Iosb@H@std@@2W4_Fmtflags@12@B		; std::_Iosb<int>::fixed
PUBLIC	?boolalpha@?$_Iosb@H@std@@2W4_Fmtflags@12@B	; std::_Iosb<int>::boolalpha
PUBLIC	?_Stdio@?$_Iosb@H@std@@2W4_Fmtflags@12@B	; std::_Iosb<int>::_Stdio
PUBLIC	?_pAtlModule@ATL@@3PAVCAtlModule@1@A		; ATL::_pAtlModule
PUBLIC	?adjustfield@?$_Iosb@H@std@@2W4_Fmtflags@12@B	; std::_Iosb<int>::adjustfield
PUBLIC	?basefield@?$_Iosb@H@std@@2W4_Fmtflags@12@B	; std::_Iosb<int>::basefield
PUBLIC	?floatfield@?$_Iosb@H@std@@2W4_Fmtflags@12@B	; std::_Iosb<int>::floatfield
PUBLIC	?c_bIsMFCDLLTraits@?$_MFCDLLTraitsCheck@DV?$StrTraitATL@DV?$ChTraitsCRT@D@ATL@@@ATL@@@_CSTRING_IMPL_@ATL@@2_NB ; ATL::_CSTRING_IMPL_::_MFCDLLTraitsCheck<char,ATL::StrTraitATL<char,ATL::ChTraitsCRT<char> > >::c_bIsMFCDLLTraits
PUBLIC	?goodbit@?$_Iosb@H@std@@2W4_Iostate@12@B	; std::_Iosb<int>::goodbit
PUBLIC	?eofbit@?$_Iosb@H@std@@2W4_Iostate@12@B		; std::_Iosb<int>::eofbit
PUBLIC	?failbit@?$_Iosb@H@std@@2W4_Iostate@12@B	; std::_Iosb<int>::failbit
PUBLIC	?badbit@?$_Iosb@H@std@@2W4_Iostate@12@B		; std::_Iosb<int>::badbit
PUBLIC	?_Hardfail@?$_Iosb@H@std@@2W4_Iostate@12@B	; std::_Iosb<int>::_Hardfail
PUBLIC	?in@?$_Iosb@H@std@@2W4_Openmode@12@B		; std::_Iosb<int>::in
PUBLIC	?out@?$_Iosb@H@std@@2W4_Openmode@12@B		; std::_Iosb<int>::out
PUBLIC	?ate@?$_Iosb@H@std@@2W4_Openmode@12@B		; std::_Iosb<int>::ate
PUBLIC	?app@?$_Iosb@H@std@@2W4_Openmode@12@B		; std::_Iosb<int>::app
PUBLIC	?trunc@?$_Iosb@H@std@@2W4_Openmode@12@B		; std::_Iosb<int>::trunc
PUBLIC	?_Nocreate@?$_Iosb@H@std@@2W4_Openmode@12@B	; std::_Iosb<int>::_Nocreate
PUBLIC	?_Noreplace@?$_Iosb@H@std@@2W4_Openmode@12@B	; std::_Iosb<int>::_Noreplace
PUBLIC	?binary@?$_Iosb@H@std@@2W4_Openmode@12@B	; std::_Iosb<int>::binary
PUBLIC	?beg@?$_Iosb@H@std@@2W4_Seekdir@12@B		; std::_Iosb<int>::beg
PUBLIC	?cur@?$_Iosb@H@std@@2W4_Seekdir@12@B		; std::_Iosb<int>::cur
PUBLIC	?end@?$_Iosb@H@std@@2W4_Seekdir@12@B		; std::_Iosb<int>::end
PUBLIC	?wCRC16a@@3PAGA					; wCRC16a
PUBLIC	?wCRC16b@@3PAGA					; wCRC16b
PUBLIC	?Millisecond@CFileTime@ATL@@2_KB		; ATL::CFileTime::Millisecond
PUBLIC	?Second@CFileTime@ATL@@2_KB			; ATL::CFileTime::Second
PUBLIC	?Minute@CFileTime@ATL@@2_KB			; ATL::CFileTime::Minute
PUBLIC	?Hour@CFileTime@ATL@@2_KB			; ATL::CFileTime::Hour
PUBLIC	?Day@CFileTime@ATL@@2_KB			; ATL::CFileTime::Day
PUBLIC	?Week@CFileTime@ATL@@2_KB			; ATL::CFileTime::Week
PUBLIC	?szInvalidDateTime@ATL@@3QBDB			; ATL::szInvalidDateTime
PUBLIC	?szInvalidDateTimeSpan@ATL@@3QBDB		; ATL::szInvalidDateTimeSpan
PUBLIC	?s_pLog@CFixedStringMgr@ATL@@2PAVIFixedStringLog@2@A ; ATL::CFixedStringMgr::s_pLog
PUBLIC	?c_bIsMFCDLLTraits@?$_MFCDLLTraitsCheck@GV?$StrTraitATL@GV?$ChTraitsCRT@G@ATL@@@ATL@@@_CSTRING_IMPL_@ATL@@2_NB ; ATL::_CSTRING_IMPL_::_MFCDLLTraitsCheck<unsigned short,ATL::StrTraitATL<unsigned short,ATL::ChTraitsCRT<unsigned short> > >::c_bIsMFCDLLTraits
PUBLIC	?rcDefault@CWindow@ATL@@2UtagRECT@@A		; ATL::CWindow::rcDefault
PUBLIC	?m_bInitFailed@CAtlBaseModule@ATL@@2_NA		; ATL::CAtlBaseModule::m_bInitFailed
PUBLIC	?_strthunks@ATL@@3U_AtlStringThunks@1@A		; ATL::_strthunks
PUBLIC	?collate@?$_Locbase@H@std@@2HB			; std::_Locbase<int>::collate
PUBLIC	?ctype@?$_Locbase@H@std@@2HB			; std::_Locbase<int>::ctype
PUBLIC	?monetary@?$_Locbase@H@std@@2HB			; std::_Locbase<int>::monetary
PUBLIC	?GetEnvironmentVariableWThunk@ATL@@YGKPBGPAGK@Z	; ATL::GetEnvironmentVariableWThunk
PUBLIC	?numeric@?$_Locbase@H@std@@2HB			; std::_Locbase<int>::numeric
PUBLIC	?time@?$_Locbase@H@std@@2HB			; std::_Locbase<int>::time
PUBLIC	?messages@?$_Locbase@H@std@@2HB			; std::_Locbase<int>::messages
PUBLIC	?all@?$_Locbase@H@std@@2HB			; std::_Locbase<int>::all
PUBLIC	?none@?$_Locbase@H@std@@2HB			; std::_Locbase<int>::none
PUBLIC	?CompareStringWThunk@ATL@@YGHKKPBGH0H@Z		; ATL::CompareStringWThunk
PUBLIC	?LICENSE@CLicense@@2PBEB			; CLicense::LICENSE
PUBLIC	?VERSION@CLicense@@2PBEB			; CLicense::VERSION
PUBLIC	?EXP_DATE@CLicense@@2PBEB			; CLicense::EXP_DATE
PUBLIC	?MAINT_EXP_DATE@CLicense@@2PBEB			; CLicense::MAINT_EXP_DATE
PUBLIC	?ISSUE_DATE@CLicense@@2PBEB			; CLicense::ISSUE_DATE
PUBLIC	?YEAR@CLicense@@2PBEB				; CLicense::YEAR
PUBLIC	?MON@CLicense@@2PBEB				; CLicense::MON
PUBLIC	?DAY@CLicense@@2PBEB				; CLicense::DAY
PUBLIC	?OPERATIONS@CLicense@@2PBEB			; CLicense::OPERATIONS
PUBLIC	?VERIFY@CLicense@@2PBEB				; CLicense::VERIFY
PUBLIC	?GetStringTypeExWThunk@ATL@@YGHKKPBGHPAG@Z	; ATL::GetStringTypeExWThunk
PUBLIC	?CREATE@CLicense@@2PBEB				; CLicense::CREATE
PUBLIC	?ENCRYPT@CLicense@@2PBEB			; CLicense::ENCRYPT
PUBLIC	?DECRYPT@CLicense@@2PBEB			; CLicense::DECRYPT
PUBLIC	?SECURESIGN@CLicense@@2PBEB			; CLicense::SECURESIGN
PUBLIC	?SECURESIGNPROFESSIONAL@CLicense@@2PBEB		; CLicense::SECURESIGNPROFESSIONAL
PUBLIC	?SECURESIGNENTERPRISE@CLicense@@2PBEB		; CLicense::SECURESIGNENTERPRISE
PUBLIC	?SECURESIGNSERVER@CLicense@@2PBEB		; CLicense::SECURESIGNSERVER
PUBLIC	?TYPE@CLicense@@2PBEB				; CLicense::TYPE
PUBLIC	?lstrcmpiWThunk@ATL@@YGHPBG0@Z			; ATL::lstrcmpiWThunk
PUBLIC	?SERVER@CLicense@@2PBEB				; CLicense::SERVER
PUBLIC	?CLIENT@CLicense@@2PBEB				; CLicense::CLIENT
PUBLIC	?DEMO@CLicense@@2PBEB				; CLicense::DEMO
PUBLIC	?DEVELOPMENT@CLicense@@2PBEB			; CLicense::DEVELOPMENT
PUBLIC	?LICENSE_KEY@CLicense@@2PBEB			; CLicense::LICENSE_KEY
PUBLIC	?NUM_LICENSE@CLicense@@2PBEB			; CLicense::NUM_LICENSE
PUBLIC	?WINDOWS_CLIENT@CLicense@@2PBEB			; CLicense::WINDOWS_CLIENT
PUBLIC	?CharLowerWThunk@ATL@@YGPAGPAG@Z		; ATL::CharLowerWThunk
PUBLIC	?LINUX_CLIENT@CLicense@@2PBEB			; CLicense::LINUX_CLIENT
PUBLIC	?MAC_CLIENT@CLicense@@2PBEB			; CLicense::MAC_CLIENT
PUBLIC	?SOLARIS_CLIENT@CLicense@@2PBEB			; CLicense::SOLARIS_CLIENT
PUBLIC	?SIGNATURE@CLicense@@2PBEB			; CLicense::SIGNATURE
PUBLIC	?LICENSEE@CLicense@@2PBEB			; CLicense::LICENSEE
PUBLIC	?LICENSER@CLicense@@2PBEB			; CLicense::LICENSER
PUBLIC	?COMPANY@CLicense@@2PBEB			; CLicense::COMPANY
PUBLIC	?CharUpperWThunk@ATL@@YGPAGPAG@Z		; ATL::CharUpperWThunk
PUBLIC	?USER@CLicense@@2PBEB				; CLicense::USER
PUBLIC	?HOSTNAME@CLicense@@2PBEB			; CLicense::HOSTNAME
PUBLIC	?licenseTimeout@CLicense@@0HB			; CLicense::licenseTimeout
;	COMDAT ?_pAtlModule@ATL@@3PAVCAtlModule@1@A
_BSS	SEGMENT
?_pAtlModule@ATL@@3PAVCAtlModule@1@A DD 01H DUP (?)	; ATL::_pAtlModule
_BSS	ENDS
;	COMDAT ?s_pLog@CFixedStringMgr@ATL@@2PAVIFixedStringLog@2@A
_BSS	SEGMENT
?s_pLog@CFixedStringMgr@ATL@@2PAVIFixedStringLog@2@A DD 01H DUP (?) ; ATL::CFixedStringMgr::s_pLog
_BSS	ENDS
;	COMDAT ?m_bInitFailed@CAtlBaseModule@ATL@@2_NA
_BSS	SEGMENT
?m_bInitFailed@CAtlBaseModule@ATL@@2_NA DB 01H DUP (?)	; ATL::CAtlBaseModule::m_bInitFailed
_BSS	ENDS
;	COMDAT ?collate@?$_Locbase@H@std@@2HB
CONST	SEGMENT
?collate@?$_Locbase@H@std@@2HB DD 01H			; std::_Locbase<int>::collate
CONST	ENDS
;	COMDAT ?ctype@?$_Locbase@H@std@@2HB
CONST	SEGMENT
?ctype@?$_Locbase@H@std@@2HB DD 02H			; std::_Locbase<int>::ctype
CONST	ENDS
;	COMDAT ?monetary@?$_Locbase@H@std@@2HB
CONST	SEGMENT
?monetary@?$_Locbase@H@std@@2HB DD 04H			; std::_Locbase<int>::monetary
CONST	ENDS
;	COMDAT ?numeric@?$_Locbase@H@std@@2HB
CONST	SEGMENT
?numeric@?$_Locbase@H@std@@2HB DD 08H			; std::_Locbase<int>::numeric
CONST	ENDS
;	COMDAT ?time@?$_Locbase@H@std@@2HB
CONST	SEGMENT
?time@?$_Locbase@H@std@@2HB DD 010H			; std::_Locbase<int>::time
CONST	ENDS
;	COMDAT ?messages@?$_Locbase@H@std@@2HB
CONST	SEGMENT
?messages@?$_Locbase@H@std@@2HB DD 020H			; std::_Locbase<int>::messages
CONST	ENDS
;	COMDAT ?all@?$_Locbase@H@std@@2HB
CONST	SEGMENT
?all@?$_Locbase@H@std@@2HB DD 03fH			; std::_Locbase<int>::all
CONST	ENDS
;	COMDAT ?none@?$_Locbase@H@std@@2HB
CONST	SEGMENT
?none@?$_Locbase@H@std@@2HB DD 00H			; std::_Locbase<int>::none
CONST	ENDS
;	COMDAT ?skipws@?$_Iosb@H@std@@2W4_Fmtflags@12@B
CONST	SEGMENT
?skipws@?$_Iosb@H@std@@2W4_Fmtflags@12@B DD 01H		; std::_Iosb<int>::skipws
CONST	ENDS
;	COMDAT ?unitbuf@?$_Iosb@H@std@@2W4_Fmtflags@12@B
CONST	SEGMENT
?unitbuf@?$_Iosb@H@std@@2W4_Fmtflags@12@B DD 02H	; std::_Iosb<int>::unitbuf
CONST	ENDS
;	COMDAT ?uppercase@?$_Iosb@H@std@@2W4_Fmtflags@12@B
CONST	SEGMENT
?uppercase@?$_Iosb@H@std@@2W4_Fmtflags@12@B DD 04H	; std::_Iosb<int>::uppercase
CONST	ENDS
;	COMDAT ?showbase@?$_Iosb@H@std@@2W4_Fmtflags@12@B
CONST	SEGMENT
?showbase@?$_Iosb@H@std@@2W4_Fmtflags@12@B DD 08H	; std::_Iosb<int>::showbase
CONST	ENDS
;	COMDAT ?showpoint@?$_Iosb@H@std@@2W4_Fmtflags@12@B
CONST	SEGMENT
?showpoint@?$_Iosb@H@std@@2W4_Fmtflags@12@B DD 010H	; std::_Iosb<int>::showpoint
CONST	ENDS
;	COMDAT ?showpos@?$_Iosb@H@std@@2W4_Fmtflags@12@B
CONST	SEGMENT
?showpos@?$_Iosb@H@std@@2W4_Fmtflags@12@B DD 020H	; std::_Iosb<int>::showpos
CONST	ENDS
;	COMDAT ?left@?$_Iosb@H@std@@2W4_Fmtflags@12@B
CONST	SEGMENT
?left@?$_Iosb@H@std@@2W4_Fmtflags@12@B DD 040H		; std::_Iosb<int>::left
CONST	ENDS
;	COMDAT ?right@?$_Iosb@H@std@@2W4_Fmtflags@12@B
CONST	SEGMENT
?right@?$_Iosb@H@std@@2W4_Fmtflags@12@B DD 080H		; std::_Iosb<int>::right
CONST	ENDS
;	COMDAT ?internal@?$_Iosb@H@std@@2W4_Fmtflags@12@B
CONST	SEGMENT
?internal@?$_Iosb@H@std@@2W4_Fmtflags@12@B DD 0100H	; std::_Iosb<int>::internal
CONST	ENDS
;	COMDAT ?dec@?$_Iosb@H@std@@2W4_Fmtflags@12@B
CONST	SEGMENT
?dec@?$_Iosb@H@std@@2W4_Fmtflags@12@B DD 0200H		; std::_Iosb<int>::dec
CONST	ENDS
;	COMDAT ?oct@?$_Iosb@H@std@@2W4_Fmtflags@12@B
CONST	SEGMENT
?oct@?$_Iosb@H@std@@2W4_Fmtflags@12@B DD 0400H		; std::_Iosb<int>::oct
CONST	ENDS
;	COMDAT ?hex@?$_Iosb@H@std@@2W4_Fmtflags@12@B
CONST	SEGMENT
?hex@?$_Iosb@H@std@@2W4_Fmtflags@12@B DD 0800H		; std::_Iosb<int>::hex
CONST	ENDS
;	COMDAT ?scientific@?$_Iosb@H@std@@2W4_Fmtflags@12@B
CONST	SEGMENT
?scientific@?$_Iosb@H@std@@2W4_Fmtflags@12@B DD 01000H	; std::_Iosb<int>::scientific
CONST	ENDS
;	COMDAT ?fixed@?$_Iosb@H@std@@2W4_Fmtflags@12@B
CONST	SEGMENT
?fixed@?$_Iosb@H@std@@2W4_Fmtflags@12@B DD 02000H	; std::_Iosb<int>::fixed
CONST	ENDS
;	COMDAT ?boolalpha@?$_Iosb@H@std@@2W4_Fmtflags@12@B
CONST	SEGMENT
?boolalpha@?$_Iosb@H@std@@2W4_Fmtflags@12@B DD 04000H	; std::_Iosb<int>::boolalpha
CONST	ENDS
;	COMDAT ?_Stdio@?$_Iosb@H@std@@2W4_Fmtflags@12@B
CONST	SEGMENT
?_Stdio@?$_Iosb@H@std@@2W4_Fmtflags@12@B DD 08000H	; std::_Iosb<int>::_Stdio
CONST	ENDS
;	COMDAT ?adjustfield@?$_Iosb@H@std@@2W4_Fmtflags@12@B
CONST	SEGMENT
?adjustfield@?$_Iosb@H@std@@2W4_Fmtflags@12@B DD 01c0H	; std::_Iosb<int>::adjustfield
CONST	ENDS
;	COMDAT ?basefield@?$_Iosb@H@std@@2W4_Fmtflags@12@B
CONST	SEGMENT
?basefield@?$_Iosb@H@std@@2W4_Fmtflags@12@B DD 0e00H	; std::_Iosb<int>::basefield
CONST	ENDS
;	COMDAT ?floatfield@?$_Iosb@H@std@@2W4_Fmtflags@12@B
CONST	SEGMENT
?floatfield@?$_Iosb@H@std@@2W4_Fmtflags@12@B DD 03000H	; std::_Iosb<int>::floatfield
CONST	ENDS
;	COMDAT ?goodbit@?$_Iosb@H@std@@2W4_Iostate@12@B
CONST	SEGMENT
?goodbit@?$_Iosb@H@std@@2W4_Iostate@12@B DD 00H		; std::_Iosb<int>::goodbit
CONST	ENDS
;	COMDAT ?eofbit@?$_Iosb@H@std@@2W4_Iostate@12@B
CONST	SEGMENT
?eofbit@?$_Iosb@H@std@@2W4_Iostate@12@B DD 01H		; std::_Iosb<int>::eofbit
CONST	ENDS
;	COMDAT ?failbit@?$_Iosb@H@std@@2W4_Iostate@12@B
CONST	SEGMENT
?failbit@?$_Iosb@H@std@@2W4_Iostate@12@B DD 02H		; std::_Iosb<int>::failbit
CONST	ENDS
;	COMDAT ?badbit@?$_Iosb@H@std@@2W4_Iostate@12@B
CONST	SEGMENT
?badbit@?$_Iosb@H@std@@2W4_Iostate@12@B DD 04H		; std::_Iosb<int>::badbit
CONST	ENDS
;	COMDAT ?_Hardfail@?$_Iosb@H@std@@2W4_Iostate@12@B
CONST	SEGMENT
?_Hardfail@?$_Iosb@H@std@@2W4_Iostate@12@B DD 010H	; std::_Iosb<int>::_Hardfail
CONST	ENDS
;	COMDAT ?in@?$_Iosb@H@std@@2W4_Openmode@12@B
CONST	SEGMENT
?in@?$_Iosb@H@std@@2W4_Openmode@12@B DD 01H		; std::_Iosb<int>::in
CONST	ENDS
;	COMDAT ?out@?$_Iosb@H@std@@2W4_Openmode@12@B
CONST	SEGMENT
?out@?$_Iosb@H@std@@2W4_Openmode@12@B DD 02H		; std::_Iosb<int>::out
CONST	ENDS
;	COMDAT ?ate@?$_Iosb@H@std@@2W4_Openmode@12@B
CONST	SEGMENT
?ate@?$_Iosb@H@std@@2W4_Openmode@12@B DD 04H		; std::_Iosb<int>::ate
CONST	ENDS
;	COMDAT ?app@?$_Iosb@H@std@@2W4_Openmode@12@B
CONST	SEGMENT
?app@?$_Iosb@H@std@@2W4_Openmode@12@B DD 08H		; std::_Iosb<int>::app
CONST	ENDS
;	COMDAT ?trunc@?$_Iosb@H@std@@2W4_Openmode@12@B
CONST	SEGMENT
?trunc@?$_Iosb@H@std@@2W4_Openmode@12@B DD 010H		; std::_Iosb<int>::trunc
CONST	ENDS
;	COMDAT ?_Nocreate@?$_Iosb@H@std@@2W4_Openmode@12@B
CONST	SEGMENT
?_Nocreate@?$_Iosb@H@std@@2W4_Openmode@12@B DD 040H	; std::_Iosb<int>::_Nocreate
CONST	ENDS
;	COMDAT ?_Noreplace@?$_Iosb@H@std@@2W4_Openmode@12@B
CONST	SEGMENT
?_Noreplace@?$_Iosb@H@std@@2W4_Openmode@12@B DD 080H	; std::_Iosb<int>::_Noreplace
CONST	ENDS
;	COMDAT ?binary@?$_Iosb@H@std@@2W4_Openmode@12@B
CONST	SEGMENT
?binary@?$_Iosb@H@std@@2W4_Openmode@12@B DD 020H	; std::_Iosb<int>::binary
CONST	ENDS
;	COMDAT ?beg@?$_Iosb@H@std@@2W4_Seekdir@12@B
CONST	SEGMENT
?beg@?$_Iosb@H@std@@2W4_Seekdir@12@B DD 00H		; std::_Iosb<int>::beg
CONST	ENDS
;	COMDAT ?cur@?$_Iosb@H@std@@2W4_Seekdir@12@B
CONST	SEGMENT
?cur@?$_Iosb@H@std@@2W4_Seekdir@12@B DD 01H		; std::_Iosb<int>::cur
CONST	ENDS
;	COMDAT ?end@?$_Iosb@H@std@@2W4_Seekdir@12@B
CONST	SEGMENT
?end@?$_Iosb@H@std@@2W4_Seekdir@12@B DD 02H		; std::_Iosb<int>::end
CONST	ENDS
;	COMDAT ?_strthunks@ATL@@3U_AtlStringThunks@1@A
_DATA	SEGMENT
?_strthunks@ATL@@3U_AtlStringThunks@1@A DD FLAT:?CompareStringWThunk@ATL@@YGHKKPBGH0H@Z ; ATL::_strthunks
	DD	FLAT:?GetStringTypeExWThunk@ATL@@YGHKKPBGHPAG@Z
	DD	FLAT:?lstrcmpiWThunk@ATL@@YGHPBG0@Z
	DD	FLAT:?CharLowerWThunk@ATL@@YGPAGPAG@Z
	DD	FLAT:?CharUpperWThunk@ATL@@YGPAGPAG@Z
	DD	FLAT:?GetEnvironmentVariableWThunk@ATL@@YGKPBGPAGK@Z
_DATA	ENDS
;	COMDAT ?c_bIsMFCDLLTraits@?$_MFCDLLTraitsCheck@DV?$StrTraitATL@DV?$ChTraitsCRT@D@ATL@@@ATL@@@_CSTRING_IMPL_@ATL@@2_NB
CONST	SEGMENT
?c_bIsMFCDLLTraits@?$_MFCDLLTraitsCheck@DV?$StrTraitATL@DV?$ChTraitsCRT@D@ATL@@@ATL@@@_CSTRING_IMPL_@ATL@@2_NB DB 00H ; ATL::_CSTRING_IMPL_::_MFCDLLTraitsCheck<char,ATL::StrTraitATL<char,ATL::ChTraitsCRT<char> > >::c_bIsMFCDLLTraits
CONST	ENDS
;	COMDAT ?c_bIsMFCDLLTraits@?$_MFCDLLTraitsCheck@GV?$StrTraitATL@GV?$ChTraitsCRT@G@ATL@@@ATL@@@_CSTRING_IMPL_@ATL@@2_NB
CONST	SEGMENT
?c_bIsMFCDLLTraits@?$_MFCDLLTraitsCheck@GV?$StrTraitATL@GV?$ChTraitsCRT@G@ATL@@@ATL@@@_CSTRING_IMPL_@ATL@@2_NB DB 00H ; ATL::_CSTRING_IMPL_::_MFCDLLTraitsCheck<unsigned short,ATL::StrTraitATL<unsigned short,ATL::ChTraitsCRT<unsigned short> > >::c_bIsMFCDLLTraits
CONST	ENDS
;	COMDAT ?Millisecond@CFileTime@ATL@@2_KB
CONST	SEGMENT
?Millisecond@CFileTime@ATL@@2_KB DQ 0000000000002710H	; ATL::CFileTime::Millisecond
CONST	ENDS
;	COMDAT ?Second@CFileTime@ATL@@2_KB
CONST	SEGMENT
?Second@CFileTime@ATL@@2_KB DQ 0000000000989680H	; ATL::CFileTime::Second
CONST	ENDS
;	COMDAT ?Minute@CFileTime@ATL@@2_KB
CONST	SEGMENT
?Minute@CFileTime@ATL@@2_KB DQ 0000000023c34600H	; ATL::CFileTime::Minute
CONST	ENDS
;	COMDAT ?Hour@CFileTime@ATL@@2_KB
CONST	SEGMENT
?Hour@CFileTime@ATL@@2_KB DQ 0000000861c46800H		; ATL::CFileTime::Hour
CONST	ENDS
;	COMDAT ?Day@CFileTime@ATL@@2_KB
CONST	SEGMENT
?Day@CFileTime@ATL@@2_KB DQ 000000c92a69c000H		; ATL::CFileTime::Day
CONST	ENDS
;	COMDAT ?Week@CFileTime@ATL@@2_KB
CONST	SEGMENT
?Week@CFileTime@ATL@@2_KB DQ 0000058028e44000H		; ATL::CFileTime::Week
CONST	ENDS
CONST	SEGMENT
$SG188683 DB	'Invalid DateTime', 00H
CONST	ENDS
;	COMDAT ?szInvalidDateTime@ATL@@3QBDB
CONST	SEGMENT
?szInvalidDateTime@ATL@@3QBDB DD FLAT:$SG188683		; ATL::szInvalidDateTime
CONST	ENDS
CONST	SEGMENT
	ORG $+3
$SG188685 DB	'Invalid DateTimeSpan', 00H
CONST	ENDS
;	COMDAT ?szInvalidDateTimeSpan@ATL@@3QBDB
CONST	SEGMENT
?szInvalidDateTimeSpan@ATL@@3QBDB DD FLAT:$SG188685	; ATL::szInvalidDateTimeSpan
CONST	ENDS
;	COMDAT ?licenseTimeout@CLicense@@0HB
CONST	SEGMENT
?licenseTimeout@CLicense@@0HB DD 01eH			; CLicense::licenseTimeout
CONST	ENDS
CONST	SEGMENT
	ORG $+3
$SG189364 DB	'SecureXMLLicense', 00H
CONST	ENDS
_DATA	SEGMENT
?LICENSE@CLicense@@2PBEB DD FLAT:$SG189364		; CLicense::LICENSE
_DATA	ENDS
CONST	SEGMENT
	ORG $+3
$SG189366 DB	'Version', 00H
CONST	ENDS
_DATA	SEGMENT
?VERSION@CLicense@@2PBEB DD FLAT:$SG189366		; CLicense::VERSION
_DATA	ENDS
CONST	SEGMENT
$SG189368 DB	'Expiration', 00H
CONST	ENDS
_DATA	SEGMENT
?EXP_DATE@CLicense@@2PBEB DD FLAT:$SG189368		; CLicense::EXP_DATE
_DATA	ENDS
CONST	SEGMENT
	ORG $+1
$SG189370 DB	'MaintenanceExpiration', 00H
CONST	ENDS
_DATA	SEGMENT
?MAINT_EXP_DATE@CLicense@@2PBEB DD FLAT:$SG189370	; CLicense::MAINT_EXP_DATE
_DATA	ENDS
CONST	SEGMENT
	ORG $+2
$SG189372 DB	'IssueDate', 00H
CONST	ENDS
_DATA	SEGMENT
?ISSUE_DATE@CLicense@@2PBEB DD FLAT:$SG189372		; CLicense::ISSUE_DATE
_DATA	ENDS
CONST	SEGMENT
	ORG $+2
$SG189374 DB	'Year', 00H
CONST	ENDS
_DATA	SEGMENT
?YEAR@CLicense@@2PBEB DD FLAT:$SG189374			; CLicense::YEAR
_DATA	ENDS
CONST	SEGMENT
	ORG $+3
$SG189376 DB	'Month', 00H
CONST	ENDS
_DATA	SEGMENT
?MON@CLicense@@2PBEB DD FLAT:$SG189376			; CLicense::MON
_DATA	ENDS
CONST	SEGMENT
	ORG $+2
$SG189378 DB	'Day', 00H
CONST	ENDS
_DATA	SEGMENT
?DAY@CLicense@@2PBEB DD FLAT:$SG189378			; CLicense::DAY
_DATA	ENDS
CONST	SEGMENT
$SG189380 DB	'Operations', 00H
CONST	ENDS
_DATA	SEGMENT
?OPERATIONS@CLicense@@2PBEB DD FLAT:$SG189380		; CLicense::OPERATIONS
_DATA	ENDS
CONST	SEGMENT
	ORG $+1
$SG189382 DB	'Verify', 00H
CONST	ENDS
_DATA	SEGMENT
?VERIFY@CLicense@@2PBEB DD FLAT:$SG189382		; CLicense::VERIFY
_DATA	ENDS
CONST	SEGMENT
	ORG $+1
$SG189384 DB	'Create', 00H
CONST	ENDS
_DATA	SEGMENT
?CREATE@CLicense@@2PBEB DD FLAT:$SG189384		; CLicense::CREATE
_DATA	ENDS
CONST	SEGMENT
	ORG $+1
$SG189386 DB	'Encrypt', 00H
CONST	ENDS
_DATA	SEGMENT
?ENCRYPT@CLicense@@2PBEB DD FLAT:$SG189386		; CLicense::ENCRYPT
_DATA	ENDS
CONST	SEGMENT
$SG189388 DB	'Decrypt', 00H
CONST	ENDS
_DATA	SEGMENT
?DECRYPT@CLicense@@2PBEB DD FLAT:$SG189388		; CLicense::DECRYPT
_DATA	ENDS
CONST	SEGMENT
$SG189390 DB	'SecureSign', 00H
CONST	ENDS
_DATA	SEGMENT
?SECURESIGN@CLicense@@2PBEB DD FLAT:$SG189390		; CLicense::SECURESIGN
_DATA	ENDS
CONST	SEGMENT
	ORG $+1
$SG189392 DB	'SecureSignProfessional', 00H
CONST	ENDS
_DATA	SEGMENT
?SECURESIGNPROFESSIONAL@CLicense@@2PBEB DD FLAT:$SG189392 ; CLicense::SECURESIGNPROFESSIONAL
_DATA	ENDS
CONST	SEGMENT
	ORG $+1
$SG189394 DB	'SecureSignEnterprise', 00H
CONST	ENDS
_DATA	SEGMENT
?SECURESIGNENTERPRISE@CLicense@@2PBEB DD FLAT:$SG189394	; CLicense::SECURESIGNENTERPRISE
_DATA	ENDS
CONST	SEGMENT
	ORG $+3
$SG189396 DB	'SecureSignServer', 00H
CONST	ENDS
_DATA	SEGMENT
?SECURESIGNSERVER@CLicense@@2PBEB DD FLAT:$SG189396	; CLicense::SECURESIGNSERVER
_DATA	ENDS
CONST	SEGMENT
	ORG $+3
$SG189398 DB	'Type', 00H
CONST	ENDS
_DATA	SEGMENT
?TYPE@CLicense@@2PBEB DD FLAT:$SG189398			; CLicense::TYPE
_DATA	ENDS
CONST	SEGMENT
	ORG $+3
$SG189400 DB	'Server', 00H
CONST	ENDS
_DATA	SEGMENT
?SERVER@CLicense@@2PBEB DD FLAT:$SG189400		; CLicense::SERVER
_DATA	ENDS
CONST	SEGMENT
	ORG $+1
$SG189402 DB	'Client', 00H
CONST	ENDS
_DATA	SEGMENT
?CLIENT@CLicense@@2PBEB DD FLAT:$SG189402		; CLicense::CLIENT
_DATA	ENDS
CONST	SEGMENT
	ORG $+1
$SG189404 DB	'Demo', 00H
CONST	ENDS
_DATA	SEGMENT
?DEMO@CLicense@@2PBEB DD FLAT:$SG189404			; CLicense::DEMO
_DATA	ENDS
CONST	SEGMENT
	ORG $+3
$SG189406 DB	'Development', 00H
CONST	ENDS
_DATA	SEGMENT
?DEVELOPMENT@CLicense@@2PBEB DD FLAT:$SG189406		; CLicense::DEVELOPMENT
_DATA	ENDS
CONST	SEGMENT
$SG189408 DB	'LicenseKey', 00H
CONST	ENDS
_DATA	SEGMENT
?LICENSE_KEY@CLicense@@2PBEB DD FLAT:$SG189408		; CLicense::LICENSE_KEY
_DATA	ENDS
CONST	SEGMENT
	ORG $+1
$SG189410 DB	'NumLicense', 00H
CONST	ENDS
_DATA	SEGMENT
?NUM_LICENSE@CLicense@@2PBEB DD FLAT:$SG189410		; CLicense::NUM_LICENSE
_DATA	ENDS
CONST	SEGMENT
	ORG $+1
$SG189412 DB	'WindowsClient', 00H
CONST	ENDS
_DATA	SEGMENT
?WINDOWS_CLIENT@CLicense@@2PBEB DD FLAT:$SG189412	; CLicense::WINDOWS_CLIENT
_DATA	ENDS
CONST	SEGMENT
	ORG $+2
$SG189414 DB	'LinuxClient', 00H
CONST	ENDS
_DATA	SEGMENT
?LINUX_CLIENT@CLicense@@2PBEB DD FLAT:$SG189414		; CLicense::LINUX_CLIENT
_DATA	ENDS
CONST	SEGMENT
$SG189416 DB	'MacClient', 00H
CONST	ENDS
_DATA	SEGMENT
?MAC_CLIENT@CLicense@@2PBEB DD FLAT:$SG189416		; CLicense::MAC_CLIENT
_DATA	ENDS
CONST	SEGMENT
	ORG $+2
$SG189418 DB	'SolarisClient', 00H
CONST	ENDS
_DATA	SEGMENT
?SOLARIS_CLIENT@CLicense@@2PBEB DD FLAT:$SG189418	; CLicense::SOLARIS_CLIENT
_DATA	ENDS
CONST	SEGMENT
	ORG $+2
$SG189420 DB	'Signature', 00H
CONST	ENDS
_DATA	SEGMENT
?SIGNATURE@CLicense@@2PBEB DD FLAT:$SG189420		; CLicense::SIGNATURE
_DATA	ENDS
CONST	SEGMENT
	ORG $+2
$SG189422 DB	'Licensee', 00H
CONST	ENDS
_DATA	SEGMENT
?LICENSEE@CLicense@@2PBEB DD FLAT:$SG189422		; CLicense::LICENSEE
_DATA	ENDS
CONST	SEGMENT
	ORG $+3
$SG189424 DB	'Licensor', 00H
CONST	ENDS
_DATA	SEGMENT
?LICENSER@CLicense@@2PBEB DD FLAT:$SG189424		; CLicense::LICENSER
_DATA	ENDS
CONST	SEGMENT
	ORG $+3
$SG189426 DB	'Company', 00H
CONST	ENDS
_DATA	SEGMENT
?COMPANY@CLicense@@2PBEB DD FLAT:$SG189426		; CLicense::COMPANY
_DATA	ENDS
CONST	SEGMENT
$SG189428 DB	'User', 00H
CONST	ENDS
_DATA	SEGMENT
?USER@CLicense@@2PBEB DD FLAT:$SG189428			; CLicense::USER
_DATA	ENDS
CONST	SEGMENT
	ORG $+3
$SG189430 DB	'HostName', 00H
CONST	ENDS
_DATA	SEGMENT
?HOSTNAME@CLicense@@2PBEB DD FLAT:$SG189430		; CLicense::HOSTNAME
_DATA	ENDS
CONST	SEGMENT
	ORG $+7
$SG189579 DB	'MIIHVDCCBjygAwIBAgIKJbmN0QAAAAABVDANBgkqhkiG9w0BAQUFADCB'
	DB	'vzEiMCAGCSqGSIb3DQEJARYTaW5mb0BpbmZvbW9zYWljLmNvbTELMAkGA1UEB'
	DB	'hMCVVMxCzAJBgNVBAgTAkNBMREwDwYDVQQHEwhTYW4gSm9zZTEfMB0GA1UECh'
	DB	'MWSW5mb21vc2FpYyBDb3Jwb3JhdGlvbjEqMCgGA1UECxMhWE1MIERpZ2l0YWw'
	DB	'gU2lnbmF0dXJlIERldmVsb3BtZW50MR8wHQYDVQQDExZJbmZvbW9zYWljIENv'
	DB	'cnBvcmF0aW9uMB4XDTAyMDUyMzIzMjYxN1oXDTAzMDUyMzIzMzYxN1owgcIxI'
	DB	'zAhBgkqhkiG9w0BCQEWFHNhbGVzQGluZm9tb3NhaWMuY29tMQswCQYDVQQGEw'
	DB	'JVUzELMAkGA1UECBMCQ0ExETAPBgNVBAcTCFNhbiBKb3NlMR8wHQYDVQQKExZ'
	DB	'JbmZvbW9zYWljIENvcnBvcmF0aW9uMSowKAYDVQQLEyFYTUwgRGlnaXRhbCBT'
	DB	'aWduYXR1cmUgRGV2ZWxvcG1lbnQxITAfBgNVBAMTGFNlY3VyZVhNTCBMaWNlb'
	DB	'nNlIFNpZ25lcjCBnzANBgkqhkiG9w0BAQEFAAOBjQAwgYkCgYEAvpEsRpF1jA'
	DB	'CKaOFENwvBnk47MnBywKvwZ3asWNLr+L3ibjrsxpA+yBMRbRXoYaEK4goGyH2'
	DB	'qdANCfBPc0SMwiAWSY/moSSRBxcqL5kmgMeJB37Lw6cKy0HU2UC9kwg5bXgdB'
	DB	'n2JeM4sN+/n4No7iteft75zuqGI8Z0BqNOQ2m+cCAwEAAaOCA88wggPLMA4GA'
	DB	'1UdDwEB/wQEAwIE8DATBgNVHSUEDDAKBggrBgEFBQcDAjAdBgNVHQ4EFgQUBn'
	DB	'2JDstuotvk/TRfp7CvueNy/oowgfsGA1UdIwSB8zCB8IAUyDoe8/LPn+bACFA'
	DB	'7aurljP5Nte6hgcWkgcIwgb8xIjAgBgkqhkiG9w0BCQEWE2luZm9A', 00H
	ORG $+7
$SG189582 DB	'cnRFbnJvbGwvaW5mb21vc2FpYy1zcnZyLmluZm9tb3NhaWMubmV0X0lu'
	DB	'Zm9tb3NhaWMlMjBDb3Jwb3JhdGlvbi5jcnQwDQYJKoZIhvcNAQEFBQADggEBA'
	DB	'KcMX8EMUUnaLgv+d31IpemMMlDDmvUlPLu6T/sFsh3j7eQrjUhsVKTZ303Q+2'
	DB	'dh0Qv7REfPLCb1T1Uxbj9bCaEh2UVZSwDdDXETO5QztkLyQZXWPfaUMbHQU/s'
	DB	'XMZ7PZBfVo6pMRSTKKY7Lc7wWuDI4HsKDt1Ny2LTyZZdei3LNwLA3WhxuYDzr'
	DB	'rTYL0IDOU4HxYhSsQqRUPWhZzBL0QKH/KBspukXK8X5ZdSNJKHDcdyqftaln5'
	DB	'FSrh/uth+9fdJIRiJhXKSvnotetBsTRRz4DAR6yLyLou8LTYhfFKHRi7ZOAKm'
	DB	'bpkQhtdqXXMkzSoUqvnCIJ5w9WkQGP/9WBKT4=', 00H
	ORG $+3
$SG189585 DB	'aW5mb21vc2FpYy5jb20xCzAJBgNVBAYTAlVTMQswCQYDVQQIEwJDQTER'
	DB	'MA8GA1UEBxMIU2FuIEpvc2UxHzAdBgNVBAoTFkluZm9tb3NhaWMgQ29ycG9yY'
	DB	'XRpb24xKjAoBgNVBAsTIVhNTCBEaWdpdGFsIFNpZ25hdHVyZSBEZXZlbG9wbW'
	DB	'VudDEfMB0GA1UEAxMWSW5mb21vc2FpYyBDb3Jwb3JhdGlvboIQN2ikHVFArbl'
	DB	'Ppz2OZYaSNjCCATgGA1UdHwSCAS8wggErMIHToIHQoIHNhoHKbGRhcDovLy9D'
	DB	'Tj1JbmZvbW9zYWljJTIwQ29ycG9yYXRpb24sQ049aW5mb21vc2FpYy1zcnZyL'
	DB	'ENOPUNEUCxDTj1QdWJsaWMlMjBLZXklMjBTZXJ2aWNlcyxDTj1TZXJ2aWNlcy'
	DB	'xDTj1Db25maWd1cmF0aW9uLERDPWluZm9tb3NhaWMsREM9bmV0P2NlcnRpZml'
	DB	'jYXRlUmV2b2NhdGlvbkxpc3Q/YmFzZT9vYmplY3RjbGFzcz1jUkxEaXN0cmli'
	DB	'dXRpb25Qb2ludDBToFGgT4ZNaHR0cDovL2luZm9tb3NhaWMtc3J2ci5pbmZvb'
	DB	'W9zYWljLm5ldC9DZXJ0RW5yb2xsL0luZm9tb3NhaWMlMjBDb3Jwb3JhdGlvbi'
	DB	'5jcmwwggFJBggrBgEFBQcBAQSCATswggE3MIG6BggrBgEFBQcwAoaBrWxkYXA'
	DB	'6Ly8vQ049SW5mb21vc2FpYyUyMENvcnBvcmF0aW9uLENOPUFJQSxDTj1QdWJs'
	DB	'aWMlMjBLZXklMjBTZXJ2aWNlcyxDTj1TZXJ2aWNlcyxDTj1Db25maWd1cmF0a'
	DB	'W9uLERDPWluZm9tb3NhaWMsREM9bmV0P2NBQ2VydGlmaWNhdGU/YmFzZT9vYm'
	DB	'plY3RjbGFzcz1jZXJ0aWZpY2F0aW9uQXV0aG9yaXR5MHgGCCsGAQUFBzAChmx'
	DB	'odHRwOi8vaW5mb21vc2FpYy1zcnZyLmluZm9tb3NhaWMubmV0L0Nl', 00H
	ORG $+3
$SG189642 DB	'TrialHost', 00H
CONST	ENDS
_DATA	SEGMENT
?wCRC16a@@3PAGA DW 00H					; wCRC16a
	DW	0c0c1H
	DW	0c181H
	DW	0140H
	DW	0c301H
	DW	03c0H
	DW	0280H
	DW	0c241H
	DW	0c601H
	DW	06c0H
	DW	0780H
	DW	0c741H
	DW	0500H
	DW	0c5c1H
	DW	0c481H
	DW	0440H
?wCRC16b@@3PAGA DW 00H					; wCRC16b
	DW	0cc01H
	DW	0d801H
	DW	01400H
	DW	0f001H
	DW	03c00H
	DW	02800H
	DW	0e401H
	DW	0a001H
	DW	06c00H
	DW	07800H
	DW	0b401H
	DW	05000H
	DW	09c01H
	DW	08801H
	DW	04600H
_DATA	ENDS
CONST	SEGMENT
	ORG $+2
$SG189678 DB	'LmluZm9tb3NhaWMubmV0X0luZm9tb3NhaWMlMjBDb3Jwb3JhdGlvbigx'
	DB	'KS5jcnQwDQYJKoZIhvcNAQEFBQADggEBAFrOd7OXXrIwQB5Fz+AZTt2mgvdXk'
	DB	'JlrneuWoyEF3DSoZfSdGqaORmWEdNcWbcxmN+xl81bWwCmdi99emBvH0sIEvS'
	DB	'9u8y4c93zG/qg3+Icu3/KNYDGAXBWJFdnCyTPfBdhTw1AmXOHepQ9i2C51S4w'
	DB	'A8keQoaH1yCwQjcSA3cRAlweg0BkpBM1NRx+jOlMgLmCETb+8iZ1vDQZ0SBul'
	DB	'O60cX7pdD/cQUE5mbeII/enkaECj8eC9CuPrhmL5D3B0xSgXOGryWNIAl1gcI'
	DB	'M2+wt+D92vN8n0WiZ1LA9DNvZPY17DePeEEwxk1Kd33C+F9Tw9q57b4rsjY/P'
	DB	'aM9Gi8FG0=', 00H
	ORG $+7
$SG189681 DB	'b24xJjAkBgNVBAsTHU1ha2luZyBEaWdpdGFsIFNpZ25hdHVyZSBFYXN5'
	DB	'MSowKAYDVQQDEyFTZWN1cmVYTUwgRmxvYXRpbmcgTGljZW5zZSBJc3N1ZXIwg'
	DB	'Z8wDQYJKoZIhvcNAQEBBQADgY0AMIGJAoGBALgb0p8Fh0O1DwZyXDONau+SqV'
	DB	'vM3IDvqDDjMLQ8uR4BnGXjiGqgjdrH4obZekYYcjWIWu01vPMAYYHH198gmsF'
	DB	'xHphndAsPllBUl0iX4JEhyBtZAo7koED+J+9aMNkVAjkA4AG17Z/MfglAH+/E'
	DB	'wsvI9nPwwsW1P9lFcQsZivIxAgMBAAGjggIzMIICLzAOBgNVHQ8BAf8EBAMCB'
	DB	'PAwEwYDVR0lBAwwCgYIKwYBBQUHAwIwHQYDVR0OBBYEFAX3Ts8591e+/KCE4j'
	DB	'gHJqKw5EqzMIH6BgNVHSMEgfIwge+AFMg6HvPyz5/mwAhQO2rq5Yz+TbXuoYH'
	DB	'EpIHBMIG+MSIwIAYJKoZIhvcNAQkB', 00H
	ORG $+7
$SG189684 DB	'MIIFvzCCBKegAwIBAgIKFDX9YgABAAAG5DANBgkqhkiG9w0BAQUFADCB'
	DB	'vjEiMCAGCSqGSIb3DQEJARYTaW5mb0BpbmZvbW9zYWljLmNvbTELMAkGA1UEB'
	DB	'hMCVVMxCzAJBgNVBAgTAkNBMRQwEgYDVQQHEwtTYW50YSBDbGFyYTEfMB0GA1'
	DB	'UEChMWSW5mb21vc2FpYyBDb3Jwb3JhdGlvbjEmMCQGA1UECxMdTWFraW5nIER'
	DB	'pZ2l0YWwgU2lnbmF0dXJlIEVhc3kxHzAdBgNVBAMTFkluZm9tb3NhaWMgQ29y'
	DB	'cG9yYXRpb24wHhcNMDMxMDAzMjIyOTUxWhcNMTMxMDAzMjE1OTUzWjCByjEjM'
	DB	'CEGCSqGSIb3DQEJARYUc2FsZXNAaW5mb21vc2FpYy5jb20xCzAJBgNVBAYTAl'
	DB	'VTMQswCQYDVQQIEwJDQTEUMBIGA1UEBxMLU2FudGEgQ2xhcmExHzAdBgNVBAo'
	DB	'TFkluZm9tb3NhaWMgQ29ycG9yYXRp', 00H
	ORG $+7
$SG189687 DB	'FhNpbmZvQGluZm9tb3NhaWMuY29tMQswCQYDVQQGEwJVUzELMAkGA1UE'
	DB	'CBMCQ0ExFDASBgNVBAcTC1NhbnRhIENsYXJhMR8wHQYDVQQKExZJbmZvbW9zY'
	DB	'WljIENvcnBvcmF0aW9uMSYwJAYDVQQLEx1NYWtpbmcgRGlnaXRhbCBTaWduYX'
	DB	'R1cmUgRWFzeTEfMB0GA1UEAxMWSW5mb21vc2FpYyBDb3Jwb3JhdGlvboIQKiQ'
	DB	'6i/TBzo1KZki1g15oZzBeBgNVHR8EVzBVMFOgUaBPhk1odHRwOi8vaW5mb21v'
	DB	'c2FpYy1zcnZyLmluZm9tb3NhaWMubmV0L0NlcnRFbnJvbGwvSW5mb21vc2FpY'
	DB	'yUyMENvcnBvcmF0aW9uLmNybDCBiwYIKwYBBQUHAQEEfzB9MHsGCCsGAQUFBz'
	DB	'AChm9odHRwOi8vaW5mb21vc2FpYy1zcnZyLmluZm9tb3NhaWMubmV0L0NlcnR'
	DB	'FbnJvbGwvaW5mb21vc2FpYy1zcnZy', 00H
	ORG $+3
$SG189719 DB	'MaintExpiryYear', 00H
$SG189725 DB	'MaintExpiryMonth', 00H
	ORG $+3
$SG189731 DB	'MaintExpiryDay', 00H
	ORG $+1
$SG189737 DB	'LinuxClient', 00H
$SG189743 DB	'WindowsClient', 00H
	ORG $+2
$SG189749 DB	'SolarisClient', 00H
	ORG $+2
$SG189755 DB	'MacClient', 00H
	ORG $+2
$SG189803 DB	'MIIHVDCCBjygAwIBAgIKJbmN0QAAAAABVDANBgkqhkiG9w0BAQUFADCB'
	DB	'vzEiMCAGCSqGSIb3DQEJARYTaW5mb0BpbmZvbW9zYWljLmNvbTELMAkGA1UEB'
	DB	'hMCVVMxCzAJBgNVBAgTAkNBMREwDwYDVQQHEwhTYW4gSm9zZTEfMB0GA1UECh'
	DB	'MWSW5mb21vc2FpYyBDb3Jwb3JhdGlvbjEqMCgGA1UECxMhWE1MIERpZ2l0YWw'
	DB	'gU2lnbmF0dXJlIERldmVsb3BtZW50MR8wHQYDVQQDExZJbmZvbW9zYWljIENv'
	DB	'cnBvcmF0aW9uMB4XDTAyMDUyMzIzMjYxN1oXDTAzMDUyMzIzMzYxN1owgcIxI'
	DB	'zAhBgkqhkiG9w0BCQEWFHNhbGVzQGluZm9tb3NhaWMuY29tMQswCQYDVQQGEw'
	DB	'JVUzELMAkGA1UECBMCQ0ExETAPBgNVBAcTCFNhbiBKb3NlMR8wHQYDVQQKExZ'
	DB	'JbmZvbW9zYWljIENvcnBvcmF0aW9uMSowKAYDVQQLEyFYTUwgRGlnaXRhbCBT'
	DB	'aWduYXR1cmUgRGV2ZWxvcG1lbnQxITAfBgNVBAMTGFNlY3VyZVhNTCBMaWNlb'
	DB	'nNlIFNpZ25lcjCBnzANBgkqhkiG9w0BAQEFAAOBjQAwgYkCgYEAvpEsRpF1jA'
	DB	'CKaOFENwvBnk47MnBywKvwZ3asWNLr+L3ibjrsxpA+yBMRbRXoYaEK4goGyH2'
	DB	'qdANCfBPc0SMwiAWSY/moSSRBxcqL5kmgMeJB37Lw6cKy0HU2UC9kwg5bXgdB'
	DB	'n2JeM4sN+/n4No7iteft75zuqGI8Z0BqNOQ2m+cCAwEAAaOCA88wggPLMA4GA'
	DB	'1UdDwEB/wQEAwIE8DATBgNVHSUEDDAKBggrBgEFBQcDAjAdBgNVHQ4EFgQUBn'
	DB	'2JDstuotvk/TRfp7CvueNy/oowgfsGA1UdIwSB8zCB8IAUyDoe8/LPn+bACFA'
	DB	'7aurljP5Nte6hgcWkgcIwgb8xIjAgBgkqhkiG9w0BCQEWE2luZm9A', 00H
	ORG $+7
$SG189806 DB	'cnRFbnJvbGwvaW5mb21vc2FpYy1zcnZyLmluZm9tb3NhaWMubmV0X0lu'
	DB	'Zm9tb3NhaWMlMjBDb3Jwb3JhdGlvbi5jcnQwDQYJKoZIhvcNAQEFBQADggEBA'
	DB	'KcMX8EMUUnaLgv+d31IpemMMlDDmvUlPLu6T/sFsh3j7eQrjUhsVKTZ303Q+2'
	DB	'dh0Qv7REfPLCb1T1Uxbj9bCaEh2UVZSwDdDXETO5QztkLyQZXWPfaUMbHQU/s'
	DB	'XMZ7PZBfVo6pMRSTKKY7Lc7wWuDI4HsKDt1Ny2LTyZZdei3LNwLA3WhxuYDzr'
	DB	'rTYL0IDOU4HxYhSsQqRUPWhZzBL0QKH/KBspukXK8X5ZdSNJKHDcdyqftaln5'
	DB	'FSrh/uth+9fdJIRiJhXKSvnotetBsTRRz4DAR6yLyLou8LTYhfFKHRi7ZOAKm'
	DB	'bpkQhtdqXXMkzSoUqvnCIJ5w9WkQGP/9WBKT4=', 00H
	ORG $+3
$SG189809 DB	'aW5mb21vc2FpYy5jb20xCzAJBgNVBAYTAlVTMQswCQYDVQQIEwJDQTER'
	DB	'MA8GA1UEBxMIU2FuIEpvc2UxHzAdBgNVBAoTFkluZm9tb3NhaWMgQ29ycG9yY'
	DB	'XRpb24xKjAoBgNVBAsTIVhNTCBEaWdpdGFsIFNpZ25hdHVyZSBEZXZlbG9wbW'
	DB	'VudDEfMB0GA1UEAxMWSW5mb21vc2FpYyBDb3Jwb3JhdGlvboIQN2ikHVFArbl'
	DB	'Ppz2OZYaSNjCCATgGA1UdHwSCAS8wggErMIHToIHQoIHNhoHKbGRhcDovLy9D'
	DB	'Tj1JbmZvbW9zYWljJTIwQ29ycG9yYXRpb24sQ049aW5mb21vc2FpYy1zcnZyL'
	DB	'ENOPUNEUCxDTj1QdWJsaWMlMjBLZXklMjBTZXJ2aWNlcyxDTj1TZXJ2aWNlcy'
	DB	'xDTj1Db25maWd1cmF0aW9uLERDPWluZm9tb3NhaWMsREM9bmV0P2NlcnRpZml'
	DB	'jYXRlUmV2b2NhdGlvbkxpc3Q/YmFzZT9vYmplY3RjbGFzcz1jUkxEaXN0cmli'
	DB	'dXRpb25Qb2ludDBToFGgT4ZNaHR0cDovL2luZm9tb3NhaWMtc3J2ci5pbmZvb'
	DB	'W9zYWljLm5ldC9DZXJ0RW5yb2xsL0luZm9tb3NhaWMlMjBDb3Jwb3JhdGlvbi'
	DB	'5jcmwwggFJBggrBgEFBQcBAQSCATswggE3MIG6BggrBgEFBQcwAoaBrWxkYXA'
	DB	'6Ly8vQ049SW5mb21vc2FpYyUyMENvcnBvcmF0aW9uLENOPUFJQSxDTj1QdWJs'
	DB	'aWMlMjBLZXklMjBTZXJ2aWNlcyxDTj1TZXJ2aWNlcyxDTj1Db25maWd1cmF0a'
	DB	'W9uLERDPWluZm9tb3NhaWMsREM9bmV0P2NBQ2VydGlmaWNhdGU/YmFzZT9vYm'
	DB	'plY3RjbGFzcz1jZXJ0aWZpY2F0aW9uQXV0aG9yaXR5MHgGCCsGAQUFBzAChmx'
	DB	'odHRwOi8vaW5mb21vc2FpYy1zcnZyLmluZm9tb3NhaWMubmV0L0Nl', 00H
	ORG $+7
$SG189844 DB	'(//. | //@* | //namespace::*)[self::idsig:Signature | se'
	DB	'lf::SignedObject | self::documentID]', 00H
	ORG $+3
$SG189848 DB	'http://www.w3.org/2000/09/xmldsig#', 00H
	ORG $+1
$SG189849 DB	'idsig', 00H
	ORG $+2
$SG189865 DB	'(//. | //@* | //namespace::*)[self::SchemaData]', 00H
$SG189894 DB	'TemplateSource', 00H
	ORG $+5
$SG189895 DB	'(//. | //@* | //namespace::*)[ancestor-or-self::ifmc:Sig'
	DB	'nedObject[@Id=''%s'']]', 00H
	ORG $+3
$SG189900 DB	'http://www.infomosaic.net', 00H
	ORG $+2
$SG189901 DB	'ifmc', 00H
	ORG $+7
$SG189928 DB	'(//. | //@* | //namespace::*)[self::SchemaData | self::X'
	DB	'mlData]', 00H
$SG189934 DB	'XmlData', 00H
$SG190959 DB	'pp != 0', 00H
$SG190960 DB	'C:\Program Files\Microsoft Visual Studio .NET 2003\Vc7\a'
	DB	'tlmfc\include\atlcom.h', 00H
CONST	ENDS
;	COMDAT ?g_pfnGetThreadACP@ATL@@3P6GIXZA
_DATA	SEGMENT
?g_pfnGetThreadACP@ATL@@3P6GIXZA DD FLAT:?_AtlGetThreadACPThunk@ATL@@YGIXZ ; ATL::g_pfnGetThreadACP
_DATA	ENDS
;	COMDAT ?rcDefault@CWindow@ATL@@2UtagRECT@@A
_DATA	SEGMENT
?rcDefault@CWindow@ATL@@2UtagRECT@@A DD 080000000H	; ATL::CWindow::rcDefault
	DD	080000000H
	DD	00H
	DD	00H
_DATA	ENDS
CONST	SEGMENT
	ORG $+1
$SG160733 DB	'pThis != 0', 00H
	ORG $+5
$SG160734 DB	'C:\Program Files\Microsoft Visual Studio .NET 2003\Vc7\a'
	DB	'tlmfc\include\atlwin.h', 00H
	ORG $+1
$SG160741 DB	'C:\Program Files\Microsoft Visual Studio .NET 2003\Vc7\a'
	DB	'tlmfc\include\atlwin.h', 00H
	ORG $+1
$SG160742 DB	'Subclassing through a hook discarded.', 0aH, 00H
	ORG $+1
$SG160758 DB	'pThis->m_pCurrentMsg == &msg', 00H
	ORG $+3
$SG160759 DB	'C:\Program Files\Microsoft Visual Studio .NET 2003\Vc7\a'
	DB	'tlmfc\include\atlwin.h', 00H
	ORG $+1
$SG160782 DB	'm_hWnd == 0', 00H
	ORG $+4
$SG160783 DB	'C:\Program Files\Microsoft Visual Studio .NET 2003\Vc7\a'
	DB	'tlmfc\include\atlwin.h', 00H
	ORG $+1
$SG160794 DB	'm_hWnd == hWnd', 00H
	ORG $+1
$SG160795 DB	'C:\Program Files\Microsoft Visual Studio .NET 2003\Vc7\a'
	DB	'tlmfc\include\atlwin.h', 00H
	ORG $+1
$SG161005 DB	'm_begin == 0', 00H
	ORG $+3
$SG161006 DB	'C:\Program Files\Microsoft Visual Studio .NET 2003\Vc7\a'
	DB	'tlmfc\include\atlcom.h', 00H
CONST	ENDS
PUBLIC	?InterlockedExchangePointer@@YGPAXPAPAXPAX@Z	; InterlockedExchangePointer
PUBLIC	?_AtlGetThreadACPFake@ATL@@YGIXZ		; ATL::_AtlGetThreadACPFake
PUBLIC	?_AtlGetThreadACPReal@ATL@@YGIXZ		; ATL::_AtlGetThreadACPReal
EXTRN	__imp__GetVersionExA@4:NEAR
EXTRN	__RTC_InitBase:NEAR
EXTRN	__RTC_Shutdown:NEAR
EXTRN	__RTC_CheckEsp:NEAR
EXTRN	___security_cookie:DWORD
EXTRN	@_RTC_CheckStackVars@8:NEAR
EXTRN	@__security_check_cookie@4:NEAR
;	COMDAT rtc$IMZ
; File c:\program files\microsoft visual studio .net 2003\vc7\atlmfc\include\atlconv.h
rtc$IMZ	SEGMENT
__RTC_InitBase.rtc$IMZ DD FLAT:__RTC_InitBase
rtc$IMZ	ENDS
;	COMDAT rtc$TMZ
rtc$TMZ	SEGMENT
__RTC_Shutdown.rtc$TMZ DD FLAT:__RTC_Shutdown
; Function compile flags: /Odt /RTCsu
rtc$TMZ	ENDS
;	COMDAT ?_AtlGetThreadACPThunk@ATL@@YGIXZ
_TEXT	SEGMENT
_pfnGetThreadACP$ = -164				; size = 4
_ver$ = -156						; size = 148
__$ArrayPad$ = -4					; size = 4
__$ReturnAddr$ = 4					; size = 4
?_AtlGetThreadACPThunk@ATL@@YGIXZ PROC NEAR		; ATL::_AtlGetThreadACPThunk, COMDAT

; 134  : {

	push	ebp
	mov	ebp, esp
	sub	esp, 164				; 000000a4H
	push	esi
	push	edi
	lea	edi, DWORD PTR [ebp-164]
	mov	ecx, 41					; 00000029H
	mov	eax, -858993460				; ccccccccH
	rep stosd
	mov	eax, DWORD PTR ___security_cookie
	mov	DWORD PTR __$ArrayPad$[ebp], eax

; 135  : 	OSVERSIONINFO ver;
; 136  : 	ATLGETTHREADACP pfnGetThreadACP;
; 137  : 
; 138  : 	ver.dwOSVersionInfoSize = sizeof( ver );

	mov	DWORD PTR _ver$[ebp], 148		; 00000094H

; 139  : 	::GetVersionEx( &ver );

	mov	esi, esp
	lea	eax, DWORD PTR _ver$[ebp]
	push	eax
	call	DWORD PTR __imp__GetVersionExA@4
	cmp	esi, esp
	call	__RTC_CheckEsp

; 140  : 	if( (ver.dwPlatformId == VER_PLATFORM_WIN32_NT) && (ver.dwMajorVersion >= 5) )

	cmp	DWORD PTR _ver$[ebp+16], 2
	jne	SHORT $L75782
	cmp	DWORD PTR _ver$[ebp+4], 5
	jb	SHORT $L75782

; 141  : 	{
; 142  : 		// On Win2K, CP_THREAD_ACP is supported
; 143  : 		pfnGetThreadACP = _AtlGetThreadACPReal;

	mov	DWORD PTR _pfnGetThreadACP$[ebp], OFFSET FLAT:?_AtlGetThreadACPReal@ATL@@YGIXZ ; ATL::_AtlGetThreadACPReal

; 144  : 	}
; 145  : 	else

	jmp	SHORT $L75783
$L75782:

; 146  : 	{
; 147  : 		pfnGetThreadACP = _AtlGetThreadACPFake;

	mov	DWORD PTR _pfnGetThreadACP$[ebp], OFFSET FLAT:?_AtlGetThreadACPFake@ATL@@YGIXZ ; ATL::_AtlGetThreadACPFake
$L75783:

; 148  : 	}
; 149  : 	InterlockedExchangePointer( reinterpret_cast< void** >(&g_pfnGetThreadACP), pfnGetThreadACP );

	mov	ecx, DWORD PTR _pfnGetThreadACP$[ebp]
	push	ecx
	push	OFFSET FLAT:?g_pfnGetThreadACP@ATL@@3P6GIXZA ; ATL::g_pfnGetThreadACP
	call	?InterlockedExchangePointer@@YGPAXPAPAXPAX@Z ; InterlockedExchangePointer

; 150  : 
; 151  : 	return( g_pfnGetThreadACP() );

	mov	esi, esp
	call	DWORD PTR ?g_pfnGetThreadACP@ATL@@3P6GIXZA ; ATL::g_pfnGetThreadACP
	cmp	esi, esp
	call	__RTC_CheckEsp

; 152  : }

	push	edx
	mov	ecx, ebp
	push	eax
	lea	edx, DWORD PTR $L191972
	call	@_RTC_CheckStackVars@8
	pop	eax
	pop	edx
	mov	ecx, DWORD PTR __$ArrayPad$[ebp]
	call	@__security_check_cookie@4
	pop	edi
	pop	esi
	add	esp, 164				; 000000a4H
	cmp	ebp, esp
	call	__RTC_CheckEsp
	mov	esp, ebp
	pop	ebp
	ret	0
$L191972:
	DD	1
	DD	$L191971
$L191971:
	DD	-156					; ffffff64H
	DD	148					; 00000094H
	DD	$L191968
$L191968:
	DB	118					; 00000076H
	DB	101					; 00000065H
	DB	114					; 00000072H
	DB	0
?_AtlGetThreadACPThunk@ATL@@YGIXZ ENDP			; ATL::_AtlGetThreadACPThunk
_TEXT	ENDS
EXTRN	__imp__InterlockedExchange@8:NEAR
; Function compile flags: /Odt /RTCsu
;	COMDAT ?InterlockedExchangePointer@@YGPAXPAPAXPAX@Z
_TEXT	SEGMENT
_pp$ = 8						; size = 4
_pNew$ = 12						; size = 4
?InterlockedExchangePointer@@YGPAXPAPAXPAX@Z PROC NEAR	; InterlockedExchangePointer, COMDAT

; 91   : {

	push	ebp
	mov	ebp, esp
	push	esi

; 92   : 	return( reinterpret_cast<void*>(static_cast<LONG_PTR>(::InterlockedExchange(reinterpret_cast<LONG*>(pp), static_cast<LONG>(reinterpret_cast<LONG_PTR>(pNew))))) );

	mov	esi, esp
	mov	eax, DWORD PTR _pNew$[ebp]
	push	eax
	mov	ecx, DWORD PTR _pp$[ebp]
	push	ecx
	call	DWORD PTR __imp__InterlockedExchange@8
	cmp	esi, esp
	call	__RTC_CheckEsp

; 93   : }

	pop	esi
	cmp	ebp, esp
	call	__RTC_CheckEsp
	pop	ebp
	ret	8
?InterlockedExchangePointer@@YGPAXPAPAXPAX@Z ENDP	; InterlockedExchangePointer
_TEXT	ENDS
EXTRN	__imp__GetACP@0:NEAR
EXTRN	__imp__GetLocaleInfoA@16:NEAR
EXTRN	__imp__GetThreadLocale@0:NEAR
; Function compile flags: /Odt /RTCsu
;	COMDAT ?_AtlGetThreadACPFake@ATL@@YGIXZ
_TEXT	SEGMENT
_pch$75770 = -32					; size = 4
_szACP$ = -24						; size = 7
_lcidThread$ = -12					; size = 4
_nACP$ = -8						; size = 4
__$ArrayPad$ = -4					; size = 4
__$ReturnAddr$ = 4					; size = 4
?_AtlGetThreadACPFake@ATL@@YGIXZ PROC NEAR		; ATL::_AtlGetThreadACPFake, COMDAT

; 101  : {

	push	ebp
	mov	ebp, esp
	sub	esp, 32					; 00000020H
	push	esi
	mov	eax, -858993460				; ccccccccH
	mov	DWORD PTR [ebp-32], eax
	mov	DWORD PTR [ebp-28], eax
	mov	DWORD PTR [ebp-24], eax
	mov	DWORD PTR [ebp-20], eax
	mov	DWORD PTR [ebp-16], eax
	mov	DWORD PTR [ebp-12], eax
	mov	DWORD PTR [ebp-8], eax
	mov	DWORD PTR [ebp-4], eax
	mov	eax, DWORD PTR ___security_cookie
	mov	DWORD PTR __$ArrayPad$[ebp], eax

; 102  : 	UINT nACP = 0;

	mov	DWORD PTR _nACP$[ebp], 0

; 103  : 
; 104  : 	LCID lcidThread = ::GetThreadLocale();

	mov	esi, esp
	call	DWORD PTR __imp__GetThreadLocale@0
	cmp	esi, esp
	call	__RTC_CheckEsp
	mov	DWORD PTR _lcidThread$[ebp], eax

; 105  : 
; 106  : 	char szACP[7];
; 107  : 	// GetLocaleInfoA will fail for a Unicode-only LCID, but those are only supported on 
; 108  : 	// Windows 2000.  Since Windows 2000 supports CP_THREAD_ACP, this code path is never
; 109  : 	// executed on Windows 2000.
; 110  : 	if (::GetLocaleInfoA(lcidThread, LOCALE_IDEFAULTANSICODEPAGE, szACP, 7) != 0)

	mov	esi, esp
	push	7
	lea	eax, DWORD PTR _szACP$[ebp]
	push	eax
	push	4100					; 00001004H
	mov	ecx, DWORD PTR _lcidThread$[ebp]
	push	ecx
	call	DWORD PTR __imp__GetLocaleInfoA@16
	cmp	esi, esp
	call	__RTC_CheckEsp
	test	eax, eax
	je	SHORT $L75769

; 111  : 	{
; 112  : 		char* pch = szACP;

	lea	edx, DWORD PTR _szACP$[ebp]
	mov	DWORD PTR _pch$75770[ebp], edx
$L75772:

; 113  : 		while (*pch != '\0')

	mov	eax, DWORD PTR _pch$75770[ebp]
	movsx	ecx, BYTE PTR [eax]
	test	ecx, ecx
	je	SHORT $L75769

; 114  : 		{
; 115  : 			nACP *= 10;

	mov	edx, DWORD PTR _nACP$[ebp]
	imul	edx, 10					; 0000000aH
	mov	DWORD PTR _nACP$[ebp], edx

; 116  : 			nACP += *pch++ - '0';

	mov	eax, DWORD PTR _pch$75770[ebp]
	movsx	ecx, BYTE PTR [eax]
	mov	edx, DWORD PTR _nACP$[ebp]
	lea	eax, DWORD PTR [edx+ecx-48]
	mov	DWORD PTR _nACP$[ebp], eax
	mov	ecx, DWORD PTR _pch$75770[ebp]
	add	ecx, 1
	mov	DWORD PTR _pch$75770[ebp], ecx

; 117  : 		}

	jmp	SHORT $L75772
$L75769:

; 118  : 	}
; 119  : 	// Use the Default ANSI Code Page if we were unable to get the thread ACP or if one does not exist.
; 120  : 	if (nACP == 0)

	cmp	DWORD PTR _nACP$[ebp], 0
	jne	SHORT $L75774

; 121  : 		nACP = ::GetACP();

	mov	esi, esp
	call	DWORD PTR __imp__GetACP@0
	cmp	esi, esp
	call	__RTC_CheckEsp
	mov	DWORD PTR _nACP$[ebp], eax
$L75774:

; 122  : 
; 123  : 	return nACP;

	mov	eax, DWORD PTR _nACP$[ebp]

; 124  : }

	push	edx
	mov	ecx, ebp
	push	eax
	lea	edx, DWORD PTR $L191985
	call	@_RTC_CheckStackVars@8
	pop	eax
	pop	edx
	mov	ecx, DWORD PTR __$ArrayPad$[ebp]
	call	@__security_check_cookie@4
	pop	esi
	add	esp, 32					; 00000020H
	cmp	ebp, esp
	call	__RTC_CheckEsp
	mov	esp, ebp
	pop	ebp
	ret	0
$L191985:
	DD	1
	DD	$L191984
$L191984:
	DD	-24					; ffffffe8H
	DD	7
	DD	$L191982
$L191982:
	DB	115					; 00000073H
	DB	122					; 0000007aH
	DB	65					; 00000041H
	DB	67					; 00000043H
	DB	80					; 00000050H
	DB	0
?_AtlGetThreadACPFake@ATL@@YGIXZ ENDP			; ATL::_AtlGetThreadACPFake
; Function compile flags: /Odt /RTCsu
_TEXT	ENDS
;	COMDAT ?_AtlGetThreadACPReal@ATL@@YGIXZ
_TEXT	SEGMENT
?_AtlGetThreadACPReal@ATL@@YGIXZ PROC NEAR		; ATL::_AtlGetThreadACPReal, COMDAT

; 127  : {

	push	ebp
	mov	ebp, esp

; 128  : 	return( CP_THREAD_ACP );

	mov	eax, 3

; 129  : }

	pop	ebp
	ret	0
?_AtlGetThreadACPReal@ATL@@YGIXZ ENDP			; ATL::_AtlGetThreadACPReal
_TEXT	ENDS
PUBLIC	?_AtlInstallStringThunk@ATL@@YAXPAPAXPAX1@Z	; ATL::_AtlInstallStringThunk
PUBLIC	?GetEnvironmentVariableWFake@ATL@@YGKPBGPAGK@Z	; ATL::GetEnvironmentVariableWFake
EXTRN	__imp__GetEnvironmentVariableW@12:NEAR
; Function compile flags: /Odt /RTCsu
; File c:\program files\microsoft visual studio .net 2003\vc7\atlmfc\include\cstringt.h
;	COMDAT ?GetEnvironmentVariableWThunk@ATL@@YGKPBGPAGK@Z
_TEXT	SEGMENT
_pszName$ = 8						; size = 4
_pszBuffer$ = 12					; size = 4
_nSize$ = 16						; size = 4
?GetEnvironmentVariableWThunk@ATL@@YGKPBGPAGK@Z PROC NEAR ; ATL::GetEnvironmentVariableWThunk, COMDAT

; 183  : {

	push	ebp
	mov	ebp, esp
	push	esi

; 184  : 	_AtlInstallStringThunk(reinterpret_cast<void**>(&_strthunks.pfnGetEnvironmentVariableW), 
; 185  : 		GetEnvironmentVariableWFake, ::GetEnvironmentVariableW);

	mov	eax, DWORD PTR __imp__GetEnvironmentVariableW@12
	push	eax
	push	OFFSET FLAT:?GetEnvironmentVariableWFake@ATL@@YGKPBGPAGK@Z ; ATL::GetEnvironmentVariableWFake
	push	OFFSET FLAT:?_strthunks@ATL@@3U_AtlStringThunks@1@A+20
	call	?_AtlInstallStringThunk@ATL@@YAXPAPAXPAX1@Z ; ATL::_AtlInstallStringThunk
	add	esp, 12					; 0000000cH

; 186  : 
; 187  : 	return _strthunks.pfnGetEnvironmentVariableW(pszName, pszBuffer, nSize);

	mov	esi, esp
	mov	ecx, DWORD PTR _nSize$[ebp]
	push	ecx
	mov	edx, DWORD PTR _pszBuffer$[ebp]
	push	edx
	mov	eax, DWORD PTR _pszName$[ebp]
	push	eax
	call	DWORD PTR ?_strthunks@ATL@@3U_AtlStringThunks@1@A+20
	cmp	esi, esp
	call	__RTC_CheckEsp

; 188  : }

	pop	esi
	cmp	ebp, esp
	call	__RTC_CheckEsp
	pop	ebp
	ret	12					; 0000000cH
?GetEnvironmentVariableWThunk@ATL@@YGKPBGPAGK@Z ENDP	; ATL::GetEnvironmentVariableWThunk
_TEXT	ENDS
PUBLIC	?s_bWin9x@?1??_AtlInstallStringThunk@ATL@@YAXPAPAXPAX1@Z@4_NA ; `ATL::_AtlInstallStringThunk'::`2'::s_bWin9x
PUBLIC	??_B?1??_AtlInstallStringThunk@ATL@@YAXPAPAXPAX1@Z@51 ; `ATL::_AtlInstallStringThunk'::`2'::`local static guard'
EXTRN	__imp__GetVersion@0:NEAR
;	COMDAT ?s_bWin9x@?1??_AtlInstallStringThunk@ATL@@YAXPAPAXPAX1@Z@4_NA
_BSS	SEGMENT
?s_bWin9x@?1??_AtlInstallStringThunk@ATL@@YAXPAPAXPAX1@Z@4_NA DB 01H DUP (?) ; `ATL::_AtlInstallStringThunk'::`2'::s_bWin9x
_BSS	ENDS
;	COMDAT ??_B?1??_AtlInstallStringThunk@ATL@@YAXPAPAXPAX1@Z@51
_BSS	SEGMENT
??_B?1??_AtlInstallStringThunk@ATL@@YAXPAPAXPAX1@Z@51 DD 01H DUP (?) ; `ATL::_AtlInstallStringThunk'::`2'::`local static guard'
; Function compile flags: /Odt /RTCsu
_BSS	ENDS
;	COMDAT ?_AtlInstallStringThunk@ATL@@YAXPAPAXPAX1@Z
_TEXT	SEGMENT
_pfn$ = -4						; size = 4
_ppThunk$ = 8						; size = 4
_pfnWin9x$ = 12						; size = 4
_pfnNT$ = 16						; size = 4
?_AtlInstallStringThunk@ATL@@YAXPAPAXPAX1@Z PROC NEAR	; ATL::_AtlInstallStringThunk, COMDAT

; 115  : {

	push	ebp
	mov	ebp, esp
	push	ecx
	push	esi
	mov	DWORD PTR [ebp-4], -858993460		; ccccccccH

; 116  : #pragma warning (push)
; 117  : #pragma warning (disable : 4640)	// construction of local static object is not thread-safe
; 118  : 
; 119  : 	static bool s_bWin9x = (::GetVersion()&0x80000000) != 0;

	mov	eax, DWORD PTR ??_B?1??_AtlInstallStringThunk@ATL@@YAXPAPAXPAX1@Z@51
	and	eax, 1
	jne	SHORT $L185963
	mov	ecx, DWORD PTR ??_B?1??_AtlInstallStringThunk@ATL@@YAXPAPAXPAX1@Z@51
	or	ecx, 1
	mov	DWORD PTR ??_B?1??_AtlInstallStringThunk@ATL@@YAXPAPAXPAX1@Z@51, ecx
	mov	esi, esp
	call	DWORD PTR __imp__GetVersion@0
	cmp	esi, esp
	call	__RTC_CheckEsp
	and	eax, -2147483648			; 80000000H
	neg	eax
	sbb	eax, eax
	neg	eax
	mov	BYTE PTR ?s_bWin9x@?1??_AtlInstallStringThunk@ATL@@YAXPAPAXPAX1@Z@4_NA, al ; `ATL::_AtlInstallStringThunk'::`2'::s_bWin9x
$L185963:

; 120  : 	
; 121  : #pragma warning (pop)
; 122  : 
; 123  : 	void* pfn;
; 124  : 	if (s_bWin9x)

	movzx	edx, BYTE PTR ?s_bWin9x@?1??_AtlInstallStringThunk@ATL@@YAXPAPAXPAX1@Z@4_NA ; `ATL::_AtlInstallStringThunk'::`2'::s_bWin9x
	test	edx, edx
	je	SHORT $L185965

; 125  : 		pfn = pfnWin9x;

	mov	eax, DWORD PTR _pfnWin9x$[ebp]
	mov	DWORD PTR _pfn$[ebp], eax

; 126  : 	else

	jmp	SHORT $L185966
$L185965:

; 127  : 	{
; 128  : #ifdef _CSTRING_ALWAYS_THUNK
; 129  : 		pfn = pfnWin9x;
; 130  : 		(void)pfnNT;
; 131  : #else
; 132  : 		pfn = pfnNT;

	mov	ecx, DWORD PTR _pfnNT$[ebp]
	mov	DWORD PTR _pfn$[ebp], ecx
$L185966:

; 133  : #endif
; 134  : 	}
; 135  : 	InterlockedExchangePointer(ppThunk, pfn);

	mov	edx, DWORD PTR _pfn$[ebp]
	push	edx
	mov	eax, DWORD PTR _ppThunk$[ebp]
	push	eax
	call	?InterlockedExchangePointer@@YGPAXPAPAXPAX@Z ; InterlockedExchangePointer

; 136  : }

	pop	esi
	add	esp, 4
	cmp	ebp, esp
	call	__RTC_CheckEsp
	mov	esp, ebp
	pop	ebp
	ret	0
?_AtlInstallStringThunk@ATL@@YAXPAPAXPAX1@Z ENDP	; ATL::_AtlInstallStringThunk
_TEXT	ENDS
PUBLIC	?_AtlGetConversionACP@ATL@@YGIXZ		; ATL::_AtlGetConversionACP
PUBLIC	??_C@_0FB@DNILBHEN@C?3?2Program?5Files?2Microsoft?5Visua@ ; `string'
PUBLIC	??0?$CW2AEX@$0IA@@ATL@@QAE@PBG@Z		; ATL::CW2AEX<128>::CW2AEX<128>
PUBLIC	??1?$CW2AEX@$0IA@@ATL@@QAE@XZ			; ATL::CW2AEX<128>::~CW2AEX<128>
PUBLIC	??B?$CW2AEX@$0IA@@ATL@@QBEPADXZ			; ATL::CW2AEX<128>::operator char *
PUBLIC	??_C@_0BA@CLMJJCOM@nSize?5?$DO?$DN?5nSizeW?$AA@	; `string'
PUBLIC	??0?$CTempBuffer@D$0IA@VCCRTAllocator@ATL@@@ATL@@QAE@XZ ; ATL::CTempBuffer<char,128,ATL::CCRTAllocator>::CTempBuffer<char,128,ATL::CCRTAllocator>
PUBLIC	??1?$CTempBuffer@D$0IA@VCCRTAllocator@ATL@@@ATL@@QAE@XZ ; ATL::CTempBuffer<char,128,ATL::CCRTAllocator>::~CTempBuffer<char,128,ATL::CCRTAllocator>
PUBLIC	??B?$CTempBuffer@D$0IA@VCCRTAllocator@ATL@@@ATL@@QBEPADXZ ; ATL::CTempBuffer<char,128,ATL::CCRTAllocator>::operator char *
PUBLIC	?Allocate@?$CTempBuffer@D$0IA@VCCRTAllocator@ATL@@@ATL@@QAEPADI@Z ; ATL::CTempBuffer<char,128,ATL::CCRTAllocator>::Allocate
EXTRN	__imp__MultiByteToWideChar@24:NEAR
EXTRN	__except_list:DWORD
EXTRN	___CxxFrameHandler:NEAR
EXTRN	__imp__GetEnvironmentVariableA@12:NEAR
EXTRN	__CrtDbgReport:NEAR
;	COMDAT xdata$x
xdata$x	SEGMENT
$T192012 DD	0ffffffffH
	DD	FLAT:$L191999
	DD	00H
	DD	FLAT:$L192000
$T192004 DD	019930520H
	DD	02H
	DD	FLAT:$T192012
	DD	2 DUP(00H)
	DD	2 DUP(00H)
xdata$x	ENDS
;	COMDAT ??_C@_0BA@CLMJJCOM@nSize?5?$DO?$DN?5nSizeW?$AA@
CONST	SEGMENT
??_C@_0BA@CLMJJCOM@nSize?5?$DO?$DN?5nSizeW?$AA@ DB 'nSize >= nSizeW', 00H ; `string'
CONST	ENDS
;	COMDAT ??_C@_0FB@DNILBHEN@C?3?2Program?5Files?2Microsoft?5Visua@
CONST	SEGMENT
??_C@_0FB@DNILBHEN@C?3?2Program?5Files?2Microsoft?5Visua@ DB 'C:\Program '
	DB	'Files\Microsoft Visual Studio .NET 2003\Vc7\atlmfc\include\cs'
	DB	'tringt.h', 00H				; `string'
; Function compile flags: /Odt /RTCsu
CONST	ENDS
;	COMDAT ?GetEnvironmentVariableWFake@ATL@@YGKPBGPAGK@Z
_TEXT	SEGMENT
$T191998 = -316						; size = 4
$T191996 = -312						; size = 4
$T191995 = -308						; size = 4
_pszNameA$ = -300					; size = 132
_pszBufferA$ = -160					; size = 132
_nSizeW$ = -24						; size = 4
_nSizeA$ = -20						; size = 4
__$ArrayPad$ = -16					; size = 4
__$EHRec$ = -12						; size = 12
__$ReturnAddr$ = 4					; size = 4
_pszName$ = 8						; size = 4
_pszBuffer$ = 12					; size = 4
_nSize$ = 16						; size = 4
?GetEnvironmentVariableWFake@ATL@@YGKPBGPAGK@Z PROC NEAR ; ATL::GetEnvironmentVariableWFake, COMDAT

; 159  : {

	push	ebp
	mov	ebp, esp
	push	-1
	push	__ehhandler$?GetEnvironmentVariableWFake@ATL@@YGKPBGPAGK@Z
	mov	eax, DWORD PTR fs:__except_list
	push	eax
	mov	DWORD PTR fs:__except_list, esp
	sub	esp, 304				; 00000130H
	push	esi
	push	edi
	lea	edi, DWORD PTR [ebp-316]
	mov	ecx, 76					; 0000004cH
	mov	eax, -858993460				; ccccccccH
	rep stosd
	mov	eax, DWORD PTR ___security_cookie
	mov	DWORD PTR __$ArrayPad$[ebp], eax

; 160  : 	ULONG nSizeA;
; 161  : 	ULONG nSizeW;
; 162  : 	CTempBuffer<char> pszBufferA;

	lea	ecx, DWORD PTR _pszBufferA$[ebp]
	call	??0?$CTempBuffer@D$0IA@VCCRTAllocator@ATL@@@ATL@@QAE@XZ ; ATL::CTempBuffer<char,128,ATL::CCRTAllocator>::CTempBuffer<char,128,ATL::CCRTAllocator>
	mov	DWORD PTR __$EHRec$[ebp+8], 0

; 163  : 	CW2A pszNameA(pszName);

	mov	eax, DWORD PTR _pszName$[ebp]
	push	eax
	lea	ecx, DWORD PTR _pszNameA$[ebp]
	call	??0?$CW2AEX@$0IA@@ATL@@QAE@PBG@Z	; ATL::CW2AEX<128>::CW2AEX<128>
	mov	BYTE PTR __$EHRec$[ebp+8], 1

; 164  : 
; 165  : 	nSizeA = ::GetEnvironmentVariableA(pszNameA, NULL, 0);

	mov	esi, esp
	push	0
	push	0
	lea	ecx, DWORD PTR _pszNameA$[ebp]
	call	??B?$CW2AEX@$0IA@@ATL@@QBEPADXZ		; ATL::CW2AEX<128>::operator char *
	push	eax
	call	DWORD PTR __imp__GetEnvironmentVariableA@12
	cmp	esi, esp
	call	__RTC_CheckEsp
	mov	DWORD PTR _nSizeA$[ebp], eax

; 166  : 	if (nSizeA == 0)

	cmp	DWORD PTR _nSizeA$[ebp], 0
	jne	SHORT $L186037

; 167  : 		return 0;

	mov	DWORD PTR $T191995[ebp], 0
	mov	BYTE PTR __$EHRec$[ebp+8], 0
	lea	ecx, DWORD PTR _pszNameA$[ebp]
	call	??1?$CW2AEX@$0IA@@ATL@@QAE@XZ		; ATL::CW2AEX<128>::~CW2AEX<128>
	mov	DWORD PTR __$EHRec$[ebp+8], -1
	lea	ecx, DWORD PTR _pszBufferA$[ebp]
	call	??1?$CTempBuffer@D$0IA@VCCRTAllocator@ATL@@@ATL@@QAE@XZ ; ATL::CTempBuffer<char,128,ATL::CCRTAllocator>::~CTempBuffer<char,128,ATL::CCRTAllocator>
	mov	eax, DWORD PTR $T191995[ebp]
	jmp	$L186009
$L186037:

; 168  : 
; 169  : 	pszBufferA.Allocate(nSizeA*2);

	mov	ecx, DWORD PTR _nSizeA$[ebp]
	shl	ecx, 1
	push	ecx
	lea	ecx, DWORD PTR _pszBufferA$[ebp]
	call	?Allocate@?$CTempBuffer@D$0IA@VCCRTAllocator@ATL@@@ATL@@QAEPADI@Z ; ATL::CTempBuffer<char,128,ATL::CCRTAllocator>::Allocate

; 170  : 	::GetEnvironmentVariableA(pszNameA, pszBufferA, nSizeA);

	mov	esi, esp
	mov	edx, DWORD PTR _nSizeA$[ebp]
	push	edx
	lea	ecx, DWORD PTR _pszBufferA$[ebp]
	call	??B?$CTempBuffer@D$0IA@VCCRTAllocator@ATL@@@ATL@@QBEPADXZ ; ATL::CTempBuffer<char,128,ATL::CCRTAllocator>::operator char *
	push	eax
	lea	ecx, DWORD PTR _pszNameA$[ebp]
	call	??B?$CW2AEX@$0IA@@ATL@@QBEPADXZ		; ATL::CW2AEX<128>::operator char *
	push	eax
	call	DWORD PTR __imp__GetEnvironmentVariableA@12
	cmp	esi, esp
	call	__RTC_CheckEsp

; 171  : 
; 172  : 	nSizeW = ::MultiByteToWideChar(_AtlGetConversionACP(), 0, pszBufferA, -1, NULL, 0);

	mov	esi, esp
	push	0
	push	0
	push	-1
	lea	ecx, DWORD PTR _pszBufferA$[ebp]
	call	??B?$CTempBuffer@D$0IA@VCCRTAllocator@ATL@@@ATL@@QBEPADXZ ; ATL::CTempBuffer<char,128,ATL::CCRTAllocator>::operator char *
	push	eax
	push	0
	call	?_AtlGetConversionACP@ATL@@YGIXZ	; ATL::_AtlGetConversionACP
	push	eax
	call	DWORD PTR __imp__MultiByteToWideChar@24
	cmp	esi, esp
	call	__RTC_CheckEsp
	mov	DWORD PTR _nSizeW$[ebp], eax

; 173  : 	if (nSize == 0)

	cmp	DWORD PTR _nSize$[ebp], 0
	jne	SHORT $L186039

; 174  : 		return nSizeW;

	mov	eax, DWORD PTR _nSizeW$[ebp]
	mov	DWORD PTR $T191996[ebp], eax
	mov	BYTE PTR __$EHRec$[ebp+8], 0
	lea	ecx, DWORD PTR _pszNameA$[ebp]
	call	??1?$CW2AEX@$0IA@@ATL@@QAE@XZ		; ATL::CW2AEX<128>::~CW2AEX<128>
	mov	DWORD PTR __$EHRec$[ebp+8], -1
	lea	ecx, DWORD PTR _pszBufferA$[ebp]
	call	??1?$CTempBuffer@D$0IA@VCCRTAllocator@ATL@@@ATL@@QAE@XZ ; ATL::CTempBuffer<char,128,ATL::CCRTAllocator>::~CTempBuffer<char,128,ATL::CCRTAllocator>
	mov	eax, DWORD PTR $T191996[ebp]
	jmp	$L186009
$L186039:

; 175  : 	ATLASSERT(nSize >= nSizeW);

	mov	ecx, DWORD PTR _nSize$[ebp]
	cmp	ecx, DWORD PTR _nSizeW$[ebp]
	jae	SHORT $L191997
	push	OFFSET FLAT:??_C@_0BA@CLMJJCOM@nSize?5?$DO?$DN?5nSizeW?$AA@
	push	0
	push	175					; 000000afH
	push	OFFSET FLAT:??_C@_0FB@DNILBHEN@C?3?2Program?5Files?2Microsoft?5Visua@
	push	2
	call	__CrtDbgReport
	add	esp, 20					; 00000014H
	cmp	eax, 1
	jne	SHORT $L191997
	int	3
$L191997:

; 176  : 	::MultiByteToWideChar(_AtlGetConversionACP(), 0, pszBufferA, -1, pszBuffer, nSizeW);

	mov	esi, esp
	mov	eax, DWORD PTR _nSizeW$[ebp]
	push	eax
	mov	ecx, DWORD PTR _pszBuffer$[ebp]
	push	ecx
	push	-1
	lea	ecx, DWORD PTR _pszBufferA$[ebp]
	call	??B?$CTempBuffer@D$0IA@VCCRTAllocator@ATL@@@ATL@@QBEPADXZ ; ATL::CTempBuffer<char,128,ATL::CCRTAllocator>::operator char *
	push	eax
	push	0
	call	?_AtlGetConversionACP@ATL@@YGIXZ	; ATL::_AtlGetConversionACP
	push	eax
	call	DWORD PTR __imp__MultiByteToWideChar@24
	cmp	esi, esp
	call	__RTC_CheckEsp

; 177  : 
; 178  : 	return nSizeW;

	mov	edx, DWORD PTR _nSizeW$[ebp]
	mov	DWORD PTR $T191998[ebp], edx
	mov	BYTE PTR __$EHRec$[ebp+8], 0
	lea	ecx, DWORD PTR _pszNameA$[ebp]
	call	??1?$CW2AEX@$0IA@@ATL@@QAE@XZ		; ATL::CW2AEX<128>::~CW2AEX<128>
	mov	DWORD PTR __$EHRec$[ebp+8], -1
	lea	ecx, DWORD PTR _pszBufferA$[ebp]
	call	??1?$CTempBuffer@D$0IA@VCCRTAllocator@ATL@@@ATL@@QAE@XZ ; ATL::CTempBuffer<char,128,ATL::CCRTAllocator>::~CTempBuffer<char,128,ATL::CCRTAllocator>
	mov	eax, DWORD PTR $T191998[ebp]
$L186009:

; 179  : }

	push	edx
	mov	ecx, ebp
	push	eax
	lea	edx, DWORD PTR $L192011
	call	@_RTC_CheckStackVars@8
	pop	eax
	pop	edx
	mov	ecx, DWORD PTR __$EHRec$[ebp]
	mov	DWORD PTR fs:__except_list, ecx
	mov	ecx, DWORD PTR __$ArrayPad$[ebp]
	call	@__security_check_cookie@4
	pop	edi
	pop	esi
	add	esp, 316				; 0000013cH
	cmp	ebp, esp
	call	__RTC_CheckEsp
	mov	esp, ebp
	pop	ebp
	ret	12					; 0000000cH
$L192011:
	DD	2
	DD	$L192010
$L192010:
	DD	-160					; ffffff60H
	DD	132					; 00000084H
	DD	$L192005
	DD	-300					; fffffed4H
	DD	132					; 00000084H
	DD	$L192006
$L192006:
	DB	112					; 00000070H
	DB	115					; 00000073H
	DB	122					; 0000007aH
	DB	78					; 0000004eH
	DB	97					; 00000061H
	DB	109					; 0000006dH
	DB	101					; 00000065H
	DB	65					; 00000041H
	DB	0
$L192005:
	DB	112					; 00000070H
	DB	115					; 00000073H
	DB	122					; 0000007aH
	DB	66					; 00000042H
	DB	117					; 00000075H
	DB	102					; 00000066H
	DB	102					; 00000066H
	DB	101					; 00000065H
	DB	114					; 00000072H
	DB	65					; 00000041H
	DB	0
_TEXT	ENDS
;	COMDAT text$x
text$x	SEGMENT
$L191999:
	lea	ecx, DWORD PTR _pszBufferA$[ebp]
	jmp	??1?$CTempBuffer@D$0IA@VCCRTAllocator@ATL@@@ATL@@QAE@XZ ; ATL::CTempBuffer<char,128,ATL::CCRTAllocator>::~CTempBuffer<char,128,ATL::CCRTAllocator>
$L192000:
	lea	ecx, DWORD PTR _pszNameA$[ebp]
	jmp	??1?$CW2AEX@$0IA@@ATL@@QAE@XZ		; ATL::CW2AEX<128>::~CW2AEX<128>
__ehhandler$?GetEnvironmentVariableWFake@ATL@@YGKPBGPAGK@Z:
	mov	eax, OFFSET FLAT:$T192004
	jmp	___CxxFrameHandler
text$x	ENDS
?GetEnvironmentVariableWFake@ATL@@YGKPBGPAGK@Z ENDP	; ATL::GetEnvironmentVariableWFake
; Function compile flags: /Odt /RTCsu
; File c:\program files\microsoft visual studio .net 2003\vc7\atlmfc\include\atlconv.h
;	COMDAT ?_AtlGetConversionACP@ATL@@YGIXZ
_TEXT	SEGMENT
?_AtlGetConversionACP@ATL@@YGIXZ PROC NEAR		; ATL::_AtlGetConversionACP, COMDAT

; 157  : {

	push	ebp
	mov	ebp, esp
	push	esi

; 158  : 	return( g_pfnGetThreadACP() );

	mov	esi, esp
	call	DWORD PTR ?g_pfnGetThreadACP@ATL@@3P6GIXZA ; ATL::g_pfnGetThreadACP
	cmp	esi, esp
	call	__RTC_CheckEsp

; 159  : }

	pop	esi
	cmp	ebp, esp
	call	__RTC_CheckEsp
	pop	ebp
	ret	0
?_AtlGetConversionACP@ATL@@YGIXZ ENDP			; ATL::_AtlGetConversionACP
_TEXT	ENDS
PUBLIC	?CompareStringWFake@ATL@@YGHKKPBGH0H@Z		; ATL::CompareStringWFake
EXTRN	__imp__CompareStringW@24:NEAR
; Function compile flags: /Odt /RTCsu
; File c:\program files\microsoft visual studio .net 2003\vc7\atlmfc\include\cstringt.h
;	COMDAT ?CompareStringWThunk@ATL@@YGHKKPBGH0H@Z
_TEXT	SEGMENT
_lcid$ = 8						; size = 4
_dwFlags$ = 12						; size = 4
_pszString1$ = 16					; size = 4
_nLength1$ = 20						; size = 4
_pszString2$ = 24					; size = 4
_nLength2$ = 28						; size = 4
?CompareStringWThunk@ATL@@YGHKKPBGH0H@Z PROC NEAR	; ATL::CompareStringWThunk, COMDAT

; 216  : {

	push	ebp
	mov	ebp, esp
	push	esi

; 217  : 	_AtlInstallStringThunk(reinterpret_cast<void**>(&_strthunks.pfnCompareStringW), CompareStringWFake, ::CompareStringW);

	mov	eax, DWORD PTR __imp__CompareStringW@24
	push	eax
	push	OFFSET FLAT:?CompareStringWFake@ATL@@YGHKKPBGH0H@Z ; ATL::CompareStringWFake
	push	OFFSET FLAT:?_strthunks@ATL@@3U_AtlStringThunks@1@A ; ATL::_strthunks
	call	?_AtlInstallStringThunk@ATL@@YAXPAPAXPAX1@Z ; ATL::_AtlInstallStringThunk
	add	esp, 12					; 0000000cH

; 218  : 
; 219  : 	return _strthunks.pfnCompareStringW(lcid, dwFlags, pszString1, nLength1, pszString2, nLength2);

	mov	esi, esp
	mov	ecx, DWORD PTR _nLength2$[ebp]
	push	ecx
	mov	edx, DWORD PTR _pszString2$[ebp]
	push	edx
	mov	eax, DWORD PTR _nLength1$[ebp]
	push	eax
	mov	ecx, DWORD PTR _pszString1$[ebp]
	push	ecx
	mov	edx, DWORD PTR _dwFlags$[ebp]
	push	edx
	mov	eax, DWORD PTR _lcid$[ebp]
	push	eax
	call	DWORD PTR ?_strthunks@ATL@@3U_AtlStringThunks@1@A
	cmp	esi, esp
	call	__RTC_CheckEsp

; 220  : }

	pop	esi
	cmp	ebp, esp
	call	__RTC_CheckEsp
	pop	ebp
	ret	24					; 00000018H
?CompareStringWThunk@ATL@@YGHKKPBGH0H@Z ENDP		; ATL::CompareStringWThunk
_TEXT	ENDS
PUBLIC	?AtlW2AHelper@@YGPADPADPBGHI@Z			; AtlW2AHelper
PUBLIC	?AtlThrow@ATL@@YGXJ@Z				; ATL::AtlThrow
PUBLIC	??0?$CAtlSafeAllocBufferManager@VCCRTAllocator@ATL@@@_ATL_SAFE_ALLOCA_IMPL@ATL@@QAE@XZ ; ATL::_ATL_SAFE_ALLOCA_IMPL::CAtlSafeAllocBufferManager<ATL::CCRTAllocator>::CAtlSafeAllocBufferManager<ATL::CCRTAllocator>
PUBLIC	?Allocate@?$CAtlSafeAllocBufferManager@VCCRTAllocator@ATL@@@_ATL_SAFE_ALLOCA_IMPL@ATL@@QAEPAXK@Z ; ATL::_ATL_SAFE_ALLOCA_IMPL::CAtlSafeAllocBufferManager<ATL::CCRTAllocator>::Allocate
PUBLIC	??1?$CAtlSafeAllocBufferManager@VCCRTAllocator@ATL@@@_ATL_SAFE_ALLOCA_IMPL@ATL@@QAE@XZ ; ATL::_ATL_SAFE_ALLOCA_IMPL::CAtlSafeAllocBufferManager<ATL::CCRTAllocator>::~CAtlSafeAllocBufferManager<ATL::CCRTAllocator>
PUBLIC	?_AtlVerifyStackAvailable@_ATL_SAFE_ALLOCA_IMPL@ATL@@YA_NK@Z ; ATL::_ATL_SAFE_ALLOCA_IMPL::_AtlVerifyStackAvailable
EXTRN	__imp__lstrlenW@4:NEAR
EXTRN	__imp__CompareStringA@24:NEAR
EXTRN	__alloca_probe:NEAR
;	COMDAT xdata$x
xdata$x	SEGMENT
$T192039 DD	0ffffffffH
	DD	FLAT:$L192031
$T192033 DD	019930520H
	DD	01H
	DD	FLAT:$T192039
	DD	2 DUP(00H)
	DD	2 DUP(00H)
; Function compile flags: /Odt /RTCsu
xdata$x	ENDS
;	COMDAT ?CompareStringWFake@ATL@@YGHKKPBGH0H@Z
_TEXT	SEGMENT
tv147 = -76						; size = 4
tv142 = -72						; size = 4
tv149 = -68						; size = 4
tv89 = -64						; size = 4
tv84 = -60						; size = 4
tv91 = -56						; size = 4
$T192030 = -52						; size = 4
_pszAString2$ = -48					; size = 4
_pszAString1$ = -44					; size = 4
__AtlSafeAllocaManager$ = -36				; size = 4
__lpa_ex$ = -28						; size = 4
__lpw_ex$ = -24						; size = 4
__acp_ex$ = -20						; size = 4
__convert_ex$ = -16					; size = 4
__$EHRec$ = -12						; size = 12
_lcid$ = 8						; size = 4
_dwFlags$ = 12						; size = 4
_pszString1$ = 16					; size = 4
_nLength1$ = 20						; size = 4
_pszString2$ = 24					; size = 4
_nLength2$ = 28						; size = 4
?CompareStringWFake@ATL@@YGHKKPBGH0H@Z PROC NEAR	; ATL::CompareStringWFake, COMDAT

; 192  : {

	push	ebp
	mov	ebp, esp
	push	-1
	push	__ehhandler$?CompareStringWFake@ATL@@YGHKKPBGH0H@Z
	mov	eax, DWORD PTR fs:__except_list
	push	eax
	mov	DWORD PTR fs:__except_list, esp
	sub	esp, 64					; 00000040H
	push	esi
	push	edi
	lea	edi, DWORD PTR [ebp-76]
	mov	ecx, 16					; 00000010H
	mov	eax, -858993460				; ccccccccH
	rep stosd

; 193  : 	USES_CONVERSION_EX;

	mov	DWORD PTR __convert_ex$[ebp], 0
	call	?_AtlGetConversionACP@ATL@@YGIXZ	; ATL::_AtlGetConversionACP
	mov	DWORD PTR __acp_ex$[ebp], eax
	mov	DWORD PTR __lpw_ex$[ebp], 0
	mov	DWORD PTR __lpa_ex$[ebp], 0
	lea	ecx, DWORD PTR __AtlSafeAllocaManager$[ebp]
	call	??0?$CAtlSafeAllocBufferManager@VCCRTAllocator@ATL@@@_ATL_SAFE_ALLOCA_IMPL@ATL@@QAE@XZ ; ATL::_ATL_SAFE_ALLOCA_IMPL::CAtlSafeAllocBufferManager<ATL::CCRTAllocator>::CAtlSafeAllocBufferManager<ATL::CCRTAllocator>
	mov	DWORD PTR __$EHRec$[ebp+8], 0

; 194  : 	
; 195  : 	LPCSTR pszAString1 = NULL;

	mov	DWORD PTR _pszAString1$[ebp], 0

; 196  : 	if(pszString1 != NULL)

	cmp	DWORD PTR _pszString1$[ebp], 0
	je	$L186064

; 197  : 	{
; 198  : 		pszAString1 = W2A_EX(pszString1,_ATL_SAFE_ALLOCA_DEF_THRESHOLD);

	mov	eax, DWORD PTR _pszString1$[ebp]
	mov	DWORD PTR __lpw_ex$[ebp], eax
	cmp	DWORD PTR __lpw_ex$[ebp], 0
	jne	SHORT $L192024
	mov	DWORD PTR tv91[ebp], 0
	jmp	SHORT $L192025
$L192024:
	mov	esi, esp
	mov	ecx, DWORD PTR __lpw_ex$[ebp]
	push	ecx
	call	DWORD PTR __imp__lstrlenW@4
	cmp	esi, esp
	call	__RTC_CheckEsp
	lea	edx, DWORD PTR [eax+eax+2]
	mov	DWORD PTR __convert_ex$[ebp], edx
	cmp	DWORD PTR __convert_ex$[ebp], 1024	; 00000400H
	jg	SHORT $L192022
	mov	eax, DWORD PTR __convert_ex$[ebp]
	push	eax
	call	?_AtlVerifyStackAvailable@_ATL_SAFE_ALLOCA_IMPL@ATL@@YA_NK@Z ; ATL::_ATL_SAFE_ALLOCA_IMPL::_AtlVerifyStackAvailable
	add	esp, 4
	movzx	ecx, al
	test	ecx, ecx
	je	SHORT $L192022
	mov	eax, DWORD PTR __convert_ex$[ebp]
	add	eax, 3
	and	eax, -4					; fffffffcH
	call	__alloca_probe
	mov	DWORD PTR tv84[ebp], esp
	mov	edx, DWORD PTR tv84[ebp]
	mov	DWORD PTR tv89[ebp], edx
	jmp	SHORT $L192023
$L192022:
	mov	eax, DWORD PTR __convert_ex$[ebp]
	push	eax
	lea	ecx, DWORD PTR __AtlSafeAllocaManager$[ebp]
	call	?Allocate@?$CAtlSafeAllocBufferManager@VCCRTAllocator@ATL@@@_ATL_SAFE_ALLOCA_IMPL@ATL@@QAEPAXK@Z ; ATL::_ATL_SAFE_ALLOCA_IMPL::CAtlSafeAllocBufferManager<ATL::CCRTAllocator>::Allocate
	mov	DWORD PTR tv89[ebp], eax
$L192023:
	mov	ecx, DWORD PTR __acp_ex$[ebp]
	push	ecx
	mov	edx, DWORD PTR __convert_ex$[ebp]
	push	edx
	mov	eax, DWORD PTR __lpw_ex$[ebp]
	push	eax
	mov	ecx, DWORD PTR tv89[ebp]
	push	ecx
	call	?AtlW2AHelper@@YGPADPADPBGHI@Z		; AtlW2AHelper
	mov	DWORD PTR tv91[ebp], eax
$L192025:
	mov	edx, DWORD PTR tv91[ebp]
	mov	DWORD PTR _pszAString1$[ebp], edx

; 199  : 		if(pszAString1 == NULL)

	cmp	DWORD PTR _pszAString1$[ebp], 0
	jne	SHORT $L186064

; 200  : 			AtlThrow(E_OUTOFMEMORY);

	push	-2147024882				; 8007000eH
	call	?AtlThrow@ATL@@YGXJ@Z			; ATL::AtlThrow
$L186064:

; 201  : 	}
; 202  : 
; 203  : 	LPCSTR pszAString2 = NULL;

	mov	DWORD PTR _pszAString2$[ebp], 0

; 204  : 	if(pszString2 != NULL)

	cmp	DWORD PTR _pszString2$[ebp], 0
	je	$L186070

; 205  : 	{
; 206  : 		pszAString2 = W2A_EX(pszString2,_ATL_SAFE_ALLOCA_DEF_THRESHOLD);

	mov	eax, DWORD PTR _pszString2$[ebp]
	mov	DWORD PTR __lpw_ex$[ebp], eax
	cmp	DWORD PTR __lpw_ex$[ebp], 0
	jne	SHORT $L192028
	mov	DWORD PTR tv149[ebp], 0
	jmp	SHORT $L192029
$L192028:
	mov	esi, esp
	mov	ecx, DWORD PTR __lpw_ex$[ebp]
	push	ecx
	call	DWORD PTR __imp__lstrlenW@4
	cmp	esi, esp
	call	__RTC_CheckEsp
	lea	edx, DWORD PTR [eax+eax+2]
	mov	DWORD PTR __convert_ex$[ebp], edx
	cmp	DWORD PTR __convert_ex$[ebp], 1024	; 00000400H
	jg	SHORT $L192026
	mov	eax, DWORD PTR __convert_ex$[ebp]
	push	eax
	call	?_AtlVerifyStackAvailable@_ATL_SAFE_ALLOCA_IMPL@ATL@@YA_NK@Z ; ATL::_ATL_SAFE_ALLOCA_IMPL::_AtlVerifyStackAvailable
	add	esp, 4
	movzx	ecx, al
	test	ecx, ecx
	je	SHORT $L192026
	mov	eax, DWORD PTR __convert_ex$[ebp]
	add	eax, 3
	and	eax, -4					; fffffffcH
	call	__alloca_probe
	mov	DWORD PTR tv142[ebp], esp
	mov	edx, DWORD PTR tv142[ebp]
	mov	DWORD PTR tv147[ebp], edx
	jmp	SHORT $L192027
$L192026:
	mov	eax, DWORD PTR __convert_ex$[ebp]
	push	eax
	lea	ecx, DWORD PTR __AtlSafeAllocaManager$[ebp]
	call	?Allocate@?$CAtlSafeAllocBufferManager@VCCRTAllocator@ATL@@@_ATL_SAFE_ALLOCA_IMPL@ATL@@QAEPAXK@Z ; ATL::_ATL_SAFE_ALLOCA_IMPL::CAtlSafeAllocBufferManager<ATL::CCRTAllocator>::Allocate
	mov	DWORD PTR tv147[ebp], eax
$L192027:
	mov	ecx, DWORD PTR __acp_ex$[ebp]
	push	ecx
	mov	edx, DWORD PTR __convert_ex$[ebp]
	push	edx
	mov	eax, DWORD PTR __lpw_ex$[ebp]
	push	eax
	mov	ecx, DWORD PTR tv147[ebp]
	push	ecx
	call	?AtlW2AHelper@@YGPADPADPBGHI@Z		; AtlW2AHelper
	mov	DWORD PTR tv149[ebp], eax
$L192029:
	mov	edx, DWORD PTR tv149[ebp]
	mov	DWORD PTR _pszAString2$[ebp], edx

; 207  : 		if(pszAString2 == NULL)

	cmp	DWORD PTR _pszAString2$[ebp], 0
	jne	SHORT $L186070

; 208  : 			AtlThrow(E_OUTOFMEMORY);

	push	-2147024882				; 8007000eH
	call	?AtlThrow@ATL@@YGXJ@Z			; ATL::AtlThrow
$L186070:

; 209  : 	}
; 210  : 
; 211  : 	return ::CompareStringA(lcid, dwFlags, pszAString1, nLength1, pszAString2, nLength2);

	mov	esi, esp
	mov	eax, DWORD PTR _nLength2$[ebp]
	push	eax
	mov	ecx, DWORD PTR _pszAString2$[ebp]
	push	ecx
	mov	edx, DWORD PTR _nLength1$[ebp]
	push	edx
	mov	eax, DWORD PTR _pszAString1$[ebp]
	push	eax
	mov	ecx, DWORD PTR _dwFlags$[ebp]
	push	ecx
	mov	edx, DWORD PTR _lcid$[ebp]
	push	edx
	call	DWORD PTR __imp__CompareStringA@24
	cmp	esi, esp
	call	__RTC_CheckEsp
	mov	DWORD PTR $T192030[ebp], eax
	mov	DWORD PTR __$EHRec$[ebp+8], -1
	lea	ecx, DWORD PTR __AtlSafeAllocaManager$[ebp]
	call	??1?$CAtlSafeAllocBufferManager@VCCRTAllocator@ATL@@@_ATL_SAFE_ALLOCA_IMPL@ATL@@QAE@XZ ; ATL::_ATL_SAFE_ALLOCA_IMPL::CAtlSafeAllocBufferManager<ATL::CCRTAllocator>::~CAtlSafeAllocBufferManager<ATL::CCRTAllocator>
	mov	eax, DWORD PTR $T192030[ebp]
$L192021:

; 212  : }

	lea	esp, DWORD PTR [ebp-84]
	push	edx
	mov	ecx, ebp
	push	eax
	lea	edx, DWORD PTR $L192038
	call	@_RTC_CheckStackVars@8
	pop	eax
	pop	edx
	mov	ecx, DWORD PTR __$EHRec$[ebp]
	mov	DWORD PTR fs:__except_list, ecx
	pop	edi
	pop	esi
	mov	esp, ebp
	pop	ebp
	ret	24					; 00000018H
$L192038:
	DD	1
	DD	$L192037
$L192037:
	DD	-36					; ffffffdcH
	DD	4
	DD	$L192035
$L192035:
	DB	95					; 0000005fH
	DB	65					; 00000041H
	DB	116					; 00000074H
	DB	108					; 0000006cH
	DB	83					; 00000053H
	DB	97					; 00000061H
	DB	102					; 00000066H
	DB	101					; 00000065H
	DB	65					; 00000041H
	DB	108					; 0000006cH
	DB	108					; 0000006cH
	DB	111					; 0000006fH
	DB	99					; 00000063H
	DB	97					; 00000061H
	DB	77					; 0000004dH
	DB	97					; 00000061H
	DB	110					; 0000006eH
	DB	97					; 00000061H
	DB	103					; 00000067H
	DB	101					; 00000065H
	DB	114					; 00000072H
	DB	0
_TEXT	ENDS
;	COMDAT text$x
text$x	SEGMENT
$L192031:
	lea	ecx, DWORD PTR __AtlSafeAllocaManager$[ebp]
	jmp	??1?$CAtlSafeAllocBufferManager@VCCRTAllocator@ATL@@@_ATL_SAFE_ALLOCA_IMPL@ATL@@QAE@XZ ; ATL::_ATL_SAFE_ALLOCA_IMPL::CAtlSafeAllocBufferManager<ATL::CCRTAllocator>::~CAtlSafeAllocBufferManager<ATL::CCRTAllocator>
__ehhandler$?CompareStringWFake@ATL@@YGHKKPBGH0H@Z:
	mov	eax, OFFSET FLAT:$T192033
	jmp	___CxxFrameHandler
text$x	ENDS
?CompareStringWFake@ATL@@YGHKKPBGH0H@Z ENDP		; ATL::CompareStringWFake
EXTRN	__resetstkoflw:NEAR
EXTRN	__except_handler3:NEAR
;	COMDAT CONST
; File c:\program files\microsoft visual studio .net 2003\vc7\atlmfc\include\atlalloc.h
CONST	SEGMENT
$T192050 DD	0ffffffffH
	DD	FLAT:$L192045
	DD	FLAT:$L192046
; Function compile flags: /Odt /RTCsu
CONST	ENDS
;	COMDAT ?_AtlVerifyStackAvailable@_ATL_SAFE_ALLOCA_IMPL@ATL@@YA_NK@Z
_TEXT	SEGMENT
tv65 = -48						; size = 4
$T192049 = -44						; size = 4
_p$75737 = -36						; size = 4
_bStackAvailable$ = -25					; size = 1
__$SEHRec$ = -24					; size = 24
_Size$ = 8						; size = 4
?_AtlVerifyStackAvailable@_ATL_SAFE_ALLOCA_IMPL@ATL@@YA_NK@Z PROC NEAR ; ATL::_ATL_SAFE_ALLOCA_IMPL::_AtlVerifyStackAvailable, COMDAT

; 331  : {

	push	ebp
	mov	ebp, esp
	push	-1
	push	OFFSET FLAT:$T192050
	push	OFFSET FLAT:__except_handler3
	mov	eax, DWORD PTR fs:__except_list
	push	eax
	mov	DWORD PTR fs:__except_list, esp
	add	esp, -32				; ffffffe0H
	push	ebx
	push	esi
	push	edi
	mov	eax, -858993460				; ccccccccH
	mov	DWORD PTR [ebp-48], eax
	mov	DWORD PTR [ebp-44], eax
	mov	DWORD PTR [ebp-40], eax
	mov	DWORD PTR [ebp-36], eax
	mov	DWORD PTR [ebp-32], eax
	mov	DWORD PTR [ebp-28], eax
	mov	DWORD PTR __$SEHRec$[ebp], esp

; 332  :     bool bStackAvailable = true;

	mov	BYTE PTR _bStackAvailable$[ebp], 1

; 333  : 
; 334  :     __try

	mov	DWORD PTR __$SEHRec$[ebp+20], 0

; 335  :     {
; 336  :         PVOID p = _alloca(Size + _ATL_STACK_MARGIN);

	mov	eax, DWORD PTR _Size$[ebp]
	add	eax, 8195				; 00002003H
	and	eax, -4					; fffffffcH
	call	__alloca_probe
	mov	DWORD PTR tv65[ebp], esp
	mov	DWORD PTR __$SEHRec$[ebp], esp
	mov	eax, DWORD PTR tv65[ebp]
	mov	DWORD PTR _p$75737[ebp], eax
	mov	DWORD PTR __$SEHRec$[ebp+20], -1
	jmp	SHORT $L192048
$L192045:
$L192057:

; 337  :         (p);
; 338  :     }
; 339  :     __except ((EXCEPTION_STACK_OVERFLOW == GetExceptionCode()) ?
; 340  :                    EXCEPTION_EXECUTE_HANDLER :
; 341  :                    EXCEPTION_CONTINUE_SEARCH)

	mov	ecx, DWORD PTR __$SEHRec$[ebp+4]
	mov	edx, DWORD PTR [ecx]
	mov	eax, DWORD PTR [edx]
	mov	DWORD PTR $T192049[ebp], eax
	mov	eax, DWORD PTR $T192049[ebp]
	sub	eax, -1073741571			; c00000fdH
	neg	eax
	sbb	eax, eax
	inc	eax
$L192047:
$L192056:
	ret	0
$L192046:
	mov	esp, DWORD PTR __$SEHRec$[ebp]

; 342  :     {
; 343  :         bStackAvailable = false;

	mov	BYTE PTR _bStackAvailable$[ebp], 0

; 344  :         _resetstkoflw();

	call	__resetstkoflw
	mov	DWORD PTR __$SEHRec$[ebp+20], -1
$L192048:

; 345  :     }
; 346  :     return bStackAvailable;

	mov	al, BYTE PTR _bStackAvailable$[ebp]
$L192044:

; 347  : }

	lea	esp, DWORD PTR [ebp-60]
	push	edx
	mov	ecx, ebp
	push	eax
	lea	edx, DWORD PTR $L192055
	call	@_RTC_CheckStackVars@8
	pop	eax
	pop	edx
	mov	ecx, DWORD PTR __$SEHRec$[ebp+8]
	mov	DWORD PTR fs:__except_list, ecx
	pop	edi
	pop	esi
	pop	ebx
	mov	esp, ebp
	pop	ebp
	ret	0
$L192055:
	DD	1
	DD	$L192054
$L192054:
	DD	-36					; ffffffdcH
	DD	4
	DD	$L192052
$L192052:
	DB	112					; 00000070H
	DB	0
?_AtlVerifyStackAvailable@_ATL_SAFE_ALLOCA_IMPL@ATL@@YA_NK@Z ENDP ; ATL::_ATL_SAFE_ALLOCA_IMPL::_AtlVerifyStackAvailable
_TEXT	ENDS
PUBLIC	??_C@_08DMHHBMMN@lpa?5?$CB?$DN?50?$AA@		; `string'
PUBLIC	??_C@_0FA@OHHMODBN@C?3?2Program?5Files?2Microsoft?5Visua@ ; `string'
PUBLIC	??_C@_08DIHJLFDJ@lpw?5?$CB?$DN?50?$AA@		; `string'
PUBLIC	??_C@_01GBGANLPD@0?$AA@				; `string'
EXTRN	__imp__WideCharToMultiByte@32:NEAR
;	COMDAT ??_C@_08DIHJLFDJ@lpw?5?$CB?$DN?50?$AA@
; File c:\program files\microsoft visual studio .net 2003\vc7\atlmfc\include\atlconv.h
CONST	SEGMENT
??_C@_08DIHJLFDJ@lpw?5?$CB?$DN?50?$AA@ DB 'lpw != 0', 00H ; `string'
CONST	ENDS
;	COMDAT ??_C@_0FA@OHHMODBN@C?3?2Program?5Files?2Microsoft?5Visua@
CONST	SEGMENT
??_C@_0FA@OHHMODBN@C?3?2Program?5Files?2Microsoft?5Visua@ DB 'C:\Program '
	DB	'Files\Microsoft Visual Studio .NET 2003\Vc7\atlmfc\include\at'
	DB	'lconv.h', 00H				; `string'
CONST	ENDS
;	COMDAT ??_C@_08DMHHBMMN@lpa?5?$CB?$DN?50?$AA@
CONST	SEGMENT
??_C@_08DMHHBMMN@lpa?5?$CB?$DN?50?$AA@ DB 'lpa != 0', 00H ; `string'
CONST	ENDS
;	COMDAT ??_C@_01GBGANLPD@0?$AA@
CONST	SEGMENT
??_C@_01GBGANLPD@0?$AA@ DB '0', 00H			; `string'
; Function compile flags: /Odt /RTCsu
CONST	ENDS
;	COMDAT ?AtlW2AHelper@@YGPADPADPBGHI@Z
_TEXT	SEGMENT
_ret$ = -4						; size = 4
_lpa$ = 8						; size = 4
_lpw$ = 12						; size = 4
_nChars$ = 16						; size = 4
_acp$ = 20						; size = 4
?AtlW2AHelper@@YGPADPADPBGHI@Z PROC NEAR		; AtlW2AHelper, COMDAT

; 573  : {

	push	ebp
	mov	ebp, esp
	push	ecx
	push	esi
	mov	DWORD PTR [ebp-4], -858993460		; ccccccccH

; 574  : 	ATLASSERT(lpw != NULL);

	cmp	DWORD PTR _lpw$[ebp], 0
	jne	SHORT $L192062
	push	OFFSET FLAT:??_C@_08DIHJLFDJ@lpw?5?$CB?$DN?50?$AA@
	push	0
	push	574					; 0000023eH
	push	OFFSET FLAT:??_C@_0FA@OHHMODBN@C?3?2Program?5Files?2Microsoft?5Visua@
	push	2
	call	__CrtDbgReport
	add	esp, 20					; 00000014H
	cmp	eax, 1
	jne	SHORT $L192062
	int	3
$L192062:

; 575  : 	ATLASSERT(lpa != NULL);

	cmp	DWORD PTR _lpa$[ebp], 0
	jne	SHORT $L192063
	push	OFFSET FLAT:??_C@_08DMHHBMMN@lpa?5?$CB?$DN?50?$AA@
	push	0
	push	575					; 0000023fH
	push	OFFSET FLAT:??_C@_0FA@OHHMODBN@C?3?2Program?5Files?2Microsoft?5Visua@
	push	2
	call	__CrtDbgReport
	add	esp, 20					; 00000014H
	cmp	eax, 1
	jne	SHORT $L192063
	int	3
$L192063:

; 576  : 	if (lpa == NULL || lpw == NULL)

	cmp	DWORD PTR _lpa$[ebp], 0
	je	SHORT $L75958
	cmp	DWORD PTR _lpw$[ebp], 0
	jne	SHORT $L75957
$L75958:

; 577  : 		return NULL;

	xor	eax, eax
	jmp	SHORT $L75954
$L75957:

; 578  : 	// verify that no illegal character present
; 579  : 	// since lpa was allocated based on the size of lpw
; 580  : 	// don't worry about the number of chars
; 581  : 	lpa[0] = '\0';

	mov	edx, DWORD PTR _lpa$[ebp]
	mov	BYTE PTR [edx], 0

; 582  : 	int ret = WideCharToMultiByte(acp, 0, lpw, -1, lpa, nChars, NULL, NULL);

	mov	esi, esp
	push	0
	push	0
	mov	eax, DWORD PTR _nChars$[ebp]
	push	eax
	mov	ecx, DWORD PTR _lpa$[ebp]
	push	ecx
	push	-1
	mov	edx, DWORD PTR _lpw$[ebp]
	push	edx
	push	0
	mov	eax, DWORD PTR _acp$[ebp]
	push	eax
	call	DWORD PTR __imp__WideCharToMultiByte@32
	cmp	esi, esp
	call	__RTC_CheckEsp
	mov	DWORD PTR _ret$[ebp], eax

; 583  : 	if(ret == 0)

	cmp	DWORD PTR _ret$[ebp], 0
	jne	SHORT $L75960

; 584  : 	{
; 585  : 		ATLASSERT(FALSE);

	xor	ecx, ecx
	jne	SHORT $L192064
	push	OFFSET FLAT:??_C@_01GBGANLPD@0?$AA@
	push	0
	push	585					; 00000249H
	push	OFFSET FLAT:??_C@_0FA@OHHMODBN@C?3?2Program?5Files?2Microsoft?5Visua@
	push	2
	call	__CrtDbgReport
	add	esp, 20					; 00000014H
	cmp	eax, 1
	jne	SHORT $L192064
	int	3
$L192064:

; 586  : 		return NULL;

	xor	eax, eax
	jmp	SHORT $L75954
$L75960:

; 587  : 	}
; 588  : 	return lpa;

	mov	eax, DWORD PTR _lpa$[ebp]
$L75954:

; 589  : }

	pop	esi
	add	esp, 4
	cmp	ebp, esp
	call	__RTC_CheckEsp
	mov	esp, ebp
	pop	ebp
	ret	16					; 00000010H
?AtlW2AHelper@@YGPADPADPBGHI@Z ENDP			; AtlW2AHelper
_TEXT	ENDS
PUBLIC	??BCTraceCategory@ATL@@QBEKXZ			; ATL::CTraceCategory::operator unsigned long
PUBLIC	??0CTraceFileAndLineInfo@ATL@@QAE@PBDH@Z	; ATL::CTraceFileAndLineInfo::CTraceFileAndLineInfo
PUBLIC	??RCTraceFileAndLineInfo@ATL@@QBAXKIPBDZZ	; ATL::CTraceFileAndLineInfo::operator()
PUBLIC	??0CAtlException@ATL@@QAE@J@Z			; ATL::CAtlException::CAtlException
PUBLIC	??_C@_0FC@CFIFHLCH@C?3?2Program?5Files?2Microsoft?5Visua@ ; `string'
PUBLIC	??_C@_0BF@IAAKIJDJ@AtlThrow?3?5hr?5?$DN?50x?$CFx?6?$AA@ ; `string'
PUBLIC	__TI1?AVCAtlException@ATL@@
PUBLIC	__CTA1?AVCAtlException@ATL@@
PUBLIC	??_R0?AVCAtlException@ATL@@@8			; ATL::CAtlException `RTTI Type Descriptor'
PUBLIC	__CT??_R0?AVCAtlException@ATL@@@84
EXTRN	?atlTraceException@ATL@@3VCTraceCategory@1@A:DWORD ; ATL::atlTraceException
EXTRN	??_7type_info@@6B@:DWORD			; type_info::`vftable'
EXTRN	__CxxThrowException@8:NEAR
;	COMDAT ??_C@_0BF@IAAKIJDJ@AtlThrow?3?5hr?5?$DN?50x?$CFx?6?$AA@
; File c:\program files\microsoft visual studio .net 2003\vc7\atlmfc\include\atlexcept.h
CONST	SEGMENT
??_C@_0BF@IAAKIJDJ@AtlThrow?3?5hr?5?$DN?50x?$CFx?6?$AA@ DB 'AtlThrow: hr '
	DB	'= 0x%x', 0aH, 00H				; `string'
CONST	ENDS
;	COMDAT ??_C@_0FC@CFIFHLCH@C?3?2Program?5Files?2Microsoft?5Visua@
CONST	SEGMENT
??_C@_0FC@CFIFHLCH@C?3?2Program?5Files?2Microsoft?5Visua@ DB 'C:\Program '
	DB	'Files\Microsoft Visual Studio .NET 2003\Vc7\atlmfc\include\at'
	DB	'lexcept.h', 00H				; `string'
CONST	ENDS
;	COMDAT __TI1?AVCAtlException@ATL@@
xdata$x	SEGMENT
__TI1?AVCAtlException@ATL@@ DD 00H
	DD	00H
	DD	00H
	DD	FLAT:__CTA1?AVCAtlException@ATL@@
xdata$x	ENDS
;	COMDAT __CTA1?AVCAtlException@ATL@@
xdata$x	SEGMENT
__CTA1?AVCAtlException@ATL@@ DD 01H
	DD	FLAT:__CT??_R0?AVCAtlException@ATL@@@84
xdata$x	ENDS
;	COMDAT __CT??_R0?AVCAtlException@ATL@@@84
xdata$x	SEGMENT
__CT??_R0?AVCAtlException@ATL@@@84 DD 00H
	DD	FLAT:??_R0?AVCAtlException@ATL@@@8
	DD	00H
	DD	0ffffffffH
	ORG $+4
	DD	04H
	DD	00H
xdata$x	ENDS
;	COMDAT ??_R0?AVCAtlException@ATL@@@8
_DATA	SEGMENT
??_R0?AVCAtlException@ATL@@@8 DD FLAT:??_7type_info@@6B@ ; ATL::CAtlException `RTTI Type Descriptor'
	DD	00H
	DB	'.?AVCAtlException@ATL@@', 00H
; Function compile flags: /Odt /RTCsu
_DATA	ENDS
;	COMDAT ?AtlThrow@ATL@@YGXJ@Z
_TEXT	SEGMENT
$T192069 = -16						; size = 4
$T192068 = -12						; size = 4
$T192067 = -8						; size = 8
_hr$ = 8						; size = 4
?AtlThrow@ATL@@YGXJ@Z PROC NEAR				; ATL::AtlThrow, COMDAT

; 61   : {

	push	ebp
	mov	ebp, esp
	sub	esp, 16					; 00000010H
	mov	eax, -858993460				; ccccccccH
	mov	DWORD PTR [ebp-16], eax
	mov	DWORD PTR [ebp-12], eax
	mov	DWORD PTR [ebp-8], eax
	mov	DWORD PTR [ebp-4], eax

; 62   : 	ATLTRACE(atlTraceException, 0, _T("AtlThrow: hr = 0x%x\n"), hr );

	mov	eax, DWORD PTR _hr$[ebp]
	push	eax
	push	OFFSET FLAT:??_C@_0BF@IAAKIJDJ@AtlThrow?3?5hr?5?$DN?50x?$CFx?6?$AA@
	push	0
	mov	ecx, OFFSET FLAT:?atlTraceException@ATL@@3VCTraceCategory@1@A ; ATL::atlTraceException
	call	??BCTraceCategory@ATL@@QBEKXZ		; ATL::CTraceCategory::operator unsigned long
	push	eax
	push	62					; 0000003eH
	push	OFFSET FLAT:??_C@_0FC@CFIFHLCH@C?3?2Program?5Files?2Microsoft?5Visua@
	lea	ecx, DWORD PTR $T192067[ebp]
	call	??0CTraceFileAndLineInfo@ATL@@QAE@PBDH@Z ; ATL::CTraceFileAndLineInfo::CTraceFileAndLineInfo
	push	eax
	call	??RCTraceFileAndLineInfo@ATL@@QBAXKIPBDZZ ; ATL::CTraceFileAndLineInfo::operator()
	add	esp, 20					; 00000014H

; 63   : #ifdef _AFX
; 64   : 	if( hr == E_OUTOFMEMORY )
; 65   : 	{
; 66   : 		AfxThrowMemoryException();
; 67   : 	}
; 68   : 	else
; 69   : 	{
; 70   : 		AfxThrowOleException( hr );
; 71   : 	}
; 72   : #else
; 73   : 	throw CAtlException( hr );

	mov	ecx, DWORD PTR _hr$[ebp]
	push	ecx
	lea	ecx, DWORD PTR $T192069[ebp]
	call	??0CAtlException@ATL@@QAE@J@Z		; ATL::CAtlException::CAtlException
	mov	edx, DWORD PTR [eax]
	mov	DWORD PTR $T192068[ebp], edx
	push	OFFSET FLAT:__TI1?AVCAtlException@ATL@@
	lea	eax, DWORD PTR $T192068[ebp]
	push	eax
	call	__CxxThrowException@8
$L192066:

; 74   : #endif
; 75   : };

	add	esp, 16					; 00000010H
	cmp	ebp, esp
	call	__RTC_CheckEsp
	mov	esp, ebp
	pop	ebp
	ret	4
?AtlThrow@ATL@@YGXJ@Z ENDP				; ATL::AtlThrow
; Function compile flags: /Odt /RTCsu
; File c:\program files\microsoft visual studio .net 2003\vc7\atlmfc\include\atltrace.h
_TEXT	ENDS
;	COMDAT ??0CTraceFileAndLineInfo@ATL@@QAE@PBDH@Z
_TEXT	SEGMENT
_this$ = -4						; size = 4
_pszFileName$ = 8					; size = 4
_nLineNo$ = 12						; size = 4
??0CTraceFileAndLineInfo@ATL@@QAE@PBDH@Z PROC NEAR	; ATL::CTraceFileAndLineInfo::CTraceFileAndLineInfo, COMDAT
; _this$ = ecx

; 158  : 	{}

	push	ebp
	mov	ebp, esp
	push	ecx
	mov	DWORD PTR [ebp-4], -858993460		; ccccccccH
	mov	DWORD PTR _this$[ebp], ecx
	mov	eax, DWORD PTR _this$[ebp]
	mov	ecx, DWORD PTR _pszFileName$[ebp]
	mov	DWORD PTR [eax], ecx
	mov	edx, DWORD PTR _this$[ebp]
	mov	eax, DWORD PTR _nLineNo$[ebp]
	mov	DWORD PTR [edx+4], eax
	mov	eax, DWORD PTR _this$[ebp]
	mov	esp, ebp
	pop	ebp
	ret	8
??0CTraceFileAndLineInfo@ATL@@QAE@PBDH@Z ENDP		; ATL::CTraceFileAndLineInfo::CTraceFileAndLineInfo
_TEXT	ENDS
PUBLIC	?TraceV@CTrace@ATL@@QBAXPBDHKI0PAD@Z		; ATL::CTrace::TraceV
EXTRN	?s_trace@CTrace@ATL@@2V12@A:QWORD		; ATL::CTrace::s_trace
; Function compile flags: /Odt /RTCsu
;	COMDAT ??RCTraceFileAndLineInfo@ATL@@QBAXKIPBDZZ
_TEXT	SEGMENT
_ptr$ = -4						; size = 4
_this$ = 8						; size = 4
_dwCategory$ = 12					; size = 4
_nLevel$ = 16						; size = 4
_pszFmt$ = 20						; size = 4
??RCTraceFileAndLineInfo@ATL@@QBAXKIPBDZZ PROC NEAR	; ATL::CTraceFileAndLineInfo::operator(), COMDAT

; 161  : 	{

	push	ebp
	mov	ebp, esp
	push	ecx
	mov	DWORD PTR [ebp-4], -858993460		; ccccccccH

; 162  : 		va_list ptr; va_start(ptr, pszFmt);

	lea	eax, DWORD PTR _pszFmt$[ebp+4]
	mov	DWORD PTR _ptr$[ebp], eax

; 163  : 		ATL::CTrace::s_trace.TraceV(m_pszFileName, m_nLineNo, dwCategory, nLevel, pszFmt, ptr);

	mov	ecx, DWORD PTR _ptr$[ebp]
	push	ecx
	mov	edx, DWORD PTR _pszFmt$[ebp]
	push	edx
	mov	eax, DWORD PTR _nLevel$[ebp]
	push	eax
	mov	ecx, DWORD PTR _dwCategory$[ebp]
	push	ecx
	mov	edx, DWORD PTR _this$[ebp]
	mov	eax, DWORD PTR [edx+4]
	push	eax
	mov	ecx, DWORD PTR _this$[ebp]
	mov	edx, DWORD PTR [ecx]
	push	edx
	push	OFFSET FLAT:?s_trace@CTrace@ATL@@2V12@A
	call	?TraceV@CTrace@ATL@@QBAXPBDHKI0PAD@Z	; ATL::CTrace::TraceV
	add	esp, 28					; 0000001cH

; 164  : 		va_end(ptr);

	mov	DWORD PTR _ptr$[ebp], 0

; 165  : 	}

	add	esp, 4
	cmp	ebp, esp
	call	__RTC_CheckEsp
	mov	esp, ebp
	pop	ebp
	ret	0
??RCTraceFileAndLineInfo@ATL@@QBAXKIPBDZZ ENDP		; ATL::CTraceFileAndLineInfo::operator()
_TEXT	ENDS
EXTRN	_AtlTraceVA:NEAR
; Function compile flags: /Odt /RTCsu
;	COMDAT ?TraceV@CTrace@ATL@@QBAXPBDHKI0PAD@Z
_TEXT	SEGMENT
_this$ = 8						; size = 4
_pszFileName$ = 12					; size = 4
_nLine$ = 16						; size = 4
_dwCategory$ = 20					; size = 4
_nLevel$ = 24						; size = 4
_pszFmt$ = 28						; size = 4
_args$ = 32						; size = 4
?TraceV@CTrace@ATL@@QBAXPBDHKI0PAD@Z PROC NEAR		; ATL::CTrace::TraceV, COMDAT

; 121  : 	{

	push	ebp
	mov	ebp, esp

; 122  : 		AtlTraceVA(m_dwModule, pszFileName, nLine, dwCategory, nLevel, pszFmt, args);

	mov	eax, DWORD PTR _args$[ebp]
	push	eax
	mov	ecx, DWORD PTR _pszFmt$[ebp]
	push	ecx
	mov	edx, DWORD PTR _nLevel$[ebp]
	push	edx
	mov	eax, DWORD PTR _dwCategory$[ebp]
	push	eax
	mov	ecx, DWORD PTR _nLine$[ebp]
	push	ecx
	mov	edx, DWORD PTR _pszFileName$[ebp]
	push	edx
	mov	eax, DWORD PTR _this$[ebp]
	mov	ecx, DWORD PTR [eax+4]
	push	ecx
	call	_AtlTraceVA
	add	esp, 28					; 0000001cH

; 123  : 	}

	cmp	ebp, esp
	call	__RTC_CheckEsp
	pop	ebp
	ret	0
?TraceV@CTrace@ATL@@QBAXPBDHKI0PAD@Z ENDP		; ATL::CTrace::TraceV
; Function compile flags: /Odt /RTCsu
_TEXT	ENDS
;	COMDAT ??BCTraceCategory@ATL@@QBEKXZ
_TEXT	SEGMENT
_this$ = -4						; size = 4
??BCTraceCategory@ATL@@QBEKXZ PROC NEAR			; ATL::CTraceCategory::operator unsigned long, COMDAT
; _this$ = ecx

; 202  : {

	push	ebp
	mov	ebp, esp
	push	ecx
	mov	DWORD PTR [ebp-4], -858993460		; ccccccccH
	mov	DWORD PTR _this$[ebp], ecx

; 203  : 	return( m_dwCategory );

	mov	eax, DWORD PTR _this$[ebp]
	mov	eax, DWORD PTR [eax]

; 204  : }

	mov	esp, ebp
	pop	ebp
	ret	0
??BCTraceCategory@ATL@@QBEKXZ ENDP			; ATL::CTraceCategory::operator unsigned long
; Function compile flags: /Odt /RTCsu
; File c:\program files\microsoft visual studio .net 2003\vc7\atlmfc\include\atlexcept.h
_TEXT	ENDS
;	COMDAT ??0CAtlException@ATL@@QAE@J@Z
_TEXT	SEGMENT
_this$ = -4						; size = 4
_hr$ = 8						; size = 4
??0CAtlException@ATL@@QAE@J@Z PROC NEAR			; ATL::CAtlException::CAtlException, COMDAT
; _this$ = ecx

; 40   : 	{

	push	ebp
	mov	ebp, esp
	push	ecx
	mov	DWORD PTR [ebp-4], -858993460		; ccccccccH
	mov	DWORD PTR _this$[ebp], ecx
	mov	eax, DWORD PTR _this$[ebp]
	mov	ecx, DWORD PTR _hr$[ebp]
	mov	DWORD PTR [eax], ecx

; 41   : 	}

	mov	eax, DWORD PTR _this$[ebp]
	mov	esp, ebp
	pop	ebp
	ret	4
??0CAtlException@ATL@@QAE@J@Z ENDP			; ATL::CAtlException::CAtlException
_TEXT	ENDS
PUBLIC	?GetStringTypeExWFake@ATL@@YGHKKPBGHPAG@Z	; ATL::GetStringTypeExWFake
EXTRN	__imp__GetStringTypeExW@20:NEAR
; Function compile flags: /Odt /RTCsu
; File c:\program files\microsoft visual studio .net 2003\vc7\atlmfc\include\cstringt.h
;	COMDAT ?GetStringTypeExWThunk@ATL@@YGHKKPBGHPAG@Z
_TEXT	SEGMENT
_lcid$ = 8						; size = 4
_dwInfoType$ = 12					; size = 4
_pszSrc$ = 16						; size = 4
_nLength$ = 20						; size = 4
_pwCharType$ = 24					; size = 4
?GetStringTypeExWThunk@ATL@@YGHKKPBGHPAG@Z PROC NEAR	; ATL::GetStringTypeExWThunk, COMDAT

; 240  : {

	push	ebp
	mov	ebp, esp
	push	esi

; 241  : 	_AtlInstallStringThunk(reinterpret_cast<void**>(&_strthunks.pfnGetStringTypeExW), GetStringTypeExWFake, ::GetStringTypeExW);

	mov	eax, DWORD PTR __imp__GetStringTypeExW@20
	push	eax
	push	OFFSET FLAT:?GetStringTypeExWFake@ATL@@YGHKKPBGHPAG@Z ; ATL::GetStringTypeExWFake
	push	OFFSET FLAT:?_strthunks@ATL@@3U_AtlStringThunks@1@A+4
	call	?_AtlInstallStringThunk@ATL@@YAXPAPAXPAX1@Z ; ATL::_AtlInstallStringThunk
	add	esp, 12					; 0000000cH

; 242  : 
; 243  : 	return _strthunks.pfnGetStringTypeExW(lcid, dwInfoType, pszSrc, nLength, pwCharType);

	mov	esi, esp
	mov	ecx, DWORD PTR _pwCharType$[ebp]
	push	ecx
	mov	edx, DWORD PTR _nLength$[ebp]
	push	edx
	mov	eax, DWORD PTR _pszSrc$[ebp]
	push	eax
	mov	ecx, DWORD PTR _dwInfoType$[ebp]
	push	ecx
	mov	edx, DWORD PTR _lcid$[ebp]
	push	edx
	call	DWORD PTR ?_strthunks@ATL@@3U_AtlStringThunks@1@A+4
	cmp	esi, esp
	call	__RTC_CheckEsp

; 244  : }

	pop	esi
	cmp	ebp, esp
	call	__RTC_CheckEsp
	pop	ebp
	ret	20					; 00000014H
?GetStringTypeExWThunk@ATL@@YGHKKPBGHPAG@Z ENDP		; ATL::GetStringTypeExWThunk
_TEXT	ENDS
EXTRN	__imp__GetStringTypeExA@20:NEAR
;	COMDAT xdata$x
xdata$x	SEGMENT
$T192095 DD	0ffffffffH
	DD	FLAT:$L192087
$T192089 DD	019930520H
	DD	01H
	DD	FLAT:$T192095
	DD	2 DUP(00H)
	DD	2 DUP(00H)
; Function compile flags: /Odt /RTCsu
xdata$x	ENDS
;	COMDAT ?GetStringTypeExWFake@ATL@@YGHKKPBGHPAG@Z
_TEXT	SEGMENT
$T192086 = -164						; size = 4
_pszA$ = -156						; size = 132
_nLengthA$ = -20					; size = 4
__$ArrayPad$ = -16					; size = 4
__$EHRec$ = -12						; size = 12
__$ReturnAddr$ = 4					; size = 4
_lcid$ = 8						; size = 4
_dwInfoType$ = 12					; size = 4
_pszSrc$ = 16						; size = 4
_nLength$ = 20						; size = 4
_pwCharType$ = 24					; size = 4
?GetStringTypeExWFake@ATL@@YGHKKPBGHPAG@Z PROC NEAR	; ATL::GetStringTypeExWFake, COMDAT

; 224  : {

	push	ebp
	mov	ebp, esp
	push	-1
	push	__ehhandler$?GetStringTypeExWFake@ATL@@YGHKKPBGHPAG@Z
	mov	eax, DWORD PTR fs:__except_list
	push	eax
	mov	DWORD PTR fs:__except_list, esp
	sub	esp, 152				; 00000098H
	push	esi
	push	edi
	lea	edi, DWORD PTR [ebp-164]
	mov	ecx, 38					; 00000026H
	mov	eax, -858993460				; ccccccccH
	rep stosd
	mov	eax, DWORD PTR ___security_cookie
	mov	DWORD PTR __$ArrayPad$[ebp], eax

; 225  : 	int nLengthA;
; 226  : 	CTempBuffer<char> pszA;

	lea	ecx, DWORD PTR _pszA$[ebp]
	call	??0?$CTempBuffer@D$0IA@VCCRTAllocator@ATL@@@ATL@@QAE@XZ ; ATL::CTempBuffer<char,128,ATL::CCRTAllocator>::CTempBuffer<char,128,ATL::CCRTAllocator>
	mov	DWORD PTR __$EHRec$[ebp+8], 0

; 227  : 
; 228  : 	nLengthA = ::WideCharToMultiByte(_AtlGetConversionACP(), 0, pszSrc, nLength, NULL, 0, NULL, NULL);

	mov	esi, esp
	push	0
	push	0
	push	0
	push	0
	mov	eax, DWORD PTR _nLength$[ebp]
	push	eax
	mov	ecx, DWORD PTR _pszSrc$[ebp]
	push	ecx
	push	0
	call	?_AtlGetConversionACP@ATL@@YGIXZ	; ATL::_AtlGetConversionACP
	push	eax
	call	DWORD PTR __imp__WideCharToMultiByte@32
	cmp	esi, esp
	call	__RTC_CheckEsp
	mov	DWORD PTR _nLengthA$[ebp], eax

; 229  : 	pszA.Allocate(nLengthA);

	mov	edx, DWORD PTR _nLengthA$[ebp]
	push	edx
	lea	ecx, DWORD PTR _pszA$[ebp]
	call	?Allocate@?$CTempBuffer@D$0IA@VCCRTAllocator@ATL@@@ATL@@QAEPADI@Z ; ATL::CTempBuffer<char,128,ATL::CCRTAllocator>::Allocate

; 230  : 	::WideCharToMultiByte(_AtlGetConversionACP(), 0, pszSrc, nLength, pszA, nLengthA, NULL, NULL);

	mov	esi, esp
	push	0
	push	0
	mov	eax, DWORD PTR _nLengthA$[ebp]
	push	eax
	lea	ecx, DWORD PTR _pszA$[ebp]
	call	??B?$CTempBuffer@D$0IA@VCCRTAllocator@ATL@@@ATL@@QBEPADXZ ; ATL::CTempBuffer<char,128,ATL::CCRTAllocator>::operator char *
	push	eax
	mov	ecx, DWORD PTR _nLength$[ebp]
	push	ecx
	mov	edx, DWORD PTR _pszSrc$[ebp]
	push	edx
	push	0
	call	?_AtlGetConversionACP@ATL@@YGIXZ	; ATL::_AtlGetConversionACP
	push	eax
	call	DWORD PTR __imp__WideCharToMultiByte@32
	cmp	esi, esp
	call	__RTC_CheckEsp

; 231  : 
; 232  : 	if (nLength == -1)

	cmp	DWORD PTR _nLength$[ebp], -1
	jne	SHORT $L186096

; 233  : 		nLengthA = -1;

	mov	DWORD PTR _nLengthA$[ebp], -1
$L186096:

; 234  : 
; 235  : 	return ::GetStringTypeExA(lcid, dwInfoType, pszA, nLengthA, pwCharType);

	mov	esi, esp
	mov	eax, DWORD PTR _pwCharType$[ebp]
	push	eax
	mov	ecx, DWORD PTR _nLengthA$[ebp]
	push	ecx
	lea	ecx, DWORD PTR _pszA$[ebp]
	call	??B?$CTempBuffer@D$0IA@VCCRTAllocator@ATL@@@ATL@@QBEPADXZ ; ATL::CTempBuffer<char,128,ATL::CCRTAllocator>::operator char *
	push	eax
	mov	edx, DWORD PTR _dwInfoType$[ebp]
	push	edx
	mov	eax, DWORD PTR _lcid$[ebp]
	push	eax
	call	DWORD PTR __imp__GetStringTypeExA@20
	cmp	esi, esp
	call	__RTC_CheckEsp
	mov	DWORD PTR $T192086[ebp], eax
	mov	DWORD PTR __$EHRec$[ebp+8], -1
	lea	ecx, DWORD PTR _pszA$[ebp]
	call	??1?$CTempBuffer@D$0IA@VCCRTAllocator@ATL@@@ATL@@QAE@XZ ; ATL::CTempBuffer<char,128,ATL::CCRTAllocator>::~CTempBuffer<char,128,ATL::CCRTAllocator>
	mov	eax, DWORD PTR $T192086[ebp]

; 236  : }

	push	edx
	mov	ecx, ebp
	push	eax
	lea	edx, DWORD PTR $L192094
	call	@_RTC_CheckStackVars@8
	pop	eax
	pop	edx
	mov	ecx, DWORD PTR __$EHRec$[ebp]
	mov	DWORD PTR fs:__except_list, ecx
	mov	ecx, DWORD PTR __$ArrayPad$[ebp]
	call	@__security_check_cookie@4
	pop	edi
	pop	esi
	add	esp, 164				; 000000a4H
	cmp	ebp, esp
	call	__RTC_CheckEsp
	mov	esp, ebp
	pop	ebp
	ret	20					; 00000014H
$L192094:
	DD	1
	DD	$L192093
$L192093:
	DD	-156					; ffffff64H
	DD	132					; 00000084H
	DD	$L192090
$L192090:
	DB	112					; 00000070H
	DB	115					; 00000073H
	DB	122					; 0000007aH
	DB	65					; 00000041H
	DB	0
_TEXT	ENDS
;	COMDAT text$x
text$x	SEGMENT
$L192087:
	lea	ecx, DWORD PTR _pszA$[ebp]
	jmp	??1?$CTempBuffer@D$0IA@VCCRTAllocator@ATL@@@ATL@@QAE@XZ ; ATL::CTempBuffer<char,128,ATL::CCRTAllocator>::~CTempBuffer<char,128,ATL::CCRTAllocator>
__ehhandler$?GetStringTypeExWFake@ATL@@YGHKKPBGHPAG@Z:
	mov	eax, OFFSET FLAT:$T192089
	jmp	___CxxFrameHandler
text$x	ENDS
?GetStringTypeExWFake@ATL@@YGHKKPBGHPAG@Z ENDP		; ATL::GetStringTypeExWFake
PUBLIC	?lstrcmpiWFake@ATL@@YGHPBG0@Z			; ATL::lstrcmpiWFake
EXTRN	__imp__lstrcmpiW@8:NEAR
; Function compile flags: /Odt /RTCsu
;	COMDAT ?lstrcmpiWThunk@ATL@@YGHPBG0@Z
_TEXT	SEGMENT
_psz1$ = 8						; size = 4
_psz2$ = 12						; size = 4
?lstrcmpiWThunk@ATL@@YGHPBG0@Z PROC NEAR		; ATL::lstrcmpiWThunk, COMDAT

; 254  : {

	push	ebp
	mov	ebp, esp
	push	esi

; 255  : 	_AtlInstallStringThunk(reinterpret_cast<void**>(&_strthunks.pfnlstrcmpiW), lstrcmpiWFake, ::lstrcmpiW);

	mov	eax, DWORD PTR __imp__lstrcmpiW@8
	push	eax
	push	OFFSET FLAT:?lstrcmpiWFake@ATL@@YGHPBG0@Z ; ATL::lstrcmpiWFake
	push	OFFSET FLAT:?_strthunks@ATL@@3U_AtlStringThunks@1@A+8
	call	?_AtlInstallStringThunk@ATL@@YAXPAPAXPAX1@Z ; ATL::_AtlInstallStringThunk
	add	esp, 12					; 0000000cH

; 256  : 
; 257  : 	return _strthunks.pfnlstrcmpiW(psz1, psz2);

	mov	esi, esp
	mov	ecx, DWORD PTR _psz2$[ebp]
	push	ecx
	mov	edx, DWORD PTR _psz1$[ebp]
	push	edx
	call	DWORD PTR ?_strthunks@ATL@@3U_AtlStringThunks@1@A+8
	cmp	esi, esp
	call	__RTC_CheckEsp

; 258  : }

	pop	esi
	cmp	ebp, esp
	call	__RTC_CheckEsp
	pop	ebp
	ret	8
?lstrcmpiWThunk@ATL@@YGHPBG0@Z ENDP			; ATL::lstrcmpiWThunk
_TEXT	ENDS
EXTRN	__imp__lstrcmpiA@8:NEAR
; Function compile flags: /Odt /RTCsu
;	COMDAT ?lstrcmpiWFake@ATL@@YGHPBG0@Z
_TEXT	SEGMENT
tv91 = -32						; size = 4
tv94 = -28						; size = 4
tv76 = -24						; size = 4
tv79 = -20						; size = 4
__lpa$ = -16						; size = 4
__lpw$ = -12						; size = 4
__acp$ = -8						; size = 4
__convert$ = -4						; size = 4
_psz1$ = 8						; size = 4
_psz2$ = 12						; size = 4
?lstrcmpiWFake@ATL@@YGHPBG0@Z PROC NEAR			; ATL::lstrcmpiWFake, COMDAT

; 247  : {

	push	ebp
	mov	ebp, esp
	sub	esp, 32					; 00000020H
	push	esi
	mov	eax, -858993460				; ccccccccH
	mov	DWORD PTR [ebp-32], eax
	mov	DWORD PTR [ebp-28], eax
	mov	DWORD PTR [ebp-24], eax
	mov	DWORD PTR [ebp-20], eax
	mov	DWORD PTR [ebp-16], eax
	mov	DWORD PTR [ebp-12], eax
	mov	DWORD PTR [ebp-8], eax
	mov	DWORD PTR [ebp-4], eax

; 248  : 	USES_CONVERSION;

	mov	DWORD PTR __convert$[ebp], 0
	call	?_AtlGetConversionACP@ATL@@YGIXZ	; ATL::_AtlGetConversionACP
	mov	DWORD PTR __acp$[ebp], eax
	mov	DWORD PTR __lpw$[ebp], 0
	mov	DWORD PTR __lpa$[ebp], 0

; 249  : 
; 250  : 	return ::lstrcmpiA(W2A(psz1), W2A(psz2));

	mov	eax, DWORD PTR _psz2$[ebp]
	mov	DWORD PTR __lpw$[ebp], eax
	cmp	DWORD PTR __lpw$[ebp], 0
	jne	SHORT $L192102
	mov	DWORD PTR tv79[ebp], 0
	jmp	SHORT $L192103
$L192102:
	mov	esi, esp
	mov	ecx, DWORD PTR __lpw$[ebp]
	push	ecx
	call	DWORD PTR __imp__lstrlenW@4
	cmp	esi, esp
	call	__RTC_CheckEsp
	lea	edx, DWORD PTR [eax+eax+2]
	mov	DWORD PTR __convert$[ebp], edx
	mov	eax, DWORD PTR __convert$[ebp]
	add	eax, 3
	and	eax, -4					; fffffffcH
	call	__alloca_probe
	mov	DWORD PTR tv76[ebp], esp
	mov	eax, DWORD PTR __acp$[ebp]
	push	eax
	mov	ecx, DWORD PTR __convert$[ebp]
	push	ecx
	mov	edx, DWORD PTR __lpw$[ebp]
	push	edx
	mov	eax, DWORD PTR tv76[ebp]
	push	eax
	call	?AtlW2AHelper@@YGPADPADPBGHI@Z		; AtlW2AHelper
	mov	DWORD PTR tv79[ebp], eax
$L192103:
	mov	ecx, DWORD PTR _psz1$[ebp]
	mov	DWORD PTR __lpw$[ebp], ecx
	cmp	DWORD PTR __lpw$[ebp], 0
	jne	SHORT $L192104
	mov	DWORD PTR tv94[ebp], 0
	jmp	SHORT $L192105
$L192104:
	mov	esi, esp
	mov	edx, DWORD PTR __lpw$[ebp]
	push	edx
	call	DWORD PTR __imp__lstrlenW@4
	cmp	esi, esp
	call	__RTC_CheckEsp
	lea	eax, DWORD PTR [eax+eax+2]
	mov	DWORD PTR __convert$[ebp], eax
	mov	eax, DWORD PTR __convert$[ebp]
	add	eax, 3
	and	eax, -4					; fffffffcH
	call	__alloca_probe
	mov	DWORD PTR tv91[ebp], esp
	mov	ecx, DWORD PTR __acp$[ebp]
	push	ecx
	mov	edx, DWORD PTR __convert$[ebp]
	push	edx
	mov	eax, DWORD PTR __lpw$[ebp]
	push	eax
	mov	ecx, DWORD PTR tv91[ebp]
	push	ecx
	call	?AtlW2AHelper@@YGPADPADPBGHI@Z		; AtlW2AHelper
	mov	DWORD PTR tv94[ebp], eax
$L192105:
	mov	esi, esp
	mov	edx, DWORD PTR tv79[ebp]
	push	edx
	mov	eax, DWORD PTR tv94[ebp]
	push	eax
	call	DWORD PTR __imp__lstrcmpiA@8
	cmp	esi, esp
	call	__RTC_CheckEsp

; 251  : }

	lea	esp, DWORD PTR [ebp-36]
	pop	esi
	mov	esp, ebp
	pop	ebp
	ret	8
?lstrcmpiWFake@ATL@@YGHPBG0@Z ENDP			; ATL::lstrcmpiWFake
_TEXT	ENDS
PUBLIC	?CharLowerWFake@ATL@@YGPAGPAG@Z			; ATL::CharLowerWFake
EXTRN	__imp__CharLowerW@4:NEAR
; Function compile flags: /Odt /RTCsu
;	COMDAT ?CharLowerWThunk@ATL@@YGPAGPAG@Z
_TEXT	SEGMENT
_psz$ = 8						; size = 4
?CharLowerWThunk@ATL@@YGPAGPAG@Z PROC NEAR		; ATL::CharLowerWThunk, COMDAT

; 273  : {

	push	ebp
	mov	ebp, esp
	push	esi

; 274  : 	_AtlInstallStringThunk(reinterpret_cast<void**>(&_strthunks.pfnCharLowerW), CharLowerWFake, ::CharLowerW);

	mov	eax, DWORD PTR __imp__CharLowerW@4
	push	eax
	push	OFFSET FLAT:?CharLowerWFake@ATL@@YGPAGPAG@Z ; ATL::CharLowerWFake
	push	OFFSET FLAT:?_strthunks@ATL@@3U_AtlStringThunks@1@A+12
	call	?_AtlInstallStringThunk@ATL@@YAXPAPAXPAX1@Z ; ATL::_AtlInstallStringThunk
	add	esp, 12					; 0000000cH

; 275  : 
; 276  : 	return _strthunks.pfnCharLowerW(psz);

	mov	esi, esp
	mov	ecx, DWORD PTR _psz$[ebp]
	push	ecx
	call	DWORD PTR ?_strthunks@ATL@@3U_AtlStringThunks@1@A+12
	cmp	esi, esp
	call	__RTC_CheckEsp

; 277  : }

	pop	esi
	cmp	ebp, esp
	call	__RTC_CheckEsp
	pop	ebp
	ret	4
?CharLowerWThunk@ATL@@YGPAGPAG@Z ENDP			; ATL::CharLowerWThunk
_TEXT	ENDS
PUBLIC	?AtlA2WHelper@@YGPAGPAGPBDHI@Z			; AtlA2WHelper
EXTRN	__imp__CharLowerA@4:NEAR
EXTRN	__imp__lstrlenA@4:NEAR
EXTRN	_wcscpy:NEAR
; Function compile flags: /Odt /RTCsu
;	COMDAT ?CharLowerWFake@ATL@@YGPAGPAG@Z
_TEXT	SEGMENT
tv90 = -36						; size = 4
tv94 = -32						; size = 4
tv75 = -28						; size = 4
tv78 = -24						; size = 4
_pszA$ = -20						; size = 4
__lpa$ = -16						; size = 4
__lpw$ = -12						; size = 4
__acp$ = -8						; size = 4
__convert$ = -4						; size = 4
_psz$ = 8						; size = 4
?CharLowerWFake@ATL@@YGPAGPAG@Z PROC NEAR		; ATL::CharLowerWFake, COMDAT

; 261  : {

	push	ebp
	mov	ebp, esp
	sub	esp, 36					; 00000024H
	push	esi
	mov	eax, -858993460				; ccccccccH
	mov	DWORD PTR [ebp-36], eax
	mov	DWORD PTR [ebp-32], eax
	mov	DWORD PTR [ebp-28], eax
	mov	DWORD PTR [ebp-24], eax
	mov	DWORD PTR [ebp-20], eax
	mov	DWORD PTR [ebp-16], eax
	mov	DWORD PTR [ebp-12], eax
	mov	DWORD PTR [ebp-8], eax
	mov	DWORD PTR [ebp-4], eax

; 262  : 	USES_CONVERSION;

	mov	DWORD PTR __convert$[ebp], 0
	call	?_AtlGetConversionACP@ATL@@YGIXZ	; ATL::_AtlGetConversionACP
	mov	DWORD PTR __acp$[ebp], eax
	mov	DWORD PTR __lpw$[ebp], 0
	mov	DWORD PTR __lpa$[ebp], 0

; 263  : 	LPSTR pszA;
; 264  : 
; 265  : 	pszA = W2A(psz);

	mov	eax, DWORD PTR _psz$[ebp]
	mov	DWORD PTR __lpw$[ebp], eax
	cmp	DWORD PTR __lpw$[ebp], 0
	jne	SHORT $L192110
	mov	DWORD PTR tv78[ebp], 0
	jmp	SHORT $L192111
$L192110:
	mov	esi, esp
	mov	ecx, DWORD PTR __lpw$[ebp]
	push	ecx
	call	DWORD PTR __imp__lstrlenW@4
	cmp	esi, esp
	call	__RTC_CheckEsp
	lea	edx, DWORD PTR [eax+eax+2]
	mov	DWORD PTR __convert$[ebp], edx
	mov	eax, DWORD PTR __convert$[ebp]
	add	eax, 3
	and	eax, -4					; fffffffcH
	call	__alloca_probe
	mov	DWORD PTR tv75[ebp], esp
	mov	eax, DWORD PTR __acp$[ebp]
	push	eax
	mov	ecx, DWORD PTR __convert$[ebp]
	push	ecx
	mov	edx, DWORD PTR __lpw$[ebp]
	push	edx
	mov	eax, DWORD PTR tv75[ebp]
	push	eax
	call	?AtlW2AHelper@@YGPADPADPBGHI@Z		; AtlW2AHelper
	mov	DWORD PTR tv78[ebp], eax
$L192111:
	mov	ecx, DWORD PTR tv78[ebp]
	mov	DWORD PTR _pszA$[ebp], ecx

; 266  : 	::CharLowerA(pszA);

	mov	esi, esp
	mov	edx, DWORD PTR _pszA$[ebp]
	push	edx
	call	DWORD PTR __imp__CharLowerA@4
	cmp	esi, esp
	call	__RTC_CheckEsp

; 267  : 	wcscpy(psz, A2W(pszA));

	mov	eax, DWORD PTR _pszA$[ebp]
	mov	DWORD PTR __lpa$[ebp], eax
	cmp	DWORD PTR __lpa$[ebp], 0
	jne	SHORT $L192112
	mov	DWORD PTR tv94[ebp], 0
	jmp	SHORT $L192113
$L192112:
	mov	esi, esp
	mov	ecx, DWORD PTR __lpa$[ebp]
	push	ecx
	call	DWORD PTR __imp__lstrlenA@4
	cmp	esi, esp
	call	__RTC_CheckEsp
	add	eax, 1
	mov	DWORD PTR __convert$[ebp], eax
	mov	eax, DWORD PTR __convert$[ebp]
	shl	eax, 1
	add	eax, 3
	and	eax, -4					; fffffffcH
	call	__alloca_probe
	mov	DWORD PTR tv90[ebp], esp
	mov	edx, DWORD PTR __acp$[ebp]
	push	edx
	mov	eax, DWORD PTR __convert$[ebp]
	push	eax
	mov	ecx, DWORD PTR __lpa$[ebp]
	push	ecx
	mov	edx, DWORD PTR tv90[ebp]
	push	edx
	call	?AtlA2WHelper@@YGPAGPAGPBDHI@Z		; AtlA2WHelper
	mov	DWORD PTR tv94[ebp], eax
$L192113:
	mov	eax, DWORD PTR tv94[ebp]
	push	eax
	mov	ecx, DWORD PTR _psz$[ebp]
	push	ecx
	call	_wcscpy
	add	esp, 8

; 268  : 
; 269  : 	return psz;

	mov	eax, DWORD PTR _psz$[ebp]

; 270  : }

	lea	esp, DWORD PTR [ebp-40]
	pop	esi
	mov	esp, ebp
	pop	ebp
	ret	4
?CharLowerWFake@ATL@@YGPAGPAG@Z ENDP			; ATL::CharLowerWFake
; Function compile flags: /Odt /RTCsu
; File c:\program files\microsoft visual studio .net 2003\vc7\atlmfc\include\atlconv.h
_TEXT	ENDS
;	COMDAT ?AtlA2WHelper@@YGPAGPAGPBDHI@Z
_TEXT	SEGMENT
_ret$ = -4						; size = 4
_lpw$ = 8						; size = 4
_lpa$ = 12						; size = 4
_nChars$ = 16						; size = 4
_acp$ = 20						; size = 4
?AtlA2WHelper@@YGPAGPAGPBDHI@Z PROC NEAR		; AtlA2WHelper, COMDAT

; 554  : {

	push	ebp
	mov	ebp, esp
	push	ecx
	push	esi
	mov	DWORD PTR [ebp-4], -858993460		; ccccccccH

; 555  : 	ATLASSERT(lpa != NULL);

	cmp	DWORD PTR _lpa$[ebp], 0
	jne	SHORT $L192116
	push	OFFSET FLAT:??_C@_08DMHHBMMN@lpa?5?$CB?$DN?50?$AA@
	push	0
	push	555					; 0000022bH
	push	OFFSET FLAT:??_C@_0FA@OHHMODBN@C?3?2Program?5Files?2Microsoft?5Visua@
	push	2
	call	__CrtDbgReport
	add	esp, 20					; 00000014H
	cmp	eax, 1
	jne	SHORT $L192116
	int	3
$L192116:

; 556  : 	ATLASSERT(lpw != NULL);

	cmp	DWORD PTR _lpw$[ebp], 0
	jne	SHORT $L192117
	push	OFFSET FLAT:??_C@_08DIHJLFDJ@lpw?5?$CB?$DN?50?$AA@
	push	0
	push	556					; 0000022cH
	push	OFFSET FLAT:??_C@_0FA@OHHMODBN@C?3?2Program?5Files?2Microsoft?5Visua@
	push	2
	call	__CrtDbgReport
	add	esp, 20					; 00000014H
	cmp	eax, 1
	jne	SHORT $L192117
	int	3
$L192117:

; 557  : 	if (lpw == NULL || lpa == NULL)

	cmp	DWORD PTR _lpw$[ebp], 0
	je	SHORT $L75944
	cmp	DWORD PTR _lpa$[ebp], 0
	jne	SHORT $L75943
$L75944:

; 558  : 		return NULL;

	xor	eax, eax
	jmp	SHORT $L75937
$L75943:

; 559  : 	// verify that no illegal character present
; 560  : 	// since lpw was allocated based on the size of lpa
; 561  : 	// don't worry about the number of chars
; 562  : 	lpw[0] = '\0';

	mov	edx, DWORD PTR _lpw$[ebp]
	mov	WORD PTR [edx], 0

; 563  : 	int ret = MultiByteToWideChar(acp, 0, lpa, -1, lpw, nChars);

	mov	esi, esp
	mov	eax, DWORD PTR _nChars$[ebp]
	push	eax
	mov	ecx, DWORD PTR _lpw$[ebp]
	push	ecx
	push	-1
	mov	edx, DWORD PTR _lpa$[ebp]
	push	edx
	push	0
	mov	eax, DWORD PTR _acp$[ebp]
	push	eax
	call	DWORD PTR __imp__MultiByteToWideChar@24
	cmp	esi, esp
	call	__RTC_CheckEsp
	mov	DWORD PTR _ret$[ebp], eax

; 564  : 	if(ret == 0)

	cmp	DWORD PTR _ret$[ebp], 0
	jne	SHORT $L75946

; 565  : 	{
; 566  : 		ATLASSERT(FALSE);

	xor	ecx, ecx
	jne	SHORT $L192118
	push	OFFSET FLAT:??_C@_01GBGANLPD@0?$AA@
	push	0
	push	566					; 00000236H
	push	OFFSET FLAT:??_C@_0FA@OHHMODBN@C?3?2Program?5Files?2Microsoft?5Visua@
	push	2
	call	__CrtDbgReport
	add	esp, 20					; 00000014H
	cmp	eax, 1
	jne	SHORT $L192118
	int	3
$L192118:

; 567  : 		return NULL;

	xor	eax, eax
	jmp	SHORT $L75937
$L75946:

; 568  : 	}		
; 569  : 	return lpw;

	mov	eax, DWORD PTR _lpw$[ebp]
$L75937:

; 570  : }

	pop	esi
	add	esp, 4
	cmp	ebp, esp
	call	__RTC_CheckEsp
	mov	esp, ebp
	pop	ebp
	ret	16					; 00000010H
?AtlA2WHelper@@YGPAGPAGPBDHI@Z ENDP			; AtlA2WHelper
_TEXT	ENDS
PUBLIC	?CharUpperWFake@ATL@@YGPAGPAG@Z			; ATL::CharUpperWFake
EXTRN	__imp__CharUpperW@4:NEAR
; Function compile flags: /Odt /RTCsu
; File c:\program files\microsoft visual studio .net 2003\vc7\atlmfc\include\cstringt.h
;	COMDAT ?CharUpperWThunk@ATL@@YGPAGPAG@Z
_TEXT	SEGMENT
_psz$ = 8						; size = 4
?CharUpperWThunk@ATL@@YGPAGPAG@Z PROC NEAR		; ATL::CharUpperWThunk, COMDAT

; 292  : {

	push	ebp
	mov	ebp, esp
	push	esi

; 293  : 	_AtlInstallStringThunk(reinterpret_cast<void**>(&_strthunks.pfnCharUpperW), CharUpperWFake, ::CharUpperW);

	mov	eax, DWORD PTR __imp__CharUpperW@4
	push	eax
	push	OFFSET FLAT:?CharUpperWFake@ATL@@YGPAGPAG@Z ; ATL::CharUpperWFake
	push	OFFSET FLAT:?_strthunks@ATL@@3U_AtlStringThunks@1@A+16
	call	?_AtlInstallStringThunk@ATL@@YAXPAPAXPAX1@Z ; ATL::_AtlInstallStringThunk
	add	esp, 12					; 0000000cH

; 294  : 
; 295  : 	return _strthunks.pfnCharUpperW(psz);

	mov	esi, esp
	mov	ecx, DWORD PTR _psz$[ebp]
	push	ecx
	call	DWORD PTR ?_strthunks@ATL@@3U_AtlStringThunks@1@A+16
	cmp	esi, esp
	call	__RTC_CheckEsp

; 296  : }

	pop	esi
	cmp	ebp, esp
	call	__RTC_CheckEsp
	pop	ebp
	ret	4
?CharUpperWThunk@ATL@@YGPAGPAG@Z ENDP			; ATL::CharUpperWThunk
_TEXT	ENDS
EXTRN	__imp__CharUpperA@4:NEAR
; Function compile flags: /Odt /RTCsu
;	COMDAT ?CharUpperWFake@ATL@@YGPAGPAG@Z
_TEXT	SEGMENT
tv90 = -36						; size = 4
tv94 = -32						; size = 4
tv75 = -28						; size = 4
tv78 = -24						; size = 4
_pszA$ = -20						; size = 4
__lpa$ = -16						; size = 4
__lpw$ = -12						; size = 4
__acp$ = -8						; size = 4
__convert$ = -4						; size = 4
_psz$ = 8						; size = 4
?CharUpperWFake@ATL@@YGPAGPAG@Z PROC NEAR		; ATL::CharUpperWFake, COMDAT

; 280  : {

	push	ebp
	mov	ebp, esp
	sub	esp, 36					; 00000024H
	push	esi
	mov	eax, -858993460				; ccccccccH
	mov	DWORD PTR [ebp-36], eax
	mov	DWORD PTR [ebp-32], eax
	mov	DWORD PTR [ebp-28], eax
	mov	DWORD PTR [ebp-24], eax
	mov	DWORD PTR [ebp-20], eax
	mov	DWORD PTR [ebp-16], eax
	mov	DWORD PTR [ebp-12], eax
	mov	DWORD PTR [ebp-8], eax
	mov	DWORD PTR [ebp-4], eax

; 281  : 	USES_CONVERSION;

	mov	DWORD PTR __convert$[ebp], 0
	call	?_AtlGetConversionACP@ATL@@YGIXZ	; ATL::_AtlGetConversionACP
	mov	DWORD PTR __acp$[ebp], eax
	mov	DWORD PTR __lpw$[ebp], 0
	mov	DWORD PTR __lpa$[ebp], 0

; 282  : 	LPSTR pszA;
; 283  : 
; 284  : 	pszA = W2A(psz);

	mov	eax, DWORD PTR _psz$[ebp]
	mov	DWORD PTR __lpw$[ebp], eax
	cmp	DWORD PTR __lpw$[ebp], 0
	jne	SHORT $L192123
	mov	DWORD PTR tv78[ebp], 0
	jmp	SHORT $L192124
$L192123:
	mov	esi, esp
	mov	ecx, DWORD PTR __lpw$[ebp]
	push	ecx
	call	DWORD PTR __imp__lstrlenW@4
	cmp	esi, esp
	call	__RTC_CheckEsp
	lea	edx, DWORD PTR [eax+eax+2]
	mov	DWORD PTR __convert$[ebp], edx
	mov	eax, DWORD PTR __convert$[ebp]
	add	eax, 3
	and	eax, -4					; fffffffcH
	call	__alloca_probe
	mov	DWORD PTR tv75[ebp], esp
	mov	eax, DWORD PTR __acp$[ebp]
	push	eax
	mov	ecx, DWORD PTR __convert$[ebp]
	push	ecx
	mov	edx, DWORD PTR __lpw$[ebp]
	push	edx
	mov	eax, DWORD PTR tv75[ebp]
	push	eax
	call	?AtlW2AHelper@@YGPADPADPBGHI@Z		; AtlW2AHelper
	mov	DWORD PTR tv78[ebp], eax
$L192124:
	mov	ecx, DWORD PTR tv78[ebp]
	mov	DWORD PTR _pszA$[ebp], ecx

; 285  : 	::CharUpperA(pszA);

	mov	esi, esp
	mov	edx, DWORD PTR _pszA$[ebp]
	push	edx
	call	DWORD PTR __imp__CharUpperA@4
	cmp	esi, esp
	call	__RTC_CheckEsp

; 286  : 	wcscpy(psz, A2W(pszA));

	mov	eax, DWORD PTR _pszA$[ebp]
	mov	DWORD PTR __lpa$[ebp], eax
	cmp	DWORD PTR __lpa$[ebp], 0
	jne	SHORT $L192125
	mov	DWORD PTR tv94[ebp], 0
	jmp	SHORT $L192126
$L192125:
	mov	esi, esp
	mov	ecx, DWORD PTR __lpa$[ebp]
	push	ecx
	call	DWORD PTR __imp__lstrlenA@4
	cmp	esi, esp
	call	__RTC_CheckEsp
	add	eax, 1
	mov	DWORD PTR __convert$[ebp], eax
	mov	eax, DWORD PTR __convert$[ebp]
	shl	eax, 1
	add	eax, 3
	and	eax, -4					; fffffffcH
	call	__alloca_probe
	mov	DWORD PTR tv90[ebp], esp
	mov	edx, DWORD PTR __acp$[ebp]
	push	edx
	mov	eax, DWORD PTR __convert$[ebp]
	push	eax
	mov	ecx, DWORD PTR __lpa$[ebp]
	push	ecx
	mov	edx, DWORD PTR tv90[ebp]
	push	edx
	call	?AtlA2WHelper@@YGPAGPAGPBDHI@Z		; AtlA2WHelper
	mov	DWORD PTR tv94[ebp], eax
$L192126:
	mov	eax, DWORD PTR tv94[ebp]
	push	eax
	mov	ecx, DWORD PTR _psz$[ebp]
	push	ecx
	call	_wcscpy
	add	esp, 8

; 287  : 
; 288  : 	return psz;

	mov	eax, DWORD PTR _psz$[ebp]

; 289  : }

	lea	esp, DWORD PTR [ebp-40]
	pop	esi
	mov	esp, ebp
	pop	ebp
	ret	4
?CharUpperWFake@ATL@@YGPAGPAG@Z ENDP			; ATL::CharUpperWFake
_TEXT	ENDS
PUBLIC	??0CLicense@@QAE@XZ				; CLicense::CLicense
PUBLIC	?getHostOsType@CLicense@@SAJXZ			; CLicense::getHostOsType
PUBLIC	??_7CLicense@@6B@				; CLicense::`vftable'
PUBLIC	??_GCLicense@@UAEPAXI@Z				; CLicense::`scalar deleting destructor'
EXTRN	??0CTime@ATL@@QAE@XZ:NEAR			; ATL::CTime::CTime
EXTRN	??_ECLicense@@UAEPAXI@Z:NEAR			; CLicense::`vector deleting destructor'
;	COMDAT ??_7CLicense@@6B@
; File c:\activex\xmlsign\license.cpp
CONST	SEGMENT
??_7CLicense@@6B@ DD FLAT:??_ECLicense@@UAEPAXI@Z	; CLicense::`vftable'
; Function compile flags: /Odt /RTCsu
CONST	ENDS
_TEXT	SEGMENT
_osType$ = -8						; size = 4
_this$ = -4						; size = 4
??0CLicense@@QAE@XZ PROC NEAR				; CLicense::CLicense
; _this$ = ecx

; 103  : {

	push	ebp
	mov	ebp, esp
	sub	esp, 8
	mov	DWORD PTR [ebp-8], -858993460		; ccccccccH
	mov	DWORD PTR [ebp-4], -858993460		; ccccccccH
	mov	DWORD PTR _this$[ebp], ecx
	mov	eax, DWORD PTR _this$[ebp]
	mov	DWORD PTR [eax], OFFSET FLAT:??_7CLicense@@6B@
	mov	ecx, DWORD PTR _this$[ebp]
	add	ecx, 4
	call	??0CTime@ATL@@QAE@XZ			; ATL::CTime::CTime
	mov	ecx, DWORD PTR _this$[ebp]
	add	ecx, 172				; 000000acH
	call	??0CTime@ATL@@QAE@XZ			; ATL::CTime::CTime

; 104  : 
; 105  : 	licenseFile = NULL;

	mov	ecx, DWORD PTR _this$[ebp]
	mov	DWORD PTR [ecx+24], 0

; 106  : 	isLicenseValid = TRUE; // By default the license is valid

	mov	edx, DWORD PTR _this$[ebp]
	mov	DWORD PTR [edx+120], 1

; 107  : 
; 108  : 	licenseKey = NULL;

	mov	eax, DWORD PTR _this$[ebp]
	mov	DWORD PTR [eax+116], 0

; 109  : 	expYear = expMon = expDay = 0;

	mov	ecx, DWORD PTR _this$[ebp]
	mov	DWORD PTR [ecx+36], 0
	mov	edx, DWORD PTR _this$[ebp]
	mov	DWORD PTR [edx+32], 0
	mov	eax, DWORD PTR _this$[ebp]
	mov	DWORD PTR [eax+28], 0

; 110  : 	issYear = issMon = issDay = 0;

	mov	ecx, DWORD PTR _this$[ebp]
	mov	DWORD PTR [ecx+48], 0
	mov	edx, DWORD PTR _this$[ebp]
	mov	DWORD PTR [edx+44], 0
	mov	eax, DWORD PTR _this$[ebp]
	mov	DWORD PTR [eax+40], 0

; 111  : 	maintExpYear = maintExpMon = maintExpDay = 0;

	mov	ecx, DWORD PTR _this$[ebp]
	mov	DWORD PTR [ecx+60], 0
	mov	edx, DWORD PTR _this$[ebp]
	mov	DWORD PTR [edx+56], 0
	mov	eax, DWORD PTR _this$[ebp]
	mov	DWORD PTR [eax+52], 0

; 112  : 	num_of_lic = 0;

	mov	ecx, DWORD PTR _this$[ebp]
	mov	DWORD PTR [ecx+128], 0

; 113  : 
; 114  : 
; 115  : 	long osType;
; 116  : 
; 117  : 	osType = getHostOsType();

	call	?getHostOsType@CLicense@@SAJXZ		; CLicense::getHostOsType
	mov	DWORD PTR _osType$[ebp], eax

; 118  : 
; 119  : 	if ((osType != 0) && (osType != VER_NT_WORKSTATION))

	cmp	DWORD PTR _osType$[ebp], 0
	je	SHORT $L189441
	cmp	DWORD PTR _osType$[ebp], 1
	je	SHORT $L189441

; 120  : 		 /* It is not a client machine as it is some sort of windows server product */
; 121  : 	{
; 122  : 		isVerifyAllowed = FALSE;

	mov	edx, DWORD PTR _this$[ebp]
	mov	DWORD PTR [edx+64], 0

; 123  : 		isDecryptAllowed = FALSE;

	mov	eax, DWORD PTR _this$[ebp]
	mov	DWORD PTR [eax+76], 0

; 124  : 	}
; 125  : 	else

	jmp	SHORT $L189442
$L189441:

; 126  : 	{
; 127  : 		isVerifyAllowed = TRUE; // Verification is always allowed for client machines

	mov	ecx, DWORD PTR _this$[ebp]
	mov	DWORD PTR [ecx+64], 1

; 128  : 		isDecryptAllowed = TRUE; // Decryption is always allowed for client machines

	mov	edx, DWORD PTR _this$[ebp]
	mov	DWORD PTR [edx+76], 1
$L189442:

; 129  : 	}
; 130  : 	
; 131  : 	isSignAllowed = FALSE;

	mov	eax, DWORD PTR _this$[ebp]
	mov	DWORD PTR [eax+68], 0

; 132  : 	isEncryptAllowed = FALSE;

	mov	ecx, DWORD PTR _this$[ebp]
	mov	DWORD PTR [ecx+72], 0

; 133  : 	isSecureSignAllowed = FALSE;

	mov	edx, DWORD PTR _this$[ebp]
	mov	DWORD PTR [edx+80], 0

; 134  : 	isSecureSignProfessionalAllowed = FALSE;

	mov	eax, DWORD PTR _this$[ebp]
	mov	DWORD PTR [eax+84], 0

; 135  : 	isSecureSignEnterpriseAllowed = FALSE;

	mov	ecx, DWORD PTR _this$[ebp]
	mov	DWORD PTR [ecx+88], 0

; 136  : 
; 137  : 	isSecureSignServerAllowed = FALSE;

	mov	edx, DWORD PTR _this$[ebp]
	mov	DWORD PTR [edx+92], 0

; 138  : 
; 139  : 	isServerLic = FALSE;

	mov	eax, DWORD PTR _this$[ebp]
	mov	DWORD PTR [eax+96], 0

; 140  : 	isClientLic = FALSE;

	mov	ecx, DWORD PTR _this$[ebp]
	mov	DWORD PTR [ecx+100], 0

; 141  : 	isDemoLic	= TRUE; /* by default every license is a demo license */

	mov	edx, DWORD PTR _this$[ebp]
	mov	DWORD PTR [edx+104], 1

; 142  : 	isDevelopmentLic = FALSE;

	mov	eax, DWORD PTR _this$[ebp]
	mov	DWORD PTR [eax+108], 0

; 143  : 	isLicenseFloating = FALSE;

	mov	ecx, DWORD PTR _this$[ebp]
	mov	DWORD PTR [ecx+124], 0

; 144  : 
; 145  : 	sigArr = NULL;

	mov	edx, DWORD PTR _this$[ebp]
	mov	DWORD PTR [edx+148], 0

; 146  : 	signum = 0;

	mov	eax, DWORD PTR _this$[ebp]
	mov	DWORD PTR [eax+152], 0

; 147  : 
; 148  : 	licenser = company = user = hostname = version = NULL;

	mov	ecx, DWORD PTR _this$[ebp]
	mov	DWORD PTR [ecx+112], 0
	mov	edx, DWORD PTR _this$[ebp]
	mov	DWORD PTR [edx+168], 0
	mov	eax, DWORD PTR _this$[ebp]
	mov	DWORD PTR [eax+164], 0
	mov	ecx, DWORD PTR _this$[ebp]
	mov	DWORD PTR [ecx+160], 0
	mov	edx, DWORD PTR _this$[ebp]
	mov	DWORD PTR [edx+156], 0

; 149  : 	num_of_lic = 0;

	mov	eax, DWORD PTR _this$[ebp]
	mov	DWORD PTR [eax+128], 0

; 150  : 	linuxClient = windowsClient = solarisClient = macClient = 0;

	mov	ecx, DWORD PTR _this$[ebp]
	mov	DWORD PTR [ecx+140], 0
	mov	edx, DWORD PTR _this$[ebp]
	mov	DWORD PTR [edx+144], 0
	mov	eax, DWORD PTR _this$[ebp]
	mov	DWORD PTR [eax+132], 0
	mov	ecx, DWORD PTR _this$[ebp]
	mov	DWORD PTR [ecx+136], 0

; 151  : 
; 152  : }

	mov	eax, DWORD PTR _this$[ebp]
	add	esp, 8
	cmp	ebp, esp
	call	__RTC_CheckEsp
	mov	esp, ebp
	pop	ebp
	ret	0
??0CLicense@@QAE@XZ ENDP				; CLicense::CLicense
_TEXT	ENDS
PUBLIC	??1CLicense@@UAE@XZ				; CLicense::~CLicense
EXTRN	??3@YAXPAX@Z:NEAR				; operator delete
; Function compile flags: /Odt /RTCsu
;	COMDAT ??_GCLicense@@UAEPAXI@Z
_TEXT	SEGMENT
_this$ = -4						; size = 4
___flags$ = 8						; size = 4
??_GCLicense@@UAEPAXI@Z PROC NEAR			; CLicense::`scalar deleting destructor', COMDAT
; _this$ = ecx
	push	ebp
	mov	ebp, esp
	push	ecx
	mov	DWORD PTR [ebp-4], -858993460		; ccccccccH
	mov	DWORD PTR _this$[ebp], ecx
	mov	ecx, DWORD PTR _this$[ebp]
	call	??1CLicense@@UAE@XZ			; CLicense::~CLicense
	mov	eax, DWORD PTR ___flags$[ebp]
	and	eax, 1
	je	SHORT $L189446
	mov	ecx, DWORD PTR _this$[ebp]
	push	ecx
	call	??3@YAXPAX@Z				; operator delete
	add	esp, 4
$L189446:
	mov	eax, DWORD PTR _this$[ebp]
	add	esp, 4
	cmp	ebp, esp
	call	__RTC_CheckEsp
	mov	esp, ebp
	pop	ebp
	ret	4
??_GCLicense@@UAEPAXI@Z ENDP				; CLicense::`scalar deleting destructor'
_TEXT	ENDS
EXTRN	__imp__SysFreeString@4:NEAR
; Function compile flags: /Odt /RTCsu
_TEXT	SEGMENT
_this$ = -4						; size = 4
??1CLicense@@UAE@XZ PROC NEAR				; CLicense::~CLicense
; _this$ = ecx

; 155  : {

	push	ebp
	mov	ebp, esp
	push	ecx
	push	esi
	mov	DWORD PTR [ebp-4], -858993460		; ccccccccH
	mov	DWORD PTR _this$[ebp], ecx
	mov	eax, DWORD PTR _this$[ebp]
	mov	DWORD PTR [eax], OFFSET FLAT:??_7CLicense@@6B@

; 156  : #ifdef WIN32
; 157  : 	SysFreeString(licenseKey);

	mov	esi, esp
	mov	ecx, DWORD PTR _this$[ebp]
	mov	edx, DWORD PTR [ecx+116]
	push	edx
	call	DWORD PTR __imp__SysFreeString@4
	cmp	esi, esp
	call	__RTC_CheckEsp

; 158  : 	SysFreeString(licenser);

	mov	esi, esp
	mov	eax, DWORD PTR _this$[ebp]
	mov	ecx, DWORD PTR [eax+156]
	push	ecx
	call	DWORD PTR __imp__SysFreeString@4
	cmp	esi, esp
	call	__RTC_CheckEsp

; 159  : 	SysFreeString(company);

	mov	esi, esp
	mov	edx, DWORD PTR _this$[ebp]
	mov	eax, DWORD PTR [edx+160]
	push	eax
	call	DWORD PTR __imp__SysFreeString@4
	cmp	esi, esp
	call	__RTC_CheckEsp

; 160  : 	SysFreeString(user);

	mov	esi, esp
	mov	ecx, DWORD PTR _this$[ebp]
	mov	edx, DWORD PTR [ecx+164]
	push	edx
	call	DWORD PTR __imp__SysFreeString@4
	cmp	esi, esp
	call	__RTC_CheckEsp

; 161  : 	SysFreeString(hostname);

	mov	esi, esp
	mov	eax, DWORD PTR _this$[ebp]
	mov	ecx, DWORD PTR [eax+168]
	push	ecx
	call	DWORD PTR __imp__SysFreeString@4
	cmp	esi, esp
	call	__RTC_CheckEsp

; 162  : 	SysFreeString(version);

	mov	esi, esp
	mov	edx, DWORD PTR _this$[ebp]
	mov	eax, DWORD PTR [edx+112]
	push	eax
	call	DWORD PTR __imp__SysFreeString@4
	cmp	esi, esp
	call	__RTC_CheckEsp

; 163  : #else
; 164  : 	SysFreeStringLocal(licenseKey);
; 165  : 	SysFreeStringLocal(licenser);
; 166  : 	SysFreeStringLocal(company);
; 167  : 	SysFreeStringLocal(user);
; 168  : 	SysFreeStringLocal(hostname);
; 169  : 	SysFreeStringLocal(version);
; 170  : #endif
; 171  : }

	pop	esi
	add	esp, 4
	cmp	ebp, esp
	call	__RTC_CheckEsp
	mov	esp, ebp
	pop	ebp
	ret	0
??1CLicense@@UAE@XZ ENDP				; CLicense::~CLicense
_TEXT	ENDS
PUBLIC	?A2WBSTR@@YAPAGPBDH@Z				; A2WBSTR
PUBLIC	?getLicenseDetails@CLicense@@QAEHPAU_GLOBAL_SIG@@@Z ; CLicense::getLicenseDetails
EXTRN	_xmlDocGetRootElement:NEAR
EXTRN	_setError:NEAR
EXTRN	_xmlNodeListGetString:NEAR
EXTRN	_atoi:NEAR
EXTRN	_xmlStrcmp:NEAR
EXTRN	_xmlParseFile:NEAR
EXTRN	__imp__xmlFree:DWORD
EXTRN	_xmlFreeDoc:NEAR
; Function compile flags: /Odt /RTCsu
_TEXT	SEGMENT
_tmpInt$189532 = -52					; size = 4
_type$189528 = -48					; size = 4
_tmpInt$189516 = -44					; size = 4
_op$189512 = -40					; size = 4
_date$189501 = -36					; size = 4
_date$189490 = -32					; size = 4
_date$189479 = -28					; size = 4
_licensee$189468 = -24					; size = 4
_curr$ = -20						; size = 4
_root$ = -16						; size = 4
_tmpCharPtr$ = -12					; size = 4
_doc$ = -8						; size = 4
_this$ = -4						; size = 4
_SigHandle$ = 8						; size = 4
?getLicenseDetails@CLicense@@QAEHPAU_GLOBAL_SIG@@@Z PROC NEAR ; CLicense::getLicenseDetails
; _this$ = ecx

; 183  : BOOL CLicense::getLicenseDetails(PGLOBAL_SIG SigHandle) {

	push	ebp
	mov	ebp, esp
	sub	esp, 52					; 00000034H
	push	esi
	push	edi
	push	ecx
	lea	edi, DWORD PTR [ebp-52]
	mov	ecx, 13					; 0000000dH
	mov	eax, -858993460				; ccccccccH
	rep stosd
	pop	ecx
	mov	DWORD PTR _this$[ebp], ecx

; 184  : 
; 185  : 	xmlDocPtr doc = NULL;

	mov	DWORD PTR _doc$[ebp], 0

; 186  : 	unsigned char *tmpCharPtr=NULL;

	mov	DWORD PTR _tmpCharPtr$[ebp], 0

; 187  : 
; 188  : 	doc = xmlParseFile((const char *)licenseFile);

	mov	eax, DWORD PTR _this$[ebp]
	mov	ecx, DWORD PTR [eax+24]
	push	ecx
	call	_xmlParseFile
	add	esp, 4
	mov	DWORD PTR _doc$[ebp], eax

; 189  : 	if (!doc) {

	cmp	DWORD PTR _doc$[ebp], 0
	jne	SHORT $L189457

; 190  : 		// cout << "Couldn't parse the license file" << endl;
; 191  : 		setError(SigHandle, XML_PARSER_ERROR);

	push	16					; 00000010H
	mov	edx, DWORD PTR _SigHandle$[ebp]
	push	edx
	call	_setError
	add	esp, 8

; 192  : 		return FALSE;

	xor	eax, eax
	jmp	$L189453
$L189457:

; 193  : 	}
; 194  : 
; 195  : 	xmlNodePtr root = xmlDocGetRootElement(doc);

	mov	eax, DWORD PTR _doc$[ebp]
	push	eax
	call	_xmlDocGetRootElement
	add	esp, 4
	mov	DWORD PTR _root$[ebp], eax

; 196  : 	xmlNodePtr curr = root->xmlChildrenNode;

	mov	ecx, DWORD PTR _root$[ebp]
	mov	edx, DWORD PTR [ecx+12]
	mov	DWORD PTR _curr$[ebp], edx

; 197  : 	// cout << "Root element name is " << root->name << endl;
; 198  : 
; 199  : 	for ( ; curr != NULL; curr = curr->next) {

	jmp	SHORT $L189460
$L189461:
	mov	eax, DWORD PTR _curr$[ebp]
	mov	ecx, DWORD PTR [eax+24]
	mov	DWORD PTR _curr$[ebp], ecx
$L189460:
	cmp	DWORD PTR _curr$[ebp], 0
	je	$L189462

; 200  : 
; 201  : 		if (! xmlStrcmp(curr->name, VERSION)) {

	mov	edx, DWORD PTR ?VERSION@CLicense@@2PBEB	; CLicense::VERSION
	push	edx
	mov	eax, DWORD PTR _curr$[ebp]
	mov	ecx, DWORD PTR [eax+8]
	push	ecx
	call	_xmlStrcmp
	add	esp, 8
	test	eax, eax
	jne	SHORT $L189463

; 202  : 			tmpCharPtr = xmlNodeListGetString(doc, curr->xmlChildrenNode, 1);

	push	1
	mov	edx, DWORD PTR _curr$[ebp]
	mov	eax, DWORD PTR [edx+12]
	push	eax
	mov	ecx, DWORD PTR _doc$[ebp]
	push	ecx
	call	_xmlNodeListGetString
	add	esp, 12					; 0000000cH
	mov	DWORD PTR _tmpCharPtr$[ebp], eax

; 203  : 			version = A2WBSTR((const char *)tmpCharPtr);

	push	-1
	mov	edx, DWORD PTR _tmpCharPtr$[ebp]
	push	edx
	call	?A2WBSTR@@YAPAGPBDH@Z			; A2WBSTR
	add	esp, 8
	mov	ecx, DWORD PTR _this$[ebp]
	mov	DWORD PTR [ecx+112], eax

; 204  : 			xmlFree(tmpCharPtr);

	mov	esi, esp
	mov	edx, DWORD PTR _tmpCharPtr$[ebp]
	push	edx
	mov	eax, DWORD PTR __imp__xmlFree
	call	DWORD PTR [eax]
	add	esp, 4
	cmp	esi, esp
	call	__RTC_CheckEsp

; 205  : 			continue;

	jmp	SHORT $L189461
$L189463:

; 206  : 		}
; 207  : 
; 208  : 		if (! xmlStrcmp(curr->name, LICENSER)) {

	mov	ecx, DWORD PTR ?LICENSER@CLicense@@2PBEB ; CLicense::LICENSER
	push	ecx
	mov	edx, DWORD PTR _curr$[ebp]
	mov	eax, DWORD PTR [edx+8]
	push	eax
	call	_xmlStrcmp
	add	esp, 8
	test	eax, eax
	jne	SHORT $L189465

; 209  : 			tmpCharPtr = xmlNodeListGetString(doc, curr->xmlChildrenNode, 1);

	push	1
	mov	ecx, DWORD PTR _curr$[ebp]
	mov	edx, DWORD PTR [ecx+12]
	push	edx
	mov	eax, DWORD PTR _doc$[ebp]
	push	eax
	call	_xmlNodeListGetString
	add	esp, 12					; 0000000cH
	mov	DWORD PTR _tmpCharPtr$[ebp], eax

; 210  : 			licenser = A2WBSTR((const char *)tmpCharPtr);

	push	-1
	mov	ecx, DWORD PTR _tmpCharPtr$[ebp]
	push	ecx
	call	?A2WBSTR@@YAPAGPBDH@Z			; A2WBSTR
	add	esp, 8
	mov	edx, DWORD PTR _this$[ebp]
	mov	DWORD PTR [edx+156], eax

; 211  : 			xmlFree(tmpCharPtr);

	mov	esi, esp
	mov	eax, DWORD PTR _tmpCharPtr$[ebp]
	push	eax
	mov	ecx, DWORD PTR __imp__xmlFree
	call	DWORD PTR [ecx]
	add	esp, 4
	cmp	esi, esp
	call	__RTC_CheckEsp

; 212  : 			continue;

	jmp	$L189461
$L189465:

; 213  : 		}
; 214  : 
; 215  : 		if (! xmlStrcmp(curr->name, LICENSEE)) {

	mov	edx, DWORD PTR ?LICENSEE@CLicense@@2PBEB ; CLicense::LICENSEE
	push	edx
	mov	eax, DWORD PTR _curr$[ebp]
	mov	ecx, DWORD PTR [eax+8]
	push	ecx
	call	_xmlStrcmp
	add	esp, 8
	test	eax, eax
	jne	$L189467

; 216  : 			xmlNodePtr licensee = curr->xmlChildrenNode;

	mov	edx, DWORD PTR _curr$[ebp]
	mov	eax, DWORD PTR [edx+12]
	mov	DWORD PTR _licensee$189468[ebp], eax
$L189470:

; 217  : 			while (licensee != NULL) {

	cmp	DWORD PTR _licensee$189468[ebp], 0
	je	$L189471

; 218  : 				if (! xmlStrcmp(licensee->name, COMPANY))

	mov	ecx, DWORD PTR ?COMPANY@CLicense@@2PBEB	; CLicense::COMPANY
	push	ecx
	mov	edx, DWORD PTR _licensee$189468[ebp]
	mov	eax, DWORD PTR [edx+8]
	push	eax
	call	_xmlStrcmp
	add	esp, 8
	test	eax, eax
	jne	SHORT $L189472

; 219  : 				{
; 220  : 					tmpCharPtr = xmlNodeListGetString(doc, licensee->xmlChildrenNode, 1);

	push	1
	mov	ecx, DWORD PTR _licensee$189468[ebp]
	mov	edx, DWORD PTR [ecx+12]
	push	edx
	mov	eax, DWORD PTR _doc$[ebp]
	push	eax
	call	_xmlNodeListGetString
	add	esp, 12					; 0000000cH
	mov	DWORD PTR _tmpCharPtr$[ebp], eax

; 221  : 					company = A2WBSTR((const char *)tmpCharPtr);

	push	-1
	mov	ecx, DWORD PTR _tmpCharPtr$[ebp]
	push	ecx
	call	?A2WBSTR@@YAPAGPBDH@Z			; A2WBSTR
	add	esp, 8
	mov	edx, DWORD PTR _this$[ebp]
	mov	DWORD PTR [edx+160], eax

; 222  : 					xmlFree(tmpCharPtr);

	mov	esi, esp
	mov	eax, DWORD PTR _tmpCharPtr$[ebp]
	push	eax
	mov	ecx, DWORD PTR __imp__xmlFree
	call	DWORD PTR [ecx]
	add	esp, 4
	cmp	esi, esp
	call	__RTC_CheckEsp
$L189472:

; 223  : 				}
; 224  : 				if (! xmlStrcmp(licensee->name, USER))

	mov	edx, DWORD PTR ?USER@CLicense@@2PBEB	; CLicense::USER
	push	edx
	mov	eax, DWORD PTR _licensee$189468[ebp]
	mov	ecx, DWORD PTR [eax+8]
	push	ecx
	call	_xmlStrcmp
	add	esp, 8
	test	eax, eax
	jne	SHORT $L189474

; 225  : 				{
; 226  : 					tmpCharPtr = xmlNodeListGetString(doc, licensee->xmlChildrenNode, 1);

	push	1
	mov	edx, DWORD PTR _licensee$189468[ebp]
	mov	eax, DWORD PTR [edx+12]
	push	eax
	mov	ecx, DWORD PTR _doc$[ebp]
	push	ecx
	call	_xmlNodeListGetString
	add	esp, 12					; 0000000cH
	mov	DWORD PTR _tmpCharPtr$[ebp], eax

; 227  : 					user = A2WBSTR((const char *)tmpCharPtr);

	push	-1
	mov	edx, DWORD PTR _tmpCharPtr$[ebp]
	push	edx
	call	?A2WBSTR@@YAPAGPBDH@Z			; A2WBSTR
	add	esp, 8
	mov	ecx, DWORD PTR _this$[ebp]
	mov	DWORD PTR [ecx+164], eax

; 228  : 					xmlFree(tmpCharPtr);

	mov	esi, esp
	mov	edx, DWORD PTR _tmpCharPtr$[ebp]
	push	edx
	mov	eax, DWORD PTR __imp__xmlFree
	call	DWORD PTR [eax]
	add	esp, 4
	cmp	esi, esp
	call	__RTC_CheckEsp
$L189474:

; 229  : 				}
; 230  : 				if (! xmlStrcmp(licensee->name, HOSTNAME))

	mov	ecx, DWORD PTR ?HOSTNAME@CLicense@@2PBEB ; CLicense::HOSTNAME
	push	ecx
	mov	edx, DWORD PTR _licensee$189468[ebp]
	mov	eax, DWORD PTR [edx+8]
	push	eax
	call	_xmlStrcmp
	add	esp, 8
	test	eax, eax
	jne	SHORT $L189476

; 231  : 				{
; 232  : 					tmpCharPtr = xmlNodeListGetString(doc, licensee->xmlChildrenNode, 1);

	push	1
	mov	ecx, DWORD PTR _licensee$189468[ebp]
	mov	edx, DWORD PTR [ecx+12]
	push	edx
	mov	eax, DWORD PTR _doc$[ebp]
	push	eax
	call	_xmlNodeListGetString
	add	esp, 12					; 0000000cH
	mov	DWORD PTR _tmpCharPtr$[ebp], eax

; 233  : 					hostname = A2WBSTR((const char *)tmpCharPtr);

	push	-1
	mov	ecx, DWORD PTR _tmpCharPtr$[ebp]
	push	ecx
	call	?A2WBSTR@@YAPAGPBDH@Z			; A2WBSTR
	add	esp, 8
	mov	edx, DWORD PTR _this$[ebp]
	mov	DWORD PTR [edx+168], eax

; 234  : 					xmlFree(tmpCharPtr);

	mov	esi, esp
	mov	eax, DWORD PTR _tmpCharPtr$[ebp]
	push	eax
	mov	ecx, DWORD PTR __imp__xmlFree
	call	DWORD PTR [ecx]
	add	esp, 4
	cmp	esi, esp
	call	__RTC_CheckEsp
$L189476:

; 235  : 				}
; 236  : 				licensee = licensee->next;

	mov	edx, DWORD PTR _licensee$189468[ebp]
	mov	eax, DWORD PTR [edx+24]
	mov	DWORD PTR _licensee$189468[ebp], eax

; 237  : 			}

	jmp	$L189470
$L189471:

; 238  : 			continue;

	jmp	$L189461
$L189467:

; 239  : 		}
; 240  : 
; 241  : 		if (! xmlStrcmp(curr->name, EXP_DATE)) {

	mov	ecx, DWORD PTR ?EXP_DATE@CLicense@@2PBEB ; CLicense::EXP_DATE
	push	ecx
	mov	edx, DWORD PTR _curr$[ebp]
	mov	eax, DWORD PTR [edx+8]
	push	eax
	call	_xmlStrcmp
	add	esp, 8
	test	eax, eax
	jne	$L189478

; 242  : 			xmlNodePtr date = curr->xmlChildrenNode;

	mov	ecx, DWORD PTR _curr$[ebp]
	mov	edx, DWORD PTR [ecx+12]
	mov	DWORD PTR _date$189479[ebp], edx
$L189481:

; 243  : 			while (date != NULL) {

	cmp	DWORD PTR _date$189479[ebp], 0
	je	$L189482

; 244  : 				if (! xmlStrcmp(date->name, YEAR))

	mov	eax, DWORD PTR ?YEAR@CLicense@@2PBEB	; CLicense::YEAR
	push	eax
	mov	ecx, DWORD PTR _date$189479[ebp]
	mov	edx, DWORD PTR [ecx+8]
	push	edx
	call	_xmlStrcmp
	add	esp, 8
	test	eax, eax
	jne	SHORT $L189483

; 245  : 				{
; 246  : 					tmpCharPtr = xmlNodeListGetString(doc, date->xmlChildrenNode, 1);

	push	1
	mov	eax, DWORD PTR _date$189479[ebp]
	mov	ecx, DWORD PTR [eax+12]
	push	ecx
	mov	edx, DWORD PTR _doc$[ebp]
	push	edx
	call	_xmlNodeListGetString
	add	esp, 12					; 0000000cH
	mov	DWORD PTR _tmpCharPtr$[ebp], eax

; 247  : 					expYear = atoi((char *)tmpCharPtr);

	mov	eax, DWORD PTR _tmpCharPtr$[ebp]
	push	eax
	call	_atoi
	add	esp, 4
	mov	ecx, DWORD PTR _this$[ebp]
	mov	DWORD PTR [ecx+28], eax

; 248  : 					xmlFree(tmpCharPtr);

	mov	esi, esp
	mov	edx, DWORD PTR _tmpCharPtr$[ebp]
	push	edx
	mov	eax, DWORD PTR __imp__xmlFree
	call	DWORD PTR [eax]
	add	esp, 4
	cmp	esi, esp
	call	__RTC_CheckEsp
$L189483:

; 249  : 				}
; 250  : 				if (! xmlStrcmp(date->name, MON))

	mov	ecx, DWORD PTR ?MON@CLicense@@2PBEB	; CLicense::MON
	push	ecx
	mov	edx, DWORD PTR _date$189479[ebp]
	mov	eax, DWORD PTR [edx+8]
	push	eax
	call	_xmlStrcmp
	add	esp, 8
	test	eax, eax
	jne	SHORT $L189485

; 251  : 				{
; 252  : 					tmpCharPtr = xmlNodeListGetString(doc, date->xmlChildrenNode, 1);

	push	1
	mov	ecx, DWORD PTR _date$189479[ebp]
	mov	edx, DWORD PTR [ecx+12]
	push	edx
	mov	eax, DWORD PTR _doc$[ebp]
	push	eax
	call	_xmlNodeListGetString
	add	esp, 12					; 0000000cH
	mov	DWORD PTR _tmpCharPtr$[ebp], eax

; 253  : 					expMon = atoi((char *)tmpCharPtr);

	mov	ecx, DWORD PTR _tmpCharPtr$[ebp]
	push	ecx
	call	_atoi
	add	esp, 4
	mov	edx, DWORD PTR _this$[ebp]
	mov	DWORD PTR [edx+32], eax

; 254  : 					xmlFree(tmpCharPtr);

	mov	esi, esp
	mov	eax, DWORD PTR _tmpCharPtr$[ebp]
	push	eax
	mov	ecx, DWORD PTR __imp__xmlFree
	call	DWORD PTR [ecx]
	add	esp, 4
	cmp	esi, esp
	call	__RTC_CheckEsp
$L189485:

; 255  : 				}
; 256  : 				if (! xmlStrcmp(date->name, DAY))

	mov	edx, DWORD PTR ?DAY@CLicense@@2PBEB	; CLicense::DAY
	push	edx
	mov	eax, DWORD PTR _date$189479[ebp]
	mov	ecx, DWORD PTR [eax+8]
	push	ecx
	call	_xmlStrcmp
	add	esp, 8
	test	eax, eax
	jne	SHORT $L189487

; 257  : 				{
; 258  : 					tmpCharPtr = xmlNodeListGetString(doc, date->xmlChildrenNode, 1);

	push	1
	mov	edx, DWORD PTR _date$189479[ebp]
	mov	eax, DWORD PTR [edx+12]
	push	eax
	mov	ecx, DWORD PTR _doc$[ebp]
	push	ecx
	call	_xmlNodeListGetString
	add	esp, 12					; 0000000cH
	mov	DWORD PTR _tmpCharPtr$[ebp], eax

; 259  : 					expDay = atoi((char *)tmpCharPtr);

	mov	edx, DWORD PTR _tmpCharPtr$[ebp]
	push	edx
	call	_atoi
	add	esp, 4
	mov	ecx, DWORD PTR _this$[ebp]
	mov	DWORD PTR [ecx+36], eax

; 260  : 					xmlFree(tmpCharPtr);

	mov	esi, esp
	mov	edx, DWORD PTR _tmpCharPtr$[ebp]
	push	edx
	mov	eax, DWORD PTR __imp__xmlFree
	call	DWORD PTR [eax]
	add	esp, 4
	cmp	esi, esp
	call	__RTC_CheckEsp
$L189487:

; 261  : 				}
; 262  : 				date = date->next;

	mov	ecx, DWORD PTR _date$189479[ebp]
	mov	edx, DWORD PTR [ecx+24]
	mov	DWORD PTR _date$189479[ebp], edx

; 263  : 			}

	jmp	$L189481
$L189482:

; 264  : 			continue;

	jmp	$L189461
$L189478:

; 265  : 		}
; 266  : 
; 267  : 		if (! xmlStrcmp(curr->name, MAINT_EXP_DATE)) {

	mov	eax, DWORD PTR ?MAINT_EXP_DATE@CLicense@@2PBEB ; CLicense::MAINT_EXP_DATE
	push	eax
	mov	ecx, DWORD PTR _curr$[ebp]
	mov	edx, DWORD PTR [ecx+8]
	push	edx
	call	_xmlStrcmp
	add	esp, 8
	test	eax, eax
	jne	$L189489

; 268  : 			xmlNodePtr date = curr->xmlChildrenNode;

	mov	eax, DWORD PTR _curr$[ebp]
	mov	ecx, DWORD PTR [eax+12]
	mov	DWORD PTR _date$189490[ebp], ecx
$L189492:

; 269  : 			while (date != NULL) {

	cmp	DWORD PTR _date$189490[ebp], 0
	je	$L189493

; 270  : 				if (! xmlStrcmp(date->name, YEAR))

	mov	edx, DWORD PTR ?YEAR@CLicense@@2PBEB	; CLicense::YEAR
	push	edx
	mov	eax, DWORD PTR _date$189490[ebp]
	mov	ecx, DWORD PTR [eax+8]
	push	ecx
	call	_xmlStrcmp
	add	esp, 8
	test	eax, eax
	jne	SHORT $L189494

; 271  : 				{
; 272  : 					tmpCharPtr = xmlNodeListGetString(doc, date->xmlChildrenNode, 1);

	push	1
	mov	edx, DWORD PTR _date$189490[ebp]
	mov	eax, DWORD PTR [edx+12]
	push	eax
	mov	ecx, DWORD PTR _doc$[ebp]
	push	ecx
	call	_xmlNodeListGetString
	add	esp, 12					; 0000000cH
	mov	DWORD PTR _tmpCharPtr$[ebp], eax

; 273  : 					maintExpYear = atoi((char *)tmpCharPtr);

	mov	edx, DWORD PTR _tmpCharPtr$[ebp]
	push	edx
	call	_atoi
	add	esp, 4
	mov	ecx, DWORD PTR _this$[ebp]
	mov	DWORD PTR [ecx+52], eax

; 274  : 					xmlFree(tmpCharPtr);

	mov	esi, esp
	mov	edx, DWORD PTR _tmpCharPtr$[ebp]
	push	edx
	mov	eax, DWORD PTR __imp__xmlFree
	call	DWORD PTR [eax]
	add	esp, 4
	cmp	esi, esp
	call	__RTC_CheckEsp
$L189494:

; 275  : 				}
; 276  : 				if (! xmlStrcmp(date->name, MON))

	mov	ecx, DWORD PTR ?MON@CLicense@@2PBEB	; CLicense::MON
	push	ecx
	mov	edx, DWORD PTR _date$189490[ebp]
	mov	eax, DWORD PTR [edx+8]
	push	eax
	call	_xmlStrcmp
	add	esp, 8
	test	eax, eax
	jne	SHORT $L189496

; 277  : 				{
; 278  : 					tmpCharPtr = xmlNodeListGetString(doc, date->xmlChildrenNode, 1);

	push	1
	mov	ecx, DWORD PTR _date$189490[ebp]
	mov	edx, DWORD PTR [ecx+12]
	push	edx
	mov	eax, DWORD PTR _doc$[ebp]
	push	eax
	call	_xmlNodeListGetString
	add	esp, 12					; 0000000cH
	mov	DWORD PTR _tmpCharPtr$[ebp], eax

; 279  : 					maintExpMon = atoi((char *)tmpCharPtr);

	mov	ecx, DWORD PTR _tmpCharPtr$[ebp]
	push	ecx
	call	_atoi
	add	esp, 4
	mov	edx, DWORD PTR _this$[ebp]
	mov	DWORD PTR [edx+56], eax

; 280  : 					xmlFree(tmpCharPtr);

	mov	esi, esp
	mov	eax, DWORD PTR _tmpCharPtr$[ebp]
	push	eax
	mov	ecx, DWORD PTR __imp__xmlFree
	call	DWORD PTR [ecx]
	add	esp, 4
	cmp	esi, esp
	call	__RTC_CheckEsp
$L189496:

; 281  : 				}
; 282  : 				if (! xmlStrcmp(date->name, DAY))

	mov	edx, DWORD PTR ?DAY@CLicense@@2PBEB	; CLicense::DAY
	push	edx
	mov	eax, DWORD PTR _date$189490[ebp]
	mov	ecx, DWORD PTR [eax+8]
	push	ecx
	call	_xmlStrcmp
	add	esp, 8
	test	eax, eax
	jne	SHORT $L189498

; 283  : 				{
; 284  : 					tmpCharPtr = xmlNodeListGetString(doc, date->xmlChildrenNode, 1);

	push	1
	mov	edx, DWORD PTR _date$189490[ebp]
	mov	eax, DWORD PTR [edx+12]
	push	eax
	mov	ecx, DWORD PTR _doc$[ebp]
	push	ecx
	call	_xmlNodeListGetString
	add	esp, 12					; 0000000cH
	mov	DWORD PTR _tmpCharPtr$[ebp], eax

; 285  : 					maintExpDay = atoi((char *)tmpCharPtr);

	mov	edx, DWORD PTR _tmpCharPtr$[ebp]
	push	edx
	call	_atoi
	add	esp, 4
	mov	ecx, DWORD PTR _this$[ebp]
	mov	DWORD PTR [ecx+60], eax

; 286  : 					xmlFree(tmpCharPtr);

	mov	esi, esp
	mov	edx, DWORD PTR _tmpCharPtr$[ebp]
	push	edx
	mov	eax, DWORD PTR __imp__xmlFree
	call	DWORD PTR [eax]
	add	esp, 4
	cmp	esi, esp
	call	__RTC_CheckEsp
$L189498:

; 287  : 				}
; 288  : 				date = date->next;

	mov	ecx, DWORD PTR _date$189490[ebp]
	mov	edx, DWORD PTR [ecx+24]
	mov	DWORD PTR _date$189490[ebp], edx

; 289  : 			}

	jmp	$L189492
$L189493:

; 290  : 			continue;

	jmp	$L189461
$L189489:

; 291  : 		}
; 292  : 
; 293  : 		if (! xmlStrcmp(curr->name, ISSUE_DATE)) {

	mov	eax, DWORD PTR ?ISSUE_DATE@CLicense@@2PBEB ; CLicense::ISSUE_DATE
	push	eax
	mov	ecx, DWORD PTR _curr$[ebp]
	mov	edx, DWORD PTR [ecx+8]
	push	edx
	call	_xmlStrcmp
	add	esp, 8
	test	eax, eax
	jne	$L189500

; 294  : 			xmlNodePtr date = curr->xmlChildrenNode;

	mov	eax, DWORD PTR _curr$[ebp]
	mov	ecx, DWORD PTR [eax+12]
	mov	DWORD PTR _date$189501[ebp], ecx
$L189503:

; 295  : 			while (date != NULL) {

	cmp	DWORD PTR _date$189501[ebp], 0
	je	$L189504

; 296  : 				if (! xmlStrcmp(date->name, YEAR))

	mov	edx, DWORD PTR ?YEAR@CLicense@@2PBEB	; CLicense::YEAR
	push	edx
	mov	eax, DWORD PTR _date$189501[ebp]
	mov	ecx, DWORD PTR [eax+8]
	push	ecx
	call	_xmlStrcmp
	add	esp, 8
	test	eax, eax
	jne	SHORT $L189505

; 297  : 				{
; 298  : 					tmpCharPtr = xmlNodeListGetString(doc, date->xmlChildrenNode, 1);

	push	1
	mov	edx, DWORD PTR _date$189501[ebp]
	mov	eax, DWORD PTR [edx+12]
	push	eax
	mov	ecx, DWORD PTR _doc$[ebp]
	push	ecx
	call	_xmlNodeListGetString
	add	esp, 12					; 0000000cH
	mov	DWORD PTR _tmpCharPtr$[ebp], eax

; 299  : 					issYear = atoi((char *)tmpCharPtr);

	mov	edx, DWORD PTR _tmpCharPtr$[ebp]
	push	edx
	call	_atoi
	add	esp, 4
	mov	ecx, DWORD PTR _this$[ebp]
	mov	DWORD PTR [ecx+40], eax

; 300  : 					xmlFree(tmpCharPtr);

	mov	esi, esp
	mov	edx, DWORD PTR _tmpCharPtr$[ebp]
	push	edx
	mov	eax, DWORD PTR __imp__xmlFree
	call	DWORD PTR [eax]
	add	esp, 4
	cmp	esi, esp
	call	__RTC_CheckEsp
$L189505:

; 301  : 				}
; 302  : 				if (! xmlStrcmp(date->name, MON))

	mov	ecx, DWORD PTR ?MON@CLicense@@2PBEB	; CLicense::MON
	push	ecx
	mov	edx, DWORD PTR _date$189501[ebp]
	mov	eax, DWORD PTR [edx+8]
	push	eax
	call	_xmlStrcmp
	add	esp, 8
	test	eax, eax
	jne	SHORT $L189507

; 303  : 				{
; 304  : 					tmpCharPtr = xmlNodeListGetString(doc, date->xmlChildrenNode, 1);

	push	1
	mov	ecx, DWORD PTR _date$189501[ebp]
	mov	edx, DWORD PTR [ecx+12]
	push	edx
	mov	eax, DWORD PTR _doc$[ebp]
	push	eax
	call	_xmlNodeListGetString
	add	esp, 12					; 0000000cH
	mov	DWORD PTR _tmpCharPtr$[ebp], eax

; 305  : 					issMon = atoi((char *)tmpCharPtr);

	mov	ecx, DWORD PTR _tmpCharPtr$[ebp]
	push	ecx
	call	_atoi
	add	esp, 4
	mov	edx, DWORD PTR _this$[ebp]
	mov	DWORD PTR [edx+44], eax

; 306  : 					xmlFree(tmpCharPtr);

	mov	esi, esp
	mov	eax, DWORD PTR _tmpCharPtr$[ebp]
	push	eax
	mov	ecx, DWORD PTR __imp__xmlFree
	call	DWORD PTR [ecx]
	add	esp, 4
	cmp	esi, esp
	call	__RTC_CheckEsp
$L189507:

; 307  : 				}
; 308  : 				if (! xmlStrcmp(date->name, DAY))

	mov	edx, DWORD PTR ?DAY@CLicense@@2PBEB	; CLicense::DAY
	push	edx
	mov	eax, DWORD PTR _date$189501[ebp]
	mov	ecx, DWORD PTR [eax+8]
	push	ecx
	call	_xmlStrcmp
	add	esp, 8
	test	eax, eax
	jne	SHORT $L189509

; 309  : 				{
; 310  : 					tmpCharPtr = xmlNodeListGetString(doc, date->xmlChildrenNode, 1);

	push	1
	mov	edx, DWORD PTR _date$189501[ebp]
	mov	eax, DWORD PTR [edx+12]
	push	eax
	mov	ecx, DWORD PTR _doc$[ebp]
	push	ecx
	call	_xmlNodeListGetString
	add	esp, 12					; 0000000cH
	mov	DWORD PTR _tmpCharPtr$[ebp], eax

; 311  : 					issDay = atoi((char *)tmpCharPtr);

	mov	edx, DWORD PTR _tmpCharPtr$[ebp]
	push	edx
	call	_atoi
	add	esp, 4
	mov	ecx, DWORD PTR _this$[ebp]
	mov	DWORD PTR [ecx+48], eax

; 312  : 					xmlFree(tmpCharPtr);

	mov	esi, esp
	mov	edx, DWORD PTR _tmpCharPtr$[ebp]
	push	edx
	mov	eax, DWORD PTR __imp__xmlFree
	call	DWORD PTR [eax]
	add	esp, 4
	cmp	esi, esp
	call	__RTC_CheckEsp
$L189509:

; 313  : 				}
; 314  : 				date = date->next;

	mov	ecx, DWORD PTR _date$189501[ebp]
	mov	edx, DWORD PTR [ecx+24]
	mov	DWORD PTR _date$189501[ebp], edx

; 315  : 			}

	jmp	$L189503
$L189504:

; 316  : 			continue;

	jmp	$L189461
$L189500:

; 317  : 		}
; 318  : 
; 319  : 		if (! xmlStrcmp(curr->name, OPERATIONS)) {

	mov	eax, DWORD PTR ?OPERATIONS@CLicense@@2PBEB ; CLicense::OPERATIONS
	push	eax
	mov	ecx, DWORD PTR _curr$[ebp]
	mov	edx, DWORD PTR [ecx+8]
	push	edx
	call	_xmlStrcmp
	add	esp, 8
	test	eax, eax
	jne	$L189511

; 320  : 			xmlNodePtr op = curr->xmlChildrenNode;

	mov	eax, DWORD PTR _curr$[ebp]
	mov	ecx, DWORD PTR [eax+12]
	mov	DWORD PTR _op$189512[ebp], ecx
$L189514:

; 321  : 			while (op != NULL) {

	cmp	DWORD PTR _op$189512[ebp], 0
	je	$L189515

; 322  : 				int tmpInt;
; 323  : 
; 324  : 				if (op->xmlChildrenNode != NULL)

	mov	edx, DWORD PTR _op$189512[ebp]
	cmp	DWORD PTR [edx+12], 0
	je	$L189517

; 325  : 				{
; 326  : 					tmpCharPtr = xmlNodeListGetString(doc, op->xmlChildrenNode, 1);

	push	1
	mov	eax, DWORD PTR _op$189512[ebp]
	mov	ecx, DWORD PTR [eax+12]
	push	ecx
	mov	edx, DWORD PTR _doc$[ebp]
	push	edx
	call	_xmlNodeListGetString
	add	esp, 12					; 0000000cH
	mov	DWORD PTR _tmpCharPtr$[ebp], eax

; 327  : 					tmpInt = atoi((char *)tmpCharPtr);

	mov	eax, DWORD PTR _tmpCharPtr$[ebp]
	push	eax
	call	_atoi
	add	esp, 4
	mov	DWORD PTR _tmpInt$189516[ebp], eax

; 328  : 					xmlFree(tmpCharPtr);

	mov	esi, esp
	mov	ecx, DWORD PTR _tmpCharPtr$[ebp]
	push	ecx
	mov	edx, DWORD PTR __imp__xmlFree
	call	DWORD PTR [edx]
	add	esp, 4
	cmp	esi, esp
	call	__RTC_CheckEsp

; 329  : 					if (! xmlStrcmp(op->name, VERIFY))

	mov	eax, DWORD PTR ?VERIFY@CLicense@@2PBEB	; CLicense::VERIFY
	push	eax
	mov	ecx, DWORD PTR _op$189512[ebp]
	mov	edx, DWORD PTR [ecx+8]
	push	edx
	call	_xmlStrcmp
	add	esp, 8
	test	eax, eax
	jne	SHORT $L189519

; 330  : 						isVerifyAllowed = tmpInt;

	mov	eax, DWORD PTR _this$[ebp]
	mov	ecx, DWORD PTR _tmpInt$189516[ebp]
	mov	DWORD PTR [eax+64], ecx
$L189519:

; 331  : 
; 332  : 					if (! xmlStrcmp(op->name, CREATE))

	mov	edx, DWORD PTR ?CREATE@CLicense@@2PBEB	; CLicense::CREATE
	push	edx
	mov	eax, DWORD PTR _op$189512[ebp]
	mov	ecx, DWORD PTR [eax+8]
	push	ecx
	call	_xmlStrcmp
	add	esp, 8
	test	eax, eax
	jne	SHORT $L189520

; 333  : 						isSignAllowed = tmpInt;

	mov	edx, DWORD PTR _this$[ebp]
	mov	eax, DWORD PTR _tmpInt$189516[ebp]
	mov	DWORD PTR [edx+68], eax
$L189520:

; 334  : 
; 335  : 					if (! xmlStrcmp(op->name, ENCRYPT))

	mov	ecx, DWORD PTR ?ENCRYPT@CLicense@@2PBEB	; CLicense::ENCRYPT
	push	ecx
	mov	edx, DWORD PTR _op$189512[ebp]
	mov	eax, DWORD PTR [edx+8]
	push	eax
	call	_xmlStrcmp
	add	esp, 8
	test	eax, eax
	jne	SHORT $L189521

; 336  : 						isEncryptAllowed = tmpInt;

	mov	ecx, DWORD PTR _this$[ebp]
	mov	edx, DWORD PTR _tmpInt$189516[ebp]
	mov	DWORD PTR [ecx+72], edx
$L189521:

; 337  : 
; 338  : 					if (! xmlStrcmp(op->name, DECRYPT))

	mov	eax, DWORD PTR ?DECRYPT@CLicense@@2PBEB	; CLicense::DECRYPT
	push	eax
	mov	ecx, DWORD PTR _op$189512[ebp]
	mov	edx, DWORD PTR [ecx+8]
	push	edx
	call	_xmlStrcmp
	add	esp, 8
	test	eax, eax
	jne	SHORT $L189522

; 339  : 						isDecryptAllowed = tmpInt;

	mov	eax, DWORD PTR _this$[ebp]
	mov	ecx, DWORD PTR _tmpInt$189516[ebp]
	mov	DWORD PTR [eax+76], ecx
$L189522:

; 340  : 
; 341  : 					if (! xmlStrcmp(op->name, SECURESIGN))

	mov	edx, DWORD PTR ?SECURESIGN@CLicense@@2PBEB ; CLicense::SECURESIGN
	push	edx
	mov	eax, DWORD PTR _op$189512[ebp]
	mov	ecx, DWORD PTR [eax+8]
	push	ecx
	call	_xmlStrcmp
	add	esp, 8
	test	eax, eax
	jne	SHORT $L189523

; 342  : 						isSecureSignAllowed = tmpInt;

	mov	edx, DWORD PTR _this$[ebp]
	mov	eax, DWORD PTR _tmpInt$189516[ebp]
	mov	DWORD PTR [edx+80], eax
$L189523:

; 343  : 
; 344  : 					if (! xmlStrcmp(op->name, SECURESIGNPROFESSIONAL))

	mov	ecx, DWORD PTR ?SECURESIGNPROFESSIONAL@CLicense@@2PBEB ; CLicense::SECURESIGNPROFESSIONAL
	push	ecx
	mov	edx, DWORD PTR _op$189512[ebp]
	mov	eax, DWORD PTR [edx+8]
	push	eax
	call	_xmlStrcmp
	add	esp, 8
	test	eax, eax
	jne	SHORT $L189524

; 345  : 						isSecureSignProfessionalAllowed = tmpInt;

	mov	ecx, DWORD PTR _this$[ebp]
	mov	edx, DWORD PTR _tmpInt$189516[ebp]
	mov	DWORD PTR [ecx+84], edx
$L189524:

; 346  : 
; 347  : 					if (! xmlStrcmp(op->name, SECURESIGNENTERPRISE))

	mov	eax, DWORD PTR ?SECURESIGNENTERPRISE@CLicense@@2PBEB ; CLicense::SECURESIGNENTERPRISE
	push	eax
	mov	ecx, DWORD PTR _op$189512[ebp]
	mov	edx, DWORD PTR [ecx+8]
	push	edx
	call	_xmlStrcmp
	add	esp, 8
	test	eax, eax
	jne	SHORT $L189525

; 348  : 						isSecureSignEnterpriseAllowed = tmpInt;

	mov	eax, DWORD PTR _this$[ebp]
	mov	ecx, DWORD PTR _tmpInt$189516[ebp]
	mov	DWORD PTR [eax+88], ecx
$L189525:

; 349  : 
; 350  : 					if (! xmlStrcmp(op->name, SECURESIGNSERVER))

	mov	edx, DWORD PTR ?SECURESIGNSERVER@CLicense@@2PBEB ; CLicense::SECURESIGNSERVER
	push	edx
	mov	eax, DWORD PTR _op$189512[ebp]
	mov	ecx, DWORD PTR [eax+8]
	push	ecx
	call	_xmlStrcmp
	add	esp, 8
	test	eax, eax
	jne	SHORT $L189517

; 351  : 						isSecureSignServerAllowed = tmpInt;

	mov	edx, DWORD PTR _this$[ebp]
	mov	eax, DWORD PTR _tmpInt$189516[ebp]
	mov	DWORD PTR [edx+92], eax
$L189517:

; 352  : 				}
; 353  : 				op = op->next;

	mov	ecx, DWORD PTR _op$189512[ebp]
	mov	edx, DWORD PTR [ecx+24]
	mov	DWORD PTR _op$189512[ebp], edx

; 354  : 			}

	jmp	$L189514
$L189515:

; 355  : 			continue;

	jmp	$L189461
$L189511:

; 356  : 		}
; 357  : 
; 358  : 		if (! xmlStrcmp(curr->name, TYPE)) {

	mov	eax, DWORD PTR ?TYPE@CLicense@@2PBEB	; CLicense::TYPE
	push	eax
	mov	ecx, DWORD PTR _curr$[ebp]
	mov	edx, DWORD PTR [ecx+8]
	push	edx
	call	_xmlStrcmp
	add	esp, 8
	test	eax, eax
	jne	$L189527

; 359  : 			xmlNodePtr type = curr->xmlChildrenNode;

	mov	eax, DWORD PTR _curr$[ebp]
	mov	ecx, DWORD PTR [eax+12]
	mov	DWORD PTR _type$189528[ebp], ecx
$L189530:

; 360  : 			while (type != NULL) {

	cmp	DWORD PTR _type$189528[ebp], 0
	je	$L189531

; 361  : 				int tmpInt;
; 362  : 
; 363  : 				if (type->xmlChildrenNode != NULL)

	mov	edx, DWORD PTR _type$189528[ebp]
	cmp	DWORD PTR [edx+12], 0
	je	$L189533

; 364  : 				{
; 365  : 					tmpCharPtr = xmlNodeListGetString(doc, type->xmlChildrenNode, 1);

	push	1
	mov	eax, DWORD PTR _type$189528[ebp]
	mov	ecx, DWORD PTR [eax+12]
	push	ecx
	mov	edx, DWORD PTR _doc$[ebp]
	push	edx
	call	_xmlNodeListGetString
	add	esp, 12					; 0000000cH
	mov	DWORD PTR _tmpCharPtr$[ebp], eax

; 366  : 					tmpInt = atoi((char *)tmpCharPtr);

	mov	eax, DWORD PTR _tmpCharPtr$[ebp]
	push	eax
	call	_atoi
	add	esp, 4
	mov	DWORD PTR _tmpInt$189532[ebp], eax

; 367  : 					xmlFree(tmpCharPtr);

	mov	esi, esp
	mov	ecx, DWORD PTR _tmpCharPtr$[ebp]
	push	ecx
	mov	edx, DWORD PTR __imp__xmlFree
	call	DWORD PTR [edx]
	add	esp, 4
	cmp	esi, esp
	call	__RTC_CheckEsp

; 368  : 
; 369  : 					if (! xmlStrcmp(type->name, SERVER))

	mov	eax, DWORD PTR ?SERVER@CLicense@@2PBEB	; CLicense::SERVER
	push	eax
	mov	ecx, DWORD PTR _type$189528[ebp]
	mov	edx, DWORD PTR [ecx+8]
	push	edx
	call	_xmlStrcmp
	add	esp, 8
	test	eax, eax
	jne	SHORT $L189535

; 370  : 						isServerLic = tmpInt;

	mov	eax, DWORD PTR _this$[ebp]
	mov	ecx, DWORD PTR _tmpInt$189532[ebp]
	mov	DWORD PTR [eax+96], ecx
$L189535:

; 371  : 
; 372  : 					if (! xmlStrcmp(type->name, CLIENT))

	mov	edx, DWORD PTR ?CLIENT@CLicense@@2PBEB	; CLicense::CLIENT
	push	edx
	mov	eax, DWORD PTR _type$189528[ebp]
	mov	ecx, DWORD PTR [eax+8]
	push	ecx
	call	_xmlStrcmp
	add	esp, 8
	test	eax, eax
	jne	SHORT $L189536

; 373  : 						isClientLic = tmpInt;

	mov	edx, DWORD PTR _this$[ebp]
	mov	eax, DWORD PTR _tmpInt$189532[ebp]
	mov	DWORD PTR [edx+100], eax
$L189536:

; 374  : 
; 375  : 					if (! xmlStrcmp(type->name, DEMO))

	mov	ecx, DWORD PTR ?DEMO@CLicense@@2PBEB	; CLicense::DEMO
	push	ecx
	mov	edx, DWORD PTR _type$189528[ebp]
	mov	eax, DWORD PTR [edx+8]
	push	eax
	call	_xmlStrcmp
	add	esp, 8
	test	eax, eax
	jne	SHORT $L189537

; 376  : 						isDemoLic = tmpInt;

	mov	ecx, DWORD PTR _this$[ebp]
	mov	edx, DWORD PTR _tmpInt$189532[ebp]
	mov	DWORD PTR [ecx+104], edx
$L189537:

; 377  : 
; 378  : 					if (! xmlStrcmp(type->name, DEVELOPMENT))

	mov	eax, DWORD PTR ?DEVELOPMENT@CLicense@@2PBEB ; CLicense::DEVELOPMENT
	push	eax
	mov	ecx, DWORD PTR _type$189528[ebp]
	mov	edx, DWORD PTR [ecx+8]
	push	edx
	call	_xmlStrcmp
	add	esp, 8
	test	eax, eax
	jne	SHORT $L189533

; 379  : 						isDevelopmentLic = tmpInt;

	mov	eax, DWORD PTR _this$[ebp]
	mov	ecx, DWORD PTR _tmpInt$189532[ebp]
	mov	DWORD PTR [eax+108], ecx
$L189533:

; 380  : 				}
; 381  : 
; 382  : 				type = type->next;

	mov	edx, DWORD PTR _type$189528[ebp]
	mov	eax, DWORD PTR [edx+24]
	mov	DWORD PTR _type$189528[ebp], eax

; 383  : 			}

	jmp	$L189530
$L189531:

; 384  : 			continue;

	jmp	$L189461
$L189527:

; 385  : 		}
; 386  : 
; 387  : 		if (! xmlStrcmp(curr->name, LICENSE_KEY)) {

	mov	ecx, DWORD PTR ?LICENSE_KEY@CLicense@@2PBEB ; CLicense::LICENSE_KEY
	push	ecx
	mov	edx, DWORD PTR _curr$[ebp]
	mov	eax, DWORD PTR [edx+8]
	push	eax
	call	_xmlStrcmp
	add	esp, 8
	test	eax, eax
	jne	SHORT $L189539

; 388  : 			tmpCharPtr = xmlNodeListGetString(doc, curr->xmlChildrenNode, 1);

	push	1
	mov	ecx, DWORD PTR _curr$[ebp]
	mov	edx, DWORD PTR [ecx+12]
	push	edx
	mov	eax, DWORD PTR _doc$[ebp]
	push	eax
	call	_xmlNodeListGetString
	add	esp, 12					; 0000000cH
	mov	DWORD PTR _tmpCharPtr$[ebp], eax

; 389  : 			licenseKey = A2WBSTR((const char *)tmpCharPtr);

	push	-1
	mov	ecx, DWORD PTR _tmpCharPtr$[ebp]
	push	ecx
	call	?A2WBSTR@@YAPAGPBDH@Z			; A2WBSTR
	add	esp, 8
	mov	edx, DWORD PTR _this$[ebp]
	mov	DWORD PTR [edx+116], eax

; 390  : 			xmlFree(tmpCharPtr);

	mov	esi, esp
	mov	eax, DWORD PTR _tmpCharPtr$[ebp]
	push	eax
	mov	ecx, DWORD PTR __imp__xmlFree
	call	DWORD PTR [ecx]
	add	esp, 4
	cmp	esi, esp
	call	__RTC_CheckEsp

; 391  : 			continue;

	jmp	$L189461
$L189539:

; 392  : 		}
; 393  : 
; 394  : 		if (! xmlStrcmp(curr->name, NUM_LICENSE)) {

	mov	edx, DWORD PTR ?NUM_LICENSE@CLicense@@2PBEB ; CLicense::NUM_LICENSE
	push	edx
	mov	eax, DWORD PTR _curr$[ebp]
	mov	ecx, DWORD PTR [eax+8]
	push	ecx
	call	_xmlStrcmp
	add	esp, 8
	test	eax, eax
	jne	SHORT $L189541

; 395  : 			tmpCharPtr = xmlNodeListGetString(doc, curr->xmlChildrenNode, 1);

	push	1
	mov	edx, DWORD PTR _curr$[ebp]
	mov	eax, DWORD PTR [edx+12]
	push	eax
	mov	ecx, DWORD PTR _doc$[ebp]
	push	ecx
	call	_xmlNodeListGetString
	add	esp, 12					; 0000000cH
	mov	DWORD PTR _tmpCharPtr$[ebp], eax

; 396  : 			num_of_lic = atoi((char *)tmpCharPtr);

	mov	edx, DWORD PTR _tmpCharPtr$[ebp]
	push	edx
	call	_atoi
	add	esp, 4
	mov	ecx, DWORD PTR _this$[ebp]
	mov	DWORD PTR [ecx+128], eax

; 397  : 			xmlFree(tmpCharPtr);

	mov	esi, esp
	mov	edx, DWORD PTR _tmpCharPtr$[ebp]
	push	edx
	mov	eax, DWORD PTR __imp__xmlFree
	call	DWORD PTR [eax]
	add	esp, 4
	cmp	esi, esp
	call	__RTC_CheckEsp

; 398  : 			continue;

	jmp	$L189461
$L189541:

; 399  : 		}
; 400  : 		
; 401  : 		if (! xmlStrcmp(curr->name, WINDOWS_CLIENT)) {

	mov	ecx, DWORD PTR ?WINDOWS_CLIENT@CLicense@@2PBEB ; CLicense::WINDOWS_CLIENT
	push	ecx
	mov	edx, DWORD PTR _curr$[ebp]
	mov	eax, DWORD PTR [edx+8]
	push	eax
	call	_xmlStrcmp
	add	esp, 8
	test	eax, eax
	jne	SHORT $L189543

; 402  : 			tmpCharPtr = xmlNodeListGetString(doc, curr->xmlChildrenNode, 1);

	push	1
	mov	ecx, DWORD PTR _curr$[ebp]
	mov	edx, DWORD PTR [ecx+12]
	push	edx
	mov	eax, DWORD PTR _doc$[ebp]
	push	eax
	call	_xmlNodeListGetString
	add	esp, 12					; 0000000cH
	mov	DWORD PTR _tmpCharPtr$[ebp], eax

; 403  : 			windowsClient = atoi((char *)tmpCharPtr);

	mov	ecx, DWORD PTR _tmpCharPtr$[ebp]
	push	ecx
	call	_atoi
	add	esp, 4
	mov	edx, DWORD PTR _this$[ebp]
	mov	DWORD PTR [edx+132], eax

; 404  : 			xmlFree(tmpCharPtr);

	mov	esi, esp
	mov	eax, DWORD PTR _tmpCharPtr$[ebp]
	push	eax
	mov	ecx, DWORD PTR __imp__xmlFree
	call	DWORD PTR [ecx]
	add	esp, 4
	cmp	esi, esp
	call	__RTC_CheckEsp

; 405  : 			continue;

	jmp	$L189461
$L189543:

; 406  : 		}
; 407  : 
; 408  : 		if (! xmlStrcmp(curr->name, SOLARIS_CLIENT)) {

	mov	edx, DWORD PTR ?SOLARIS_CLIENT@CLicense@@2PBEB ; CLicense::SOLARIS_CLIENT
	push	edx
	mov	eax, DWORD PTR _curr$[ebp]
	mov	ecx, DWORD PTR [eax+8]
	push	ecx
	call	_xmlStrcmp
	add	esp, 8
	test	eax, eax
	jne	SHORT $L189545

; 409  : 			tmpCharPtr = xmlNodeListGetString(doc, curr->xmlChildrenNode, 1);

	push	1
	mov	edx, DWORD PTR _curr$[ebp]
	mov	eax, DWORD PTR [edx+12]
	push	eax
	mov	ecx, DWORD PTR _doc$[ebp]
	push	ecx
	call	_xmlNodeListGetString
	add	esp, 12					; 0000000cH
	mov	DWORD PTR _tmpCharPtr$[ebp], eax

; 410  : 			solarisClient = atoi((char *)tmpCharPtr);

	mov	edx, DWORD PTR _tmpCharPtr$[ebp]
	push	edx
	call	_atoi
	add	esp, 4
	mov	ecx, DWORD PTR _this$[ebp]
	mov	DWORD PTR [ecx+144], eax

; 411  : 			xmlFree(tmpCharPtr);

	mov	esi, esp
	mov	edx, DWORD PTR _tmpCharPtr$[ebp]
	push	edx
	mov	eax, DWORD PTR __imp__xmlFree
	call	DWORD PTR [eax]
	add	esp, 4
	cmp	esi, esp
	call	__RTC_CheckEsp

; 412  : 			continue;

	jmp	$L189461
$L189545:

; 413  : 		}
; 414  : 		if (! xmlStrcmp(curr->name, LINUX_CLIENT)) {

	mov	ecx, DWORD PTR ?LINUX_CLIENT@CLicense@@2PBEB ; CLicense::LINUX_CLIENT
	push	ecx
	mov	edx, DWORD PTR _curr$[ebp]
	mov	eax, DWORD PTR [edx+8]
	push	eax
	call	_xmlStrcmp
	add	esp, 8
	test	eax, eax
	jne	SHORT $L189547

; 415  : 			tmpCharPtr = xmlNodeListGetString(doc, curr->xmlChildrenNode, 1);

	push	1
	mov	ecx, DWORD PTR _curr$[ebp]
	mov	edx, DWORD PTR [ecx+12]
	push	edx
	mov	eax, DWORD PTR _doc$[ebp]
	push	eax
	call	_xmlNodeListGetString
	add	esp, 12					; 0000000cH
	mov	DWORD PTR _tmpCharPtr$[ebp], eax

; 416  : 			linuxClient = atoi((char *)tmpCharPtr);

	mov	ecx, DWORD PTR _tmpCharPtr$[ebp]
	push	ecx
	call	_atoi
	add	esp, 4
	mov	edx, DWORD PTR _this$[ebp]
	mov	DWORD PTR [edx+136], eax

; 417  : 			xmlFree(tmpCharPtr);

	mov	esi, esp
	mov	eax, DWORD PTR _tmpCharPtr$[ebp]
	push	eax
	mov	ecx, DWORD PTR __imp__xmlFree
	call	DWORD PTR [ecx]
	add	esp, 4
	cmp	esi, esp
	call	__RTC_CheckEsp

; 418  : 			continue;

	jmp	$L189461
$L189547:

; 419  : 		}
; 420  : 		if (! xmlStrcmp(curr->name, MAC_CLIENT)) {

	mov	edx, DWORD PTR ?MAC_CLIENT@CLicense@@2PBEB ; CLicense::MAC_CLIENT
	push	edx
	mov	eax, DWORD PTR _curr$[ebp]
	mov	ecx, DWORD PTR [eax+8]
	push	ecx
	call	_xmlStrcmp
	add	esp, 8
	test	eax, eax
	jne	SHORT $L189549

; 421  : 			tmpCharPtr = xmlNodeListGetString(doc, curr->xmlChildrenNode, 1);

	push	1
	mov	edx, DWORD PTR _curr$[ebp]
	mov	eax, DWORD PTR [edx+12]
	push	eax
	mov	ecx, DWORD PTR _doc$[ebp]
	push	ecx
	call	_xmlNodeListGetString
	add	esp, 12					; 0000000cH
	mov	DWORD PTR _tmpCharPtr$[ebp], eax

; 422  : 			macClient = atoi((char *)tmpCharPtr);

	mov	edx, DWORD PTR _tmpCharPtr$[ebp]
	push	edx
	call	_atoi
	add	esp, 4
	mov	ecx, DWORD PTR _this$[ebp]
	mov	DWORD PTR [ecx+140], eax

; 423  : 			xmlFree(tmpCharPtr);

	mov	esi, esp
	mov	edx, DWORD PTR _tmpCharPtr$[ebp]
	push	edx
	mov	eax, DWORD PTR __imp__xmlFree
	call	DWORD PTR [eax]
	add	esp, 4
	cmp	esi, esp
	call	__RTC_CheckEsp

; 424  : 			continue;

	jmp	$L189461
$L189549:

; 425  : 		}
; 426  : 	}

	jmp	$L189461
$L189462:

; 427  : 
; 428  : 	xmlFreeDoc(doc);

	mov	ecx, DWORD PTR _doc$[ebp]
	push	ecx
	call	_xmlFreeDoc
	add	esp, 4

; 429  : 
; 430  : 	return TRUE;

	mov	eax, 1
$L189453:

; 431  : }

	pop	edi
	pop	esi
	add	esp, 52					; 00000034H
	cmp	ebp, esp
	call	__RTC_CheckEsp
	mov	esp, ebp
	pop	ebp
	ret	4
?getLicenseDetails@CLicense@@QAEHPAU_GLOBAL_SIG@@@Z ENDP ; CLicense::getLicenseDetails
_TEXT	ENDS
PUBLIC	??_C@_0BJ@OGJFCAD@nResult?5?$DN?$DN?5nConvertedLen?$AA@ ; `string'
EXTRN	__imp__SysAllocStringLen@8:NEAR
;	COMDAT xdata$x
; File c:\program files\microsoft visual studio .net 2003\vc7\atlmfc\include\atlconv.h
xdata$x	SEGMENT
$T192144 DD	0ffffffffH
	DD	FLAT:$L192137
$T192139 DD	019930520H
	DD	01H
	DD	FLAT:$T192144
	DD	2 DUP(00H)
	DD	2 DUP(00H)
xdata$x	ENDS
;	COMDAT ??_C@_0BJ@OGJFCAD@nResult?5?$DN?$DN?5nConvertedLen?$AA@
CONST	SEGMENT
??_C@_0BJ@OGJFCAD@nResult?5?$DN?$DN?5nConvertedLen?$AA@ DB 'nResult == nC'
	DB	'onvertedLen', 00H				; `string'
; Function compile flags: /Odt /RTCsu
CONST	ENDS
;	COMDAT ?A2WBSTR@@YAPAGPBDH@Z
_TEXT	SEGMENT
$T192136 = -64						; size = 4
$T192135 = -60						; size = 4
_nResult$76113 = -56					; size = 4
_nAllocLen$ = -52					; size = 4
_nConvertedLen$ = -48					; size = 4
_str$ = -44						; size = 4
__AtlSafeAllocaManager$ = -36				; size = 4
__lpa_ex$ = -28						; size = 4
__lpw_ex$ = -24						; size = 4
__acp_ex$ = -20						; size = 4
__convert_ex$ = -16					; size = 4
__$EHRec$ = -12						; size = 12
_lp$ = 8						; size = 4
_nLen$ = 12						; size = 4
?A2WBSTR@@YAPAGPBDH@Z PROC NEAR				; A2WBSTR, COMDAT

; 775  : {

	push	ebp
	mov	ebp, esp
	push	-1
	push	__ehhandler$?A2WBSTR@@YAPAGPBDH@Z
	mov	eax, DWORD PTR fs:__except_list
	push	eax
	mov	DWORD PTR fs:__except_list, esp
	sub	esp, 52					; 00000034H
	push	esi
	push	edi
	lea	edi, DWORD PTR [ebp-64]
	mov	ecx, 13					; 0000000dH
	mov	eax, -858993460				; ccccccccH
	rep stosd

; 776  : 	if (lp == NULL || nLen == 0)

	cmp	DWORD PTR _lp$[ebp], 0
	je	SHORT $L76086
	cmp	DWORD PTR _nLen$[ebp], 0
	jne	SHORT $L76085
$L76086:

; 777  : 		return NULL;

	xor	eax, eax
	jmp	$L76084
$L76085:

; 778  : 	USES_CONVERSION_EX;

	mov	DWORD PTR __convert_ex$[ebp], 0
	call	?_AtlGetConversionACP@ATL@@YGIXZ	; ATL::_AtlGetConversionACP
	mov	DWORD PTR __acp_ex$[ebp], eax
	mov	DWORD PTR __lpw_ex$[ebp], 0
	mov	DWORD PTR __lpa_ex$[ebp], 0
	lea	ecx, DWORD PTR __AtlSafeAllocaManager$[ebp]
	call	??0?$CAtlSafeAllocBufferManager@VCCRTAllocator@ATL@@@_ATL_SAFE_ALLOCA_IMPL@ATL@@QAE@XZ ; ATL::_ATL_SAFE_ALLOCA_IMPL::CAtlSafeAllocBufferManager<ATL::CCRTAllocator>::CAtlSafeAllocBufferManager<ATL::CCRTAllocator>
	mov	DWORD PTR __$EHRec$[ebp+8], 0

; 779  : 	BSTR str = NULL;

	mov	DWORD PTR _str$[ebp], 0

; 780  : 	int nConvertedLen = MultiByteToWideChar(_acp_ex, 0, lp,
; 781  : 		nLen, NULL, NULL);

	mov	esi, esp
	push	0
	push	0
	mov	eax, DWORD PTR _nLen$[ebp]
	push	eax
	mov	ecx, DWORD PTR _lp$[ebp]
	push	ecx
	push	0
	mov	edx, DWORD PTR __acp_ex$[ebp]
	push	edx
	call	DWORD PTR __imp__MultiByteToWideChar@24
	cmp	esi, esp
	call	__RTC_CheckEsp
	mov	DWORD PTR _nConvertedLen$[ebp], eax

; 782  : 	int nAllocLen = nConvertedLen;

	mov	eax, DWORD PTR _nConvertedLen$[ebp]
	mov	DWORD PTR _nAllocLen$[ebp], eax

; 783  : 	if (nLen == -1)

	cmp	DWORD PTR _nLen$[ebp], -1
	jne	SHORT $L76111

; 784  : 		nAllocLen -= 1;  // Don't allocate terminating '\0'

	mov	ecx, DWORD PTR _nAllocLen$[ebp]
	sub	ecx, 1
	mov	DWORD PTR _nAllocLen$[ebp], ecx
$L76111:

; 785  : 	str = ::SysAllocStringLen(NULL, nAllocLen);

	mov	esi, esp
	mov	edx, DWORD PTR _nAllocLen$[ebp]
	push	edx
	push	0
	call	DWORD PTR __imp__SysAllocStringLen@8
	cmp	esi, esp
	call	__RTC_CheckEsp
	mov	DWORD PTR _str$[ebp], eax

; 786  : 
; 787  : 	if (str != NULL)

	cmp	DWORD PTR _str$[ebp], 0
	je	$L76112

; 788  : 	{
; 789  : 		int nResult;
; 790  : 		nResult = MultiByteToWideChar(_acp_ex, 0, lp, nLen, str, nConvertedLen);

	mov	esi, esp
	mov	eax, DWORD PTR _nConvertedLen$[ebp]
	push	eax
	mov	ecx, DWORD PTR _str$[ebp]
	push	ecx
	mov	edx, DWORD PTR _nLen$[ebp]
	push	edx
	mov	eax, DWORD PTR _lp$[ebp]
	push	eax
	push	0
	mov	ecx, DWORD PTR __acp_ex$[ebp]
	push	ecx
	call	DWORD PTR __imp__MultiByteToWideChar@24
	cmp	esi, esp
	call	__RTC_CheckEsp
	mov	DWORD PTR _nResult$76113[ebp], eax

; 791  : 		ATLASSERT(nResult == nConvertedLen);

	mov	edx, DWORD PTR _nResult$76113[ebp]
	cmp	edx, DWORD PTR _nConvertedLen$[ebp]
	je	SHORT $L192134
	push	OFFSET FLAT:??_C@_0BJ@OGJFCAD@nResult?5?$DN?$DN?5nConvertedLen?$AA@
	push	0
	push	791					; 00000317H
	push	OFFSET FLAT:??_C@_0FA@OHHMODBN@C?3?2Program?5Files?2Microsoft?5Visua@
	push	2
	call	__CrtDbgReport
	add	esp, 20					; 00000014H
	cmp	eax, 1
	jne	SHORT $L192134
	int	3
$L192134:

; 792  : 		if(nResult != nConvertedLen)

	mov	ecx, DWORD PTR _nResult$76113[ebp]
	cmp	ecx, DWORD PTR _nConvertedLen$[ebp]
	je	SHORT $L76112

; 793  : 		{
; 794  : 			SysFreeString(str);

	mov	esi, esp
	mov	edx, DWORD PTR _str$[ebp]
	push	edx
	call	DWORD PTR __imp__SysFreeString@4
	cmp	esi, esp
	call	__RTC_CheckEsp

; 795  : 			return NULL;

	mov	DWORD PTR $T192135[ebp], 0
	mov	DWORD PTR __$EHRec$[ebp+8], -1
	lea	ecx, DWORD PTR __AtlSafeAllocaManager$[ebp]
	call	??1?$CAtlSafeAllocBufferManager@VCCRTAllocator@ATL@@@_ATL_SAFE_ALLOCA_IMPL@ATL@@QAE@XZ ; ATL::_ATL_SAFE_ALLOCA_IMPL::CAtlSafeAllocBufferManager<ATL::CCRTAllocator>::~CAtlSafeAllocBufferManager<ATL::CCRTAllocator>
	mov	eax, DWORD PTR $T192135[ebp]
	jmp	SHORT $L76084
$L76112:

; 796  : 		}
; 797  : 
; 798  : 	}
; 799  : 	return str;

	mov	eax, DWORD PTR _str$[ebp]
	mov	DWORD PTR $T192136[ebp], eax
	mov	DWORD PTR __$EHRec$[ebp+8], -1
	lea	ecx, DWORD PTR __AtlSafeAllocaManager$[ebp]
	call	??1?$CAtlSafeAllocBufferManager@VCCRTAllocator@ATL@@@_ATL_SAFE_ALLOCA_IMPL@ATL@@QAE@XZ ; ATL::_ATL_SAFE_ALLOCA_IMPL::CAtlSafeAllocBufferManager<ATL::CCRTAllocator>::~CAtlSafeAllocBufferManager<ATL::CCRTAllocator>
	mov	eax, DWORD PTR $T192136[ebp]
$L76084:

; 800  : }

	push	edx
	mov	ecx, ebp
	push	eax
	lea	edx, DWORD PTR $L192143
	call	@_RTC_CheckStackVars@8
	pop	eax
	pop	edx
	mov	ecx, DWORD PTR __$EHRec$[ebp]
	mov	DWORD PTR fs:__except_list, ecx
	pop	edi
	pop	esi
	add	esp, 64					; 00000040H
	cmp	ebp, esp
	call	__RTC_CheckEsp
	mov	esp, ebp
	pop	ebp
	ret	0
$L192143:
	DD	1
	DD	$L192142
$L192142:
	DD	-36					; ffffffdcH
	DD	4
	DD	$L192140
$L192140:
	DB	95					; 0000005fH
	DB	65					; 00000041H
	DB	116					; 00000074H
	DB	108					; 0000006cH
	DB	83					; 00000053H
	DB	97					; 00000061H
	DB	102					; 00000066H
	DB	101					; 00000065H
	DB	65					; 00000041H
	DB	108					; 0000006cH
	DB	108					; 0000006cH
	DB	111					; 0000006fH
	DB	99					; 00000063H
	DB	97					; 00000061H
	DB	77					; 0000004dH
	DB	97					; 00000061H
	DB	110					; 0000006eH
	DB	97					; 00000061H
	DB	103					; 00000067H
	DB	101					; 00000065H
	DB	114					; 00000072H
	DB	0
_TEXT	ENDS
;	COMDAT text$x
text$x	SEGMENT
$L192137:
	lea	ecx, DWORD PTR __AtlSafeAllocaManager$[ebp]
	jmp	??1?$CAtlSafeAllocBufferManager@VCCRTAllocator@ATL@@@_ATL_SAFE_ALLOCA_IMPL@ATL@@QAE@XZ ; ATL::_ATL_SAFE_ALLOCA_IMPL::CAtlSafeAllocBufferManager<ATL::CCRTAllocator>::~CAtlSafeAllocBufferManager<ATL::CCRTAllocator>
__ehhandler$?A2WBSTR@@YAPAGPBDH@Z:
	mov	eax, OFFSET FLAT:$T192139
	jmp	___CxxFrameHandler
text$x	ENDS
?A2WBSTR@@YAPAGPBDH@Z ENDP				; A2WBSTR
EXTRN	_memset:NEAR
; Function compile flags: /Odt /RTCsu
; File c:\activex\xmlsign\license.cpp
_TEXT	SEGMENT
_osvi$ = -168						; size = 156
_bOsVersionInfoEx$ = -8					; size = 4
__$ArrayPad$ = -4					; size = 4
__$ReturnAddr$ = 4					; size = 4
?getHostOsType@CLicense@@SAJXZ PROC NEAR		; CLicense::getHostOsType

; 434  : {

	push	ebp
	mov	ebp, esp
	sub	esp, 172				; 000000acH
	push	esi
	push	edi
	lea	edi, DWORD PTR [ebp-172]
	mov	ecx, 43					; 0000002bH
	mov	eax, -858993460				; ccccccccH
	rep stosd
	mov	eax, DWORD PTR ___security_cookie
	mov	DWORD PTR __$ArrayPad$[ebp], eax

; 435  :     BOOL bOsVersionInfoEx;
; 436  : 	OSVERSIONINFOEX osvi;
; 437  :    // Try calling GetVersionEx using the OSVERSIONINFOEX structure.
; 438  :    // If that fails, try using the OSVERSIONINFO structure.
; 439  : 
; 440  :    ZeroMemory(&osvi, sizeof(OSVERSIONINFOEX));

	push	156					; 0000009cH
	push	0
	lea	eax, DWORD PTR _osvi$[ebp]
	push	eax
	call	_memset
	add	esp, 12					; 0000000cH

; 441  :    osvi.dwOSVersionInfoSize = sizeof(OSVERSIONINFOEX);

	mov	DWORD PTR _osvi$[ebp], 156		; 0000009cH

; 442  : 
; 443  : #ifdef WIN32
; 444  :    if( !(bOsVersionInfoEx = GetVersionEx ((OSVERSIONINFO *) &osvi)) )

	mov	esi, esp
	lea	ecx, DWORD PTR _osvi$[ebp]
	push	ecx
	call	DWORD PTR __imp__GetVersionExA@4
	cmp	esi, esp
	call	__RTC_CheckEsp
	mov	DWORD PTR _bOsVersionInfoEx$[ebp], eax
	cmp	DWORD PTR _bOsVersionInfoEx$[ebp], 0
	jne	SHORT $L189559

; 445  :    {
; 446  :       // If OSVERSIONINFOEX doesn't work, try OSVERSIONINFO.
; 447  :       osvi.dwOSVersionInfoSize = sizeof (OSVERSIONINFO);

	mov	DWORD PTR _osvi$[ebp], 148		; 00000094H

; 448  :       if (! GetVersionEx ( (OSVERSIONINFO *) &osvi) ) 

	mov	esi, esp
	lea	edx, DWORD PTR _osvi$[ebp]
	push	edx
	call	DWORD PTR __imp__GetVersionExA@4
	cmp	esi, esp
	call	__RTC_CheckEsp
	test	eax, eax
	jne	SHORT $L189559

; 449  : 	  {
; 450  : 		  return 0;

	xor	eax, eax
	jmp	SHORT $L189553
$L189559:

; 451  : 	  }
; 452  :    }
; 453  : #endif
; 454  : #ifdef LOGGING
; 455  :    char buffer[BUFSIZ];
