 XMLSign

 Timestamp is 4682b4a5 (Wed Jun 27 15:04:05 2007)

 Preferred load address is 10000000

 Start         Length     Name                   Class
 0001:00000000 0017b786H .text                   CODE
 0001:0017b790 000022caH .text$x                 CODE
 0001:0017da60 00000bb3H .text$yc                CODE
 0001:0017e620 0000047fH .text$yd                CODE
 0002:00000000 000005e4H .idata$5                DATA
 0002:000005f0 00040f38H .rdata                  DATA
 0002:00041528 0000003dH .rdata$debug            DATA
 0002:00041568 00000450H .rdata$r                DATA
 0002:000419b8 00000004H .rtc$IAA                DATA
 0002:000419bc 000000b8H .rtc$IMZ                DATA
 0002:00041a74 00000004H .rtc$IZZ                DATA
 0002:00041a78 00000004H .rtc$TAA                DATA
 0002:00041a7c 000000b8H .rtc$TMZ                DATA
 0002:00041b34 00000004H .rtc$TZZ                DATA
 0002:00041b38 00003004H .xdata$x                DATA
 0002:00044b3c 00000004H ATL$__a                 DATA
 0002:00044b40 00000004H ATL$__z                 DATA
 0002:00044b44 000000f0H .idata$2                DATA
 0002:00044c34 00000014H .idata$3                DATA
 0002:00044c48 000005e4H .idata$4                DATA
 0002:0004522c 000015aeH .idata$6                DATA
 0002:000467e0 000000a4H .edata                  DATA
 0003:00000000 00000004H .CRT$XCA                DATA
 0003:00000004 00000004H .CRT$XCAA               DATA
 0003:00000008 00000018H .CRT$XCC                DATA
 0003:00000020 0000007cH .CRT$XCL                DATA
 0003:0000009c 00000084H .CRT$XCU                DATA
 0003:00000120 00000004H .CRT$XCZ                DATA
 0003:00000124 00000004H .CRT$XIA                DATA
 0003:00000128 00000010H .CRT$XIC                DATA
 0003:00000138 00000004H .CRT$XIY                DATA
 0003:0000013c 00000004H .CRT$XIZ                DATA
 0003:00000140 00000004H .CRT$XPA                DATA
 0003:00000144 00000004H .CRT$XPX                DATA
 0003:00000148 00000004H .CRT$XPZ                DATA
 0003:0000014c 00000004H .CRT$XTA                DATA
 0003:00000150 00000004H .CRT$XTB                DATA
 0003:00000154 00000004H .CRT$XTZ                DATA
 0003:00000160 000222a8H .data                   DATA
 0003:00022420 000032d8H .bss                    DATA
 0004:00000000 0000028cH .rsrc$01                DATA
 0004:00000290 00008198H .rsrc$02                DATA

  Address         Publics by Value              Rva+Base     Lib:Object

 0000:00000000       __except_list              00000000     <absolute>
 0000:00000000       ___safe_se_handler_count   00000000     <absolute>
 0000:00000000       ___safe_se_handler_table   00000000     <absolute>
 0000:00000000       ___ImageBase               10000000     <linker-defined>
 0001:00000000       ??0CCAMClient@@QAE@XZ      10001000 f   CAMClient.obj
 0001:00000040       ??1CCAMClient@@QAE@XZ      10001040 f   CAMClient.obj
 0001:00000060       ?validate@CCAMClient@@QAEJPAE0H0PAHPAPAE121@Z 10001060 f   CAMClient.obj
 0001:00000330       ?full_recv@CCAMClient@@AAEHIPADH@Z 10001330 f   CAMClient.obj
 0001:000003b0       ?newBinString@CCAMClient@@AAEPAUBinString@@HPAD@Z 100013b0 f   CAMClient.obj
 0001:00000430       ?delBinString@CCAMClient@@AAEXPAUBinString@@@Z 10001430 f   CAMClient.obj
 0001:00000490       ?serialize@CCAMClient@@AAEPAUBinString@@PAXHH@Z 10001490 f   CAMClient.obj
 0001:000005f0       ?deserialize@CCAMClient@@AAEPADPAUBinString@@HH@Z 100015f0 f   CAMClient.obj
 0001:00000670       ?get_ip_from_hostname@@YAKPAD@Z 10001670 f   CAMClient.obj
 0001:000007e0       ?my_connect@CCAMClient@@AAEIPAD@Z 100017e0 f   CAMClient.obj
 0001:00000990       ?send_header@CCAMClient@@AAEHIH@Z 10001990 f   CAMClient.obj
 0001:00000a30       ?read_header@CCAMClient@@AAEHI@Z 10001a30 f   CAMClient.obj
 0001:00000ab0       ?read_msg@CCAMClient@@AAEPAUBinString@@I@Z 10001ab0 f   CAMClient.obj
 0001:00000b40       ?send_bs@CCAMClient@@AAEHIPAUBinString@@@Z 10001b40 f   CAMClient.obj
 0001:00000bc0       ?read_file@CCAMClient@@AAEHPAD0H@Z 10001bc0 f   CAMClient.obj
 0001:00000c40       ?copy_str_out@CCAMClient@@AAEXPAUBinString@@PAE@Z 10001c40 f   CAMClient.obj
 0001:00000d00       ?copy_mem_out@CCAMClient@@AAEXPAUBinString@@PAE@Z 10001d00 f   CAMClient.obj
 0001:00000d50       ??0CAtlWinModule@ATL@@QAE@XZ 10001d50 f i CAMClient.obj
 0001:00000db0       ??0_ATL_WIN_MODULE70@ATL@@QAE@XZ 10001db0 f i CAMClient.obj
 0001:00000df0       ??0CComCriticalSection@ATL@@QAE@XZ 10001df0 f i CAMClient.obj
 0001:00000e20       ??0?$CSimpleArray@GV?$CSimpleArrayEqualHelper@G@ATL@@@ATL@@QAE@XZ 10001e20 f i CAMClient.obj
 0001:00000e60       ??1CAtlWinModule@ATL@@QAE@XZ 10001e60 f i CAMClient.obj
 0001:00000ec0       ?Term@CAtlWinModule@ATL@@QAEXXZ 10001ec0 f i CAMClient.obj
 0001:00000f00       ?GetModuleInstance@CAtlBaseModule@ATL@@QAEPAUHINSTANCE__@@XZ 10001f00 f i CAMClient.obj
 0001:00000f20       ??1_ATL_WIN_MODULE70@ATL@@QAE@XZ 10001f20 f i CAMClient.obj
 0001:00000f50       ??1?$CSimpleArray@GV?$CSimpleArrayEqualHelper@G@ATL@@@ATL@@QAE@XZ 10001f50 f i CAMClient.obj
 0001:00000f80       ?RemoveAll@?$CSimpleArray@GV?$CSimpleArrayEqualHelper@G@ATL@@@ATL@@QAEXXZ 10001f80 f i CAMClient.obj
 0001:00001000       ?crVerifyCertificate@@YAHPAPAEIPAU_SYSTEMTIME@@PAGPAU_CERTVERIFICATIONPARAMS@@PAU_GLOBAL_SIG@@@Z 10002000 f   CertVerify.obj
 0001:00003d60       ??_G?$list@PAEV?$allocator@PAE@std@@@std@@QAEPAXI@Z 10004d60 f i CertVerify.obj
 0001:00003da0       ??0?$list@PAEV?$allocator@PAE@std@@@std@@QAE@XZ 10004da0 f i CertVerify.obj
 0001:00003df0       ??1?$list@PAEV?$allocator@PAE@std@@@std@@QAE@XZ 10004df0 f i CertVerify.obj
 0001:00003e20       ?begin@?$list@PAEV?$allocator@PAE@std@@@std@@QAE?AViterator@12@XZ 10004e20 f i CertVerify.obj
 0001:00003e60       ?end@?$list@PAEV?$allocator@PAE@std@@@std@@QAE?AViterator@12@XZ 10004e60 f i CertVerify.obj
 0001:00003e90       ?size@?$list@PAEV?$allocator@PAE@std@@@std@@QBEIXZ 10004e90 f i CertVerify.obj
 0001:00003eb0       ?insert@?$list@PAEV?$allocator@PAE@std@@@std@@QAE?AViterator@12@V312@ABQAE@Z 10004eb0 f i CertVerify.obj
 0001:00003ef0       ??0iterator@?$list@PAEV?$allocator@PAE@std@@@std@@QAE@XZ 10004ef0 f i CertVerify.obj
 0001:00003f20       ??Diterator@?$list@PAEV?$allocator@PAE@std@@@std@@QBEAAPAEXZ 10004f20 f i CertVerify.obj
 0001:00003f50       ??Fiterator@?$list@PAEV?$allocator@PAE@std@@@std@@QAE?AV012@H@Z 10004f50 f i CertVerify.obj
 0001:00003fc0       ??0?$vector@PAU_DS_DATA_BLOB@@V?$allocator@PAU_DS_DATA_BLOB@@@std@@@std@@QAE@XZ 10004fc0 f i CertVerify.obj
 0001:00004010       ??1?$vector@PAU_DS_DATA_BLOB@@V?$allocator@PAU_DS_DATA_BLOB@@@std@@@std@@QAE@XZ 10005010 f i CertVerify.obj
 0001:00004040       ?size@?$vector@PAU_DS_DATA_BLOB@@V?$allocator@PAU_DS_DATA_BLOB@@@std@@@std@@QBEIXZ 10005040 f i CertVerify.obj
 0001:00004090       ?at@?$vector@PAU_DS_DATA_BLOB@@V?$allocator@PAU_DS_DATA_BLOB@@@std@@@std@@QAEAAPAU_DS_DATA_BLOB@@I@Z 10005090 f i CertVerify.obj
 0001:00004100       ?push_back@?$vector@PAU_DS_DATA_BLOB@@V?$allocator@PAU_DS_DATA_BLOB@@@std@@@std@@QAEXABQAU_DS_DATA_BLOB@@@Z 10005100 f i CertVerify.obj
 0001:00004190       ?_Nextnode@?$list@PAEV?$allocator@PAE@std@@@std@@KAAAPAU_Node@?$_List_nod@PAEV?$allocator@PAE@std@@@2@PAU342@@Z 10005190 f i CertVerify.obj
 0001:000041a0       ?_Insert@?$list@PAEV?$allocator@PAE@std@@@std@@QAEXViterator@12@ABQAE@Z 100051a0 f i CertVerify.obj
 0001:00004240       ?_Buynode@?$list@PAEV?$allocator@PAE@std@@@std@@IAEPAU_Node@?$_List_nod@PAEV?$allocator@PAE@std@@@2@XZ 10005240 f i CertVerify.obj
 0001:00004370       ?_Tidy@?$list@PAEV?$allocator@PAE@std@@@std@@IAEXXZ 10005370 f i CertVerify.obj
 0001:000043f0       ??0?$_List_val@PAEV?$allocator@PAE@std@@@std@@IAE@V?$allocator@PAE@1@@Z 100053f0 f i CertVerify.obj
 0001:00004440       ??0?$allocator@PAE@std@@QAE@XZ 10005440 f i CertVerify.obj
 0001:00004460       ??0iterator@?$list@PAEV?$allocator@PAE@std@@@std@@QAE@PAU_Node@?$_List_nod@PAEV?$allocator@PAE@std@@@2@@Z 10005460 f i CertVerify.obj
 0001:00004490       ??Fiterator@?$list@PAEV?$allocator@PAE@std@@@std@@QAEAAV012@XZ 10005490 f i CertVerify.obj
 0001:000044c0       ??0const_iterator@?$list@PAEV?$allocator@PAE@std@@@std@@QAE@XZ 100054c0 f i CertVerify.obj
 0001:000044e0       ??Dconst_iterator@?$list@PAEV?$allocator@PAE@std@@@std@@QBEABQAEXZ 100054e0 f i CertVerify.obj
 0001:00004510       ?capacity@?$vector@PAU_DS_DATA_BLOB@@V?$allocator@PAU_DS_DATA_BLOB@@@std@@@std@@QBEIXZ 10005510 f i CertVerify.obj
 0001:00004560       ?begin@?$vector@PAU_DS_DATA_BLOB@@V?$allocator@PAU_DS_DATA_BLOB@@@std@@@std@@QAE?AViterator@12@XZ 10005560 f i CertVerify.obj
 0001:00004590       ?end@?$vector@PAU_DS_DATA_BLOB@@V?$allocator@PAU_DS_DATA_BLOB@@@std@@@std@@QAE?AViterator@12@XZ 10005590 f i CertVerify.obj
 0001:000045c0       ?insert@?$vector@PAU_DS_DATA_BLOB@@V?$allocator@PAU_DS_DATA_BLOB@@@std@@@std@@QAE?AViterator@12@V312@ABQAU_DS_DATA_BLOB@@@Z 100055c0 f i CertVerify.obj
 0001:00004650       ?_Buy@?$vector@PAU_DS_DATA_BLOB@@V?$allocator@PAU_DS_DATA_BLOB@@@std@@@std@@IAE_NI@Z 10005650 f i CertVerify.obj
 0001:000046e0       ?_Tidy@?$vector@PAU_DS_DATA_BLOB@@V?$allocator@PAU_DS_DATA_BLOB@@@std@@@std@@IAEXXZ 100056e0 f i CertVerify.obj
 0001:00004760       ?_Ufill@?$vector@PAU_DS_DATA_BLOB@@V?$allocator@PAU_DS_DATA_BLOB@@@std@@@std@@IAEPAPAU_DS_DATA_BLOB@@PAPAU3@IABQAU3@@Z 10005760 f i CertVerify.obj
 0001:000047a0       ?_Xran@?$vector@PAU_DS_DATA_BLOB@@V?$allocator@PAU_DS_DATA_BLOB@@@std@@@std@@IBEXXZ 100057a0 f i CertVerify.obj
 0001:00004820       ??0out_of_range@std@@QAE@ABV?$basic_string@DU?$char_traits@D@std@@V?$allocator@D@2@@1@@Z 10005820 f i CertVerify.obj
 0001:00004860       ??0logic_error@std@@QAE@ABV?$basic_string@DU?$char_traits@D@std@@V?$allocator@D@2@@1@@Z 10005860 f i CertVerify.obj
 0001:000048d0       ?what@logic_error@std@@UBEPBDXZ 100058d0 f i CertVerify.obj
 0001:00004900       ??_Glogic_error@std@@UAEPAXI@Z 10005900 f i CertVerify.obj
 0001:00004900       ??_Elogic_error@std@@UAEPAXI@Z 10005900 f i CertVerify.obj
 0001:00004940       ??1logic_error@std@@UAE@XZ 10005940 f i CertVerify.obj
 0001:000049b0       ??1out_of_range@std@@UAE@XZ 100059b0 f i CertVerify.obj
 0001:000049e0       ??_Gout_of_range@std@@UAEPAXI@Z 100059e0 f i CertVerify.obj
 0001:000049e0       ??_Eout_of_range@std@@UAEPAXI@Z 100059e0 f i CertVerify.obj
 0001:00004a20       ??0?$basic_string@DU?$char_traits@D@std@@V?$allocator@D@2@@std@@QAE@ABV01@@Z 10005a20 f i CertVerify.obj
 0001:00004a80       ??1?$basic_string@DU?$char_traits@D@std@@V?$allocator@D@2@@std@@QAE@XZ 10005a80 f i CertVerify.obj
 0001:00004ab0       ?c_str@?$basic_string@DU?$char_traits@D@std@@V?$allocator@D@2@@std@@QBEPBDXZ 10005ab0 f i CertVerify.obj
 0001:00004ae0       ?assign@?$basic_string@DU?$char_traits@D@std@@V?$allocator@D@2@@std@@QAEAAV12@ABV12@II@Z 10005ae0 f i CertVerify.obj
 0001:00004bb0       ?copy@?$char_traits@D@std@@SAPADPADPBDI@Z 10005bb0 f i CertVerify.obj
 0001:00004bd0       ?_Tidy@?$basic_string@DU?$char_traits@D@std@@V?$allocator@D@2@@std@@IAEX_NI@Z 10005bd0 f i CertVerify.obj
 0001:00004c60       ?_Myptr@?$basic_string@DU?$char_traits@D@std@@V?$allocator@D@2@@std@@QBEPBDXZ 10005c60 f i CertVerify.obj
 0001:00004ca0       ??0?$_String_val@DV?$allocator@D@std@@@std@@IAE@V?$allocator@D@1@@Z 10005ca0 f i CertVerify.obj
 0001:00004cd0       ??0?$allocator@D@std@@QAE@ABV01@@Z 10005cd0 f i CertVerify.obj
 0001:00004cf0       ??0?$_Vector_val@PAU_DS_DATA_BLOB@@V?$allocator@PAU_DS_DATA_BLOB@@@std@@@std@@IAE@V?$allocator@PAU_DS_DATA_BLOB@@@1@@Z 10005cf0 f i CertVerify.obj
 0001:00004d20       ??0?$allocator@PAU_DS_DATA_BLOB@@@std@@QAE@XZ 10005d20 f i CertVerify.obj
 0001:00004d40       ??Diterator@?$vector@PAU_DS_DATA_BLOB@@V?$allocator@PAU_DS_DATA_BLOB@@@std@@@std@@QBEAAPAU_DS_DATA_BLOB@@XZ 10005d40 f i CertVerify.obj
 0001:00004d70       ??Hiterator@?$vector@PAU_DS_DATA_BLOB@@V?$allocator@PAU_DS_DATA_BLOB@@@std@@@std@@QBE?AV012@H@Z 10005d70 f i CertVerify.obj
 0001:00004df0       ??0out_of_range@std@@QAE@ABV01@@Z 10005df0 f i CertVerify.obj
 0001:00004e30       ??0logic_error@std@@QAE@ABV01@@Z 10005e30 f i CertVerify.obj
 0001:00004eb0       ??0?$basic_string@DU?$char_traits@D@std@@V?$allocator@D@2@@std@@QAE@PBD@Z 10005eb0 f i CertVerify.obj
 0001:00004f10       ?erase@?$basic_string@DU?$char_traits@D@std@@V?$allocator@D@2@@std@@QAEAAV12@II@Z 10005f10 f i CertVerify.obj
 0001:00004fc0       ?move@?$char_traits@D@std@@SAPADPADPBDI@Z 10005fc0 f i CertVerify.obj
 0001:00004fe0       ?size@?$basic_string@DU?$char_traits@D@std@@V?$allocator@D@2@@std@@QBEIXZ 10005fe0 f i CertVerify.obj
 0001:00005000       ?_Eos@?$basic_string@DU?$char_traits@D@std@@V?$allocator@D@2@@std@@IAEXI@Z 10006000 f i CertVerify.obj
 0001:00005050       ?assign@?$char_traits@D@std@@SAXAADABD@Z 10006050 f i CertVerify.obj
 0001:00005060       ?_Grow@?$basic_string@DU?$char_traits@D@std@@V?$allocator@D@2@@std@@IAE_NI_N@Z 10006060 f i CertVerify.obj
 0001:00005110       ?_Myptr@?$basic_string@DU?$char_traits@D@std@@V?$allocator@D@2@@std@@QAEPADXZ 10006110 f i CertVerify.obj
 0001:00005150       ?deallocate@?$allocator@D@std@@QAEXPADI@Z 10006150 f i CertVerify.obj
 0001:00005180       ?_Prevnode@?$list@PAEV?$allocator@PAE@std@@@std@@KAAAPAU_Node@?$_List_nod@PAEV?$allocator@PAE@std@@@2@PAU342@@Z 10006180 f i CertVerify.obj
 0001:00005190       ?_Myval@?$list@PAEV?$allocator@PAE@std@@@std@@KAAAPAEPAU_Node@?$_List_nod@PAEV?$allocator@PAE@std@@@2@@Z 10006190 f i CertVerify.obj
 0001:000051a0       ?clear@?$list@PAEV?$allocator@PAE@std@@@std@@QAEXXZ 100061a0 f i CertVerify.obj
 0001:00005260       ?_Buynode@?$list@PAEV?$allocator@PAE@std@@@std@@IAEPAU_Node@?$_List_nod@PAEV?$allocator@PAE@std@@@2@PAU342@0ABQAE@Z 10006260 f i CertVerify.obj
 0001:00005340       ??2@YAPAXIPAX@Z            10006340 f i CertVerify.obj
 0001:00005350       ??3@YAXPAX0@Z              10006350 f i CertVerify.obj
 0001:00005360       ?_Incsize@?$list@PAEV?$allocator@PAE@std@@@std@@IAEXI@Z 10006360 f i CertVerify.obj
 0001:00005400       ??0length_error@std@@QAE@ABV?$basic_string@DU?$char_traits@D@std@@V?$allocator@D@2@@1@@Z 10006400 f i CertVerify.obj
 0001:00005440       ??1length_error@std@@UAE@XZ 10006440 f i CertVerify.obj
 0001:00005470       ??_Elength_error@std@@UAEPAXI@Z 10006470 f i CertVerify.obj
 0001:00005470       ??_Glength_error@std@@UAEPAXI@Z 10006470 f i CertVerify.obj
 0001:000054b0       ??0?$_List_ptr@PAEV?$allocator@PAE@std@@@std@@IAE@V?$allocator@PAE@1@@Z 100064b0 f i CertVerify.obj
 0001:00005500       ??0?$allocator@PAE@std@@QAE@ABV01@@Z 10006500 f i CertVerify.obj
 0001:00005520       ?deallocate@?$allocator@U_Node@?$_List_nod@PAEV?$allocator@PAE@std@@@std@@@std@@QAEXPAU_Node@?$_List_nod@PAEV?$allocator@PAE@std@@@2@I@Z 10006520 f i CertVerify.obj
 0001:00005550       ?allocate@?$allocator@U_Node@?$_List_nod@PAEV?$allocator@PAE@std@@@std@@@std@@QAEPAU_Node@?$_List_nod@PAEV?$allocator@PAE@std@@@2@I@Z 10006550 f i CertVerify.obj
 0001:00005580       ?construct@?$allocator@PAU_Node@?$_List_nod@PAEV?$allocator@PAE@std@@@std@@@std@@QAEXPAPAU_Node@?$_List_nod@PAEV?$allocator@PAE@std@@@2@ABQAU342@@Z 10006580 f i CertVerify.obj
 0001:000055b0       ?destroy@?$allocator@PAU_Node@?$_List_nod@PAEV?$allocator@PAE@std@@@std@@@std@@QAEXPAPAU_Node@?$_List_nod@PAEV?$allocator@PAE@std@@@2@@Z 100065b0 f i CertVerify.obj
 0001:000055e0       ??0const_iterator@?$list@PAEV?$allocator@PAE@std@@@std@@QAE@PAU_Node@?$_List_nod@PAEV?$allocator@PAE@std@@@2@@Z 100065e0 f i CertVerify.obj
 0001:00005600       ??Fconst_iterator@?$list@PAEV?$allocator@PAE@std@@@std@@QAEAAV012@XZ 10006600 f i CertVerify.obj
 0001:00005640       ?_Mynode@const_iterator@?$list@PAEV?$allocator@PAE@std@@@std@@QBEPAU_Node@?$_List_nod@PAEV?$allocator@PAE@std@@@3@XZ 10006640 f i CertVerify.obj
 0001:00005660       ?max_size@?$vector@PAU_DS_DATA_BLOB@@V?$allocator@PAU_DS_DATA_BLOB@@@std@@@std@@QBEIXZ 10006660 f i CertVerify.obj
 0001:00005690       ?_Destroy@?$vector@PAU_DS_DATA_BLOB@@V?$allocator@PAU_DS_DATA_BLOB@@@std@@@std@@IAEXPAPAU_DS_DATA_BLOB@@0@Z 10006690 f i CertVerify.obj
 0001:000056d0       ?_Insert_n@?$vector@PAU_DS_DATA_BLOB@@V?$allocator@PAU_DS_DATA_BLOB@@@std@@@std@@IAEXViterator@12@IABQAU_DS_DATA_BLOB@@@Z 100066d0 f i CertVerify.obj
 0001:00005a40       ?_Xlen@?$vector@PAU_DS_DATA_BLOB@@V?$allocator@PAU_DS_DATA_BLOB@@@std@@@std@@IBEXXZ 10006a40 f i CertVerify.obj
 0001:00005ac0       ??0?$allocator@PAU_DS_DATA_BLOB@@@std@@QAE@ABV01@@Z 10006ac0 f i CertVerify.obj
 0001:00005ae0       ?deallocate@?$allocator@PAU_DS_DATA_BLOB@@@std@@QAEXPAPAU_DS_DATA_BLOB@@I@Z 10006ae0 f i CertVerify.obj
 0001:00005b10       ?allocate@?$allocator@PAU_DS_DATA_BLOB@@@std@@QAEPAPAU_DS_DATA_BLOB@@I@Z 10006b10 f i CertVerify.obj
 0001:00005b40       ??0iterator@?$vector@PAU_DS_DATA_BLOB@@V?$allocator@PAU_DS_DATA_BLOB@@@std@@@std@@QAE@PAPAU_DS_DATA_BLOB@@@Z 10006b40 f i CertVerify.obj
 0001:00005b70       ??Yiterator@?$vector@PAU_DS_DATA_BLOB@@V?$allocator@PAU_DS_DATA_BLOB@@@std@@@std@@QAEAAV012@H@Z 10006b70 f i CertVerify.obj
 0001:00005ba0       ??Giterator@?$vector@PAU_DS_DATA_BLOB@@V?$allocator@PAU_DS_DATA_BLOB@@@std@@@std@@QBEHABVconst_iterator@12@@Z 10006ba0 f i CertVerify.obj
 0001:00005be0       ??Dconst_iterator@?$vector@PAU_DS_DATA_BLOB@@V?$allocator@PAU_DS_DATA_BLOB@@@std@@@std@@QBEABQAU_DS_DATA_BLOB@@XZ 10006be0 f i CertVerify.obj
 0001:00005c00       ??0length_error@std@@QAE@ABV01@@Z 10006c00 f i CertVerify.obj
 0001:00005c40       ?assign@?$basic_string@DU?$char_traits@D@std@@V?$allocator@D@2@@std@@QAEAAV12@PBD@Z 10006c40 f i CertVerify.obj
 0001:00005c80       ?length@?$char_traits@D@std@@SAIPBD@Z 10006c80 f i CertVerify.obj
 0001:00005ca0       ?max_size@?$basic_string@DU?$char_traits@D@std@@V?$allocator@D@2@@std@@QBEIXZ 10006ca0 f i CertVerify.obj
 0001:00005d00       ?_Copy@?$basic_string@DU?$char_traits@D@std@@V?$allocator@D@2@@std@@IAEXII@Z 10006d00 f i CertVerify.obj
 0001:00005e80       ??0?$allocator@D@std@@QAE@XZ 10006e80 f i CertVerify.obj
 0001:00005ea0       ?max_size@?$list@PAEV?$allocator@PAE@std@@@std@@QBEIXZ 10006ea0 f i CertVerify.obj
 0001:00005ed0       ??0?$_List_nod@PAEV?$allocator@PAE@std@@@std@@IAE@V?$allocator@PAE@1@@Z 10006ed0 f i CertVerify.obj
 0001:00005f00       ?destroy@?$allocator@U_Node@?$_List_nod@PAEV?$allocator@PAE@std@@@std@@@std@@QAEXPAU_Node@?$_List_nod@PAEV?$allocator@PAE@std@@@2@@Z 10006f00 f i CertVerify.obj
 0001:00005f30       ?max_size@?$allocator@PAU_DS_DATA_BLOB@@@std@@QBEIXZ 10006f30 f i CertVerify.obj
 0001:00005f80       ??0const_iterator@?$vector@PAU_DS_DATA_BLOB@@V?$allocator@PAU_DS_DATA_BLOB@@@std@@@std@@QAE@PAPAU_DS_DATA_BLOB@@@Z 10006f80 f i CertVerify.obj
 0001:00005fa0       ??Gconst_iterator@?$vector@PAU_DS_DATA_BLOB@@V?$allocator@PAU_DS_DATA_BLOB@@@std@@@std@@QBEHABV012@@Z 10006fa0 f i CertVerify.obj
 0001:00005fd0       ??0_Node@?$_List_nod@PAEV?$allocator@PAE@std@@@std@@QAE@PAU012@0ABQAE@Z 10006fd0 f i CertVerify.obj
 0001:00006010       ?assign@?$basic_string@DU?$char_traits@D@std@@V?$allocator@D@2@@std@@QAEAAV12@PBDI@Z 10007010 f i CertVerify.obj
 0001:000060a0       ?allocate@?$allocator@D@std@@QAEPADI@Z 100070a0 f i CertVerify.obj
 0001:000060d0       ?max_size@?$allocator@D@std@@QBEIXZ 100070d0 f i CertVerify.obj
 0001:00006120       ?max_size@?$allocator@PAE@std@@QBEIXZ 10007120 f i CertVerify.obj
 0001:00006170       ?_Inside@?$basic_string@DU?$char_traits@D@std@@V?$allocator@D@2@@std@@IAE_NPBD@Z 10007170 f i CertVerify.obj
 0001:000061c0       ??$_Uninitialized_fill_n@PAPAU_DS_DATA_BLOB@@IPAU1@V?$allocator@PAU_DS_DATA_BLOB@@@std@@@std@@YAXPAPAU_DS_DATA_BLOB@@IABQAU1@AAV?$allocator@PAU_DS_DATA_BLOB@@@0@@Z 100071c0 f i CertVerify.obj
 0001:00006210       ??$?0PAE@?$allocator@PAU_Node@?$_List_nod@PAEV?$allocator@PAE@std@@@std@@@std@@QAE@ABV?$allocator@PAE@1@@Z 10007210 f i CertVerify.obj
 0001:00006230       ??$_Allocate@U_Node@?$_List_nod@PAEV?$allocator@PAE@std@@@std@@@std@@YAPAU_Node@?$_List_nod@PAEV?$allocator@PAE@std@@@0@IPAU120@@Z 10007230 f i CertVerify.obj
 0001:00006250       ??$_Construct@PAU_Node@?$_List_nod@PAEV?$allocator@PAE@std@@@std@@PAU123@@std@@YAXPAPAU_Node@?$_List_nod@PAEV?$allocator@PAE@std@@@0@ABQAU120@@Z 10007250 f i CertVerify.obj
 0001:000062b0       ??$_Destroy@PAU_Node@?$_List_nod@PAEV?$allocator@PAE@std@@@std@@@std@@YAXPAPAU_Node@?$_List_nod@PAEV?$allocator@PAE@std@@@0@@Z 100072b0 f i CertVerify.obj
 0001:000062c0       ??$_Destroy_range@PAU_DS_DATA_BLOB@@V?$allocator@PAU_DS_DATA_BLOB@@@std@@@std@@YAXPAPAU_DS_DATA_BLOB@@0AAV?$allocator@PAU_DS_DATA_BLOB@@@0@@Z 100072c0 f i CertVerify.obj
 0001:00006310       ??$_Ucopy@PAPAU_DS_DATA_BLOB@@@?$vector@PAU_DS_DATA_BLOB@@V?$allocator@PAU_DS_DATA_BLOB@@@std@@@std@@IAEPAPAU_DS_DATA_BLOB@@PAPAU2@00@Z 10007310 f i CertVerify.obj
 0001:00006350       ??$fill@PAPAU_DS_DATA_BLOB@@PAU1@@std@@YAXPAPAU_DS_DATA_BLOB@@0ABQAU1@@Z 10007350 f i CertVerify.obj
 0001:00006380       ??$copy_backward@PAPAU_DS_DATA_BLOB@@PAPAU1@@std@@YAPAPAU_DS_DATA_BLOB@@PAPAU1@00@Z 10007380 f i CertVerify.obj
 0001:000063d0       ??$_Allocate@PAU_DS_DATA_BLOB@@@std@@YAPAPAU_DS_DATA_BLOB@@IPAPAU1@@Z 100073d0 f i CertVerify.obj
 0001:000063f0       ??$?0PAE@?$allocator@U_Node@?$_List_nod@PAEV?$allocator@PAE@std@@@std@@@std@@QAE@ABV?$allocator@PAE@1@@Z 100073f0 f i CertVerify.obj
 0001:00006410       ??$_Destroy@U_Node@?$_List_nod@PAEV?$allocator@PAE@std@@@std@@@std@@YAXPAU_Node@?$_List_nod@PAEV?$allocator@PAE@std@@@0@@Z 10007410 f i CertVerify.obj
 0001:00006420       ??$_Allocate@D@std@@YAPADIPAD@Z 10007420 f i CertVerify.obj
 0001:00006440       ??$_Ptr_cat@U_DS_DATA_BLOB@@@std@@YA?AU_Scalar_ptr_iterator_tag@0@PAPAU_DS_DATA_BLOB@@0@Z 10007440 f i CertVerify.obj
 0001:00006490       ??$_Uninit_fill_n@PAU_DS_DATA_BLOB@@IPAU1@@std@@YAXPAPAU_DS_DATA_BLOB@@IABQAU1@AAV?$allocator@PAU_DS_DATA_BLOB@@@0@U_Scalar_ptr_iterator_tag@0@@Z 10007490 f i CertVerify.obj
 0001:000064b0       ??$_Destroy_range@PAU_DS_DATA_BLOB@@V?$allocator@PAU_DS_DATA_BLOB@@@std@@@std@@YAXPAPAU_DS_DATA_BLOB@@0AAV?$allocator@PAU_DS_DATA_BLOB@@@0@U_Scalar_ptr_iterator_tag@0@@Z 100074b0 f i CertVerify.obj
 0001:000064c0       ??$_Uninitialized_copy@PAPAU_DS_DATA_BLOB@@PAPAU1@V?$allocator@PAU_DS_DATA_BLOB@@@std@@@std@@YAPAPAU_DS_DATA_BLOB@@PAPAU1@00AAV?$allocator@PAU_DS_DATA_BLOB@@@0@@Z 100074c0 f i CertVerify.obj
 0001:00006510       ??$_Copy_backward_opt@PAPAU_DS_DATA_BLOB@@PAPAU1@@std@@YAPAPAU_DS_DATA_BLOB@@PAPAU1@00U_Scalar_ptr_iterator_tag@0@@Z 10007510 f i CertVerify.obj
 0001:00006560       ??$fill_n@PAPAU_DS_DATA_BLOB@@IPAU1@@std@@YAXPAPAU_DS_DATA_BLOB@@IABQAU1@@Z 10007560 f i CertVerify.obj
 0001:00006590       ??$_Uninit_copy@PAU_DS_DATA_BLOB@@PAU1@@std@@YAPAPAU_DS_DATA_BLOB@@PAPAU1@00AAV?$allocator@PAU_DS_DATA_BLOB@@@0@U_Scalar_ptr_iterator_tag@0@@Z 10007590 f i CertVerify.obj
 0001:000065e0       ?FileEncoding@@YAXPAE@Z    100075e0 f   CharConversion.obj
 0001:00006610       ?PrintBstr@@YAXPAG@Z       10007610 f   CharConversion.obj
 0001:000066a0       ?UTF16LEToUTF8@@YAHPAEPAHPBE1@Z 100076a0 f   CharConversion.obj
 0001:00006970       ?UTF8ToUTF16LE@@YAHPAEPAHPBE1@Z 10007970 f   CharConversion.obj
 0001:00006cd0       ?UTF16BEToUTF8@@YAHPAEPAHPBE1@Z 10007cd0 f   CharConversion.obj
 0001:00006fb0       ?UTF8ToUTF16BE@@YAHPAEPAHPBE1@Z 10007fb0 f   CharConversion.obj
 0001:00007300       ?HeapW2A@@YAPAEPAG@Z       10008300 f   CharConversion.obj
 0001:00007520       ?ldump@@YAXPADI@Z          10008520 f   CharConversion.obj
 0001:00007650       ?head@@YAXJ@Z              10008650 f   CharConversion.obj
 0001:000076c0       ?dump@@YAXPADI@Z           100086c0 f   CharConversion.obj
 0001:00007780       ?_AtlGetThreadACPThunk@ATL@@YGIXZ 10008780 f i config.obj
 0001:00007860       ?InterlockedExchangePointer@@YGPAXPAPAXPAX@Z 10008860 f i config.obj
 0001:00007890       ?_AtlGetThreadACPFake@ATL@@YGIXZ 10008890 f i config.obj
 0001:00007990       ?_AtlGetThreadACPReal@ATL@@YGIXZ 10008990 f i config.obj
 0001:000079a0       ??_Estringdispid@CComTypeInfoHolder@ATL@@QAEPAXI@Z 100089a0 f i config.obj
 0001:00007a20       ??1stringdispid@CComTypeInfoHolder@ATL@@QAE@XZ 10008a20 f i config.obj
 0001:00007a50       ??1CComBSTR@ATL@@QAE@XZ    10008a50 f i config.obj
 0001:00007a90       ?GetEnvironmentVariableWThunk@ATL@@YGKPBGPAGK@Z 10008a90 f i config.obj
 0001:00007ae0       ?_AtlInstallStringThunk@ATL@@YAXPAPAXPAX1@Z 10008ae0 f i config.obj
 0001:00007b60       ?GetEnvironmentVariableWFake@ATL@@YGKPBGPAGK@Z 10008b60 f i config.obj
 0001:00007dc0       ?_AtlGetConversionACP@ATL@@YGIXZ 10008dc0 f i config.obj
 0001:00007de0       ?CompareStringWThunk@ATL@@YGHKKPBGH0H@Z 10008de0 f i config.obj
 0001:00007e30       ?CompareStringWFake@ATL@@YGHKKPBGH0H@Z 10008e30 f i config.obj
 0001:00008080       ?_AtlVerifyStackAvailable@_ATL_SAFE_ALLOCA_IMPL@ATL@@YA_NK@Z 10009080 f i config.obj
 0001:00008160       ?AtlW2AHelper@@YGPADPADPBGHI@Z 10009160 f i config.obj
 0001:00008240       ?AtlThrow@ATL@@YGXJ@Z      10009240 f i config.obj
 0001:000082c0       ??0CTraceFileAndLineInfo@ATL@@QAE@PBDH@Z 100092c0 f i config.obj
 0001:000082f0       ??RCTraceFileAndLineInfo@ATL@@QBAXKIPBDZZ 100092f0 f i config.obj
 0001:00008340       ?TraceV@CTrace@ATL@@QBAXPBDHKI0PAD@Z 10009340 f i config.obj
 0001:00008380       ??BCTraceCategory@ATL@@QBEKXZ 10009380 f i config.obj
 0001:000083a0       ??0CAtlException@ATL@@QAE@J@Z 100093a0 f i config.obj
 0001:000083c0       ?GetStringTypeExWThunk@ATL@@YGHKKPBGHPAG@Z 100093c0 f i config.obj
 0001:00008410       ?GetStringTypeExWFake@ATL@@YGHKKPBGHPAG@Z 10009410 f i config.obj
 0001:00008570       ?lstrcmpiWThunk@ATL@@YGHPBG0@Z 10009570 f i config.obj
 0001:000085b0       ?lstrcmpiWFake@ATL@@YGHPBG0@Z 100095b0 f i config.obj
 0001:000086d0       ?CharLowerWThunk@ATL@@YGPAGPAG@Z 100096d0 f i config.obj
 0001:00008710       ?CharLowerWFake@ATL@@YGPAGPAG@Z 10009710 f i config.obj
 0001:00008840       ?AtlA2WHelper@@YGPAGPAGPBDHI@Z 10009840 f i config.obj
 0001:00008920       ?CharUpperWThunk@ATL@@YGPAGPAG@Z 10009920 f i config.obj
 0001:00008960       ?CharUpperWFake@ATL@@YGPAGPAG@Z 10009960 f i config.obj
 0001:00008a90       ??0CConfig@@QAE@PAVCSignature@@@Z 10009a90 f   config.obj
 0001:00008ca0       ??1CConfig@@UAE@XZ         10009ca0 f   config.obj
 0001:00008d00       ?getConfigDetailsFromDom@CConfig@@QAEXPAU_xmlNode@@@Z 10009d00 f   config.obj
 0001:0000a6a0       ?getConfigDetails@CConfig@@QAEHPAU_GLOBAL_SIG@@@Z 1000b6a0 f   config.obj
 0001:0000a730       ?setConfigDetails@CConfig@@QAEHPAG@Z 1000b730 f   config.obj
 0001:0000a8b0       ??_GCConfig@@UAEPAXI@Z     1000b8b0 f i config.obj
 0001:0000a8b0       ??_ECConfig@@UAEPAXI@Z     1000b8b0 f i config.obj
 0001:0000a8f0       ?A2WBSTR@@YAPAGPBDH@Z      1000b8f0 f i config.obj
 0001:0000aac0       ??4CComBSTR@ATL@@QAEAAV01@PBG@Z 1000bac0 f i config.obj
 0001:0000ab40       ?SetCRLTimeOut@CRLCache@@QAEXK@Z 1000bb40 f i config.obj
 0001:0000ab60       ??_GCCAMClient@@QAEPAXI@Z  1000bb60 f i config.obj
 0001:0000aba0       ??_GCRLCache@@QAEPAXI@Z    1000bba0 f i config.obj
 0001:0000abe0       ??0CComBSTR@ATL@@QAE@XZ    1000bbe0 f i config.obj
 0001:0000ac00       ?Length@CComBSTR@ATL@@QBEIXZ 1000bc00 f i config.obj
 0001:0000ac60       ??0?$CW2AEX@$0IA@@ATL@@QAE@PBG@Z 1000bc60 f i config.obj
 0001:0000aca0       ??1?$CW2AEX@$0IA@@ATL@@QAE@XZ 1000bca0 f i config.obj
 0001:0000ace0       ??B?$CW2AEX@$0IA@@ATL@@QBEPADXZ 1000bce0 f i config.obj
 0001:0000ad00       ?Init@?$CW2AEX@$0IA@@ATL@@AAEXPBGI@Z 1000bd00 f i config.obj
 0001:0000add0       ?AtlThrowLastWin32@ATL@@YGXXZ 1000bdd0 f i config.obj
 0001:0000ae40       ??0?$CAtlSafeAllocBufferManager@VCCRTAllocator@ATL@@@_ATL_SAFE_ALLOCA_IMPL@ATL@@QAE@XZ 1000be40 f i config.obj
 0001:0000ae60       ?Allocate@?$CAtlSafeAllocBufferManager@VCCRTAllocator@ATL@@@_ATL_SAFE_ALLOCA_IMPL@ATL@@QAEPAXK@Z 1000be60 f i config.obj
 0001:0000aec0       ?Allocate@CCRTAllocator@ATL@@SAPAXI@Z 1000bec0 f i config.obj
 0001:0000aee0       ??1?$CAtlSafeAllocBufferManager@VCCRTAllocator@ATL@@@_ATL_SAFE_ALLOCA_IMPL@ATL@@QAE@XZ 1000bee0 f i config.obj
 0001:0000af30       ?Free@CCRTAllocator@ATL@@SAXPAX@Z 1000bf30 f i config.obj
 0001:0000af50       ??0?$CTempBuffer@D$0IA@VCCRTAllocator@ATL@@@ATL@@QAE@XZ 1000bf50 f i config.obj
 0001:0000af70       ??1?$CTempBuffer@D$0IA@VCCRTAllocator@ATL@@@ATL@@QAE@XZ 1000bf70 f i config.obj
 0001:0000afb0       ??B?$CTempBuffer@D$0IA@VCCRTAllocator@ATL@@@ATL@@QBEPADXZ 1000bfb0 f i config.obj
 0001:0000afd0       ?Allocate@?$CTempBuffer@D$0IA@VCCRTAllocator@ATL@@@ATL@@QAEPADI@Z 1000bfd0 f i config.obj
 0001:0000b000       ?AllocateBytes@?$CTempBuffer@D$0IA@VCCRTAllocator@ATL@@@ATL@@QAEPADI@Z 1000c000 f i config.obj
 0001:0000b070       ?FreeHeap@?$CTempBuffer@D$0IA@VCCRTAllocator@ATL@@@ATL@@AAEXXZ 1000c070 f i config.obj
 0001:0000b0a0       ?GetData@CAtlSafeAllocBufferNode@?$CAtlSafeAllocBufferManager@VCCRTAllocator@ATL@@@_ATL_SAFE_ALLOCA_IMPL@ATL@@QAEPAXXZ 1000c0a0 f i config.obj
 0001:0000b0c0       ?AllocateHeap@?$CTempBuffer@D$0IA@VCCRTAllocator@ATL@@@ATL@@AAEXI@Z 1000c0c0 f i config.obj
 0001:0000b110       ?GetTimeDifferenceInMinutes@@YAJPAU_SYSTEMTIME@@0@Z 1000c110 f   CRLCache.obj
 0001:0000b1d0       ??0CRLCache@@QAE@PAGPAU_GLOBAL_SIG@@@Z 1000c1d0 f   CRLCache.obj
 0001:0000b6b0       ??1CRLCache@@QAE@XZ        1000c6b0 f   CRLCache.obj
 0001:0000b710       ?FetchCRLFromCRLCache@CRLCache@@QAEPAPAU_DS_DATA_BLOB@@PAU_CRYPTOAPI_BLOB@@PAIPAU_GLOBAL_SIG@@@Z 1000c710 f   CRLCache.obj
 0001:0000c800       ?EnterCRLIntoCRLCache@CRLCache@@QAEXPAU_CRYPTOAPI_BLOB@@PAU_DS_DATA_BLOB@@PAU_GLOBAL_SIG@@@Z 1000d800 f   CRLCache.obj
 0001:0000d140       ?DeleteCRLFromCRLCache@CRLCache@@QAEXPAU_CRYPTOAPI_BLOB@@PAU_DS_DATA_BLOB@@PAU_GLOBAL_SIG@@@Z 1000e140 f   CRLCache.obj
 0001:0000d900       ??0_bstr_t@@QAE@PBD@Z      1000e900 f i CRLCache.obj
 0001:0000d9b0       ??0_bstr_t@@QAE@PBG@Z      1000e9b0 f i CRLCache.obj
 0001:0000da60       ??1_bstr_t@@QAE@XZ         1000ea60 f i CRLCache.obj
 0001:0000da90       ??H_bstr_t@@QBE?AV0@ABV0@@Z 1000ea90 f i CRLCache.obj
 0001:0000db50       ??0_bstr_t@@QAE@ABV0@@Z    1000eb50 f i CRLCache.obj
 0001:0000db90       ??Y_bstr_t@@QAEAAV0@ABV0@@Z 1000eb90 f i CRLCache.obj
 0001:0000dc50       ??B_bstr_t@@QBEPADXZ       1000ec50 f i CRLCache.obj
 0001:0000dca0       ?_AddRef@_bstr_t@@AAEXXZ   1000eca0 f i CRLCache.obj
 0001:0000dcd0       ?_Free@_bstr_t@@AAEXXZ     1000ecd0 f i CRLCache.obj
 0001:0000dd10       ??0Data_t@_bstr_t@@QAE@PBD@Z 1000ed10 f i CRLCache.obj
 0001:0000dd60       ??0Data_t@_bstr_t@@QAE@PBG@Z 1000ed60 f i CRLCache.obj
 0001:0000ddd0       ??0Data_t@_bstr_t@@QAE@ABV1@0@Z 1000edd0 f i CRLCache.obj
 0001:0000dec0       ??B_bstr_t@@QBEPBGXZ       1000eec0 f i CRLCache.obj
 0001:0000df10       ?length@_bstr_t@@QBEIXZ    1000ef10 f i CRLCache.obj
 0001:0000df60       ?AddRef@Data_t@_bstr_t@@QAEKXZ 1000ef60 f i CRLCache.obj
 0001:0000dfa0       ?Release@Data_t@_bstr_t@@QAEKXZ 1000efa0 f i CRLCache.obj
 0001:0000e020       ?GetWString@Data_t@_bstr_t@@QAEAAPAGXZ 1000f020 f i CRLCache.obj
 0001:0000e040       ?GetString@Data_t@_bstr_t@@QBEPBDXZ 1000f040 f i CRLCache.obj
 0001:0000e080       ?Length@Data_t@_bstr_t@@QBEIXZ 1000f080 f i CRLCache.obj
 0001:0000e0e0       ??2Data_t@_bstr_t@@SAPAXI@Z 1000f0e0 f i CRLCache.obj
 0001:0000e100       ??0_variant_t@@QAE@JG@Z    1000f100 f i CRLCache.obj
 0001:0000e1a0       ??1_variant_t@@QAE@XZ      1000f1a0 f i CRLCache.obj
 0001:0000e1e0       ?CheckError@_com_util@@YAXJ@Z 1000f1e0 f i CRLCache.obj
 0001:0000e200       ??0_bstr_t@@QAE@ABV_variant_t@@@Z 1000f200 f i CRLCache.obj
 0001:0000e2e0       ??4_bstr_t@@QAEAAV0@PBG@Z  1000f2e0 f i CRLCache.obj
 0001:0000e3c0       ??0_variant_t@@QAE@XZ      1000f3c0 f i CRLCache.obj
 0001:0000e400       ?ChangeType@_variant_t@@QAEXGPBV1@@Z 1000f400 f i CRLCache.obj
 0001:0000e470       ?Error@_com_error@@QBEJXZ  1000f470 f i CRLCache.obj
 0001:0000e490       ?Description@_com_error@@QBE?AV_bstr_t@@XZ 1000f490 f i CRLCache.obj
 0001:0000e540       ??0_bstr_t@@QAE@PAG_N@Z    1000f540 f i CRLCache.obj
 0001:0000e5f0       ??0Data_t@_bstr_t@@QAE@PAG_N@Z 1000f5f0 f i CRLCache.obj
 0001:0000e680       ?Source@_com_error@@QBE?AV_bstr_t@@XZ 1000f680 f i CRLCache.obj
 0001:0000e730       ?ErrorMessage@_com_error@@QBEPBDXZ 1000f730 f i CRLCache.obj
 0001:0000e890       ?WCode@_com_error@@QBEGXZ  1000f890 f i CRLCache.obj
 0001:0000e8c0       ?HRESULTToWCode@_com_error@@SAGJ@Z 1000f8c0 f i CRLCache.obj
 0001:0000e900       ??_GData_t@_bstr_t@@AAEPAXI@Z 1000f900 f i CRLCache.obj
 0001:0000e940       ??1Data_t@_bstr_t@@AAE@XZ  1000f940 f i CRLCache.obj
 0001:0000e970       ?_Free@Data_t@_bstr_t@@AAEXXZ 1000f970 f i CRLCache.obj
 0001:0000e9e0       ?PutConnectionString@Connection15@@QAEXV_bstr_t@@@Z 1000f9e0 f i CRLCache.obj
 0001:0000ea80       ??B_bstr_t@@QBEPAGXZ       1000fa80 f i CRLCache.obj
 0001:0000ead0       ?Close@Connection15@@QAEJXZ 1000fad0 f i CRLCache.obj
 0001:0000eb30       ?Open@Connection15@@QAEJV_bstr_t@@00J@Z 1000fb30 f i CRLCache.obj
 0001:0000ec10       ??B_bstr_t@@QBEPBDXZ       1000fc10 f i CRLCache.obj
 0001:0000ec60       ??0_variant_t@@QAE@ABV_bstr_t@@@Z 1000fc60 f i CRLCache.obj
 0001:0000ed00       ?GetValue@Field20@@QAE?AV_variant_t@@XZ 1000fd00 f i CRLCache.obj
 0001:0000edd0       ??0_variant_t@@QAE@AAUtagVARIANT@@_N@Z 1000fdd0 f i CRLCache.obj
 0001:0000ee50       ?GetItem@Fields15@@QAE?AV?$_com_ptr_t@V?$_com_IIID@UField@@$1?_GUID_00000569_0000_0010_8000_00aa006d2ea4@@3U__s_GUID@@B@@@@ABV_variant_t@@@Z 1000fe50 f i CRLCache.obj
 0001:0000ef40       ?PutRefActiveConnection@Recordset15@@QAEXPAUIDispatch@@@Z 1000ff40 f i CRLCache.obj
 0001:0000efa0       ?GetadoEOF@Recordset15@@QAEFXZ 1000ffa0 f i CRLCache.obj
 0001:0000f040       ?GetFields@Recordset15@@QAE?AV?$_com_ptr_t@V?$_com_IIID@UFields@@$1?_GUID_00000564_0000_0010_8000_00aa006d2ea4@@3U__s_GUID@@B@@@@XZ 10010040 f i CRLCache.obj
 0001:0000f100       ?GetRecordCount@Recordset15@@QAEJXZ 10010100 f i CRLCache.obj
 0001:0000f1a0       ?Close@Recordset15@@QAEJXZ 100101a0 f i CRLCache.obj
 0001:0000f200       ?Delete@Recordset15@@QAEJW4AffectEnum@@@Z 10010200 f i CRLCache.obj
 0001:0000f270       ?MoveNext@Recordset15@@QAEJXZ 10010270 f i CRLCache.obj
 0001:0000f2d0       ?Open@Recordset15@@QAEJABV_variant_t@@0W4CursorTypeEnum@@W4LockTypeEnum@@J@Z 100102d0 f i CRLCache.obj
 0001:0000f3b0       ?Execute@Connection15@@QAE?AV?$_com_ptr_t@V?$_com_IIID@U_Recordset@@$1?_GUID_00000556_0000_0010_8000_00aa006d2ea4@@3U__s_GUID@@B@@@@V_bstr_t@@PAUtagVARIANT@@J@Z 100103b0 f i CRLCache.obj
 0001:0000f4c0       ??0?$_com_ptr_t@V?$_com_IIID@UField@@$1?_GUID_00000569_0000_0010_8000_00aa006d2ea4@@3U__s_GUID@@B@@@@QAE@PAUField@@_N@Z 100104c0 f i CRLCache.obj
 0001:0000f500       ??1?$_com_ptr_t@V?$_com_IIID@UField@@$1?_GUID_00000569_0000_0010_8000_00aa006d2ea4@@3U__s_GUID@@B@@@@QAE@XZ 10010500 f i CRLCache.obj
 0001:0000f530       ??C?$_com_ptr_t@V?$_com_IIID@UField@@$1?_GUID_00000569_0000_0010_8000_00aa006d2ea4@@3U__s_GUID@@B@@@@QBEPAUField@@XZ 10010530 f i CRLCache.obj
 0001:0000f570       ??0?$_com_ptr_t@V?$_com_IIID@U_Connection@@$1?_GUID_00000550_0000_0010_8000_00aa006d2ea4@@3U__s_GUID@@B@@@@QAE@XZ 10010570 f i CRLCache.obj
 0001:0000f590       ??1?$_com_ptr_t@V?$_com_IIID@U_Connection@@$1?_GUID_00000550_0000_0010_8000_00aa006d2ea4@@3U__s_GUID@@B@@@@QAE@XZ 10010590 f i CRLCache.obj
 0001:0000f5c0       ??B?$_com_ptr_t@V?$_com_IIID@U_Connection@@$1?_GUID_00000550_0000_0010_8000_00aa006d2ea4@@3U__s_GUID@@B@@@@QBEPAU_Connection@@XZ 100105c0 f i CRLCache.obj
 0001:0000f5e0       ??C?$_com_ptr_t@V?$_com_IIID@U_Connection@@$1?_GUID_00000550_0000_0010_8000_00aa006d2ea4@@3U__s_GUID@@B@@@@QBEPAU_Connection@@XZ 100105e0 f i CRLCache.obj
 0001:0000f620       ?CreateInstance@?$_com_ptr_t@V?$_com_IIID@U_Connection@@$1?_GUID_00000550_0000_0010_8000_00aa006d2ea4@@3U__s_GUID@@B@@@@QAEJABU_GUID@@PAUIUnknown@@K@Z 10010620 f i CRLCache.obj
 0001:0000f750       ??0?$_com_ptr_t@V?$_com_IIID@U_Recordset@@$1?_GUID_00000556_0000_0010_8000_00aa006d2ea4@@3U__s_GUID@@B@@@@QAE@XZ 10010750 f i CRLCache.obj
 0001:0000f770       ??0?$_com_ptr_t@V?$_com_IIID@U_Recordset@@$1?_GUID_00000556_0000_0010_8000_00aa006d2ea4@@3U__s_GUID@@B@@@@QAE@PAU_Recordset@@_N@Z 10010770 f i CRLCache.obj
 0001:0000f7b0       ??1?$_com_ptr_t@V?$_com_IIID@U_Recordset@@$1?_GUID_00000556_0000_0010_8000_00aa006d2ea4@@3U__s_GUID@@B@@@@QAE@XZ 100107b0 f i CRLCache.obj
 0001:0000f7e0       ??C?$_com_ptr_t@V?$_com_IIID@U_Recordset@@$1?_GUID_00000556_0000_0010_8000_00aa006d2ea4@@3U__s_GUID@@B@@@@QBEPAU_Recordset@@XZ 100107e0 f i CRLCache.obj
 0001:0000f820       ?CreateInstance@?$_com_ptr_t@V?$_com_IIID@U_Recordset@@$1?_GUID_00000556_0000_0010_8000_00aa006d2ea4@@3U__s_GUID@@B@@@@QAEJABU_GUID@@PAUIUnknown@@K@Z 10010820 f i CRLCache.obj
 0001:0000f950       ??0?$_com_ptr_t@V?$_com_IIID@UFields@@$1?_GUID_00000564_0000_0010_8000_00aa006d2ea4@@3U__s_GUID@@B@@@@QAE@PAUFields@@_N@Z 10010950 f i CRLCache.obj
 0001:0000f990       ??1?$_com_ptr_t@V?$_com_IIID@UFields@@$1?_GUID_00000564_0000_0010_8000_00aa006d2ea4@@3U__s_GUID@@B@@@@QAE@XZ 10010990 f i CRLCache.obj
 0001:0000f9c0       ??C?$_com_ptr_t@V?$_com_IIID@UFields@@$1?_GUID_00000564_0000_0010_8000_00aa006d2ea4@@3U__s_GUID@@B@@@@QBEPAUFields@@XZ 100109c0 f i CRLCache.obj
 0001:0000fa00       ?_Release@?$_com_ptr_t@V?$_com_IIID@UField@@$1?_GUID_00000569_0000_0010_8000_00aa006d2ea4@@3U__s_GUID@@B@@@@AAEXXZ 10010a00 f i CRLCache.obj
 0001:0000fa40       ?_AddRef@?$_com_ptr_t@V?$_com_IIID@UField@@$1?_GUID_00000569_0000_0010_8000_00aa006d2ea4@@3U__s_GUID@@B@@@@AAEXXZ 10010a40 f i CRLCache.obj
 0001:0000fa80       ?GetIID@?$_com_ptr_t@V?$_com_IIID@U_Connection@@$1?_GUID_00000550_0000_0010_8000_00aa006d2ea4@@3U__s_GUID@@B@@@@SAABU_GUID@@XZ 10010a80 f i CRLCache.obj
 0001:0000faa0       ?_Release@?$_com_ptr_t@V?$_com_IIID@U_Connection@@$1?_GUID_00000550_0000_0010_8000_00aa006d2ea4@@3U__s_GUID@@B@@@@AAEXXZ 10010aa0 f i CRLCache.obj
 0001:0000fae0       ?GetIID@?$_com_ptr_t@V?$_com_IIID@U_Recordset@@$1?_GUID_00000556_0000_0010_8000_00aa006d2ea4@@3U__s_GUID@@B@@@@SAABU_GUID@@XZ 10010ae0 f i CRLCache.obj
 0001:0000fb00       ?_Release@?$_com_ptr_t@V?$_com_IIID@U_Recordset@@$1?_GUID_00000556_0000_0010_8000_00aa006d2ea4@@3U__s_GUID@@B@@@@AAEXXZ 10010b00 f i CRLCache.obj
 0001:0000fb40       ?_AddRef@?$_com_ptr_t@V?$_com_IIID@U_Recordset@@$1?_GUID_00000556_0000_0010_8000_00aa006d2ea4@@3U__s_GUID@@B@@@@AAEXXZ 10010b40 f i CRLCache.obj
 0001:0000fb80       ?_Release@?$_com_ptr_t@V?$_com_IIID@UFields@@$1?_GUID_00000564_0000_0010_8000_00aa006d2ea4@@3U__s_GUID@@B@@@@AAEXXZ 10010b80 f i CRLCache.obj
 0001:0000fbc0       ?_AddRef@?$_com_ptr_t@V?$_com_IIID@UFields@@$1?_GUID_00000564_0000_0010_8000_00aa006d2ea4@@3U__s_GUID@@B@@@@AAEXXZ 10010bc0 f i CRLCache.obj
 0001:0000fc00       ?GetIID@?$_com_IIID@U_Connection@@$1?_GUID_00000550_0000_0010_8000_00aa006d2ea4@@3U__s_GUID@@B@@SAABU_GUID@@XZ 10010c00 f i CRLCache.obj
 0001:0000fc10       ?GetIID@?$_com_IIID@U_Recordset@@$1?_GUID_00000556_0000_0010_8000_00aa006d2ea4@@3U__s_GUID@@B@@SAABU_GUID@@XZ 10010c10 f i CRLCache.obj
 0001:0000fc20       ??0CLicense@@QAE@XZ        10010c20 f   License.obj
 0001:0000fe40       ??1CLicense@@UAE@XZ        10010e40 f   License.obj
 0001:0000ff00       ?getLicenseDetails@CLicense@@QAEHPAU_GLOBAL_SIG@@@Z 10010f00 f   License.obj
 0001:00010af0       ?getHostOsType@CLicense@@SAJXZ 10011af0 f   License.obj
 0001:00010d80       ?verifyLicense@CLicense@@QAEHPAU_GLOBAL_SIG@@@Z 10011d80 f   License.obj
 0001:00011780       ?Get_CRC_CheckSum@CLicense@@SAXPAXKPAK@Z 10012780 f   License.obj
 0001:00011800       ?verifyFloatingLicense@CLicense@@QAEXPAEKPAU_GLOBAL_SIG@@@Z 10012800 f   License.obj
 0001:00012700       ?floatingLicenseStatus@CLicense@@QAEHXZ 10013700 f   License.obj
 0001:000128b0       ?verifyTemplateSignature@CLicense@@QAEHPAEIPAU_GLOBAL_SIG@@@Z 100138b0 f   License.obj
 0001:00012d50       ?validateXmlWithSchema@CLicense@@QAEHPAEPAU_xmlDoc@@PAU_GLOBAL_SIG@@@Z 10013d50 f   License.obj
 0001:00012e00       ?verifyFormSchema@CLicense@@QAEHPAEPAU_xmlDoc@@PAU_GLOBAL_SIG@@@Z 10013e00 f   License.obj
 0001:00013160       ?getFormSignAllowed@CLicense@@QAEHPAEIPAU_GLOBAL_SIG@@@Z 10014160 f   License.obj
 0001:00013560       ?verifyTemplateSchema@CLicense@@QAEHPAEPAU_GLOBAL_SIG@@@Z 10014560 f   License.obj
 0001:00013850       ??_GCLicense@@UAEPAXI@Z    10014850 f i License.obj
 0001:00013850       ??_ECLicense@@UAEPAXI@Z    10014850 f i License.obj
 0001:00013890       ??0?$basic_string@DU?$char_traits@D@std@@V?$allocator@D@2@@std@@QAE@XZ 10014890 f i License.obj
 0001:000138e0       ??4?$basic_string@DU?$char_traits@D@std@@V?$allocator@D@2@@std@@QAEAAV01@PBD@Z 100148e0 f i License.obj
 0001:00013910       ?length@?$basic_string@DU?$char_traits@D@std@@V?$allocator@D@2@@std@@QBEIXZ 10014910 f i License.obj
 0001:00013930       ??$?HDU?$char_traits@D@std@@V?$allocator@D@1@@std@@YA?AV?$basic_string@DU?$char_traits@D@std@@V?$allocator@D@2@@0@ABV10@0@Z 10014930 f i License.obj
 0001:000139d0       ??$?9DU?$char_traits@D@std@@V?$allocator@D@1@@std@@YA_NABV?$basic_string@DU?$char_traits@D@std@@V?$allocator@D@2@@0@0@Z 100149d0 f i License.obj
 0001:00013a00       ??Y?$basic_string@DU?$char_traits@D@std@@V?$allocator@D@2@@std@@QAEAAV01@ABV01@@Z 10014a00 f i License.obj
 0001:00013a30       ?append@?$basic_string@DU?$char_traits@D@std@@V?$allocator@D@2@@std@@QAEAAV12@ABV12@@Z 10014a30 f i License.obj
 0001:00013a60       ?append@?$basic_string@DU?$char_traits@D@std@@V?$allocator@D@2@@std@@QAEAAV12@ABV12@II@Z 10014a60 f i License.obj
 0001:00013b30       ??$?8DU?$char_traits@D@std@@V?$allocator@D@1@@std@@YA_NABV?$basic_string@DU?$char_traits@D@std@@V?$allocator@D@2@@0@0@Z 10014b30 f i License.obj
 0001:00013b50       ?compare@?$basic_string@DU?$char_traits@D@std@@V?$allocator@D@2@@std@@QBEHABV12@@Z 10014b50 f i License.obj
 0001:00013ba0       ?compare@?$basic_string@DU?$char_traits@D@std@@V?$allocator@D@2@@std@@QBEHIIPBDI@Z 10014ba0 f i License.obj
 0001:00013c80       ?compare@?$char_traits@D@std@@SAHPBD0I@Z 10014c80 f i License.obj
 0001:00013ca0       ??0CShowSelectCert@@QAE@PAEPAPAU_CERT_DESCR@@J@Z 10014ca0 f   ShowSelectCert.obj
 0001:00014030       ??1CShowSelectCert@@UAE@XZ 10015030 f   ShowSelectCert.obj
 0001:00014130       ?getCertificateData@CShowSelectCert@@QAEPADH@Z 10015130 f   ShowSelectCert.obj
 0001:00014170       ?OnClickedButton1@CShowSelectCert@@QAEJGGPAUHWND__@@AAH@Z 10015170 f   ShowSelectCert.obj
 0001:000141b0       ?ProcessWindowMessage@CShowSelectCert@@UAEHPAUHWND__@@IIJAAJK@Z 100151b0 f i ShowSelectCert.obj
 0001:00014420       ?OnInitDialog@CShowSelectCert@@QAEJIIJAAH@Z 10015420 f i ShowSelectCert.obj
 0001:00014600       ?OnOK@CShowSelectCert@@QAEJGGPAUHWND__@@AAH@Z 10015600 f i ShowSelectCert.obj
 0001:00014650       ?OnCancel@CShowSelectCert@@QAEJGGPAUHWND__@@AAH@Z 10015650 f i ShowSelectCert.obj
 0001:00014690       ?CreateHeader@CShowSelectCert@@QAEXXZ 10015690 f i ShowSelectCert.obj
 0001:00014860       ?SetCell@CShowSelectCert@@QAEXPAGHH@Z 10015860 f i ShowSelectCert.obj
 0001:00014950       ?OnClickList@CShowSelectCert@@QAEJHPAUtagNMHDR@@AAH@Z 10015950 f i ShowSelectCert.obj
 0001:00014990       ?setSelection@CShowSelectCert@@QAEXXZ 10015990 f i ShowSelectCert.obj
 0001:00014a50       ??_GCShowSelectCert@@UAEPAXI@Z 10015a50 f i ShowSelectCert.obj
 0001:00014a50       ??_ECShowSelectCert@@UAEPAXI@Z 10015a50 f i ShowSelectCert.obj
 0001:00014a90       ??BCComBSTR@ATL@@QBEPAGXZ  10015a90 f i ShowSelectCert.obj
 0001:00014ab0       ?LoadStringA@CComBSTR@ATL@@QAE_NI@Z 10015ab0 f i ShowSelectCert.obj
 0001:00014b00       ?LoadStringResource@CComBSTR@ATL@@SA_NIAAPAG@Z 10015b00 f i ShowSelectCert.obj
 0001:00014b90       ?AtlGetStringResourceImage@ATL@@YAPBUATLSTRINGRESOURCEIMAGE@1@I@Z 10015b90 f i ShowSelectCert.obj
 0001:00014c20       ?AtlGetStringResourceImage@ATL@@YAPBUATLSTRINGRESOURCEIMAGE@1@PAUHINSTANCE__@@I@Z 10015c20 f i ShowSelectCert.obj
 0001:00014c80       ?_AtlGetStringResourceImage@ATL@@YAPBUATLSTRINGRESOURCEIMAGE@1@PAUHINSTANCE__@@PAUHRSRC__@@I@Z 10015c80 f i ShowSelectCert.obj
 0001:00014d70       ??BCWindow@ATL@@QBEPAUHWND__@@XZ 10015d70 f i ShowSelectCert.obj
 0001:00014d90       ?SendMessageA@CWindow@ATL@@QAEJIIJ@Z 10015d90 f i ShowSelectCert.obj
 0001:00014e10       ?GetDlgItem@CWindow@ATL@@QBE?AV12@H@Z 10015e10 f i ShowSelectCert.obj
 0001:00014e90       ??0CWindow@ATL@@QAE@PAUHWND__@@@Z 10015e90 f i ShowSelectCert.obj
 0001:00014eb0       ??1?$CAxDialogImpl@VCShowSelectCert@@VCWindow@ATL@@@ATL@@UAE@XZ 10015eb0 f i ShowSelectCert.obj
 0001:00014ee0       ?Detach@CWindow@ATL@@QAEPAUHWND__@@XZ 10015ee0 f i ShowSelectCert.obj
 0001:00014f10       ?CenterWindow@CWindow@ATL@@QAEHPAUHWND__@@@Z 10015f10 f i ShowSelectCert.obj
 0001:00015260       ?GetStyle@CWindow@ATL@@QBEKXZ 10016260 f i ShowSelectCert.obj
 0001:000152d0       ??0?$CAxDialogImpl@VCShowSelectCert@@VCWindow@ATL@@@ATL@@QAE@XZ 100162d0 f i ShowSelectCert.obj
 0001:00015300       ?GetDialogProc@?$CAxDialogImpl@VCShowSelectCert@@VCWindow@ATL@@@ATL@@UAEP6GHPAUHWND__@@IIJ@ZXZ 10016300 f i ShowSelectCert.obj
 0001:00015320       ?EndDialog@?$CAxDialogImpl@VCShowSelectCert@@VCWindow@ATL@@@ATL@@QAEHH@Z 10016320 f i ShowSelectCert.obj
 0001:000153d0       ?CreateActiveXControls@?$CAxDialogImpl@VCShowSelectCert@@VCWindow@ATL@@@ATL@@UAEJI@Z 100163d0 f i ShowSelectCert.obj
 0001:00015a40       ?GetResourceInstance@CAtlBaseModule@ATL@@QAEPAUHINSTANCE__@@XZ 10016a40 f i ShowSelectCert.obj
 0001:00015a60       ?AtlHresultFromLastError@ATL@@YAJXZ 10016a60 f i ShowSelectCert.obj
 0001:00015ac0       ??0_U_RECT@ATL@@QAE@PAUtagRECT@@@Z 10016ac0 f i ShowSelectCert.obj
 0001:00015ae0       ??0_U_MENUorID@ATL@@QAE@I@Z 10016ae0 f i ShowSelectCert.obj
 0001:00015b00       ?IsDialogEx@_DialogSplitHelper@ATL@@SAHPBUDLGTEMPLATE@@@Z 10016b00 f i ShowSelectCert.obj
 0001:00015b20       ?DlgTemplateItemCount@_DialogSplitHelper@ATL@@SAAAGPAUDLGTEMPLATE@@@Z 10016b20 f i ShowSelectCert.obj
 0001:00015b50       ?FindFirstDlgItem@_DialogSplitHelper@ATL@@SAPAUDLGITEMTEMPLATE@@PBUDLGTEMPLATE@@@Z 10016b50 f i ShowSelectCert.obj
 0001:00015c90       ?FindNextDlgItem@_DialogSplitHelper@ATL@@SAPAUDLGITEMTEMPLATE@@PAU3@H@Z 10016c90 f i ShowSelectCert.obj
 0001:00015d70       ?FindCreateData@_DialogSplitHelper@ATL@@SAKKPAEPAPAE@Z 10016d70 f i ShowSelectCert.obj
 0001:00015e40       ?IsActiveXControl@_DialogSplitHelper@ATL@@SA_NPAUDLGITEMTEMPLATE@@H@Z 10016e40 f i ShowSelectCert.obj
 0001:00015e90       ?ParseInitData@_DialogSplitHelper@ATL@@SAJPAUIStream@@PAPAG@Z 10016e90 f i ShowSelectCert.obj
 0001:000161c0       ??0CComBSTR@ATL@@QAE@H@Z   100171c0 f i ShowSelectCert.obj
 0001:00016220       ?Detach@CComBSTR@ATL@@QAEPAGXZ 10017220 f i ShowSelectCert.obj
 0001:00016250       ?SetWindowPos@CWindow@ATL@@QAEHPAUHWND__@@HHHHI@Z 10017250 f i ShowSelectCert.obj
 0001:000162e0       ?GetWindow@CWindow@ATL@@QBE?AV12@I@Z 100172e0 f i ShowSelectCert.obj
 0001:00016360       ?SetWindowContextHelpId@CWindow@ATL@@QAEHK@Z 10017360 f i ShowSelectCert.obj
 0001:000163e0       ??0?$CDialogImplBaseT@VCWindow@ATL@@@ATL@@QAE@XZ 100173e0 f i ShowSelectCert.obj
 0001:00016410       ?MapDialogRect@?$CDialogImplBaseT@VCWindow@ATL@@@ATL@@QAEHPAUtagRECT@@@Z 10017410 f i ShowSelectCert.obj
 0001:00016490       ??0?$CAxWindow2T@VCWindow@ATL@@@ATL@@QAE@PAUHWND__@@@Z 10017490 f i ShowSelectCert.obj
 0001:000164c0       ?Create@?$CAxWindow2T@VCWindow@ATL@@@ATL@@QAEPAUHWND__@@PAU3@V_U_RECT@2@PBDKKV_U_MENUorID@2@PAX@Z 100174c0 f i ShowSelectCert.obj
 0001:00016510       ?Create@CWindow@ATL@@QAEPAUHWND__@@PBDPAU3@V_U_RECT@2@0KKV_U_MENUorID@2@PAX@Z 10017510 f i ShowSelectCert.obj
 0001:000165d0       ?CreateControlLic@?$CAxWindow2T@VCWindow@ATL@@@ATL@@QAEJPBGPAUIStream@@PAPAUIUnknown@@PAG@Z 100175d0 f i ShowSelectCert.obj
 0001:00016610       ?GetWndClassName@?$CAxWindow2T@VCWindow@ATL@@@ATL@@SAPBDXZ 10017610 f i ShowSelectCert.obj
 0001:00016620       ?CreateControlLicEx@?$CAxWindow2T@VCWindow@ATL@@@ATL@@QAEJPBGPAUIStream@@PAPAUIUnknown@@2ABU_GUID@@PAU4@PAG@Z 10017620 f i ShowSelectCert.obj
 0001:00016830       ??1?$CComPtr@UIUnknown@@@ATL@@QAE@XZ 10017830 f i ShowSelectCert.obj
 0001:00016860       ??0?$CAxWindowT@VCWindow@ATL@@@ATL@@QAE@PAUHWND__@@@Z 10017860 f i ShowSelectCert.obj
 0001:000168a0       ??1?$CComPtr@UIAxWinHostWindowLic@@@ATL@@QAE@XZ 100178a0 f i ShowSelectCert.obj
 0001:000168d0       ?Detach@?$CComPtrBase@UIUnknown@@@ATL@@QAEPAUIUnknown@@XZ 100178d0 f i ShowSelectCert.obj
 0001:00016900       ??0?$CComPtr@UIAxWinHostWindowLic@@@ATL@@QAE@XZ 10017900 f i ShowSelectCert.obj
 0001:00016930       ??1?$CComPtrBase@UIAxWinHostWindowLic@@@ATL@@QAE@XZ 10017930 f i ShowSelectCert.obj
 0001:00016970       ??I?$CComPtrBase@UIAxWinHostWindowLic@@@ATL@@QAEPAPAUIAxWinHostWindowLic@@XZ 10017970 f i ShowSelectCert.obj
 0001:000169c0       ??C?$CComPtrBase@UIAxWinHostWindowLic@@@ATL@@QBEPAV?$_NoAddRefReleaseOnCComPtr@UIAxWinHostWindowLic@@@1@XZ 100179c0 f i ShowSelectCert.obj
 0001:00016a10       ??0?$CComPtrBase@UIAxWinHostWindowLic@@@ATL@@IAE@XZ 10017a10 f i ShowSelectCert.obj
 0001:00016a30       ?DialogProc@?$CAxDialogImpl@VCShowSelectCert@@VCWindow@ATL@@@ATL@@SGHPAUHWND__@@IIJ@Z 10017a30 f i ShowSelectCert.obj
 0001:00016ad0       ??$QueryHost@UIAxWinHostWindowLic@@@?$CAxWindowT@VCWindow@ATL@@@ATL@@QAEJPAPAUIAxWinHostWindowLic@@@Z 10017ad0 f i ShowSelectCert.obj
 0001:00016b00       ??$QueryInterface@UIUnknown@@@?$CComPtrBase@UIAxWinHostWindowLic@@@ATL@@QBEJPAPAUIUnknown@@@Z 10017b00 f i ShowSelectCert.obj
 0001:00016b70       ?GetIDD@?$CAxDialogImpl@VCShowSelectCert@@VCWindow@ATL@@@ATL@@QAEHXZ 10017b70 f i ShowSelectCert.obj
 0001:00016b90       ?DestroyWindow@?$CAxDialogImpl@VCShowSelectCert@@VCWindow@ATL@@@ATL@@QAEHXZ 10017b90 f i ShowSelectCert.obj
 0001:00016c30       ?QueryHost@?$CAxWindowT@VCWindow@ATL@@@ATL@@QAEJABU_GUID@@PAPAX@Z 10017c30 f i ShowSelectCert.obj
 0001:00016d70       ??1?$CComPtr@UIStream@@@ATL@@QAE@XZ 10017d70 f i ShowSelectCert.obj
 0001:00016da0       ??0?$CComPtr@UIUnknown@@@ATL@@QAE@XZ 10017da0 f i ShowSelectCert.obj
 0001:00016dd0       ??1?$CComPtrBase@UIUnknown@@@ATL@@QAE@XZ 10017dd0 f i ShowSelectCert.obj
 0001:00016e10       ??I?$CComPtrBase@UIUnknown@@@ATL@@QAEPAPAUIUnknown@@XZ 10017e10 f i ShowSelectCert.obj
 0001:00016e60       ??C?$CComPtrBase@UIUnknown@@@ATL@@QBEPAV?$_NoAddRefReleaseOnCComPtr@UIUnknown@@@1@XZ 10017e60 f i ShowSelectCert.obj
 0001:00016eb0       ??1?$CDialogImplBaseT@VCWindow@ATL@@@ATL@@UAE@XZ 10017eb0 f i ShowSelectCert.obj
 0001:00016ee0       ?OnFinalMessage@?$CDialogImplBaseT@VCWindow@ATL@@@ATL@@UAEXPAUHWND__@@@Z 10017ee0 f i ShowSelectCert.obj
 0001:00016f00       ??1?$CWindowImplRoot@VCWindow@ATL@@@ATL@@UAE@XZ 10017f00 f i ShowSelectCert.obj
 0001:00016fc0       ??0?$CComPtr@UIStream@@@ATL@@QAE@XZ 10017fc0 f i ShowSelectCert.obj
 0001:00016ff0       ??1?$CComPtrBase@UIStream@@@ATL@@QAE@XZ 10017ff0 f i ShowSelectCert.obj
 0001:00017030       ??B?$CComPtrBase@UIStream@@@ATL@@QBEPAUIStream@@XZ 10018030 f i ShowSelectCert.obj
 0001:00017050       ??I?$CComPtrBase@UIStream@@@ATL@@QAEPAPAUIStream@@XZ 10018050 f i ShowSelectCert.obj
 0001:000170a0       ??1CWndProcThunk@ATL@@QAE@XZ 100180a0 f i ShowSelectCert.obj
 0001:000170d0       ??1CDynamicStdCallThunk@ATL@@QAE@XZ 100180d0 f i ShowSelectCert.obj
 0001:00017120       ??0?$CComPtrBase@UIUnknown@@@ATL@@IAE@XZ 10018120 f i ShowSelectCert.obj
 0001:00017140       ??0?$CWindowImplRoot@VCWindow@ATL@@@ATL@@QAE@XZ 10018140 f i ShowSelectCert.obj
 0001:000171a0       ??0?$CComPtrBase@UIStream@@@ATL@@IAE@XZ 100181a0 f i ShowSelectCert.obj
 0001:000171c0       ??0CMessageMap@ATL@@QAE@XZ 100181c0 f i ShowSelectCert.obj
 0001:000171e0       ??0CWndProcThunk@ATL@@QAE@XZ 100181e0 f i ShowSelectCert.obj
 0001:00017210       ??0CDynamicStdCallThunk@ATL@@QAE@XZ 10018210 f i ShowSelectCert.obj
 0001:00017230       ?DialogProc@?$CDialogImplBaseT@VCWindow@ATL@@@ATL@@SGHPAUHWND__@@IIJ@Z 10018230 f i ShowSelectCert.obj
 0001:00017400       ?SetWindowLongPtrA@@YAJPAUHWND__@@HJ@Z 10018400 f i ShowSelectCert.obj
 0001:00017430       ??0_ATL_MSG@ATL@@QAE@PAUHWND__@@IIJH@Z 10018430 f i ShowSelectCert.obj
 0001:000174a0       ?encryptCallback@@YGHPBXPAEKH@Z 100184a0 f   Signature.obj
 0001:00017510       ??0CSignature@@QAE@XZ      10018510 f   Signature.obj
 0001:00018e70       ??1CSignature@@QAE@XZ      10019e70 f   Signature.obj
 0001:000191a0       ?Empty@CSignature@@QAEXXZ  1001a1a0 f   Signature.obj
 0001:0001a1e0       ?FreeUriArr@CSignature@@QAEXXZ 1001b1e0 f   Signature.obj
 0001:0001a420       ?AddRef@CSignature@@UAGKXZ 1001b420 f   Signature.obj
 0001:0001a440       ?Release@CSignature@@UAGKXZ 1001b440 f   Signature.obj
 0001:0001a4b0       ?get_EnvelopingFlag@CSignature@@UAGJPAF@Z 1001b4b0 f   Signature.obj
 0001:0001a550       ?put_EnvelopingFlag@CSignature@@UAGJF@Z 1001b550 f   Signature.obj
 0001:0001a5e0       ?get_RecipientCertificateStore@CSignature@@UAGJPAPAG@Z 1001b5e0 f   Signature.obj
 0001:0001a680       ?put_RecipientCertificateStore@CSignature@@UAGJPAG@Z 1001b680 f   Signature.obj
 0001:0001a9a0       ?get_SignerCertificate@CSignature@@UAGJJPAPAG@Z 1001b9a0 f   Signature.obj
 0001:0001aad0       ?put_SignerCertificate@CSignature@@UAGJJPAG@Z 1001bad0 f   Signature.obj
 0001:0001aba0       ?get_SignatureID@CSignature@@UAGJJPAPAG@Z 1001bba0 f   Signature.obj
 0001:0001acd0       ?put_SignatureID@CSignature@@UAGJJPAG@Z 1001bcd0 f   Signature.obj
 0001:0001ad70       ?get_Properties@CSignature@@UAGJJJPAPAG@Z 1001bd70 f   Signature.obj
 0001:0001afa0       ?put_Properties@CSignature@@UAGJJJPAG@Z 1001bfa0 f   Signature.obj
 0001:0001b0a0       ?get_IncludeCamResponse@CSignature@@UAGJPAH@Z 1001c0a0 f   Signature.obj
 0001:0001b120       ?put_IncludeCamResponse@CSignature@@UAGJH@Z 1001c120 f   Signature.obj
 0001:0001b1a0       ?get_Base64EncodeXML@CSignature@@UAGJPAH@Z 1001c1a0 f   Signature.obj
 0001:0001b220       ?put_Base64EncodeXML@CSignature@@UAGJH@Z 1001c220 f   Signature.obj
 0001:0001b2a0       ?get_Base64DecodeXML@CSignature@@UAGJPAH@Z 1001c2a0 f   Signature.obj
 0001:0001b320       ?put_Base64DecodeXML@CSignature@@UAGJH@Z 1001c320 f   Signature.obj
 0001:0001b3a0       ?get_DocumentURI@CSignature@@UAGJJJPAPAG@Z 1001c3a0 f   Signature.obj
 0001:0001b600       ?get_DigestObjectStatus@CSignature@@UAGJJJPAH@Z 1001c600 f   Signature.obj
 0001:0001b750       ?get_Language@CSignature@@UAGJPAPAG@Z 1001c750 f   Signature.obj
 0001:0001b790       ?put_Language@CSignature@@UAGJPAG@Z 1001c790 f   Signature.obj
 0001:0001ca00       ?get_SignatureStatus@CSignature@@UAGJJPAH@Z 1001da00 f   Signature.obj
 0001:0001cb20       ?get_PhysicalSignatureUsage@CSignature@@UAGJPAJ@Z 1001db20 f   Signature.obj
 0001:0001cbb0       ?put_PhysicalSignatureUsage@CSignature@@UAGJJ@Z 1001dbb0 f   Signature.obj
 0001:0001ccd0       ?get_PhysicalSignatureFile@CSignature@@UAGJPAPAG@Z 1001dcd0 f   Signature.obj
 0001:0001cdd0       ?put_PhysicalSignatureFile@CSignature@@UAGJPAG@Z 1001ddd0 f   Signature.obj
 0001:0001cfb0       ?get_CapturedSignatureFile@CSignature@@UAGJPAPAG@Z 1001dfb0 f   Signature.obj
 0001:0001d0b0       ?xsRemoveBstrPath@CSignature@@QAEPAEPAG@Z 1001e0b0 f   Signature.obj
 0001:0001d370       ?Sign@CSignature@@UAGJPAGPAPAG@Z 1001e370 f   Signature.obj
 0001:0001e270       ?SaveXMLSignature@CSignature@@UAGJPAG@Z 1001f270 f   Signature.obj
 0001:0001e4a0       ?Verify@CSignature@@UAGJPAGPAH@Z 1001f4a0 f   Signature.obj
 0001:0001e600       ?VerifyDetached@CSignature@@UAGJPAGPAH@Z 1001f600 f   Signature.obj
 0001:0001e6f0       ?GetError@CSignature@@UAGJPAPAG@Z 1001f6f0 f   Signature.obj
 0001:0001e7f0       ?GetLastError@CSignature@@UAGJPAJ@Z 1001f7f0 f   Signature.obj
 0001:0001e880       ?GetX509Certificate@CSignature@@UAGJPAGPAPAG@Z 1001f880 f   Signature.obj
 0001:0001eb60       ?ViewCertificate@CSignature@@UAGJPAG@Z 1001fb60 f   Signature.obj
 0001:0001edf0       ?get_CertificateCount@CSignature@@UAGJPAJ@Z 1001fdf0 f   Signature.obj
 0001:0001ee70       ?GetCertificateInfo@CSignature@@UAGJJJPAPAG@Z 1001fe70 f   Signature.obj
 0001:0001f380       ?SetActiveCertificate@CSignature@@UAGJPAGPAH@Z 10020380 f   Signature.obj
 0001:0001f910       ?get_SignedDocumentPath@CSignature@@UAGJJJPAPAG@Z 10020910 f   Signature.obj
 0001:0001fb20       ?FetchSignatureStatus@CSignature@@QAEXHH@Z 10020b20 f   Signature.obj
 0001:000208a0       ?get_SignerSubject@CSignature@@UAGJPAGPAPAG@Z 100218a0 f   Signature.obj
 0001:00020b40       ?get_CertIssuer@CSignature@@UAGJPAGPAPAG@Z 10021b40 f   Signature.obj
 0001:00020de0       ?get_CertExpiry@CSignature@@UAGJPAGPAPAG@Z 10021de0 f   Signature.obj
 0001:00021070       ?get_CertSerialNumber@CSignature@@UAGJPAGPAPAG@Z 10022070 f   Signature.obj
 0001:00021390       ?FileExists@CSignature@@UAGJPAGPAH@Z 10022390 f   Signature.obj
 0001:00021530       ?get_FailedUriCount@CSignature@@UAGJPAJ@Z 10022530 f   Signature.obj
 0001:000215b0       ?get_TotalUriCount@CSignature@@UAGJPAJ@Z 100225b0 f   Signature.obj
 0001:00021630       ?get_FailedUriFullPath@CSignature@@UAGJJPAPAG@Z 10022630 f   Signature.obj
 0001:00021780       ?put_FailedUriFullPath@CSignature@@UAGJJPAG@Z 10022780 f   Signature.obj
 0001:000219e0       ?get_FailedUri@CSignature@@UAGJJPAPAG@Z 100229e0 f   Signature.obj
 0001:00021b30       ?get_SignatureCount@CSignature@@UAGJPAJ@Z 10022b30 f   Signature.obj
 0001:00021bb0       ?SignXMLStr@CSignature@@UAGJPAG0PAPAG@Z 10022bb0 f   Signature.obj
 0001:00022930       ?xsDereferenceBstrURI@CSignature@@QAEPAEPAGPAK@Z 10023930 f   Signature.obj
 0001:00022c50       ?ReadAll@CSignature@@UAGJPAGPAPAG@Z 10023c50 f   Signature.obj
 0001:00022f10       ?ReadAllBin@CSignature@@QAEHPAGPAPAEPAK@Z 10023f10 f   Signature.obj
 0001:00022ff0       ?SaveXMLStr@CSignature@@UAGJPAG0PAPAG@Z 10023ff0 f   Signature.obj
 0001:00023630       ?SignHTML@CSignature@@UAGJPAUIDispatch@@PAPAG@Z 10024630 f   Signature.obj
 0001:00023f80       ?SecureXMLVerify@CSignature@@UAGJPAGPAPAG@Z 10024f80 f   Signature.obj
 0001:00025550       ?SetCSP@CSignature@@UAGJPAG@Z 10026550 f   Signature.obj
 0001:00025700       ?GetSignedHTML@CSignature@@UAGJPAGPAPAG@Z 10026700 f   Signature.obj
 0001:00025a30       ?SignFile@CSignature@@UAGJPAG0@Z 10026a30 f   Signature.obj
 0001:00026550       ?GetSignedFileObject@CSignature@@UAGJPAG0PAPAG@Z 10027550 f   Signature.obj
 0001:00026f30       ?SetStoreName@CSignature@@UAGJPAG@Z 10027f30 f   Signature.obj
 0001:00027ee0       ?GetStoreName@CSignature@@UAGJPAPAG@Z 10028ee0 f   Signature.obj
 0001:00027f60       ?SignXMLEnveloped@CSignature@@UAGJPAG0PAPAG@Z 10028f60 f   Signature.obj
 0001:00028c00       ?GetVersion@CSignature@@UAGJPAPAG@Z 10029c00 f   Signature.obj
 0001:00028c60       ?GetLicenseStatus@CSignature@@UAGJPAJ@Z 10029c60 f   Signature.obj
 0001:00028de0       ?GetPropertyCount@CSignature@@UAGJJPAJ@Z 10029de0 f   Signature.obj
 0001:00028e80       ?QueryStatus@CSignature@@UAGJPBU_GUID@@KQAU_tagOLECMD@@PAU_tagOLECMDTEXT@@@Z 10029e80 f   Signature.obj
 0001:00028ee0       ?Exec@CSignature@@UAGJPBU_GUID@@KKPAUtagVARIANT@@1@Z 10029ee0 f   Signature.obj
 0001:00029680       ?SetSite@CSignature@@UAGJPAUIUnknown@@@Z 1002a680 f   Signature.obj
 0001:000297a0       ?GetSite@CSignature@@UAGJABU_GUID@@PAPAX@Z 1002a7a0 f   Signature.obj
 0001:000297f0       ?ViewAnyCertificate@CSignature@@UAGJPAG@Z 1002a7f0 f   Signature.obj
 0001:00029970       ?SelectActiveCertificate@CSignature@@UAGJPAPAG@Z 1002a970 f   Signature.obj
 0001:00029d70       ?VerifyXMLStr@CSignature@@UAGJPAGPAH@Z 1002ad70 f   Signature.obj
 0001:0002a2c0       ?SetActivePFXFileCert@CSignature@@UAGJPAG0PAPAG@Z 1002b2c0 f   Signature.obj
 0001:0002a790       ?PFXExportCertificate@CSignature@@UAGJPAG0PAPAG@Z 1002b790 f   Signature.obj
 0001:0002acf0       ?CreateSigFromTmplBlob@CSignature@@QAEHPAU_xmlDoc@@PADPAPAEPAH@Z 1002bcf0 f   Signature.obj
 0001:0002ebd0       ?PFXExportActiveCertificate@CSignature@@UAGJPAGPAPAG@Z 1002fbd0 f   Signature.obj
 0001:0002ecd0       ?get_HostName@CSignature@@UAGJPAPAG@Z 1002fcd0 f   Signature.obj
 0001:0002ee20       ?get_TimeStampURL@CSignature@@UAGJPAPAG@Z 1002fe20 f   Signature.obj
 0001:0002eea0       ?put_TimeStampURL@CSignature@@UAGJPAG@Z 1002fea0 f   Signature.obj
 0001:0002ef30       ?get_TimeStamping@CSignature@@UAGJPAH@Z 1002ff30 f   Signature.obj
 0001:0002efb0       ?put_TimeStamping@CSignature@@UAGJH@Z 1002ffb0 f   Signature.obj
 0001:0002f060       ?get_HostOsType@CSignature@@UAGJPAJ@Z 10030060 f   Signature.obj
 0001:0002f0e0       ?get_CrlChecking@CSignature@@UAGJPAH@Z 100300e0 f   Signature.obj
 0001:0002f160       ?put_CrlChecking@CSignature@@UAGJH@Z 10030160 f   Signature.obj
 0001:0002f210       ?get_SigCertStatus@CSignature@@UAGJJPAGJPAJ@Z 10030210 f   Signature.obj
 0001:0002fc80       ?VerifyX509CertCRL@CSignature@@UAGJPAG0JPAH@Z 10030c80 f   Signature.obj
 0001:000300a0       ?VerifyPFXCertCRL@CSignature@@UAGJPAG00JPAH@Z 100310a0 f   Signature.obj
 0001:000306e0       ?GuidToString@@YAXPAU_GUID@@PAD@Z 100316e0 f   Signature.obj
 0001:000307c0       ?AddPhysicalSignature@CSignature@@QAEXPAU_xmlNode@@0PAD@Z 100317c0 f   Signature.obj
 0001:000314d0       ?GetPhysicalSignatureFromTablet@CSignature@@QAEHPADH0@Z 100324d0 f   Signature.obj
 0001:000317f0       ?GetPhysicalSignatureFromMouse@CSignature@@QAEHPADH0@Z 100327f0 f   Signature.obj
 0001:00031a50       ?AddWindowImage@CSignature@@QAEXPAU_xmlNode@@0PAD@Z 10032a50 f   Signature.obj
 0001:00031f10       ?get_AddWindowImage@CSignature@@UAGJPAH@Z 10032f10 f   Signature.obj
 0001:00031f90       ?put_AddWindowImage@CSignature@@UAGJH@Z 10032f90 f   Signature.obj
 0001:00032010       ?SignXMLXpathStr@CSignature@@UAGJPAG00PAPAG@Z 10033010 f   Signature.obj
 0001:00033350       ?get_UseHMAC@CSignature@@UAGJPAH@Z 10034350 f   Signature.obj
 0001:000333d0       ?put_UseHMAC@CSignature@@UAGJH@Z 100343d0 f   Signature.obj
 0001:00033450       ?get_HMACPassword@CSignature@@UAGJPAPAG@Z 10034450 f   Signature.obj
 0001:000334d0       ?put_HMACPassword@CSignature@@UAGJPAG@Z 100344d0 f   Signature.obj
 0001:000336e0       ?ChangeOrAddProperty@CSignature@@UAGJPAG0@Z 100346e0 f   Signature.obj
 0001:00033a20       ?put_DetailedVerificationFlag@CSignature@@UAGJH@Z 10034a20 f   Signature.obj
 0001:00033aa0       ?CaptureLiveSignature@CSignature@@UAGJPAPAG@Z 10034aa0 f   Signature.obj
 0001:00033f00       ?SignDataStr@CSignature@@UAGJPAGPAPAG@Z 10034f00 f   Signature.obj
 0001:00034920       ?put_ExcludeSignerCertificate@CSignature@@UAGJH@Z 10035920 f   Signature.obj
 0001:000349a0       ?put_OverwriteFile@CSignature@@UAGJH@Z 100359a0 f   Signature.obj
 0001:00034a20       ?CoSignXMLStr@CSignature@@UAGJPAGPAPAG@Z 10035a20 f   Signature.obj
 0001:00035aa0       ?CoSignFile@CSignature@@UAGJPAG0PAPAG@Z 10036aa0 f   Signature.obj
 0001:00035d20       ?SignFiles@CSignature@@UAGJUtagVARIANT@@PAGPAPAG@Z 10036d20 f   Signature.obj
 0001:00036b20       ?GetBstrArrayFromVariant@CSignature@@QAEPAPAGUtagVARIANT@@PAI@Z 10037b20 f   Signature.obj
 0001:000374e0       ?put_ConfigFileName@CSignature@@UAGJPAG@Z 100384e0 f   Signature.obj
 0001:00037670       ?put_CRLLocation@CSignature@@UAGJUtagVARIANT@@@Z 10038670 f   Signature.obj
 0001:00037960       ?VerifyActiveCertificate@CSignature@@UAGJPAH@Z 10038960 f   Signature.obj
 0001:00037c20       ?put_CertificatePolicy@CSignature@@UAGJUtagVARIANT@@@Z 10038c20 f   Signature.obj
 0001:00037f00       ?get_AuthorityConstrainedPolicy@CSignature@@UAGJPAUtagVARIANT@@@Z 10038f00 f   Signature.obj
 0001:00038110       ?get_UserConstrainedPolicy@CSignature@@UAGJPAUtagVARIANT@@@Z 10039110 f   Signature.obj
 0001:00038320       ?put_CertificatePolicyChecking@CSignature@@UAGJH@Z 10039320 f   Signature.obj
 0001:000383d0       ?put_CertificateChainValidation@CSignature@@UAGJH@Z 100393d0 f   Signature.obj
 0001:000384b0       ?put_CertificatePathLengthChecking@CSignature@@UAGJH@Z 100394b0 f   Signature.obj
 0001:00038560       ?put_DoDCompliance@CSignature@@UAGJH@Z 10039560 f   Signature.obj
 0001:00038660       ?get_CertificatePolicyExplicit@CSignature@@UAGJPAH@Z 10039660 f   Signature.obj
 0001:000386f0       ?put_CertificatePolicyExplicit@CSignature@@UAGJH@Z 100396f0 f   Signature.obj
 0001:000387a0       ?put_CertificateTrustExplicit@CSignature@@UAGJH@Z 100397a0 f   Signature.obj
 0001:00038850       ?put_RecipientCertificates@CSignature@@UAGJUtagVARIANT@@@Z 10039850 f   Signature.obj
 0001:00038b20       ?EncryptStr@CSignature@@UAGJPAGPAPAG@Z 10039b20 f   Signature.obj
 0001:00038e00       ?DecryptStr@CSignature@@UAGJPAGPAPAG@Z 10039e00 f   Signature.obj
 0001:00038fa0       ?DecryptBlob@CSignature@@IAEHPAU_DS_DATA_BLOB@@0PAE1@Z 10039fa0 f   Signature.obj
 0001:0003a190       ?EncryptFileA@CSignature@@UAGJPAG0PAPAG@Z 1003b190 f   Signature.obj
 0001:0003a780       ?DecryptFileA@CSignature@@UAGJPAG0PAPAG@Z 1003b780 f   Signature.obj
 0001:0003aba0       ?EncryptBlob@CSignature@@QAEPAEPAU_DS_DATA_BLOB@@HPAKPAG2@Z 1003bba0 f   Signature.obj
 0001:0003c1e0       ?put_TrustedRoots@CSignature@@UAGJUtagVARIANT@@@Z 1003d1e0 f   Signature.obj
 0001:0003c960       ?put_RecipientCertificateFiles@CSignature@@UAGJUtagVARIANT@@@Z 1003d960 f   Signature.obj
 0001:0003d0a0       ?CheckCertificateValidity@CSignature@@QAEHPAEPAU_SYSTEMTIME@@PAU_DS_DATA_BLOB@@PAU_CERTVERIFICATIONPARAMS@@PAU_GLOBAL_SIG@@@Z 1003e0a0 f   Signature.obj
 0001:0003d540       ?put_DetachedObjects@CSignature@@UAGJUtagVARIANT@@@Z 1003e540 f   Signature.obj
 0001:0003d810       ?put_AttachedObjects@CSignature@@UAGJUtagVARIANT@@@Z 1003e810 f   Signature.obj
 0001:0003d9a0       ?ReadAllBase64@CSignature@@UAGJPAGPAPAG@Z 1003e9a0 f   Signature.obj
 0001:0003dcf0       ?put_DecryptionPFXCertFile@CSignature@@UAGJPAG@Z 1003ecf0 f   Signature.obj
 0001:0003dd70       ?put_DecryptUsingPFXFileCert@CSignature@@UAGJH@Z 1003ed70 f   Signature.obj
 0001:0003ddf0       ?put_DecryptionPFXPassword@CSignature@@UAGJPAG@Z 1003edf0 f   Signature.obj
 0001:0003df20       ?put_XpathNamespace@CSignature@@UAGJUtagVARIANT@@@Z 1003ef20 f   Signature.obj
 0001:0003e1f0       ?get_CamServerHost@CSignature@@UAGJPAPAG@Z 1003f1f0 f   Signature.obj
 0001:0003e280       ?put_CamServerHost@CSignature@@UAGJPAG@Z 1003f280 f   Signature.obj
 0001:0003e340       ?get_CamServerPort@CSignature@@UAGJPAG@Z 1003f340 f   Signature.obj
 0001:0003e3c0       ?put_CamServerPort@CSignature@@UAGJG@Z 1003f3c0 f   Signature.obj
 0001:0003e440       ?get_UseCam@CSignature@@UAGJPAH@Z 1003f440 f   Signature.obj
 0001:0003e4c0       ?put_UseCam@CSignature@@UAGJH@Z 1003f4c0 f   Signature.obj
 0001:0003e6e0       ?get_AgencyId@CSignature@@UAGJPAPAG@Z 1003f6e0 f   Signature.obj
 0001:0003e770       ?put_AgencyId@CSignature@@UAGJPAG@Z 1003f770 f   Signature.obj
 0001:0003e860       ?crVerifyCertificateUsingCam@CSignature@@QAEHPAPAEIPAU_SYSTEMTIME@@PAGPAU_CERTVERIFICATIONPARAMS@@PAU_GLOBAL_SIG@@@Z 1003f860 f   Signature.obj
 0001:0003ec80       ?get_CamValidationResponse@CSignature@@UAGJPAPAG@Z 1003fc80 f   Signature.obj
 0001:0003ed20       ?crVerifyCertificateUsingOcsp@CSignature@@QAEHPAPAEIPAU_SYSTEMTIME@@PAGPAU_CERTVERIFICATIONPARAMS@@PAU_GLOBAL_SIG@@@Z 1003fd20 f   Signature.obj
 0001:0003f2c0       ?GetSigPropValueByName@CSignature@@UAGJJPAGPAPAG@Z 100402c0 f   Signature.obj
 0001:0003f4e0       ?Base64DecodeBufferToFile@CSignature@@UAGJPAG0PAPAG@Z 100404e0 f   Signature.obj
 0001:0003fca0       ?Base64DecodeFileToFile@CSignature@@UAGJPAG0PAPAG@Z 10040ca0 f   Signature.obj
 0001:0003fdf0       ?GunZipFile@CSignature@@UAGJPAG0PAPAG@Z 10040df0 f   Signature.obj
 0001:000402d0       ?FreeBufferLinkedList@CSignature@@QAEXPAUBufferLinkedList@@@Z 100412d0 f   Signature.obj
 0001:000403a0       ?get_CertSerialNumberFormat@CSignature@@UAGJPAJ@Z 100413a0 f   Signature.obj
 0001:00040430       ?put_CertSerialNumberFormat@CSignature@@UAGJJ@Z 10041430 f   Signature.obj
 0001:000404c0       ?Base64BinToPlainHex@CSignature@@QAEPAEPAE@Z 100414c0 f   Signature.obj
 0001:000406d0       ?HexToUnsignedChar@@YAEE@Z 100416d0 f   Signature.obj
 0001:00040800       ?HexStrToUnsignedChar@@YAEPAE@Z 10041800 f   Signature.obj
 0001:00040850       ?PlainHexToBase64Bin@CSignature@@QAEPAEPAE@Z 10041850 f   Signature.obj
 0001:00040ab0       ?SecureXMLVerifyFileToBuffer@CSignature@@UAGJPAGPAPAG@Z 10041ab0 f   Signature.obj
 0001:00040bd0       ?SecureXMLVerifyFileToFile@CSignature@@UAGJPAG0PAPAG@Z 10041bd0 f   Signature.obj
 0001:00040d60       ?DeleteSignatureFromXMLStr@CSignature@@UAGJPAG0PAPAG@Z 10041d60 f   Signature.obj
 0001:000412d0       ?DeleteSignatureFromFile@CSignature@@UAGJPAG00PAPAG@Z 100422d0 f   Signature.obj
 0001:00041450       ?put_AllowedCertIssuerNames@CSignature@@UAGJUtagVARIANT@@@Z 10042450 f   Signature.obj
 0001:000423f0       ?get_CRLCacheDbConnectionString@CSignature@@UAGJPAPAG@Z 100433f0 f   Signature.obj
 0001:00042470       ?put_CRLCacheDbConnectionString@CSignature@@UAGJPAG@Z 10043470 f   Signature.obj
 0001:000424f0       ?get_UseCRLCache@CSignature@@UAGJPAH@Z 100434f0 f   Signature.obj
 0001:00042580       ?put_UseCRLCache@CSignature@@UAGJH@Z 10043580 f   Signature.obj
 0001:00042780       ?put_CRLCacheTimeoutInMinutes@CSignature@@UAGJJ@Z 10043780 f   Signature.obj
 0001:00042820       ?put_CanonicalizationMethod@CSignature@@UAGJJ@Z 10043820 f   Signature.obj
 0001:000428b0       ?get_NetscapeStorePassword@CSignature@@UAGJPAPAG@Z 100438b0 f   Signature.obj
 0001:00042940       ?put_NetscapeStorePassword@CSignature@@UAGJPAG@Z 10043940 f   Signature.obj
 0001:000429d0       ?SetActivePEMFileCert@CSignature@@UAGJPAG0PAPAG@Z 100439d0 f   Signature.obj
 0001:00042ca0       ?get_SecureXMLPath@CSignature@@UAGJPAPAG@Z 10043ca0 f   Signature.obj
 0001:00042d20       ?get_SignedDocumentCount@CSignature@@UAGJJPAJ@Z 10043d20 f   Signature.obj
 0001:00042e00       ?SignXMLByteArray@CSignature@@UAGJUtagVARIANT@@PAGPAU2@@Z 10043e00 f   Signature.obj
 0001:000439e0       ?SaveXMLByteArray@CSignature@@UAGJUtagVARIANT@@PAGPAPAG@Z 100449e0 f   Signature.obj
 0001:00044070       ?ReadAllByteArray@CSignature@@UAGJPAGPAUtagVARIANT@@@Z 10045070 f   Signature.obj
 0001:00044350       ?VerifyXMLByteArray@CSignature@@UAGJUtagVARIANT@@PAH@Z 10045350 f   Signature.obj
 0001:00044740       ?SecureXMLVerifyByteArray@CSignature@@UAGJUtagVARIANT@@PAU2@@Z 10045740 f   Signature.obj
 0001:00045c60       ?SignXMLXpathByteArray@CSignature@@UAGJUtagVARIANT@@PAG1PAU2@@Z 10046c60 f   Signature.obj
 0001:00046d90       ?SignXMLEnvelopedByteArray@CSignature@@UAGJUtagVARIANT@@PAGPAU2@@Z 10047d90 f   Signature.obj
 0001:00047990       ?Base64DecodeByteArrayToFile@CSignature@@UAGJUtagVARIANT@@PAGPAPAG@Z 10048990 f   Signature.obj
 0001:00048020       ?Base64DecodeByteArrayToByteArray@CSignature@@UAGJUtagVARIANT@@PAU2@@Z 10049020 f   Signature.obj
 0001:00048360       ?Base64EncodeByteArrayToByteArray@CSignature@@UAGJUtagVARIANT@@PAU2@@Z 10049360 f   Signature.obj
 0001:000486a0       ?Base64EncodeByteArrayToFile@CSignature@@UAGJUtagVARIANT@@PAGPAPAG@Z 100496a0 f   Signature.obj
 0001:00048c00       ?Base64EncodeStrToFile@CSignature@@UAGJPAG0PAPAG@Z 10049c00 f   Signature.obj
 0001:00049410       ?Base64EncodeStrToStr@CSignature@@UAGJPAGPAPAG@Z 1004a410 f   Signature.obj
 0001:000497d0       ?SetActivePFXB64Data@CSignature@@UAGJPAG0PAPAG@Z 1004a7d0 f   Signature.obj
 0001:00049d90       ?put_FloatingLicense@CSignature@@UAGJPAG@Z 1004ad90 f   Signature.obj
 0001:0004a030       ?get_FloatingLicense@CSignature@@UAGJPAPAG@Z 1004b030 f   Signature.obj
 0001:0004a060       _localTimeToUtcTime        1004b060 f   Signature.obj
 0001:0004a270       ?get_LicensedUserCount@CSignature@@UAGJPAJ@Z 1004b270 f   Signature.obj
 0001:0004a2a0       ?put_IncludeCRLInSignature@CSignature@@UAGJH@Z 1004b2a0 f   Signature.obj
 0001:0004a2c0       ?get_UsedCRLList@CSignature@@UAGJPAUtagVARIANT@@@Z 1004b2c0 f   Signature.obj
 0001:0004a4d0       ?GetErrorDetail@CSignature@@UAGJJPAPAG@Z 1004b4d0 f   Signature.obj
 0001:0004a530       ?put_PhysicalSignatureB64Str@CSignature@@UAGJPAG@Z 1004b530 f   Signature.obj
 0001:0004a5b0       ?GetSignedInfoDigest@CSignature@@UAGJPAG0PAPAG@Z 1004b5b0 f   Signature.obj
 0001:0004b3f0       ?GetX509CertificateChain@CSignature@@UAGJPAGPAPAG@Z 1004c3f0 f   Signature.obj
 0001:0004bad0       ?getSignerCertChain@CSignature@@QAEPAPAEPAI@Z 1004cad0 f   Signature.obj
 0001:0004be90       ?put_SignerCertificateChain@CSignature@@UAGJPAG@Z 1004ce90 f   Signature.obj
 0001:0004c0c0       ?get_SignatureImageId@CSignature@@UAGJPAPAG@Z 1004d0c0 f   Signature.obj
 0001:0004c0f0       ?put_SignatureImageId@CSignature@@UAGJPAG@Z 1004d0f0 f   Signature.obj
 0001:0004c150       ?SignSignedInfoDigest@CSignature@@UAGJPAG0PAPAG@Z 1004d150 f   Signature.obj
 0001:0004d210       ?ApplySignatureValue@CSignature@@UAGJPAGPAPAG@Z 1004e210 f   Signature.obj
 0001:0004e730       ?GetSignedInfoDigestFromByteArray@CSignature@@UAGJUtagVARIANT@@PAGPAPAG@Z 1004f730 f   Signature.obj
 0001:0004f420       ?ApplySignatureValueGetByteArray@CSignature@@UAGJPAGPAUtagVARIANT@@@Z 10050420 f   Signature.obj
 0001:00050ab0       ?GetSignedDocumentB64Str@CSignature@@UAGJJJPAPAG@Z 10051ab0 f   Signature.obj
 0001:00050c40       ?GetSignedDocumentByteArray@CSignature@@UAGJJJPAUtagVARIANT@@@Z 10051c40 f   Signature.obj
 0001:00050fd0       ?get_CertValidationTransactionId@CSignature@@UAGJPAPAG@Z 10051fd0 f   Signature.obj
 0001:00051010       ?put_CertValidationTransactionId@CSignature@@UAGJPAG@Z 10052010 f   Signature.obj
 0001:00051020       ?get_IgnoreIncompleteSignature@CSignature@@UAGJPAH@Z 10052020 f   Signature.obj
 0001:00051040       ?put_IgnoreIncompleteSignature@CSignature@@UAGJH@Z 10052040 f   Signature.obj
 0001:00051060       ?get_SignatureIndexToVerify@CSignature@@UAGJPAJ@Z 10052060 f   Signature.obj
 0001:00051080       ?put_SignatureIndexToVerify@CSignature@@UAGJJ@Z 10052080 f   Signature.obj
 0001:000510a0       ?get_UseOcsp@CSignature@@UAGJPAH@Z 100520a0 f   Signature.obj
 0001:000510c0       ?put_UseOcsp@CSignature@@UAGJH@Z 100520c0 f   Signature.obj
 0001:000510e0       ?get_OcspTrustedRespSignerCertPath@CSignature@@UAGJPAPAG@Z 100520e0 f   Signature.obj
 0001:00051110       ?put_OcspTrustedRespSignerCertPath@CSignature@@UAGJPAG@Z 10052110 f   Signature.obj
 0001:00051140       ?get_OcspReqSignerPFXCertPath@CSignature@@UAGJPAPAG@Z 10052140 f   Signature.obj
 0001:00051170       ?put_OcspReqSignerPFXCertPath@CSignature@@UAGJPAG@Z 10052170 f   Signature.obj
 0001:00051240       ?get_OcspReqSignerPFXCertPassword@CSignature@@UAGJPAPAG@Z 10052240 f   Signature.obj
 0001:00051270       ?put_OcspReqSignerPFXCertPassword@CSignature@@UAGJPAG@Z 10052270 f   Signature.obj
 0001:000512a0       ?get_OcspResponderURL@CSignature@@UAGJPAPAG@Z 100522a0 f   Signature.obj
 0001:000512d0       ?put_OcspResponderURL@CSignature@@UAGJPAG@Z 100522d0 f   Signature.obj
 0001:00051300       ?get_OcspTextResponse@CSignature@@UAGJPAPAG@Z 10052300 f   Signature.obj
 0001:00051330       ?get_OcspB64Response@CSignature@@UAGJPAPAG@Z 10052330 f   Signature.obj
 0001:00051360       ?get_CertRevocationDate@CSignature@@UAGJPAPAG@Z 10052360 f   Signature.obj
 0001:00051390       ?get_IncludeOcspResponse@CSignature@@UAGJPAJ@Z 10052390 f   Signature.obj
 0001:000513b0       ?put_IncludeOcspResponse@CSignature@@UAGJJ@Z 100523b0 f   Signature.obj
 0001:000513d0       ?ShowFileSignature@CSignature@@QAEJPAD0HPAUtagRECT@@0@Z 100523d0 f   Signature.obj
 0001:00051650       ?CaptureCurrentWindowImage@CSignature@@QAEHPAD0@Z 10052650 f   Signature.obj
 0001:000518a0       ?put_ProxyHost@CSignature@@UAGJPAG@Z 100528a0 f   Signature.obj
 0001:000518d0       ?put_ProxyPort@CSignature@@UAGJG@Z 100528d0 f   Signature.obj
 0001:000518f0       ?put_ProxyUserName@CSignature@@UAGJPAG@Z 100528f0 f   Signature.obj
 0001:00051920       ?put_ProxyPassword@CSignature@@UAGJPAG@Z 10052920 f   Signature.obj
 0001:00051950       ?put_InclusiveNamespacePrefixList@CSignature@@UAGJUtagVARIANT@@@Z 10052950 f   Signature.obj
 0001:00051c70       ?PrepareSignatureEnvelopeFromObjects@CSignature@@QAEPAU_xmlDoc@@PADPAPAU_xmlNode@@1@Z 10052c70 f   Signature.obj
 0001:000526b0       ?createSgts@CSignature@@QAEPAGXZ 100536b0 f   Signature.obj
 0001:000530d0       ?get_TimeStampFormat@CSignature@@UAGJPAJ@Z 100540d0 f   Signature.obj
 0001:000530f0       ?put_TimeStampFormat@CSignature@@UAGJJ@Z 100540f0 f   Signature.obj
 0001:00053110       ?get_TimeStampCritical@CSignature@@UAGJPAJ@Z 10054110 f   Signature.obj
 0001:00053130       ?put_TimeStampCritical@CSignature@@UAGJJ@Z 10054130 f   Signature.obj
 0001:00053150       ?put_SignedObjectId@CSignature@@UAGJUtagVARIANT@@@Z 10054150 f   Signature.obj
 0001:000532e0       ?setConfigFile@CConfig@@QAEXPAD@Z 100542e0 f i Signature.obj
 0001:00053340       ??0CConfig@@QAE@XZ         10054340 f i Signature.obj
 0001:00053370       ??4CComBSTR@ATL@@QAEAAV01@PBD@Z 10054370 f i Signature.obj
 0001:000533e0       ?SetResourceInstance@CComModule@ATL@@QAEPAUHINSTANCE__@@PAU3@@Z 100543e0 f i Signature.obj
 0001:00053410       ?SetResourceInstance@CAtlBaseModule@ATL@@QAEPAUHINSTANCE__@@PAU3@@Z 10054410 f i Signature.obj
 0001:00053440       ?GetResourceInstance@CComModule@ATL@@QAEPAUHINSTANCE__@@XZ 10054440 f i Signature.obj
 0001:00053460       ?setLicenseFile@CLicense@@QAEXPAD@Z 10054460 f i Signature.obj
 0001:00053480       ??0SigException@@QAE@PAD@Z 10054480 f i Signature.obj
 0001:000534c0       ?what@SigException@@UBEPBDXZ 100544c0 f i Signature.obj
 0001:000534e0       ??_GSigException@@UAEPAXI@Z 100544e0 f i Signature.obj
 0001:000534e0       ??_ESigException@@UAEPAXI@Z 100544e0 f i Signature.obj
 0001:00053520       ??1SigException@@UAE@XZ    10054520 f i Signature.obj
 0001:00053550       ??0?$CComObjectRootEx@VCComSingleThreadModel@ATL@@@ATL@@QAE@XZ 10054550 f i Signature.obj
 0001:00053580       ??0CComObjectRootBase@ATL@@QAE@XZ 10054580 f i Signature.obj
 0001:000535a0       ??0?$IDispatchImpl@UISignature@@$1?IID_ISignature@@3U_GUID@@B$1?LIBID_XMLSIGNLib@@3U3@B$00$0A@VCComTypeInfoHolder@ATL@@@ATL@@QAE@XZ 100545a0 f i Signature.obj
 0001:000535d0       ??0IOleCommandTarget@@QAE@XZ 100545d0 f i Signature.obj
 0001:00053600       ??0IUnknown@@QAE@XZ        10054600 f i Signature.obj
 0001:00053620       ??4CConfig@@QAEAAV0@ABV0@@Z 10054620 f i Signature.obj
 0001:00053660       ??0SigException@@QAE@ABV0@@Z 10054660 f i Signature.obj
 0001:000536b0       ??0ISignature@@QAE@XZ      100546b0 f i Signature.obj
 0001:000536e0       ?Empty@CComBSTR@ATL@@QAEXXZ 100546e0 f i Signature.obj
 0001:00053720       ??_G?$list@PAUTempFilePathInfo@@V?$allocator@PAUTempFilePathInfo@@@std@@@std@@QAEPAXI@Z 10054720 f i Signature.obj
 0001:00053760       ??_GCSignature@@QAEPAXI@Z  10054760 f i Signature.obj
 0001:000537a0       ?Copy@CComBSTR@ATL@@QBEPAGXZ 100547a0 f i Signature.obj
 0001:00053800       ??0IObjectWithSite@@QAE@XZ 10054800 f i Signature.obj
 0001:00053830       ??0IDispatch@@QAE@XZ       10054830 f i Signature.obj
 0001:00053860       ?getSignAllowed@CLicense@@QAEHXZ 10054860 f i Signature.obj
 0001:000538a0       ?checkLicense@CLicense@@QAEHXZ 100548a0 f i Signature.obj
 0001:000538e0       ??0_variant_t@@QAE@_N@Z    100548e0 f i Signature.obj
 0001:00053910       ?ExportNetscapeCert@ICertStore@NetscapeCert@@QAE?AV_bstr_t@@V3@@Z 10054910 f i Signature.obj
 0001:00053a10       ?getVerifyAllowed@CLicense@@QAEHXZ 10054a10 f i Signature.obj
 0001:00053a50       ?GetCertificateList@ICertStore@NetscapeCert@@QAE?AV_bstr_t@@PAK@Z 10054a50 f i Signature.obj
 0001:00053b10       ?PutNetscapeStorePassword@ICertStore@NetscapeCert@@QAEXV_bstr_t@@@Z 10054b10 f i Signature.obj
 0001:00053bb0       ?StringCbCopyW@@YGJPAGIPBG@Z 10054bb0 f i Signature.obj
 0001:00053c10       ?StringCopyWorkerW@@YGJPAGIPBG@Z 10054c10 f i Signature.obj
 0001:00053ca0       ?getEncryptAllowed@CLicense@@QAEHXZ 10054ca0 f i Signature.obj
 0001:00053ce0       ?getDecryptAllowed@CLicense@@QAEHXZ 10054ce0 f i Signature.obj
 0001:00053d20       ?getSecureSignAllowed@CLicense@@QAEHXZ 10054d20 f i Signature.obj
 0001:00053d60       ?getSecureSignProfessionalAllowed@CLicense@@QAEHXZ 10054d60 f i Signature.obj
 0001:00053da0       ?getSecureSignEnterpriseAllowed@CLicense@@QAEHXZ 10054da0 f i Signature.obj
 0001:00053de0       ?getSecureSignServerAllowed@CLicense@@QBEHXZ 10054de0 f i Signature.obj
 0001:00053e00       ?endl@std@@YAAAV?$basic_ostream@DU?$char_traits@D@std@@@1@AAV21@@Z 10054e00 f i Signature.obj
 0001:00053e30       ??1?$CComPtr@UIHTMLDocument2@@@ATL@@QAE@XZ 10054e30 f i Signature.obj
 0001:00053e60       ??_D?$basic_ofstream@DU?$char_traits@D@std@@@std@@QAEXXZ 10054e60 f i Signature.obj
 0001:00053ea0       ??0CComBSTR@ATL@@QAE@PBD@Z 10054ea0 f i Signature.obj
 0001:00053f00       ?selectCertificate@CShowSelectCert@@QAEPADXZ 10054f00 f i Signature.obj
 0001:000540a0       ?MessageBoxA@CWindow@ATL@@QAEHPBD0I@Z 100550a0 f i Signature.obj
 0001:00054120       ??0NtpServerResponse@@QAE@XZ 10055120 f i Signature.obj
 0001:00054170       ?CaptureMouseSignature@ICaptureImage@SigWinImage@@QAE?AV_bstr_t@@V3@@Z 10055170 f i Signature.obj
 0001:00054270       ??0CComVariant@ATL@@QAE@XZ 10055270 f i Signature.obj
 0001:000542b0       ??1CComVariant@ATL@@QAE@XZ 100552b0 f i Signature.obj
 0001:000542e0       ?Clear@CComVariant@ATL@@QAEJXZ 100552e0 f i Signature.obj
 0001:00054320       ?GetIDispatchProperty@CSignature@@QAE_NQAUIDispatch@@PBDAAVCComVariant@ATL@@@Z 10055320 f i Signature.obj
 0001:00054560       ??0CComVariant@ATL@@QAE@ABUtagVARIANT@@@Z 10055560 f i Signature.obj
 0001:000545a0       ??4CComVariant@ATL@@QAEAAV01@ABV01@@Z 100555a0 f i Signature.obj
 0001:000545d0       ?InternalCopy@CComVariant@ATL@@QAEXPBUtagVARIANT@@@Z 100555d0 f i Signature.obj
 0001:00054620       ?Copy@CComVariant@ATL@@QAEJPBUtagVARIANT@@@Z 10055620 f i Signature.obj
 0001:00054660       ?ANSIToUnicode@CSignature@@QAEPAGPBD@Z 10055660 f i Signature.obj
 0001:000546f0       ??0CComBSTR@ATL@@QAE@PBG@Z 100556f0 f i Signature.obj
 0001:00054750       ??0_bstr_t@@QAE@XZ         10055750 f i Signature.obj
 0001:00054770       ?verify@IOcspClient@ocspAX@@QAEGV_bstr_t@@@Z 10055770 f i Signature.obj
 0001:00054860       ?GetTextResponse@IOcspClient@ocspAX@@QAE?AV_bstr_t@@XZ 10055860 f i Signature.obj
 0001:00054920       ?GetBase64Response@IOcspClient@ocspAX@@QAE?AV_bstr_t@@XZ 10055920 f i Signature.obj
 0001:000549e0       ?GetRevocationTime@IOcspClient@ocspAX@@QAE?AV_bstr_t@@XZ 100559e0 f i Signature.obj
 0001:00054aa0       ?GetRevocationReason@IOcspClient@ocspAX@@QAE?AV_bstr_t@@XZ 10055aa0 f i Signature.obj
 0001:00054b60       ?GetOcspNonce@IOcspClient@ocspAX@@QAE?AV_bstr_t@@XZ 10055b60 f i Signature.obj
 0001:00054c20       ?PutOcspNonce@IOcspClient@ocspAX@@QAEXV_bstr_t@@@Z 10055c20 f i Signature.obj
 0001:00054cc0       ?PutResponderCAFileName@IOcspClient@ocspAX@@QAEXV_bstr_t@@@Z 10055cc0 f i Signature.obj
 0001:00054d60       ?PutCheckCertificate@IOcspClient@ocspAX@@QAEXV_bstr_t@@@Z 10055d60 f i Signature.obj
 0001:00054e00       ?PutIssuerCertificate@IOcspClient@ocspAX@@QAEXV_bstr_t@@@Z 10055e00 f i Signature.obj
 0001:00054ea0       ?PutSignerPFXCertificate@IOcspClient@ocspAX@@QAEXV_bstr_t@@@Z 10055ea0 f i Signature.obj
 0001:00054f40       ?PutSignerPFXPassword@IOcspClient@ocspAX@@QAEXV_bstr_t@@@Z 10055f40 f i Signature.obj
 0001:00054fe0       ?GetresponderUrl@IOcspClient@ocspAX@@QAE?AV_bstr_t@@XZ 10055fe0 f i Signature.obj
 0001:000550a0       ?PutproxyHost@IOcspClient@ocspAX@@QAEXV_bstr_t@@@Z 100560a0 f i Signature.obj
 0001:00055140       ?PutproxyPort@IOcspClient@ocspAX@@QAEXG@Z 10056140 f i Signature.obj
 0001:000551a0       ?PutproxyUsername@IOcspClient@ocspAX@@QAEXV_bstr_t@@@Z 100561a0 f i Signature.obj
 0001:00055240       ?PutproxyPassword@IOcspClient@ocspAX@@QAEXV_bstr_t@@@Z 10056240 f i Signature.obj
 0001:000552e0       ?CovertToPFX@IPemObject@PemUtil@@QAE?AV_bstr_t@@V3@0@Z 100562e0 f i Signature.obj
 0001:000553f0       ??0CBufferVariant@@QAE@XZ  100563f0 f i Signature.obj
 0001:00055440       ??_GCBufferVariant@@UAEPAXI@Z 10056440 f i Signature.obj
 0001:00055440       ??_ECBufferVariant@@UAEPAXI@Z 10056440 f i Signature.obj
 0001:00055480       ??1CBufferVariant@@UAE@XZ  10056480 f i Signature.obj
 0001:000554e0       ??BCBufferVariant@@QBEPAXXZ 100564e0 f i Signature.obj
 0001:00055500       ??4CBufferVariant@@QAEAAV0@ABUtagVARIANT@@@Z 10056500 f i Signature.obj
 0001:00055530       ?AssignData@CBufferVariant@@QAEXPBXJ@Z 10056530 f i Signature.obj
 0001:00055560       ?SetLength@CBufferVariant@@QAEXJ@Z 10056560 f i Signature.obj
 0001:00055660       ?Copy@CBufferVariant@@QAE?AUtagVARIANT@@XZ 10056660 f i Signature.obj
 0001:00055710       ?MyVariantCopy@CBufferVariant@@QAEXPAUtagVARIANT@@0@Z 10056710 f i Signature.obj
 0001:00055790       ?GetLength@CBufferVariant@@QAEJXZ 10056790 f i Signature.obj
 0001:00055860       ?BuildByteArrayFromVariant@CBufferVariant@@AAEXPBUtagVARIANT@@@Z 10056860 f i Signature.obj
 0001:000559d0       ?BuildByteArrayFromData@CBufferVariant@@AAEXPBXJ@Z 100569d0 f i Signature.obj
 0001:00055a20       ??BCBufferVariant@@QBEPBXXZ 10056a20 f i Signature.obj
 0001:00055a40       ??BCBufferVariant@@QBEPBEXZ 10056a40 f i Signature.obj
 0001:00055a60       ??4CBufferVariant@@QAEAAV0@PBD@Z 10056a60 f i Signature.obj
 0001:00055aa0       ??BCBufferVariant@@QBEPAEXZ 10056aa0 f i Signature.obj
 0001:00055ac0       ?getLicensedUserCount@CLicense@@QBEHXZ 10056ac0 f i Signature.obj
 0001:00055ae0       ??BCBufferVariant@@QBEPADXZ 10056ae0 f i Signature.obj
 0001:00055b00       ?PutPhysicalSignatureFile@ICaptureImage@SigWinImage@@QAEXV_bstr_t@@@Z 10056b00 f i Signature.obj
 0001:00055ba0       ?ShowFileSignature@ICaptureImage@SigWinImage@@QAE?AV_bstr_t@@V3@@Z 10056ba0 f i Signature.obj
 0001:00055ca0       ?CaptureCurrentWindowImage@ICaptureImage@SigWinImage@@QAE?AV_bstr_t@@XZ 10056ca0 f i Signature.obj
 0001:00055d60       ?getMaintExpiryYear@CLicense@@QBEHXZ 10056d60 f i Signature.obj
 0001:00055d80       ?getMaintExpiryMonth@CLicense@@QBEHXZ 10056d80 f i Signature.obj
 0001:00055da0       ?getMaintExpiryDay@CLicense@@QBEHXZ 10056da0 f i Signature.obj
 0001:00055dc0       ?isClientLinux@CLicense@@QBEHXZ 10056dc0 f i Signature.obj
 0001:00055de0       ?isClientWindows@CLicense@@QBEHXZ 10056de0 f i Signature.obj
 0001:00055e00       ?isClientSolaris@CLicense@@QBEHXZ 10056e00 f i Signature.obj
 0001:00055e20       ?isClientMac@CLicense@@QBEHXZ 10056e20 f i Signature.obj
 0001:00055e40       ??B?$CSimpleStringT@D$0A@@ATL@@QBEPBDXZ 10056e40 f i Signature.obj
 0001:00055e60       ??0?$CStringT@DV?$StrTraitATL@DV?$ChTraitsCRT@D@ATL@@@ATL@@@ATL@@QAE@XZ 10056e60 f i Signature.obj
 0001:00055e90       ??1?$CStringT@DV?$StrTraitATL@DV?$ChTraitsCRT@D@ATL@@@ATL@@@ATL@@QAE@XZ 10056e90 f i Signature.obj
 0001:00055ec0       ?Format@?$CStringT@DV?$StrTraitATL@DV?$ChTraitsCRT@D@ATL@@@ATL@@@ATL@@QAAXPBDZZ 10056ec0 f i Signature.obj
 0001:00055f30       ?AtlIsValidString@ATL@@YAHPBDI@Z 10056f30 f i Signature.obj
 0001:00055f70       ??4?$basic_string@DU?$char_traits@D@std@@V?$allocator@D@2@@std@@QAEAAV01@ABV01@@Z 10056f70 f i Signature.obj
 0001:00055fa0       ??Y?$basic_string@DU?$char_traits@D@std@@V?$allocator@D@2@@std@@QAEAAV01@PBD@Z 10056fa0 f i Signature.obj
 0001:00055fd0       ?rfind@?$basic_string@DU?$char_traits@D@std@@V?$allocator@D@2@@std@@QBEIDI@Z 10056fd0 f i Signature.obj
 0001:00056000       ?substr@?$basic_string@DU?$char_traits@D@std@@V?$allocator@D@2@@std@@QBE?AV12@II@Z 10057000 f i Signature.obj
 0001:00056050       ?compare@?$basic_string@DU?$char_traits@D@std@@V?$allocator@D@2@@std@@QBEHPBD@Z 10057050 f i Signature.obj
 0001:00056090       ??6?$basic_ostream@DU?$char_traits@D@std@@@std@@QAEAAV01@P6AAAV01@AAV01@@Z@Z 10057090 f i Signature.obj
 0001:000560d0       ?put@?$basic_ostream@DU?$char_traits@D@std@@@std@@QAEAAV12@D@Z 100570d0 f i Signature.obj
 0001:00056240       ?eq_int_type@?$char_traits@D@std@@SA_NABH0@Z 10057240 f i Signature.obj
 0001:00056260       ?eof@?$char_traits@D@std@@SAHXZ 10057260 f i Signature.obj
 0001:00056270       ?flush@?$basic_ostream@DU?$char_traits@D@std@@@std@@QAEAAV12@XZ 10057270 f i Signature.obj
 0001:00056300       ?fail@ios_base@std@@QBE_NXZ 10057300 f i Signature.obj
 0001:00056330       ?rdstate@ios_base@std@@QBEHXZ 10057330 f i Signature.obj
 0001:00056350       ??1?$basic_ios@DU?$char_traits@D@std@@@std@@UAE@XZ 10057350 f i Signature.obj
 0001:00056380       ?setstate@?$basic_ios@DU?$char_traits@D@std@@@std@@QAEXH_N@Z 10057380 f i Signature.obj
 0001:000563c0       ?rdbuf@?$basic_ios@DU?$char_traits@D@std@@@std@@QBEPAV?$basic_streambuf@DU?$char_traits@D@std@@@2@XZ 100573c0 f i Signature.obj
 0001:000563e0       ?DoModal@?$CAxDialogImpl@VCShowSelectCert@@VCWindow@ATL@@@ATL@@QAEHPAUHWND__@@J@Z 100573e0 f i Signature.obj
 0001:00056470       ?AddCreateWndData@CAtlWinModule@ATL@@QAEXPAU_AtlCreateWndData@2@PAX@Z 10057470 f i Signature.obj
 0001:000564b0       ??0?$list@PAUTempFilePathInfo@@V?$allocator@PAUTempFilePathInfo@@@std@@@std@@QAE@XZ 100574b0 f i Signature.obj
 0001:00056500       ??1?$list@PAUTempFilePathInfo@@V?$allocator@PAUTempFilePathInfo@@@std@@@std@@QAE@XZ 10057500 f i Signature.obj
 0001:00056530       ?begin@?$list@PAUTempFilePathInfo@@V?$allocator@PAUTempFilePathInfo@@@std@@@std@@QAE?AViterator@12@XZ 10057530 f i Signature.obj
 0001:00056570       ?end@?$list@PAUTempFilePathInfo@@V?$allocator@PAUTempFilePathInfo@@@std@@@std@@QAE?AViterator@12@XZ 10057570 f i Signature.obj
 0001:000565a0       ?insert@?$list@PAUTempFilePathInfo@@V?$allocator@PAUTempFilePathInfo@@@std@@@std@@QAE?AViterator@12@V312@ABQAUTempFilePathInfo@@@Z 100575a0 f i Signature.obj
 0001:000565e0       ?remove@?$list@PAUTempFilePathInfo@@V?$allocator@PAUTempFilePathInfo@@@std@@@std@@QAEXABQAUTempFilePathInfo@@@Z 100575e0 f i Signature.obj
 0001:000566c0       ??Diterator@?$list@PAUTempFilePathInfo@@V?$allocator@PAUTempFilePathInfo@@@std@@@std@@QBEAAPAUTempFilePathInfo@@XZ 100576c0 f i Signature.obj
 0001:000566f0       ??Eiterator@?$list@PAUTempFilePathInfo@@V?$allocator@PAUTempFilePathInfo@@@std@@@std@@QAE?AV012@H@Z 100576f0 f i Signature.obj
 0001:00056760       ??9const_iterator@?$list@PAUTempFilePathInfo@@V?$allocator@PAUTempFilePathInfo@@@std@@@std@@QBE_NABV012@@Z 10057760 f i Signature.obj
 0001:000567a0       ??0?$CComPtr@UIHTMLDocument2@@@ATL@@QAE@XZ 100577a0 f i Signature.obj
 0001:000567d0       ??1?$CComPtrBase@UIHTMLDocument2@@@ATL@@QAE@XZ 100577d0 f i Signature.obj
 0001:00056810       ??I?$CComPtrBase@UIHTMLDocument2@@@ATL@@QAEPAPAUIHTMLDocument2@@XZ 10057810 f i Signature.obj
 0001:00056860       ??C?$CComPtrBase@UIHTMLDocument2@@@ATL@@QBEPAV?$_NoAddRefReleaseOnCComPtr@UIHTMLDocument2@@@1@XZ 10057860 f i Signature.obj
 0001:000568b0       ??0?$basic_ofstream@DU?$char_traits@D@std@@@std@@QAE@XZ 100578b0 f i Signature.obj
 0001:00056970       ??1?$basic_ostream@DU?$char_traits@D@std@@@std@@UAE@XZ 10057970 f i Signature.obj
 0001:000569a0       ??0?$basic_ofstream@DU?$char_traits@D@std@@@std@@QAE@PBDHH@Z 100579a0 f i Signature.obj
 0001:00056a90       ??1?$basic_ofstream@DU?$char_traits@D@std@@@std@@UAE@XZ 10057a90 f i Signature.obj
 0001:00056b10       ?open@?$basic_ofstream@DU?$char_traits@D@std@@@std@@QAEXPBDHH@Z 10057b10 f i Signature.obj
 0001:00056b70       ?close@?$basic_ofstream@DU?$char_traits@D@std@@@std@@QAEXXZ 10057b70 f i Signature.obj
 0001:00056bc0       ??1?$basic_filebuf@DU?$char_traits@D@std@@@std@@UAE@XZ 10057bc0 f i Signature.obj
 0001:00056c40       ??1?$basic_streambuf@DU?$char_traits@D@std@@@std@@UAE@XZ 10057c40 f i Signature.obj
 0001:00056cb0       ?overflow@?$basic_streambuf@DU?$char_traits@D@std@@@std@@MAEHH@Z 10057cb0 f i Signature.obj
 0001:00056ce0       ?pbackfail@?$basic_streambuf@DU?$char_traits@D@std@@@std@@MAEHH@Z 10057ce0 f i Signature.obj
 0001:00056d10       ?showmanyc@?$basic_streambuf@DU?$char_traits@D@std@@@std@@MAEHXZ 10057d10 f i Signature.obj
 0001:00056d30       ?underflow@?$basic_streambuf@DU?$char_traits@D@std@@@std@@MAEHXZ 10057d30 f i Signature.obj
 0001:00056d60       ?uflow@?$basic_streambuf@DU?$char_traits@D@std@@@std@@MAEHXZ 10057d60 f i Signature.obj
 0001:00056df0       ?to_int_type@?$char_traits@D@std@@SAHABD@Z 10057df0 f i Signature.obj
 0001:00056e00       ?xsgetn@?$basic_streambuf@DU?$char_traits@D@std@@@std@@MAEHPADH@Z 10057e00 f i Signature.obj
 0001:00056f60       ?to_char_type@?$char_traits@D@std@@SADABH@Z 10057f60 f i Signature.obj
 0001:00056f70       ?xsputn@?$basic_streambuf@DU?$char_traits@D@std@@@std@@MAEHPBDH@Z 10057f70 f i Signature.obj
 0001:000570a0       ?seekoff@?$basic_streambuf@DU?$char_traits@D@std@@@std@@MAE?AV?$fpos@H@2@JHH@Z 100580a0 f i Signature.obj
 0001:000570d0       ?seekpos@?$basic_streambuf@DU?$char_traits@D@std@@@std@@MAE?AV?$fpos@H@2@V32@H@Z 100580d0 f i Signature.obj
 0001:00057100       ?setbuf@?$basic_streambuf@DU?$char_traits@D@std@@@std@@MAEPAV12@PADH@Z 10058100 f i Signature.obj
 0001:00057120       ?sync@?$basic_streambuf@DU?$char_traits@D@std@@@std@@MAEHXZ 10058120 f i Signature.obj
 0001:00057140       ?imbue@?$basic_streambuf@DU?$char_traits@D@std@@@std@@MAEXABVlocale@2@@Z 10058140 f i Signature.obj
 0001:00057160       ?overflow@?$basic_filebuf@DU?$char_traits@D@std@@@std@@MAEHH@Z 10058160 f i Signature.obj
 0001:000574f0       ?not_eof@?$char_traits@D@std@@SAHABH@Z 100584f0 f i Signature.obj
 0001:00057530       ??$_Fputc@D@std@@YA_NDPAU_iobuf@@@Z 10058530 f i Signature.obj
 0001:00057560       ?pbackfail@?$basic_filebuf@DU?$char_traits@D@std@@@std@@MAEHH@Z 10058560 f i Signature.obj
 0001:000576d0       ??$_Ungetc@D@std@@YA_NABDPAU_iobuf@@@Z 100586d0 f i Signature.obj
 0001:00057700       ?underflow@?$basic_filebuf@DU?$char_traits@D@std@@@std@@MAEHXZ 10058700 f i Signature.obj
 0001:000577f0       ?uflow@?$basic_filebuf@DU?$char_traits@D@std@@@std@@MAEHXZ 100587f0 f i Signature.obj
 0001:00057ad0       ??$_Fgetc@D@std@@YA_NAADPAU_iobuf@@@Z 10058ad0 f i Signature.obj
 0001:00057b10       ?seekoff@?$basic_filebuf@DU?$char_traits@D@std@@@std@@MAE?AV?$fpos@H@2@JHH@Z 10058b10 f i Signature.obj
 0001:00057cd0       ?seekpos@?$basic_filebuf@DU?$char_traits@D@std@@@std@@MAE?AV?$fpos@H@2@V32@H@Z 10058cd0 f i Signature.obj
 0001:00057e40       ?setbuf@?$basic_filebuf@DU?$char_traits@D@std@@@std@@MAEPAV?$basic_streambuf@DU?$char_traits@D@std@@@2@PADH@Z 10058e40 f i Signature.obj
 0001:00057ed0       ?sync@?$basic_filebuf@DU?$char_traits@D@std@@@std@@MAEHXZ 10058ed0 f i Signature.obj
 0001:00057f70       ?imbue@?$basic_filebuf@DU?$char_traits@D@std@@@std@@MAEXABVlocale@2@@Z 10058f70 f i Signature.obj
 0001:00057fb0       ??_G?$basic_ostream@DU?$char_traits@D@std@@@std@@UAEPAXI@Z 10058fb0 f i Signature.obj
 0001:00057fb0       ??_E?$basic_ostream@DU?$char_traits@D@std@@@std@@UAEPAXI@Z 10058fb0 f i Signature.obj
 0001:00058000       ??_G?$basic_ios@DU?$char_traits@D@std@@@std@@UAEPAXI@Z 10059000 f i Signature.obj
 0001:00058000       ??_E?$basic_ios@DU?$char_traits@D@std@@@std@@UAEPAXI@Z 10059000 f i Signature.obj
 0001:00058040       ??_G?$basic_streambuf@DU?$char_traits@D@std@@@std@@UAEPAXI@Z 10059040 f i Signature.obj
 0001:00058040       ??_E?$basic_streambuf@DU?$char_traits@D@std@@@std@@UAEPAXI@Z 10059040 f i Signature.obj
 0001:00058080       ??_G?$basic_ofstream@DU?$char_traits@D@std@@@std@@UAEPAXI@Z 10059080 f i Signature.obj
 0001:00058080       ??_E?$basic_ofstream@DU?$char_traits@D@std@@@std@@UAEPAXI@Z 10059080 f i Signature.obj
 0001:000580d0       ??_E?$basic_filebuf@DU?$char_traits@D@std@@@std@@UAEPAXI@Z 100590d0 f i Signature.obj
 0001:000580d0       ??_G?$basic_filebuf@DU?$char_traits@D@std@@@std@@UAEPAXI@Z 100590d0 f i Signature.obj
 0001:00058110       ??_D?$basic_ostream@DU?$char_traits@D@std@@@std@@QAEXXZ 10059110 f i Signature.obj
 0001:00058150       ??0?$CSimpleStringT@D$0A@@ATL@@QAE@PAUIAtlStringMgr@1@@Z 10059150 f i Signature.obj
 0001:000581d0       ?Attach@?$CSimpleStringT@D$0A@@ATL@@AAEXPAUCStringData@2@@Z 100591d0 f i Signature.obj
 0001:00058200       ?data@CStringData@ATL@@QAEPAXXZ 10059200 f i Signature.obj
 0001:00058220       ??1?$CSimpleStringT@D$0A@@ATL@@QAE@XZ 10059220 f i Signature.obj
 0001:00058260       ?Release@CStringData@ATL@@QAEXXZ 10059260 f i Signature.obj
 0001:000582e0       ?GetData@?$CSimpleStringT@D$0A@@ATL@@ABEPAUCStringData@2@XZ 100592e0 f i Signature.obj
 0001:00058300       ?FormatV@?$CStringT@DV?$StrTraitATL@DV?$ChTraitsCRT@D@ATL@@@ATL@@@ATL@@QAEXPBDPAD@Z 10059300 f i Signature.obj
 0001:000583c0       ?GetBuffer@?$CSimpleStringT@D$0A@@ATL@@QAEPADH@Z 100593c0 f i Signature.obj
 0001:000583f0       ?PrepareWrite@?$CSimpleStringT@D$0A@@ATL@@AAEPADH@Z 100593f0 f i Signature.obj
 0001:00058460       ?PrepareWrite2@?$CSimpleStringT@D$0A@@ATL@@AAEXH@Z 10059460 f i Signature.obj
 0001:00058520       ?IsShared@CStringData@ATL@@QBE_NXZ 10059520 f i Signature.obj
 0001:00058540       ?Fork@?$CSimpleStringT@D$0A@@ATL@@AAEXH@Z 10059540 f i Signature.obj
 0001:00058630       ?Reallocate@?$CSimpleStringT@D$0A@@ATL@@AAEXH@Z 10059630 f i Signature.obj
 0001:000586e0       ?CopyChars@?$CSimpleStringT@D$0A@@ATL@@SAXPADPBDH@Z 100596e0 f i Signature.obj
 0001:00058700       ?ThrowMemoryException@?$CSimpleStringT@D$0A@@ATL@@KAXXZ 10059700 f i Signature.obj
 0001:00058720       ?GetDefaultManager@?$StrTraitATL@DV?$ChTraitsCRT@D@ATL@@@ATL@@SAPAUIAtlStringMgr@2@XZ 10059720 f i Signature.obj
 0001:00058730       ??0?$basic_string@DU?$char_traits@D@std@@V?$allocator@D@2@@std@@QAE@ABV01@II@Z 10059730 f i Signature.obj
 0001:00058790       ??0?$basic_string@DU?$char_traits@D@std@@V?$allocator@D@2@@std@@QAE@ID@Z 10059790 f i Signature.obj
 0001:000587f0       ?append@?$basic_string@DU?$char_traits@D@std@@V?$allocator@D@2@@std@@QAEAAV12@PBD@Z 100597f0 f i Signature.obj
 0001:00058830       ?append@?$basic_string@DU?$char_traits@D@std@@V?$allocator@D@2@@std@@QAEAAV12@ID@Z 10059830 f i Signature.obj
 0001:000588d0       ?assign@?$char_traits@D@std@@SAPADPADID@Z 100598d0 f i Signature.obj
 0001:00058900       ?assign@?$basic_string@DU?$char_traits@D@std@@V?$allocator@D@2@@std@@QAEAAV12@ABV12@@Z 10059900 f i Signature.obj
 0001:00058940       ?begin@?$basic_string@DU?$char_traits@D@std@@V?$allocator@D@2@@std@@QAE?AViterator@12@XZ 10059940 f i Signature.obj
 0001:00058980       ?rfind@?$basic_string@DU?$char_traits@D@std@@V?$allocator@D@2@@std@@QBEIPBDII@Z 10059980 f i Signature.obj
 0001:00058a80       ?eq@?$char_traits@D@std@@SA_NABD0@Z 10059a80 f i Signature.obj
 0001:00058aa0       ?append@?$basic_string@DU?$char_traits@D@std@@V?$_DebugHeapAllocator@D@2@@std@@QAEAAV12@ID@Z 10059aa0 f i Signature.obj
 0001:00058b40       ?erase@?$basic_string@DU?$char_traits@D@std@@V?$_DebugHeapAllocator@D@2@@std@@QAEAAV12@II@Z 10059b40 f i Signature.obj
 0001:00058bf0       ?begin@?$basic_string@DU?$char_traits@D@std@@V?$_DebugHeapAllocator@D@2@@std@@QAE?AViterator@12@XZ 10059bf0 f i Signature.obj
 0001:00058c30       ??A?$basic_string@DU?$char_traits@D@std@@V?$_DebugHeapAllocator@D@2@@std@@QAEAADI@Z 10059c30 f i Signature.obj
 0001:00058c60       ?size@?$basic_string@DU?$char_traits@D@std@@V?$_DebugHeapAllocator@D@2@@std@@QBEIXZ 10059c60 f i Signature.obj
 0001:00058c80       ??0?$basic_ostream@DU?$char_traits@D@std@@@std@@QAE@PAV?$basic_streambuf@DU?$char_traits@D@std@@@1@_N@Z 10059c80 f i Signature.obj
 0001:00058d30       ?clear@?$basic_ios@DU?$char_traits@D@std@@@std@@QAEXH_N@Z 10059d30 f i Signature.obj
 0001:00058d90       ??0?$basic_ios@DU?$char_traits@D@std@@@std@@IAE@XZ 10059d90 f i Signature.obj
 0001:00058dc0       ??0ios_base@std@@IAE@XZ    10059dc0 f i Signature.obj
 0001:00058de0       ??_Gios_base@std@@UAEPAXI@Z 10059de0 f i Signature.obj
 0001:00058de0       ??_Eios_base@std@@UAEPAXI@Z 10059de0 f i Signature.obj
 0001:00058e20       ?pubsync@?$basic_streambuf@DU?$char_traits@D@std@@@std@@QAEHXZ 10059e20 f i Signature.obj
 0001:00058e60       ?sputc@?$basic_streambuf@DU?$char_traits@D@std@@@std@@QAEHD@Z 10059e60 f i Signature.obj
 0001:00058f00       ?eback@?$basic_streambuf@DU?$char_traits@D@std@@@std@@IBEPADXZ 10059f00 f i Signature.obj
 0001:00058f20       ?gptr@?$basic_streambuf@DU?$char_traits@D@std@@@std@@IBEPADXZ 10059f20 f i Signature.obj
 0001:00058f40       ?pptr@?$basic_streambuf@DU?$char_traits@D@std@@@std@@IBEPADXZ 10059f40 f i Signature.obj
 0001:00058f60       ?egptr@?$basic_streambuf@DU?$char_traits@D@std@@@std@@IBEPADXZ 10059f60 f i Signature.obj
 0001:00058f90       ?gbump@?$basic_streambuf@DU?$char_traits@D@std@@@std@@IAEXH@Z 10059f90 f i Signature.obj
 0001:00058fd0       ?setg@?$basic_streambuf@DU?$char_traits@D@std@@@std@@IAEXPAD00@Z 10059fd0 f i Signature.obj
 0001:00059010       ?epptr@?$basic_streambuf@DU?$char_traits@D@std@@@std@@IBEPADXZ 1005a010 f i Signature.obj
 0001:00059040       ?_Gndec@?$basic_streambuf@DU?$char_traits@D@std@@@std@@IAEPADXZ 1005a040 f i Signature.obj
 0001:00059080       ?_Gninc@?$basic_streambuf@DU?$char_traits@D@std@@@std@@IAEPADXZ 1005a080 f i Signature.obj
 0001:000590d0       ?pbump@?$basic_streambuf@DU?$char_traits@D@std@@@std@@IAEXH@Z 1005a0d0 f i Signature.obj
 0001:00059110       ?_Pninc@?$basic_streambuf@DU?$char_traits@D@std@@@std@@IAEPADXZ 1005a110 f i Signature.obj
 0001:00059160       ?_Nextnode@?$list@PAUTempFilePathInfo@@V?$allocator@PAUTempFilePathInfo@@@std@@@std@@KAAAPAU_Node@?$_List_nod@PAUTempFilePathInfo@@V?$allocator@PAUTempFilePathInfo@@@std@@@2@PAU342@@Z 1005a160 f i Signature.obj
 0001:00059170       ?_Insert@?$list@PAUTempFilePathInfo@@V?$allocator@PAUTempFilePathInfo@@@std@@@std@@QAEXViterator@12@ABQAUTempFilePathInfo@@@Z 1005a170 f i Signature.obj
 0001:00059210       ?erase@?$list@PAUTempFilePathInfo@@V?$allocator@PAUTempFilePathInfo@@@std@@@std@@QAE?AViterator@12@V312@@Z 1005a210 f i Signature.obj
 0001:000592f0       ?_Buynode@?$list@PAUTempFilePathInfo@@V?$allocator@PAUTempFilePathInfo@@@std@@@std@@IAEPAU_Node@?$_List_nod@PAUTempFilePathInfo@@V?$allocator@PAUTempFilePathInfo@@@std@@@2@XZ 1005a2f0 f i Signature.obj
 0001:00059420       ?_Tidy@?$list@PAUTempFilePathInfo@@V?$allocator@PAUTempFilePathInfo@@@std@@@std@@IAEXXZ 1005a420 f i Signature.obj
 0001:000594a0       ??0?$_List_val@PAUTempFilePathInfo@@V?$allocator@PAUTempFilePathInfo@@@std@@@std@@IAE@V?$allocator@PAUTempFilePathInfo@@@1@@Z 1005a4a0 f i Signature.obj
 0001:000594f0       ??0?$allocator@PAUTempFilePathInfo@@@std@@QAE@XZ 1005a4f0 f i Signature.obj
 0001:00059510       ??0iterator@?$list@PAUTempFilePathInfo@@V?$allocator@PAUTempFilePathInfo@@@std@@@std@@QAE@PAU_Node@?$_List_nod@PAUTempFilePathInfo@@V?$allocator@PAUTempFilePathInfo@@@std@@@2@@Z 1005a510 f i Signature.obj
 0001:00059540       ??Eiterator@?$list@PAUTempFilePathInfo@@V?$allocator@PAUTempFilePathInfo@@@std@@@std@@QAEAAV012@XZ 1005a540 f i Signature.obj
 0001:00059570       ??Fiterator@?$list@PAUTempFilePathInfo@@V?$allocator@PAUTempFilePathInfo@@@std@@@std@@QAEAAV012@XZ 1005a570 f i Signature.obj
 0001:000595a0       ??Dconst_iterator@?$list@PAUTempFilePathInfo@@V?$allocator@PAUTempFilePathInfo@@@std@@@std@@QBEABQAUTempFilePathInfo@@XZ 1005a5a0 f i Signature.obj
 0001:000595d0       ??8const_iterator@?$list@PAUTempFilePathInfo@@V?$allocator@PAUTempFilePathInfo@@@std@@@std@@QBE_NABV012@@Z 1005a5d0 f i Signature.obj
 0001:00059600       ??0?$CComPtrBase@UIHTMLDocument2@@@ATL@@IAE@XZ 1005a600 f i Signature.obj
 0001:00059620       ??0?$basic_filebuf@DU?$char_traits@D@std@@@std@@QAE@PAU_iobuf@@@Z 1005a620 f i Signature.obj
 0001:000596a0       ?open@?$basic_filebuf@DU?$char_traits@D@std@@@std@@QAEPAV12@PBDHH@Z 1005a6a0 f i Signature.obj
 0001:00059770       ??1locale@std@@QAE@XZ      1005a770 f i Signature.obj
 0001:000597b0       ?_Decref@facet@locale@std@@QAEPAV123@XZ 1005a7b0 f i Signature.obj
 0001:00059850       ?close@?$basic_filebuf@DU?$char_traits@D@std@@@std@@QAEPAV12@XZ 1005a850 f i Signature.obj
 0001:000598b0       ?_Endwrite@?$basic_filebuf@DU?$char_traits@D@std@@@std@@IAE_NXZ 1005a8b0 f i Signature.obj
 0001:00059ad0       ?_Initcvt@?$basic_filebuf@DU?$char_traits@D@std@@@std@@IAEXPAV?$codecvt@DDH@2@@Z 1005aad0 f i Signature.obj
 0001:00059bb0       ??0_DebugHeapString@std@@QAE@XZ 1005abb0 f i Signature.obj
 0001:00059be0       ?always_noconv@codecvt_base@std@@QBE_NXZ 1005abe0 f i Signature.obj
 0001:00059c20       ??0?$basic_string@DU?$char_traits@D@std@@V?$_DebugHeapAllocator@D@2@@std@@QAE@XZ 1005ac20 f i Signature.obj
 0001:00059c70       ??0?$_DebugHeapAllocator@D@std@@QAE@XZ 1005ac70 f i Signature.obj
 0001:00059ca0       ?_Tidy@?$basic_string@DU?$char_traits@D@std@@V?$_DebugHeapAllocator@D@2@@std@@IAEX_NI@Z 1005aca0 f i Signature.obj
 0001:00059d30       ??0?$_String_val@DV?$_DebugHeapAllocator@D@std@@@std@@IAE@V?$_DebugHeapAllocator@D@1@@Z 1005ad30 f i Signature.obj
 0001:00059d60       ??0?$_DebugHeapAllocator@D@std@@QAE@ABV01@@Z 1005ad60 f i Signature.obj
 0001:00059d90       ??0?$fpos@H@std@@QAE@J@Z   1005ad90 f i Signature.obj
 0001:00059dd0       ??0?$fpos@H@std@@QAE@H_J@Z 1005add0 f i Signature.obj
 0001:00059e10       ?state@?$fpos@H@std@@QBEHXZ 1005ae10 f i Signature.obj
 0001:00059e30       ?seekpos@?$fpos@H@std@@QBE_JXZ 1005ae30 f i Signature.obj
 0001:00059e50       ??B?$fpos@H@std@@QBEJXZ    1005ae50 f i Signature.obj
 0001:00059e70       ??0sentry@?$basic_ostream@DU?$char_traits@D@std@@@std@@QAE@AAV12@@Z 1005ae70 f i Signature.obj
 0001:00059f30       ?good@ios_base@std@@QBE_NXZ 1005af30 f i Signature.obj
 0001:00059f60       ??1sentry@?$basic_ostream@DU?$char_traits@D@std@@@std@@QAE@XZ 1005af60 f i Signature.obj
 0001:00059fd0       ??Bsentry@?$basic_ostream@DU?$char_traits@D@std@@@std@@QBE_NXZ 1005afd0 f i Signature.obj
 0001:00059ff0       ?in@?$codecvt@DDH@std@@QBEHAAHPBD1AAPBDPAD3AAPAD@Z 1005aff0 f i Signature.obj
 0001:0005a040       ?out@?$codecvt@DDH@std@@QBEHAAHPBD1AAPBDPAD3AAPAD@Z 1005b040 f i Signature.obj
 0001:0005a090       ??Diterator@?$basic_string@DU?$char_traits@D@std@@V?$allocator@D@2@@std@@QBEAADXZ 1005b090 f i Signature.obj
 0001:0005a0c0       ??Diterator@?$basic_string@DU?$char_traits@D@std@@V?$_DebugHeapAllocator@D@2@@std@@QBEAADXZ 1005b0c0 f i Signature.obj
 0001:0005a0f0       ?ReleaseBufferSetLength@?$CSimpleStringT@D$0A@@ATL@@QAEXH@Z 1005b0f0 f i Signature.obj
 0001:0005a150       ?SetLength@?$CSimpleStringT@D$0A@@ATL@@AAEXH@Z 1005b150 f i Signature.obj
 0001:0005a200       ?GetFormattedLength@?$ChTraitsCRT@D@ATL@@SAHPBDPAD@Z 1005b200 f i Signature.obj
 0001:0005a220       ?Format@?$ChTraitsCRT@D@ATL@@SAHPADPBD0@Z 1005b220 f i Signature.obj
 0001:0005a240       ?append@?$basic_string@DU?$char_traits@D@std@@V?$allocator@D@2@@std@@QAEAAV12@PBDI@Z 1005b240 f i Signature.obj
 0001:0005a310       ?assign@?$basic_string@DU?$char_traits@D@std@@V?$allocator@D@2@@std@@QAEAAV12@ID@Z 1005b310 f i Signature.obj
 0001:0005a380       ?_Eos@?$basic_string@DU?$char_traits@D@std@@V?$_DebugHeapAllocator@D@2@@std@@IAEXI@Z 1005b380 f i Signature.obj
 0001:0005a3d0       ?_Grow@?$basic_string@DU?$char_traits@D@std@@V?$_DebugHeapAllocator@D@2@@std@@IAE_NI_N@Z 1005b3d0 f i Signature.obj
 0001:0005a480       ?_Myptr@?$basic_string@DU?$char_traits@D@std@@V?$_DebugHeapAllocator@D@2@@std@@QAEPADXZ 1005b480 f i Signature.obj
 0001:0005a4c0       ?deallocate@?$_DebugHeapAllocator@D@std@@QAEXPADI@Z 1005b4c0 f i Signature.obj
 0001:0005a4f0       ?_Osfx@?$basic_ostream@DU?$char_traits@D@std@@@std@@QAEXXZ 1005b4f0 f i Signature.obj
 0001:0005a530       ?flags@ios_base@std@@QBEHXZ 1005b530 f i Signature.obj
 0001:0005a550       ?tie@?$basic_ios@DU?$char_traits@D@std@@@std@@QBEPAV?$basic_ostream@DU?$char_traits@D@std@@@2@XZ 1005b550 f i Signature.obj
 0001:0005a570       ?init@?$basic_ios@DU?$char_traits@D@std@@@std@@IAEXPAV?$basic_streambuf@DU?$char_traits@D@std@@@2@_N@Z 1005b570 f i Signature.obj
 0001:0005a5f0       ??0?$basic_streambuf@DU?$char_traits@D@std@@@std@@IAE@XZ 1005b5f0 f i Signature.obj
 0001:0005a6b0       ?getloc@?$basic_streambuf@DU?$char_traits@D@std@@@std@@QBE?AVlocale@2@XZ 1005b6b0 f i Signature.obj
 0001:0005a700       ??0locale@std@@QAE@ABV01@@Z 1005b700 f i Signature.obj
 0001:0005a740       ?_Incref@facet@locale@std@@QAEXXZ 1005b740 f i Signature.obj
 0001:0005a7c0       ?_Init@?$basic_streambuf@DU?$char_traits@D@std@@@std@@IAEXXZ 1005b7c0 f i Signature.obj
 0001:0005a840       ?_Prevnode@?$list@PAUTempFilePathInfo@@V?$allocator@PAUTempFilePathInfo@@@std@@@std@@KAAAPAU_Node@?$_List_nod@PAUTempFilePathInfo@@V?$allocator@PAUTempFilePathInfo@@@std@@@2@PAU342@@Z 1005b840 f i Signature.obj
 0001:0005a850       ?_Myval@?$list@PAUTempFilePathInfo@@V?$allocator@PAUTempFilePathInfo@@@std@@@std@@KAAAPAUTempFilePathInfo@@PAU_Node@?$_List_nod@PAUTempFilePathInfo@@V?$allocator@PAUTempFilePathInfo@@@std@@@2@@Z 1005b850 f i Signature.obj
 0001:0005a860       ?clear@?$list@PAUTempFilePathInfo@@V?$allocator@PAUTempFilePathInfo@@@std@@@std@@QAEXXZ 1005b860 f i Signature.obj
 0001:0005a920       ?_Buynode@?$list@PAUTempFilePathInfo@@V?$allocator@PAUTempFilePathInfo@@@std@@@std@@IAEPAU_Node@?$_List_nod@PAUTempFilePathInfo@@V?$allocator@PAUTempFilePathInfo@@@std@@@2@PAU342@0ABQAUTempFilePathInfo@@@Z 1005b920 f i Signature.obj
 0001:0005aa10       ?_Incsize@?$list@PAUTempFilePathInfo@@V?$allocator@PAUTempFilePathInfo@@@std@@@std@@IAEXI@Z 1005ba10 f i Signature.obj
 0001:0005aab0       ??0?$_List_ptr@PAUTempFilePathInfo@@V?$allocator@PAUTempFilePathInfo@@@std@@@std@@IAE@V?$allocator@PAUTempFilePathInfo@@@1@@Z 1005bab0 f i Signature.obj
 0001:0005ab00       ??0?$allocator@PAUTempFilePathInfo@@@std@@QAE@ABV01@@Z 1005bb00 f i Signature.obj
 0001:0005ab20       ?deallocate@?$allocator@U_Node@?$_List_nod@PAUTempFilePathInfo@@V?$allocator@PAUTempFilePathInfo@@@std@@@std@@@std@@QAEXPAU_Node@?$_List_nod@PAUTempFilePathInfo@@V?$allocator@PAUTempFilePathInfo@@@std@@@2@I@Z 1005bb20 f i Signature.obj
 0001:0005ab50       ?allocate@?$allocator@U_Node@?$_List_nod@PAUTempFilePathInfo@@V?$allocator@PAUTempFilePathInfo@@@std@@@std@@@std@@QAEPAU_Node@?$_List_nod@PAUTempFilePathInfo@@V?$allocator@PAUTempFilePathInfo@@@std@@@2@I@Z 1005bb50 f i Signature.obj
 0001:0005ab80       ?destroy@?$allocator@U_Node@?$_List_nod@PAUTempFilePathInfo@@V?$allocator@PAUTempFilePathInfo@@@std@@@std@@@std@@QAEXPAU_Node@?$_List_nod@PAUTempFilePathInfo@@V?$allocator@PAUTempFilePathInfo@@@std@@@2@@Z 1005bb80 f i Signature.obj
 0001:0005abb0       ?construct@?$allocator@PAU_Node@?$_List_nod@PAUTempFilePathInfo@@V?$allocator@PAUTempFilePathInfo@@@std@@@std@@@std@@QAEXPAPAU_Node@?$_List_nod@PAUTempFilePathInfo@@V?$allocator@PAUTempFilePathInfo@@@std@@@2@ABQAU342@@Z 1005bbb0 f i Signature.obj
 0001:0005abe0       ?destroy@?$allocator@PAU_Node@?$_List_nod@PAUTempFilePathInfo@@V?$allocator@PAUTempFilePathInfo@@@std@@@std@@@std@@QAEXPAPAU_Node@?$_List_nod@PAUTempFilePathInfo@@V?$allocator@PAUTempFilePathInfo@@@std@@@2@@Z 1005bbe0 f i Signature.obj
 0001:0005ac10       ??0const_iterator@?$list@PAUTempFilePathInfo@@V?$allocator@PAUTempFilePathInfo@@@std@@@std@@QAE@PAU_Node@?$_List_nod@PAUTempFilePathInfo@@V?$allocator@PAUTempFilePathInfo@@@std@@@2@@Z 1005bc10 f i Signature.obj
 0001:0005ac30       ??Econst_iterator@?$list@PAUTempFilePathInfo@@V?$allocator@PAUTempFilePathInfo@@@std@@@std@@QAEAAV012@XZ 1005bc30 f i Signature.obj
 0001:0005ac70       ??Fconst_iterator@?$list@PAUTempFilePathInfo@@V?$allocator@PAUTempFilePathInfo@@@std@@@std@@QAEAAV012@XZ 1005bc70 f i Signature.obj
 0001:0005acb0       ?_Mynode@const_iterator@?$list@PAUTempFilePathInfo@@V?$allocator@PAUTempFilePathInfo@@@std@@@std@@QBEPAU_Node@?$_List_nod@PAUTempFilePathInfo@@V?$allocator@PAUTempFilePathInfo@@@std@@@3@XZ 1005bcb0 f i Signature.obj
 0001:0005acd0       ?_Init@?$basic_filebuf@DU?$char_traits@D@std@@@std@@IAEXPAU_iobuf@@W4_Initfl@12@@Z 1005bcd0 f i Signature.obj
 0001:0005ada0       ??0_Sentry_base@?$basic_ostream@DU?$char_traits@D@std@@@std@@QAE@AAV12@@Z 1005bda0 f i Signature.obj
 0001:0005ae00       ?_Lock@?$basic_streambuf@DU?$char_traits@D@std@@@std@@QAEXXZ 1005be00 f i Signature.obj
 0001:0005ae30       ??1_Sentry_base@?$basic_ostream@DU?$char_traits@D@std@@@std@@QAE@XZ 1005be30 f i Signature.obj
 0001:0005ae80       ?_Unlock@?$basic_streambuf@DU?$char_traits@D@std@@@std@@QAEXXZ 1005be80 f i Signature.obj
 0001:0005aeb0       ??Dconst_iterator@?$basic_string@DU?$char_traits@D@std@@V?$allocator@D@2@@std@@QBEABDXZ 1005beb0 f i Signature.obj
 0001:0005aed0       ?unshift@?$codecvt@DDH@std@@QBEHAAHPAD1AAPAD@Z 1005bed0 f i Signature.obj
 0001:0005af20       ??0iterator@?$basic_string@DU?$char_traits@D@std@@V?$allocator@D@2@@std@@QAE@PAD@Z 1005bf20 f i Signature.obj
 0001:0005af50       ??Dconst_iterator@?$basic_string@DU?$char_traits@D@std@@V?$_DebugHeapAllocator@D@2@@std@@QBEABDXZ 1005bf50 f i Signature.obj
 0001:0005af70       ??0iterator@?$basic_string@DU?$char_traits@D@std@@V?$_DebugHeapAllocator@D@2@@std@@QAE@PAD@Z 1005bf70 f i Signature.obj
 0001:0005afa0       ?max_size@?$basic_string@DU?$char_traits@D@std@@V?$_DebugHeapAllocator@D@2@@std@@QBEIXZ 1005bfa0 f i Signature.obj
 0001:0005b000       ?_Copy@?$basic_string@DU?$char_traits@D@std@@V?$_DebugHeapAllocator@D@2@@std@@IAEXII@Z 1005c000 f i Signature.obj
 0001:0005b180       ?widen@?$basic_ios@DU?$char_traits@D@std@@@std@@QBEDD@Z 1005c180 f i Signature.obj
 0001:0005b220       ?widen@?$ctype@D@std@@QBEDD@Z 1005c220 f i Signature.obj
 0001:0005b260       ?getloc@ios_base@std@@QBE?AVlocale@2@XZ 1005c260 f i Signature.obj
 0001:0005b2b0       ?setp@?$basic_streambuf@DU?$char_traits@D@std@@@std@@IAEXPAD0@Z 1005c2b0 f i Signature.obj
 0001:0005b2f0       ?_Init@?$basic_streambuf@DU?$char_traits@D@std@@@std@@IAEXPAPAD0PAH001@Z 1005c2f0 f i Signature.obj
 0001:0005b340       ?max_size@?$list@PAUTempFilePathInfo@@V?$allocator@PAUTempFilePathInfo@@@std@@@std@@QBEIXZ 1005c340 f i Signature.obj
 0001:0005b370       ??0?$_List_nod@PAUTempFilePathInfo@@V?$allocator@PAUTempFilePathInfo@@@std@@@std@@IAE@V?$allocator@PAUTempFilePathInfo@@@1@@Z 1005c370 f i Signature.obj
 0001:0005b3a0       ??0const_iterator@?$basic_string@DU?$char_traits@D@std@@V?$allocator@D@2@@std@@QAE@PBD@Z 1005c3a0 f i Signature.obj
 0001:0005b3c0       ??0const_iterator@?$basic_string@DU?$char_traits@D@std@@V?$_DebugHeapAllocator@D@2@@std@@QAE@PBD@Z 1005c3c0 f i Signature.obj
 0001:0005b3e0       ??0_Node@?$_List_nod@PAUTempFilePathInfo@@V?$allocator@PAUTempFilePathInfo@@@std@@@std@@QAE@PAU012@0ABQAUTempFilePathInfo@@@Z 1005c3e0 f i Signature.obj
 0001:0005b420       ?allocate@?$_DebugHeapAllocator@D@std@@QAEPADI@Z 1005c420 f i Signature.obj
 0001:0005b470       ?max_size@?$allocator@PAUTempFilePathInfo@@@std@@QBEIXZ 1005c470 f i Signature.obj
 0001:0005b4c0       ?StartDialogProc@?$CDialogImplBaseT@VCWindow@ATL@@@ATL@@SGHPAUHWND__@@IIJ@Z 1005c4c0 f i Signature.obj
 0001:0005b5d0       ?ExtractCreateWndData@CAtlWinModule@ATL@@QAEPAXXZ 1005c5d0 f i Signature.obj
 0001:0005b610       ?Init@CWndProcThunk@ATL@@QAEXP6GJPAUHWND__@@IIJ@ZPAX@Z 1005c610 f i Signature.obj
 0001:0005b650       ?Init@CDynamicStdCallThunk@ATL@@QAEXKPAX@Z 1005c650 f i Signature.obj
 0001:0005b6e0       ?Init@_stdcallthunk@ATL@@QAEXKPAX@Z 1005c6e0 f i Signature.obj
 0001:0005b760       ?GetWNDPROC@CWndProcThunk@ATL@@QAEP6GJPAUHWND__@@IIJ@ZXZ 1005c760 f i Signature.obj
 0001:0005b790       ?GetCodeAddress@CDynamicStdCallThunk@ATL@@QAEPAXXZ 1005c790 f i Signature.obj
 0001:0005b7e0       ?GetCodeAddress@_stdcallthunk@ATL@@QAEPAXXZ 1005c7e0 f i Signature.obj
 0001:0005b800       ??$_DebugHeapDelete@Vfacet@locale@std@@@std@@YAXPAVfacet@locale@0@@Z 1005c800 f i Signature.obj
 0001:0005b840       ??$use_facet@V?$ctype@D@std@@@std@@YAABV?$ctype@D@0@ABVlocale@0@@Z 1005c840 f i Signature.obj
 0001:0005b980       ??Bid@locale@std@@QAEIXZ   1005c980 f i Signature.obj
 0001:0005ba20       ?_Getcat@?$ctype@D@std@@SAIPAPBVfacet@locale@2@@Z 1005ca20 f i Signature.obj
 0001:0005bae0       ??0?$ctype@D@std@@QAE@PBF_NI@Z 1005cae0 f i Signature.obj
 0001:0005bbd0       ??0ctype_base@std@@QAE@I@Z 1005cbd0 f i Signature.obj
 0001:0005bc10       ??0facet@locale@std@@IAE@I@Z 1005cc10 f i Signature.obj
 0001:0005bc40       ??_Efacet@locale@std@@UAEPAXI@Z 1005cc40 f i Signature.obj
 0001:0005bc40       ??_Gfacet@locale@std@@UAEPAXI@Z 1005cc40 f i Signature.obj
 0001:0005bc80       ??1facet@locale@std@@UAE@XZ 1005cc80 f i Signature.obj
 0001:0005bca0       ??1ctype_base@std@@UAE@XZ  1005cca0 f i Signature.obj
 0001:0005bcd0       ??_Ectype_base@std@@UAEPAXI@Z 1005ccd0 f i Signature.obj
 0001:0005bcd0       ??_Gctype_base@std@@UAEPAXI@Z 1005ccd0 f i Signature.obj
 0001:0005bd10       ?_Init@?$ctype@D@std@@IAEXABV_Locinfo@2@@Z 1005cd10 f i Signature.obj
 0001:0005bd70       ?_Getctype@_Locinfo@std@@QBE?AU_Ctypevec@@XZ 1005cd70 f i Signature.obj
 0001:0005bdf0       ?_Tidy@?$ctype@D@std@@IAEXXZ 1005cdf0 f i Signature.obj
 0001:0005be50       ?do_tolower@?$ctype@D@std@@MBEDD@Z 1005ce50 f i Signature.obj
 0001:0005be90       ?do_tolower@?$ctype@D@std@@MBEPBDPADPBD@Z 1005ce90 f i Signature.obj
 0001:0005bef0       ?do_toupper@?$ctype@D@std@@MBEDD@Z 1005cef0 f i Signature.obj
 0001:0005bf30       ?do_toupper@?$ctype@D@std@@MBEPBDPADPBD@Z 1005cf30 f i Signature.obj
 0001:0005bf90       ?do_widen@?$ctype@D@std@@MBEDD@Z 1005cf90 f i Signature.obj
 0001:0005bfb0       ?do_widen@?$ctype@D@std@@MBEPBDPBD0PAD@Z 1005cfb0 f i Signature.obj
 0001:0005bff0       ?do_narrow@?$ctype@D@std@@MBEDDD@Z 1005cff0 f i Signature.obj
 0001:0005c010       ?do_narrow@?$ctype@D@std@@MBEPBDPBD0DPAD@Z 1005d010 f i Signature.obj
 0001:0005c050       ??_G?$ctype@D@std@@MAEPAXI@Z 1005d050 f i Signature.obj
 0001:0005c050       ??_E?$ctype@D@std@@MAEPAXI@Z 1005d050 f i Signature.obj
 0001:0005c090       ??1?$ctype@D@std@@MAE@XZ   1005d090 f i Signature.obj
 0001:0005c100       ??$?HDU?$char_traits@D@std@@V?$allocator@D@1@@std@@YA?AV?$basic_string@DU?$char_traits@D@std@@V?$allocator@D@2@@0@ABV10@PBD@Z 1005d100 f i Signature.obj
 0001:0005c1a0       ??$?8DU?$char_traits@D@std@@V?$allocator@D@1@@std@@YA_NABV?$basic_string@DU?$char_traits@D@std@@V?$allocator@D@2@@0@PBD@Z 1005d1a0 f i Signature.obj
 0001:0005c1c0       ??$?6U?$char_traits@D@std@@@std@@YAAAV?$basic_ostream@DU?$char_traits@D@std@@@0@AAV10@PBE@Z 1005d1c0 f i Signature.obj
 0001:0005c1e0       ??$?6U?$char_traits@D@std@@@std@@YAAAV?$basic_ostream@DU?$char_traits@D@std@@@0@AAV10@PBD@Z 1005d1e0 f i Signature.obj
 0001:0005c4d0       ?width@ios_base@std@@QBEHXZ 1005d4d0 f i Signature.obj
 0001:0005c4f0       ?width@ios_base@std@@QAEHH@Z 1005d4f0 f i Signature.obj
 0001:0005c530       ??$_DebugHeapDelete@Vlocale@std@@@std@@YAXPAVlocale@0@@Z 1005d530 f i Signature.obj
 0001:0005c560       ??$_DebugHeapDelete@V_DebugHeapString@std@@@std@@YAXPAV_DebugHeapString@0@@Z 1005d560 f i Signature.obj
 0001:0005c590       ??$use_facet@V?$codecvt@DDH@std@@@std@@YAABV?$codecvt@DDH@0@ABVlocale@0@@Z 1005d590 f i Signature.obj
 0001:0005c6d0       ??$_DebugHeapDelete@X@std@@YAXPAX@Z 1005d6d0 f i Signature.obj
 0001:0005c6f0       ??$?0PAUTempFilePathInfo@@@?$allocator@PAU_Node@?$_List_nod@PAUTempFilePathInfo@@V?$allocator@PAUTempFilePathInfo@@@std@@@std@@@std@@QAE@ABV?$allocator@PAUTempFilePathInfo@@@1@@Z 1005d6f0 f i Signature.obj
 0001:0005c710       ??$_Allocate@U_Node@?$_List_nod@PAUTempFilePathInfo@@V?$allocator@PAUTempFilePathInfo@@@std@@@std@@@std@@YAPAU_Node@?$_List_nod@PAUTempFilePathInfo@@V?$allocator@PAUTempFilePathInfo@@@std@@@0@IPAU120@@Z 1005d710 f i Signature.obj
 0001:0005c730       ??$_Destroy@U_Node@?$_List_nod@PAUTempFilePathInfo@@V?$allocator@PAUTempFilePathInfo@@@std@@@std@@@std@@YAXPAU_Node@?$_List_nod@PAUTempFilePathInfo@@V?$allocator@PAUTempFilePathInfo@@@std@@@0@@Z 1005d730 f i Signature.obj
 0001:0005c740       ??$_Construct@PAU_Node@?$_List_nod@PAUTempFilePathInfo@@V?$allocator@PAUTempFilePathInfo@@@std@@@std@@PAU123@@std@@YAXPAPAU_Node@?$_List_nod@PAUTempFilePathInfo@@V?$allocator@PAUTempFilePathInfo@@@std@@@0@ABQAU120@@Z 1005d740 f i Signature.obj
 0001:0005c7a0       ??$_Destroy@PAU_Node@?$_List_nod@PAUTempFilePathInfo@@V?$allocator@PAUTempFilePathInfo@@@std@@@std@@@std@@YAXPAPAU_Node@?$_List_nod@PAUTempFilePathInfo@@V?$allocator@PAUTempFilePathInfo@@@std@@@0@@Z 1005d7a0 f i Signature.obj
 0001:0005c7b0       ??$?0PAUTempFilePathInfo@@@?$allocator@U_Node@?$_List_nod@PAUTempFilePathInfo@@V?$allocator@PAUTempFilePathInfo@@@std@@@std@@@std@@QAE@ABV?$allocator@PAUTempFilePathInfo@@@1@@Z 1005d7b0 f i Signature.obj
 0001:0005c7d0       ??_Glocale@std@@QAEPAXI@Z  1005d7d0 f i Signature.obj
 0001:0005c810       ??_G_DebugHeapString@std@@QAEPAXI@Z 1005d810 f i Signature.obj
 0001:0005c850       ??1_DebugHeapString@std@@QAE@XZ 1005d850 f i Signature.obj
 0001:0005c880       ??1?$basic_string@DU?$char_traits@D@std@@V?$_DebugHeapAllocator@D@2@@std@@QAE@XZ 1005d880 f i Signature.obj
 0001:0005c8b0       ?fill@?$basic_ios@DU?$char_traits@D@std@@@std@@QBEDXZ 1005d8b0 f i Signature.obj
 0001:0005c8d0       ?sputn@?$basic_streambuf@DU?$char_traits@D@std@@@std@@QAEHPBDH@Z 1005d8d0 f i Signature.obj
 0001:0005c910       ?_Getcat@?$codecvt@DDH@std@@SAIPAPBVfacet@locale@2@@Z 1005d910 f i Signature.obj
 0001:0005c9c0       ??0?$codecvt@DDH@std@@QAE@I@Z 1005d9c0 f i Signature.obj
 0001:0005ca80       ??0codecvt_base@std@@QAE@I@Z 1005da80 f i Signature.obj
 0001:0005cac0       ??1codecvt_base@std@@UAE@XZ 1005dac0 f i Signature.obj
 0001:0005caf0       ?do_always_noconv@codecvt_base@std@@MBE_NXZ 1005daf0 f i Signature.obj
 0001:0005cb10       ?do_max_length@codecvt_base@std@@MBEHXZ 1005db10 f i Signature.obj
 0001:0005cb30       ?do_encoding@codecvt_base@std@@MBEHXZ 1005db30 f i Signature.obj
 0001:0005cb50       ??_Ecodecvt_base@std@@UAEPAXI@Z 1005db50 f i Signature.obj
 0001:0005cb50       ??_Gcodecvt_base@std@@UAEPAXI@Z 1005db50 f i Signature.obj
 0001:0005cb90       ?do_in@?$codecvt@DDH@std@@MBEHAAHPBD1AAPBDPAD3AAPAD@Z 1005db90 f i Signature.obj
 0001:0005cbc0       ?do_out@?$codecvt@DDH@std@@MBEHAAHPBD1AAPBDPAD3AAPAD@Z 1005dbc0 f i Signature.obj
 0001:0005cbf0       ?do_unshift@?$codecvt@DDH@std@@MBEHAAHPAD1AAPAD@Z 1005dbf0 f i Signature.obj
 0001:0005cc10       ?do_length@?$codecvt@DDH@std@@MBEHABHPBD1I@Z 1005dc10 f i Signature.obj
 0001:0005cc50       ??_G?$codecvt@DDH@std@@MAEPAXI@Z 1005dc50 f i Signature.obj
 0001:0005cc50       ??_E?$codecvt@DDH@std@@MAEPAXI@Z 1005dc50 f i Signature.obj
 0001:0005cc90       ??1?$codecvt@DDH@std@@MAE@XZ 1005dc90 f i Signature.obj
 0001:0005ccc0       ?_Init@?$codecvt@DDH@std@@IAEXABV_Locinfo@2@@Z 1005dcc0 f i Signature.obj
 0001:0005cce0       ??0id@locale@std@@QAE@I@Z  1005dce0 f i Signature.obj
 0001:0005cd00       ??0CNtpTime@@QAE@XZ        1005dd00 f   Sntp.obj
 0001:0005cd30       ??0CNtpTime@@QAE@ABV0@@Z   1005dd30 f   Sntp.obj
 0001:0005cd60       ??0CNtpTime@@QAE@AAUCNtpTimePacket@@@Z 1005dd60 f   Sntp.obj
 0001:0005cdf0       ??0CNtpTime@@QAE@ABU_SYSTEMTIME@@@Z 1005ddf0 f   Sntp.obj
 0001:0005cf30       ?GetJulianDay@CNtpTime@@KAJGGG@Z 1005df30 f   Sntp.obj
 0001:0005d000       ?GetGregorianDate@CNtpTime@@KAXJAAG00@Z 1005e000 f   Sntp.obj
 0001:0005d130       ??4CNtpTime@@QAEAAV0@ABV0@@Z 1005e130 f   Sntp.obj
 0001:0005d160       ??GCNtpTime@@QBENABV0@@Z   1005e160 f   Sntp.obj
 0001:0005d290       ??HCNtpTime@@QBE?AV0@ABN@Z 1005e290 f   Sntp.obj
 0001:0005d410       ??BCNtpTime@@QBE?AU_SYSTEMTIME@@XZ 1005e410 f   Sntp.obj
 0001:0005d550       ?Seconds@CNtpTime@@QBEKXZ  1005e550 f   Sntp.obj
 0001:0005d580       ?Fraction@CNtpTime@@QBEKXZ 1005e580 f   Sntp.obj
 0001:0005d5a0       ??BCNtpTime@@QBE?AUCNtpTimePacket@@XZ 1005e5a0 f   Sntp.obj
 0001:0005d640       ?GetTickCount@CNtpTime@@SA?AV1@XZ 1005e640 f   Sntp.obj
 0001:0005d6d0       ?MsToNtpFraction@CNtpTime@@SAKG@Z 1005e6d0 f   Sntp.obj
 0001:0005d720       ?NtpFractionToMs@CNtpTime@@SAGK@Z 1005e720 f   Sntp.obj
 0001:0005d760       ?NtpFractionToSecond@CNtpTime@@SANK@Z 1005e760 f   Sntp.obj
 0001:0005d7c0       ??0CNtpSocket@@QAE@XZ      1005e7c0 f   Sntp.obj
 0001:0005d7e0       ??1CNtpSocket@@QAE@XZ      1005e7e0 f   Sntp.obj
 0001:0005d810       ?Create@CNtpSocket@@QAEHXZ 1005e810 f   Sntp.obj
 0001:0005d860       ?Connect@CNtpSocket@@QAEHPBDH@Z 1005e860 f   Sntp.obj
 0001:0005d9b0       ?Connect@CNtpSocket@@IAEHPBUsockaddr@@H@Z 1005e9b0 f   Sntp.obj
 0001:0005da10       ?Send@CNtpSocket@@QAEHPBDH@Z 1005ea10 f   Sntp.obj
 0001:0005da90       ?Receive@CNtpSocket@@QAEHPADH@Z 1005ea90 f   Sntp.obj
 0001:0005db00       ?Close@CNtpSocket@@QAEXXZ  1005eb00 f   Sntp.obj
 0001:0005db70       ?IsReadible@CNtpSocket@@QAEHAAHK@Z 1005eb70 f   Sntp.obj
 0001:0005dce0       ??0CSNTPClient@@QAE@XZ     1005ece0 f   Sntp.obj
 0001:0005dd00       ?GetServerTime@CSNTPClient@@QAEHPBDAAUNtpServerResponse@@H@Z 1005ed00 f   Sntp.obj
 0001:0005e340       ?EnableSetTimePriviledge@CSNTPClient@@IAEHXZ 1005f340 f   Sntp.obj
 0001:0005e4e0       ?RevertSetTimePriviledge@CSNTPClient@@IAEXXZ 1005f4e0 f   Sntp.obj
 0001:0005e570       ?SetClientTime@CSNTPClient@@QAEHABVCNtpTime@@@Z 1005f570 f   Sntp.obj
 0001:0005e650       ?T2A@@YAPADPAD@Z           1005f650 f i Sntp.obj
 0001:0005e660       ??_GCNtpSocket@@QAEPAXI@Z  1005f660 f i Sntp.obj
 0001:0005e6a0       ??RCTraceFileAndLineInfo@ATL@@QBAXPBDZZ 1005f6a0 f i Sntp.obj
 0001:0005e700       ??_H@YGXPAXIHP6EPAX0@Z@Z   1005f700 f i StdAfx.obj
 0001:0005e740       ?ObjectMain@CComObjectRootBase@ATL@@SGX_N@Z 1005f740 f i XMLSign.obj
 0001:0005e750       ?UpdateRegistry@CSignature@@SGJH@Z 1005f750 f i XMLSign.obj
 0001:0005e780       ?UpdateRegistryFromResourceD@CComModule@ATL@@UAGJIHPAU_ATL_REGMAP_ENTRY@2@@Z 1005f780 f i XMLSign.obj
 0001:0005e7b0       ?UpdateRegistryFromResourceD@CAtlModule@ATL@@QAGJIHPAU_ATL_REGMAP_ENTRY@2@@Z 1005f7b0 f i XMLSign.obj
 0001:0005e7e0       ?UpdateRegistryFromResourceDHelper@CAtlModule@ATL@@QAGJPBGHPAU_ATL_REGMAP_ENTRY@2@@Z 1005f7e0 f i XMLSign.obj
 0001:0005e970       ??1?$CComPtr@UIRegistrar@@@ATL@@QAE@XZ 1005f970 f i XMLSign.obj
 0001:0005e9a0       ?GetCategoryMap@CSignature@@SAPBU_ATL_CATMAP_ENTRY@ATL@@XZ 1005f9a0 f i XMLSign.obj
 0001:0005e9b0       _DllMain@12                1005f9b0 f   XMLSign.obj
 0001:0005ebd0       _DllCanUnloadNow@0         1005fbd0 f   XMLSign.obj
 0001:0005ebf0       _DllGetClassObject@12      1005fbf0 f   XMLSign.obj
 0001:0005ec20       _DllRegisterServer@0       1005fc20 f   XMLSign.obj
 0001:0005ec40       _DllUnregisterServer@0     1005fc40 f   XMLSign.obj
 0001:0005ec60       ?Init@CComModule@ATL@@QAEJPAU_ATL_OBJMAP_ENTRY30@2@PAUHINSTANCE__@@PBU_GUID@@@Z 1005fc60 f i XMLSign.obj
 0001:0005ed40       ?Term@CComModule@ATL@@QAEXXZ 1005fd40 f i XMLSign.obj
 0001:0005ee20       ?Term@CAtlModule@ATL@@QAEXXZ 1005fe20 f i XMLSign.obj
 0001:0005eed0       ?Term@CComCriticalSection@ATL@@QAEJXZ 1005fed0 f i XMLSign.obj
 0001:0005ef10       ?GetLockCount@CAtlModule@ATL@@UAEJXZ 1005ff10 f i XMLSign.obj
 0001:0005ef30       ?GetClassObject@CComModule@ATL@@QAEJABU_GUID@@0PAPAX@Z 1005ff30 f i XMLSign.obj
 0001:0005f130       _InlineIsEqualGUID         10060130 f i XMLSign.obj
 0001:0005f190       ?RegisterServer@CComModule@ATL@@QAEJHPBU_GUID@@@Z 10060190 f i XMLSign.obj
 0001:0005f280       _IsEqualGUID               10060280 f i XMLSign.obj
 0001:0005f2b0       ?UnregisterServer@CComModule@ATL@@QAEJHPBU_GUID@@@Z 100602b0 f i XMLSign.obj
 0001:0005f3a0       ?GetObjectDescription@?$CComCoClass@VCSignature@@$1?CLSID_Signature@@3U_GUID@@B@ATL@@SGPBDXZ 100603a0 f i XMLSign.obj
 0001:0005f3b0       ?CreateInstance@?$CComCreator@V?$CComObjectCached@VCComClassFactory@ATL@@@ATL@@@ATL@@SGJPAXABU_GUID@@PAPAX@Z 100603b0 f i XMLSign.obj
 0001:0005f560       ?FinalConstruct@CComObjectRootBase@ATL@@QAEJXZ 10060560 f i XMLSign.obj
 0001:0005f580       ?_AtlFinalConstruct@CComObjectRootBase@ATL@@QAEJXZ 10060580 f i XMLSign.obj
 0001:0005f5a0       ?InternalFinalConstructAddRef@CComObjectRootBase@ATL@@QAEXXZ 100605a0 f i XMLSign.obj
 0001:0005f5c0       ?InternalFinalConstructRelease@CComObjectRootBase@ATL@@QAEXXZ 100605c0 f i XMLSign.obj
 0001:0005f610       ?SetVoid@CComClassFactory@ATL@@QAEXPAX@Z 10060610 f i XMLSign.obj
 0001:0005f630       ?CreateInstance@?$CComCreator2@V?$CComCreator@V?$CComObject@VCSignature@@@ATL@@@ATL@@V?$CComCreator@V?$CComAggObject@VCSignature@@@ATL@@@2@@ATL@@SGJPAXABU_GUID@@PAPAX@Z 10060630 f i XMLSign.obj
 0001:0005f6b0       ??0?$CComObjectCached@VCComClassFactory@ATL@@@ATL@@QAE@PAX@Z 100606b0 f i XMLSign.obj
 0001:0005f720       ??0CComAutoCriticalSection@ATL@@QAE@XZ 10060720 f i XMLSign.obj
 0001:0005f770       ?Init@CComCriticalSection@ATL@@QAEJXZ 10060770 f i XMLSign.obj
 0001:0005f830       ??1CComClassFactory@ATL@@UAE@XZ 10060830 f i XMLSign.obj
 0001:0005f880       ?CreateInstance@CComClassFactory@ATL@@UAGJPAUIUnknown@@ABU_GUID@@PAPAX@Z 10060880 f i XMLSign.obj
 0001:0005f960       ?InlineIsEqualUnknown@ATL@@YGHABU_GUID@@@Z 10060960 f i XMLSign.obj
 0001:0005f9b0       ?LockServer@CComClassFactory@ATL@@UAGJH@Z 100609b0 f i XMLSign.obj
 0001:0005fa00       ??_GCComClassFactory@ATL@@UAEPAXI@Z 10060a00 f i XMLSign.obj
 0001:0005fa00       ??_ECComClassFactory@ATL@@UAEPAXI@Z 10060a00 f i XMLSign.obj
 0001:0005fa40       ??1?$CComObjectRootEx@VCComMultiThreadModel@ATL@@@ATL@@QAE@XZ 10060a40 f i XMLSign.obj
 0001:0005fa70       ??1CComAutoCriticalSection@ATL@@QAE@XZ 10060a70 f i XMLSign.obj
 0001:0005faa0       ?AddRef@?$CComObjectCached@VCComClassFactory@ATL@@@ATL@@UAGKXZ 10060aa0 f i XMLSign.obj
 0001:0005fb10       ?Lock@CComCriticalSection@ATL@@QAEJXZ 10060b10 f i XMLSign.obj
 0001:0005fb50       ?Unlock@CComCriticalSection@ATL@@QAEJXZ 10060b50 f i XMLSign.obj
 0001:0005fb90       ?Release@?$CComObjectCached@VCComClassFactory@ATL@@@ATL@@UAGKXZ 10060b90 f i XMLSign.obj
 0001:0005fc50       ?QueryInterface@?$CComObjectCached@VCComClassFactory@ATL@@@ATL@@UAGJABU_GUID@@PAPAX@Z 10060c50 f i XMLSign.obj
 0001:0005fc70       ?_InternalQueryInterface@CComClassFactory@ATL@@QAEJABU_GUID@@PAPAX@Z 10060c70 f i XMLSign.obj
 0001:0005fcb0       ?InternalQueryInterface@CComObjectRootBase@ATL@@SGJPAXPBU_ATL_INTMAP_ENTRY@2@ABU_GUID@@PAPAX@Z 10060cb0 f i XMLSign.obj
 0001:0005fd70       ?_GetEntries@CComClassFactory@ATL@@SGPBU_ATL_INTMAP_ENTRY@2@XZ 10060d70 f i XMLSign.obj
 0001:0005fd80       ?CreateInstance@?$CComCreator@V?$CComObject@VCSignature@@@ATL@@@ATL@@SGJPAXABU_GUID@@PAPAX@Z 10060d80 f i XMLSign.obj
 0001:0005ff30       ?SetVoid@CComObjectRootBase@ATL@@QAEXPAX@Z 10060f30 f i XMLSign.obj
 0001:0005ff50       ?InternalFinalConstructAddRef@CSignature@@QAEXXZ 10060f50 f i XMLSign.obj
 0001:0005ff80       ?InternalAddRef@?$CComObjectRootEx@VCComSingleThreadModel@ATL@@@ATL@@QAEKXZ 10060f80 f i XMLSign.obj
 0001:0005ffd0       ?Increment@CComSingleThreadModel@ATL@@SGKPAJ@Z 10060fd0 f i XMLSign.obj
 0001:0005fff0       ?InternalFinalConstructRelease@CSignature@@QAEXXZ 10060ff0 f i XMLSign.obj
 0001:00060020       ?InternalRelease@?$CComObjectRootEx@VCComSingleThreadModel@ATL@@@ATL@@QAEKXZ 10061020 f i XMLSign.obj
 0001:00060090       ?Decrement@CComSingleThreadModel@ATL@@SGKPAJ@Z 10061090 f i XMLSign.obj
 0001:000600b0       ?CreateInstance@?$CComCreator@V?$CComAggObject@VCSignature@@@ATL@@@ATL@@SGJPAXABU_GUID@@PAPAX@Z 100610b0 f i XMLSign.obj
 0001:00060260       ??_G?$CComObjectCached@VCComClassFactory@ATL@@@ATL@@UAEPAXI@Z 10061260 f i XMLSign.obj
 0001:00060260       ??_E?$CComObjectCached@VCComClassFactory@ATL@@@ATL@@UAEPAXI@Z 10061260 f i XMLSign.obj
 0001:000602a0       ??1?$CComObjectCached@VCComClassFactory@ATL@@@ATL@@UAE@XZ 100612a0 f i XMLSign.obj
 0001:00060320       ?FinalRelease@CComObjectRootBase@ATL@@QAEXXZ 10061320 f i XMLSign.obj
 0001:00060340       ??0CComClassFactory@ATL@@QAE@XZ 10061340 f i XMLSign.obj
 0001:00060380       ??0IClassFactory@@QAE@XZ   10061380 f i XMLSign.obj
 0001:000603b0       ??0?$CComObjectRootEx@VCComMultiThreadModel@ATL@@@ATL@@QAE@XZ 100613b0 f i XMLSign.obj
 0001:000603f0       ?InternalAddRef@?$CComObjectRootEx@VCComMultiThreadModel@ATL@@@ATL@@QAEKXZ 100613f0 f i XMLSign.obj
 0001:00060440       ?Increment@CComMultiThreadModel@ATL@@SGKPAJ@Z 10061440 f i XMLSign.obj
 0001:00060470       ?InternalRelease@?$CComObjectRootEx@VCComMultiThreadModel@ATL@@@ATL@@QAEKXZ 10061470 f i XMLSign.obj
 0001:000604e0       ?Decrement@CComMultiThreadModel@ATL@@SGKPAJ@Z 100614e0 f i XMLSign.obj
 0001:00060510       ??0?$CComObject@VCSignature@@@ATL@@QAE@PAX@Z 10061510 f i XMLSign.obj
 0001:00060580       ?GetTypeInfoCount@?$IDispatchImpl@UISignature@@$1?IID_ISignature@@3U_GUID@@B$1?LIBID_XMLSIGNLib@@3U3@B$00$0A@VCComTypeInfoHolder@ATL@@@ATL@@UAGJPAI@Z 10061580 f i XMLSign.obj
 0001:000605a0       ?GetTypeInfo@?$IDispatchImpl@UISignature@@$1?IID_ISignature@@3U_GUID@@B$1?LIBID_XMLSIGNLib@@3U3@B$00$0A@VCComTypeInfoHolder@ATL@@@ATL@@UAGJIKPAPAUITypeInfo@@@Z 100615a0 f i XMLSign.obj
 0001:000605d0       ?GetTypeInfo@CComTypeInfoHolder@ATL@@QAEJIKPAPAUITypeInfo@@@Z 100615d0 f i XMLSign.obj
 0001:00060600       ?GetTI@CComTypeInfoHolder@ATL@@QAEJKPAPAUITypeInfo@@@Z 10061600 f i XMLSign.obj
 0001:000606c0       ?GetTI@CComTypeInfoHolder@ATL@@QAEJK@Z 100616c0 f i XMLSign.obj
 0001:000610e0       ?AddTermFunc@CAtlModule@ATL@@QAEJP6GXK@ZK@Z 100620e0 f i XMLSign.obj
 0001:00061140       ??1?$CComPtr@UITypeInfo@@@ATL@@QAE@XZ 10062140 f i XMLSign.obj
 0001:00061170       ?Cleanup@CComTypeInfoHolder@ATL@@SGXK@Z 10062170 f i XMLSign.obj
 0001:00061240       ?LoadNameCache@CComTypeInfoHolder@ATL@@QAEJPAUITypeInfo@@@Z 10062240 f i XMLSign.obj
 0001:00061510       ??ICComBSTR@ATL@@QAEPAPAGXZ 10062510 f i XMLSign.obj
 0001:00061530       ?Attach@CComBSTR@ATL@@QAEXPAG@Z 10062530 f i XMLSign.obj
 0001:00061580       ??0stringdispid@CComTypeInfoHolder@ATL@@QAE@XZ 10062580 f i XMLSign.obj
 0001:000615c0       ??1?$CComPtr@UITypeLib@@@ATL@@QAE@XZ 100625c0 f i XMLSign.obj
 0001:000615f0       ??1?$CComPtr@UITypeInfo2@@@ATL@@QAE@XZ 100625f0 f i XMLSign.obj
 0001:00061620       ?GetIDsOfNames@?$IDispatchImpl@UISignature@@$1?IID_ISignature@@3U_GUID@@B$1?LIBID_XMLSIGNLib@@3U3@B$00$0A@VCComTypeInfoHolder@ATL@@@ATL@@UAGJABU_GUID@@PAPAGIKPAJ@Z 10062620 f i XMLSign.obj
 0001:00061650       ?GetIDsOfNames@CComTypeInfoHolder@ATL@@QAEJABU_GUID@@PAPAGIKPAJ@Z 10062650 f i XMLSign.obj
 0001:00061790       ?ocslen@@YAHPBG@Z          10062790 f i XMLSign.obj
 0001:000617c0       ?EnsureTI@CComTypeInfoHolder@ATL@@QAEJK@Z 100627c0 f i XMLSign.obj
 0001:00061820       ?Invoke@?$IDispatchImpl@UISignature@@$1?IID_ISignature@@3U_GUID@@B$1?LIBID_XMLSIGNLib@@3U3@B$00$0A@VCComTypeInfoHolder@ATL@@@ATL@@UAGJJABU_GUID@@KGPAUtagDISPPARAMS@@PAUtagVARIANT@@PAUtagEXCEPINFO@@PAI@Z 10062820 f i XMLSign.obj
 0001:00061860       ?Invoke@CComTypeInfoHolder@ATL@@QAEJPAUIDispatch@@JABU_GUID@@KGPAUtagDISPPARAMS@@PAUtagVARIANT@@PAUtagEXCEPINFO@@PAI@Z 10062860 f i XMLSign.obj
 0001:000618e0       ?AddRef@?$CComObject@VCSignature@@@ATL@@UAGKXZ 100628e0 f i XMLSign.obj
 0001:00061900       ?Release@?$CComObject@VCSignature@@@ATL@@UAGKXZ 10062900 f i XMLSign.obj
 0001:00061980       ?QueryInterface@?$CComObject@VCSignature@@@ATL@@UAGJABU_GUID@@PAPAX@Z 10062980 f i XMLSign.obj
 0001:000619a0       ?_InternalQueryInterface@CSignature@@QAEJABU_GUID@@PAPAX@Z 100629a0 f i XMLSign.obj
 0001:000619e0       ?_GetEntries@CSignature@@SGPBU_ATL_INTMAP_ENTRY@ATL@@XZ 100629e0 f i XMLSign.obj
 0001:000619f0       ??0?$CComAggObject@VCSignature@@@ATL@@QAE@PAX@Z 100629f0 f i XMLSign.obj
 0001:00061a90       ?FinalConstruct@?$CComAggObject@VCSignature@@@ATL@@QAEJXZ 10062a90 f i XMLSign.obj
 0001:00061ad0       ?AddRef@?$CComAggObject@VCSignature@@@ATL@@UAGKXZ 10062ad0 f i XMLSign.obj
 0001:00061af0       ?Release@?$CComAggObject@VCSignature@@@ATL@@UAGKXZ 10062af0 f i XMLSign.obj
 0001:00061b70       ?QueryInterface@?$CComAggObject@VCSignature@@@ATL@@UAGJABU_GUID@@PAPAX@Z 10062b70 f i XMLSign.obj
 0001:00061c20       ??_G?$CComObject@VCSignature@@@ATL@@UAEPAXI@Z 10062c20 f i XMLSign.obj
 0001:00061c20       ??_E?$CComObject@VCSignature@@@ATL@@UAEPAXI@Z 10062c20 f i XMLSign.obj
 0001:00061c60       ??1?$CComObject@VCSignature@@@ATL@@UAE@XZ 10062c60 f i XMLSign.obj
 0001:00061ce0       ??_E?$CComAggObject@VCSignature@@@ATL@@UAEPAXI@Z 10062ce0 f i XMLSign.obj
 0001:00061ce0       ??_G?$CComAggObject@VCSignature@@@ATL@@UAEPAXI@Z 10062ce0 f i XMLSign.obj
 0001:00061d20       ??1?$CComAggObject@VCSignature@@@ATL@@UAE@XZ 10062d20 f i XMLSign.obj
 0001:00061db0       ??1?$CComContainedObject@VCSignature@@@ATL@@QAE@XZ 10062db0 f i XMLSign.obj
 0001:00061de0       ?FinalRelease@?$CComAggObject@VCSignature@@@ATL@@QAEXXZ 10062de0 f i XMLSign.obj
 0001:00061e20       ??0?$CComContainedObject@VCSignature@@@ATL@@QAE@PAX@Z 10062e20 f i XMLSign.obj
 0001:00061e70       ?AddRef@?$CComContainedObject@VCSignature@@@ATL@@UAGKXZ 10062e70 f i XMLSign.obj
 0001:00061e90       ?OuterAddRef@CComObjectRootBase@ATL@@QAEKXZ 10062e90 f i XMLSign.obj
 0001:00061ed0       ?Release@?$CComContainedObject@VCSignature@@@ATL@@UAGKXZ 10062ed0 f i XMLSign.obj
 0001:00061ef0       ?OuterRelease@CComObjectRootBase@ATL@@QAEKXZ 10062ef0 f i XMLSign.obj
 0001:00061f30       ?QueryInterface@?$CComContainedObject@VCSignature@@@ATL@@UAGJABU_GUID@@PAPAX@Z 10062f30 f i XMLSign.obj
 0001:00061f60       ?OuterQueryInterface@CComObjectRootBase@ATL@@QAEJABU_GUID@@PAPAX@Z 10062f60 f i XMLSign.obj
 0001:00061fa0       ?QueryInterface@?$CComObject@VCSignature@@@ATL@@W3AGJABU_GUID@@PAPAX@Z 10062fa0 f i XMLSign.obj
 0001:00061fb0       ?AddRef@?$CComObject@VCSignature@@@ATL@@W3AGKXZ 10062fb0 f i XMLSign.obj
 0001:00061fc0       ?Release@?$CComObject@VCSignature@@@ATL@@W3AGKXZ 10062fc0 f i XMLSign.obj
 0001:00061fd0       ?QueryInterface@?$CComObject@VCSignature@@@ATL@@W7AGJABU_GUID@@PAPAX@Z 10062fd0 f i XMLSign.obj
 0001:00061fe0       ?AddRef@?$CComObject@VCSignature@@@ATL@@W7AGKXZ 10062fe0 f i XMLSign.obj
 0001:00061ff0       ?Release@?$CComObject@VCSignature@@@ATL@@W7AGKXZ 10062ff0 f i XMLSign.obj
 0001:00062000       ?QueryInterface@?$CComContainedObject@VCSignature@@@ATL@@W3AGJABU_GUID@@PAPAX@Z 10063000 f i XMLSign.obj
 0001:00062010       ?AddRef@?$CComContainedObject@VCSignature@@@ATL@@W3AGKXZ 10063010 f i XMLSign.obj
 0001:00062020       ?Release@?$CComContainedObject@VCSignature@@@ATL@@W3AGKXZ 10063020 f i XMLSign.obj
 0001:00062030       ?QueryInterface@?$CComContainedObject@VCSignature@@@ATL@@W7AGJABU_GUID@@PAPAX@Z 10063030 f i XMLSign.obj
 0001:00062040       ?AddRef@?$CComContainedObject@VCSignature@@@ATL@@W7AGKXZ 10063040 f i XMLSign.obj
 0001:00062050       ?Release@?$CComContainedObject@VCSignature@@@ATL@@W7AGKXZ 10063050 f i XMLSign.obj
 0001:00062060       ??0?$CComPtr@UIRegistrar@@@ATL@@QAE@XZ 10063060 f i XMLSign.obj
 0001:00062090       ??1?$CComPtrBase@UIRegistrar@@@ATL@@QAE@XZ 10063090 f i XMLSign.obj
 0001:000620d0       ??B?$CComPtrBase@UIRegistrar@@@ATL@@QBEPAUIRegistrar@@XZ 100630d0 f i XMLSign.obj
 0001:000620f0       ??I?$CComPtrBase@UIRegistrar@@@ATL@@QAEPAPAUIRegistrar@@XZ 100630f0 f i XMLSign.obj
 0001:00062140       ??C?$CComPtrBase@UIRegistrar@@@ATL@@QBEPAV?$_NoAddRefReleaseOnCComPtr@UIRegistrar@@@1@XZ 10063140 f i XMLSign.obj
 0001:00062190       ?RegisterServer@?$CAtlModuleT@VCComModule@ATL@@@ATL@@QAEJHPBU_GUID@@@Z 10063190 f i XMLSign.obj
 0001:00062210       ?RegisterServer@CAtlComModule@ATL@@QAEJHPBU_GUID@@@Z 10063210 f i XMLSign.obj
 0001:00062250       ?UnregisterServer@?$CAtlModuleT@VCComModule@ATL@@@ATL@@QAEJHPBU_GUID@@@Z 10063250 f i XMLSign.obj
 0001:000622c0       ?UnregisterServer@CAtlComModule@ATL@@QAEJHPBU_GUID@@@Z 100632c0 f i XMLSign.obj
 0001:00062300       ??0?$CComPtr@UITypeInfo@@@ATL@@QAE@XZ 10063300 f i XMLSign.obj
 0001:00062330       ??0?$CComPtr@UITypeInfo@@@ATL@@QAE@ABV01@@Z 10063330 f i XMLSign.obj
 0001:00062360       ??1?$CComPtrBase@UITypeInfo@@@ATL@@QAE@XZ 10063360 f i XMLSign.obj
 0001:000623a0       ??I?$CComPtrBase@UITypeInfo@@@ATL@@QAEPAPAUITypeInfo@@XZ 100633a0 f i XMLSign.obj
 0001:000623f0       ??C?$CComPtrBase@UITypeInfo@@@ATL@@QBEPAV?$_NoAddRefReleaseOnCComPtr@UITypeInfo@@@1@XZ 100633f0 f i XMLSign.obj
 0001:00062440       ?Detach@?$CComPtrBase@UITypeInfo@@@ATL@@QAEPAUITypeInfo@@XZ 10063440 f i XMLSign.obj
 0001:00062470       ??0?$CComPtr@UITypeLib@@@ATL@@QAE@XZ 10063470 f i XMLSign.obj
 0001:000624a0       ??1?$CComPtrBase@UITypeLib@@@ATL@@QAE@XZ 100634a0 f i XMLSign.obj
 0001:000624e0       ??I?$CComPtrBase@UITypeLib@@@ATL@@QAEPAPAUITypeLib@@XZ 100634e0 f i XMLSign.obj
 0001:00062530       ??C?$CComPtrBase@UITypeLib@@@ATL@@QBEPAV?$_NoAddRefReleaseOnCComPtr@UITypeLib@@@1@XZ 10063530 f i XMLSign.obj
 0001:00062580       ??0?$CComPtr@UITypeInfo2@@@ATL@@QAE@XZ 10063580 f i XMLSign.obj
 0001:000625b0       ??1?$CComPtrBase@UITypeInfo2@@@ATL@@QAE@XZ 100635b0 f i XMLSign.obj
 0001:000625f0       ??I?$CComPtrBase@UITypeInfo2@@@ATL@@QAEPAPAUITypeInfo2@@XZ 100635f0 f i XMLSign.obj
 0001:00062640       ??0?$CComPtrBase@UIRegistrar@@@ATL@@IAE@XZ 10063640 f i XMLSign.obj
 0001:00062660       ??0?$CComPtrBase@UITypeInfo@@@ATL@@IAE@XZ 10063660 f i XMLSign.obj
 0001:00062680       ??0?$CComPtrBase@UITypeInfo@@@ATL@@IAE@PAUITypeInfo@@@Z 10063680 f i XMLSign.obj
 0001:000626d0       ??0?$CComPtrBase@UITypeLib@@@ATL@@IAE@XZ 100636d0 f i XMLSign.obj
 0001:000626f0       ??0?$CComPtrBase@UITypeInfo2@@@ATL@@IAE@XZ 100636f0 f i XMLSign.obj
 0001:00062710       ??0?$CComCritSecLock@VCComCriticalSection@ATL@@@ATL@@QAE@AAVCComCriticalSection@1@_N@Z 10063710 f i XMLSign.obj
 0001:00062770       ??1?$CComCritSecLock@VCComCriticalSection@ATL@@@ATL@@QAE@XZ 10063770 f i XMLSign.obj
 0001:000627a0       ?Unlock@?$CComCritSecLock@VCComCriticalSection@ATL@@@ATL@@QAEXXZ 100637a0 f i XMLSign.obj
 0001:00062800       ?Lock@?$CComCritSecLock@VCComCriticalSection@ATL@@@ATL@@QAEJXZ 10063800 f i XMLSign.obj
 0001:00062880       ??$QueryInterface@UITypeInfo2@@@IUnknown@@QAGJPAPAUITypeInfo2@@@Z 10063880 f i XMLSign.obj
 0001:000628b0       ??$?4UITypeInfo2@@@?$CComPtr@UITypeInfo@@@ATL@@QAEPAUITypeInfo@@ABV?$CComPtr@UITypeInfo2@@@1@@Z 100638b0 f i XMLSign.obj
 0001:00062900       ??B?$CComPtrBase@UITypeInfo2@@@ATL@@QBEPAUITypeInfo2@@XZ 10063900 f i XMLSign.obj
 0001:00062920       ??0CComModule@ATL@@QAE@XZ  10063920 f i XMLSign.obj
 0001:00062990       ?Lock@CAtlModule@ATL@@UAEJXZ 10063990 f i XMLSign.obj
 0001:000629c0       ?Unlock@CAtlModule@ATL@@UAEJXZ 100639c0 f i XMLSign.obj
 0001:000629f0       ?GetGITPtr@CAtlModule@ATL@@UAEJPAPAUIGlobalInterfaceTable@@@Z 100639f0 f i XMLSign.obj
 0001:00062ae0       ?UpdateRegistryFromResourceD@CComModule@ATL@@UAGJPBDHPAU_ATL_REGMAP_ENTRY@2@@Z 10063ae0 f i XMLSign.obj
 0001:00062b10       ?UpdateRegistryFromResourceD@CAtlModule@ATL@@QAGJPBDHPAU_ATL_REGMAP_ENTRY@2@@Z 10063b10 f i XMLSign.obj
 0001:00062c60       ?UpdateRegistryFromResourceS@CComModule@ATL@@UAGJPBDHPAU_ATL_REGMAP_ENTRY@2@@Z 10063c60 f i XMLSign.obj
 0001:00062c70       ?UpdateRegistryFromResourceS@CComModule@ATL@@UAGJIHPAU_ATL_REGMAP_ENTRY@2@@Z 10063c70 f i XMLSign.obj
 0001:00062c80       ??_GCComModule@ATL@@UAEPAXI@Z 10063c80 f i XMLSign.obj
 0001:00062c80       ??_ECComModule@ATL@@UAEPAXI@Z 10063c80 f i XMLSign.obj
 0001:00062cc0       ??1CComModule@ATL@@UAE@XZ  10063cc0 f i XMLSign.obj
 0001:00062cf0       ??1?$CAtlModuleT@VCComModule@ATL@@@ATL@@UAE@XZ 10063cf0 f i XMLSign.obj
 0001:00062d20       ??1CAtlModule@ATL@@UAE@XZ  10063d20 f i XMLSign.obj
 0001:00062d50       ??0?$CAtlModuleT@VCComModule@ATL@@@ATL@@QAE@XZ 10063d50 f i XMLSign.obj
 0001:00062d80       ??0CAtlModule@ATL@@QAE@XZ  10063d80 f i XMLSign.obj
 0001:00062e80       ??0_ATL_MODULE70@ATL@@QAE@XZ 10063e80 f i XMLSign.obj
 0001:00062eb0       ?AddCommonRGSReplacements@?$CAtlModuleT@VCComModule@ATL@@@ATL@@UAEJPAUIRegistrarBase@@@Z 10063eb0 f i XMLSign.obj
 0001:00062ef0       ?InitLibId@?$CAtlModuleT@VCComModule@ATL@@@ATL@@SAXXZ 10063ef0 f i XMLSign.obj
 0001:00062f00       ?GetAppId@?$CAtlModuleT@VCComModule@ATL@@@ATL@@SAPBGXZ 10063f00 f i XMLSign.obj
 0001:00062f10       _base64encodeSize          10063f10 f   xmlsigd:base64.obj
 0001:00062f50       _base64encode              10063f50 f   xmlsigd:base64.obj
 0001:00063120       _base64decodeSize          10064120 f   xmlsigd:base64.obj
 0001:00063150       _base64decode              10064150 f   xmlsigd:base64.obj
 0001:00063440       _myMalloc                  10064440 f   xmlsigd:DebugLog.obj
 0001:000634b0       _myFree                    100644b0 f   xmlsigd:DebugLog.obj
 0001:000634f0       _rFree                     100644f0 f   xmlsigd:DebugLog.obj
 0001:00063510       _myRealloc                 10064510 f   xmlsigd:DebugLog.obj
 0001:00063580       _AddTrack                  10064580 f   xmlsigd:DebugLog.obj
 0001:000637d0       _RemoveTrack               100647d0 f   xmlsigd:DebugLog.obj
 0001:00063ad0       _DumpUnfreed               10064ad0 f   xmlsigd:DebugLog.obj
 0001:00063d40       _AddLog                    10064d40 f   xmlsigd:DebugLog.obj
 0001:00063ea0       _AddLogDetail              10064ea0 f   xmlsigd:DebugLog.obj
 0001:00064050       _AddLogDetailWithMutex     10065050 f   xmlsigd:DebugLog.obj
 0001:00064290       ?LogMemoryStatus@@YAXPBD0H@Z 10065290 f   xmlsigd:DebugLog.obj
 0001:000643c0       ??0?$list@PAUAllocInfo@@V?$allocator@PAUAllocInfo@@@std@@@std@@QAE@XZ 100653c0 f i xmlsigd:DebugLog.obj
 0001:00064410       ?begin@?$list@PAUAllocInfo@@V?$allocator@PAUAllocInfo@@@std@@@std@@QAE?AViterator@12@XZ 10065410 f i xmlsigd:DebugLog.obj
 0001:00064450       ?end@?$list@PAUAllocInfo@@V?$allocator@PAUAllocInfo@@@std@@@std@@QAE?AViterator@12@XZ 10065450 f i xmlsigd:DebugLog.obj
 0001:00064480       ?insert@?$list@PAUAllocInfo@@V?$allocator@PAUAllocInfo@@@std@@@std@@QAE?AViterator@12@V312@ABQAUAllocInfo@@@Z 10065480 f i xmlsigd:DebugLog.obj
 0001:000644c0       ?remove@?$list@PAUAllocInfo@@V?$allocator@PAUAllocInfo@@@std@@@std@@QAEXABQAUAllocInfo@@@Z 100654c0 f i xmlsigd:DebugLog.obj
 0001:000645a0       ??0iterator@?$list@PAUAllocInfo@@V?$allocator@PAUAllocInfo@@@std@@@std@@QAE@XZ 100655a0 f i xmlsigd:DebugLog.obj
 0001:000645d0       ??Diterator@?$list@PAUAllocInfo@@V?$allocator@PAUAllocInfo@@@std@@@std@@QBEAAPAUAllocInfo@@XZ 100655d0 f i xmlsigd:DebugLog.obj
 0001:00064600       ??Eiterator@?$list@PAUAllocInfo@@V?$allocator@PAUAllocInfo@@@std@@@std@@QAE?AV012@H@Z 10065600 f i xmlsigd:DebugLog.obj
 0001:00064670       ??9const_iterator@?$list@PAUAllocInfo@@V?$allocator@PAUAllocInfo@@@std@@@std@@QBE_NABV012@@Z 10065670 f i xmlsigd:DebugLog.obj
 0001:000646b0       ?_Nextnode@?$list@PAUAllocInfo@@V?$allocator@PAUAllocInfo@@@std@@@std@@KAAAPAU_Node@?$_List_nod@PAUAllocInfo@@V?$allocator@PAUAllocInfo@@@std@@@2@PAU342@@Z 100656b0 f i xmlsigd:DebugLog.obj
 0001:000646c0       ?_Insert@?$list@PAUAllocInfo@@V?$allocator@PAUAllocInfo@@@std@@@std@@QAEXViterator@12@ABQAUAllocInfo@@@Z 100656c0 f i xmlsigd:DebugLog.obj
 0001:00064760       ?erase@?$list@PAUAllocInfo@@V?$allocator@PAUAllocInfo@@@std@@@std@@QAE?AViterator@12@V312@@Z 10065760 f i xmlsigd:DebugLog.obj
 0001:00064840       ?_Buynode@?$list@PAUAllocInfo@@V?$allocator@PAUAllocInfo@@@std@@@std@@IAEPAU_Node@?$_List_nod@PAUAllocInfo@@V?$allocator@PAUAllocInfo@@@std@@@2@XZ 10065840 f i xmlsigd:DebugLog.obj
 0001:00064970       ??0?$_List_val@PAUAllocInfo@@V?$allocator@PAUAllocInfo@@@std@@@std@@IAE@V?$allocator@PAUAllocInfo@@@1@@Z 10065970 f i xmlsigd:DebugLog.obj
 0001:000649c0       ??0?$allocator@PAUAllocInfo@@@std@@QAE@XZ 100659c0 f i xmlsigd:DebugLog.obj
 0001:000649e0       ??0iterator@?$list@PAUAllocInfo@@V?$allocator@PAUAllocInfo@@@std@@@std@@QAE@PAU_Node@?$_List_nod@PAUAllocInfo@@V?$allocator@PAUAllocInfo@@@std@@@2@@Z 100659e0 f i xmlsigd:DebugLog.obj
 0001:00064a10       ??Eiterator@?$list@PAUAllocInfo@@V?$allocator@PAUAllocInfo@@@std@@@std@@QAEAAV012@XZ 10065a10 f i xmlsigd:DebugLog.obj
 0001:00064a40       ??Fiterator@?$list@PAUAllocInfo@@V?$allocator@PAUAllocInfo@@@std@@@std@@QAEAAV012@XZ 10065a40 f i xmlsigd:DebugLog.obj
 0001:00064a70       ??0const_iterator@?$list@PAUAllocInfo@@V?$allocator@PAUAllocInfo@@@std@@@std@@QAE@XZ 10065a70 f i xmlsigd:DebugLog.obj
 0001:00064a90       ??Dconst_iterator@?$list@PAUAllocInfo@@V?$allocator@PAUAllocInfo@@@std@@@std@@QBEABQAUAllocInfo@@XZ 10065a90 f i xmlsigd:DebugLog.obj
 0001:00064ac0       ??8const_iterator@?$list@PAUAllocInfo@@V?$allocator@PAUAllocInfo@@@std@@@std@@QBE_NABV012@@Z 10065ac0 f i xmlsigd:DebugLog.obj
 0001:00064af0       ?_Prevnode@?$list@PAUAllocInfo@@V?$allocator@PAUAllocInfo@@@std@@@std@@KAAAPAU_Node@?$_List_nod@PAUAllocInfo@@V?$allocator@PAUAllocInfo@@@std@@@2@PAU342@@Z 10065af0 f i xmlsigd:DebugLog.obj
 0001:00064b00       ?_Myval@?$list@PAUAllocInfo@@V?$allocator@PAUAllocInfo@@@std@@@std@@KAAAPAUAllocInfo@@PAU_Node@?$_List_nod@PAUAllocInfo@@V?$allocator@PAUAllocInfo@@@std@@@2@@Z 10065b00 f i xmlsigd:DebugLog.obj
 0001:00064b10       ?_Buynode@?$list@PAUAllocInfo@@V?$allocator@PAUAllocInfo@@@std@@@std@@IAEPAU_Node@?$_List_nod@PAUAllocInfo@@V?$allocator@PAUAllocInfo@@@std@@@2@PAU342@0ABQAUAllocInfo@@@Z 10065b10 f i xmlsigd:DebugLog.obj
 0001:00064bf0       ?_Incsize@?$list@PAUAllocInfo@@V?$allocator@PAUAllocInfo@@@std@@@std@@IAEXI@Z 10065bf0 f i xmlsigd:DebugLog.obj
 0001:00064c90       ??0?$_List_ptr@PAUAllocInfo@@V?$allocator@PAUAllocInfo@@@std@@@std@@IAE@V?$allocator@PAUAllocInfo@@@1@@Z 10065c90 f i xmlsigd:DebugLog.obj
 0001:00064ce0       ??0?$allocator@PAUAllocInfo@@@std@@QAE@ABV01@@Z 10065ce0 f i xmlsigd:DebugLog.obj
 0001:00064d00       ?deallocate@?$allocator@U_Node@?$_List_nod@PAUAllocInfo@@V?$allocator@PAUAllocInfo@@@std@@@std@@@std@@QAEXPAU_Node@?$_List_nod@PAUAllocInfo@@V?$allocator@PAUAllocInfo@@@std@@@2@I@Z 10065d00 f i xmlsigd:DebugLog.obj
 0001:00064d30       ?allocate@?$allocator@U_Node@?$_List_nod@PAUAllocInfo@@V?$allocator@PAUAllocInfo@@@std@@@std@@@std@@QAEPAU_Node@?$_List_nod@PAUAllocInfo@@V?$allocator@PAUAllocInfo@@@std@@@2@I@Z 10065d30 f i xmlsigd:DebugLog.obj
 0001:00064d60       ?destroy@?$allocator@U_Node@?$_List_nod@PAUAllocInfo@@V?$allocator@PAUAllocInfo@@@std@@@std@@@std@@QAEXPAU_Node@?$_List_nod@PAUAllocInfo@@V?$allocator@PAUAllocInfo@@@std@@@2@@Z 10065d60 f i xmlsigd:DebugLog.obj
 0001:00064d90       ?construct@?$allocator@PAU_Node@?$_List_nod@PAUAllocInfo@@V?$allocator@PAUAllocInfo@@@std@@@std@@@std@@QAEXPAPAU_Node@?$_List_nod@PAUAllocInfo@@V?$allocator@PAUAllocInfo@@@std@@@2@ABQAU342@@Z 10065d90 f i xmlsigd:DebugLog.obj
 0001:00064dc0       ?destroy@?$allocator@PAU_Node@?$_List_nod@PAUAllocInfo@@V?$allocator@PAUAllocInfo@@@std@@@std@@@std@@QAEXPAPAU_Node@?$_List_nod@PAUAllocInfo@@V?$allocator@PAUAllocInfo@@@std@@@2@@Z 10065dc0 f i xmlsigd:DebugLog.obj
 0001:00064df0       ??0const_iterator@?$list@PAUAllocInfo@@V?$allocator@PAUAllocInfo@@@std@@@std@@QAE@PAU_Node@?$_List_nod@PAUAllocInfo@@V?$allocator@PAUAllocInfo@@@std@@@2@@Z 10065df0 f i xmlsigd:DebugLog.obj
 0001:00064e10       ??Econst_iterator@?$list@PAUAllocInfo@@V?$allocator@PAUAllocInfo@@@std@@@std@@QAEAAV012@XZ 10065e10 f i xmlsigd:DebugLog.obj
 0001:00064e50       ??Fconst_iterator@?$list@PAUAllocInfo@@V?$allocator@PAUAllocInfo@@@std@@@std@@QAEAAV012@XZ 10065e50 f i xmlsigd:DebugLog.obj
 0001:00064e90       ?_Mynode@const_iterator@?$list@PAUAllocInfo@@V?$allocator@PAUAllocInfo@@@std@@@std@@QBEPAU_Node@?$_List_nod@PAUAllocInfo@@V?$allocator@PAUAllocInfo@@@std@@@3@XZ 10065e90 f i xmlsigd:DebugLog.obj
 0001:00064eb0       ?max_size@?$list@PAUAllocInfo@@V?$allocator@PAUAllocInfo@@@std@@@std@@QBEIXZ 10065eb0 f i xmlsigd:DebugLog.obj
 0001:00064ee0       ??0?$_List_nod@PAUAllocInfo@@V?$allocator@PAUAllocInfo@@@std@@@std@@IAE@V?$allocator@PAUAllocInfo@@@1@@Z 10065ee0 f i xmlsigd:DebugLog.obj
 0001:00064f10       ??0_Node@?$_List_nod@PAUAllocInfo@@V?$allocator@PAUAllocInfo@@@std@@@std@@QAE@PAU012@0ABQAUAllocInfo@@@Z 10065f10 f i xmlsigd:DebugLog.obj
 0001:00064f50       ?max_size@?$allocator@PAUAllocInfo@@@std@@QBEIXZ 10065f50 f i xmlsigd:DebugLog.obj
 0001:00064fa0       ??$?0PAUAllocInfo@@@?$allocator@PAU_Node@?$_List_nod@PAUAllocInfo@@V?$allocator@PAUAllocInfo@@@std@@@std@@@std@@QAE@ABV?$allocator@PAUAllocInfo@@@1@@Z 10065fa0 f i xmlsigd:DebugLog.obj
 0001:00064fc0       ??$_Allocate@U_Node@?$_List_nod@PAUAllocInfo@@V?$allocator@PAUAllocInfo@@@std@@@std@@@std@@YAPAU_Node@?$_List_nod@PAUAllocInfo@@V?$allocator@PAUAllocInfo@@@std@@@0@IPAU120@@Z 10065fc0 f i xmlsigd:DebugLog.obj
 0001:00064fe0       ??$_Destroy@U_Node@?$_List_nod@PAUAllocInfo@@V?$allocator@PAUAllocInfo@@@std@@@std@@@std@@YAXPAU_Node@?$_List_nod@PAUAllocInfo@@V?$allocator@PAUAllocInfo@@@std@@@0@@Z 10065fe0 f i xmlsigd:DebugLog.obj
 0001:00064ff0       ??$_Construct@PAU_Node@?$_List_nod@PAUAllocInfo@@V?$allocator@PAUAllocInfo@@@std@@@std@@PAU123@@std@@YAXPAPAU_Node@?$_List_nod@PAUAllocInfo@@V?$allocator@PAUAllocInfo@@@std@@@0@ABQAU120@@Z 10065ff0 f i xmlsigd:DebugLog.obj
 0001:00065050       ??$_Destroy@PAU_Node@?$_List_nod@PAUAllocInfo@@V?$allocator@PAUAllocInfo@@@std@@@std@@@std@@YAXPAPAU_Node@?$_List_nod@PAUAllocInfo@@V?$allocator@PAUAllocInfo@@@std@@@0@@Z 10066050 f i xmlsigd:DebugLog.obj
 0001:00065060       ??$?0PAUAllocInfo@@@?$allocator@U_Node@?$_List_nod@PAUAllocInfo@@V?$allocator@PAUAllocInfo@@@std@@@std@@@std@@QAE@ABV?$allocator@PAUAllocInfo@@@1@@Z 10066060 f i xmlsigd:DebugLog.obj
 0001:00065080       _crComputeHash             10066080 f   xmlsigd:cr.obj
 0001:00065400       _crGetPubKey               10066400 f   xmlsigd:cr.obj
 0001:00065600       ?crRsaGetPublicKeyInfo@@YAHPAU_CERT_PUBLIC_KEY_INFO@@PAU_RSAPUBKEYDETAILS@@@Z 10066600 f   xmlsigd:cr.obj
 0001:000656c0       ?crDsaGetPublicKeyInfo@@YAHPAU_CERT_PUBLIC_KEY_INFO@@PAU_DSAPUBKEYDETAILS@@@Z 100666c0 f   xmlsigd:cr.obj
 0001:000659c0       _crGetCertPubKey           100669c0 f   xmlsigd:cr.obj
 0001:00065d30       _crVerifyDigest            10066d30 f   xmlsigd:cr.obj
 0001:00066080       _crVerifySignature         10067080 f   xmlsigd:cr.obj
 0001:00066880       _crI2O                     10067880 f   xmlsigd:cr.obj
 0001:00066b20       _crO2I                     10067b20 f   xmlsigd:cr.obj
 0001:00066ce0       _crGetCertDetails          10067ce0 f   xmlsigd:cr.obj
 0001:00066fa0       _crGetProviderType         10067fa0 f   xmlsigd:cr.obj
 0001:00067160       _crSign                    10068160 f   xmlsigd:cr.obj
 0001:00067b20       _crGetCALG                 10068b20 f   xmlsigd:cr.obj
 0001:00067bc0       _crConvertXmlDSASigToApi   10068bc0 f   xmlsigd:cr.obj
 0001:00067e10       _crConvertXmlRSASigToApi   10068e10 f   xmlsigd:cr.obj
 0001:00067e80       _crConvertApiDSASigToXml   10068e80 f   xmlsigd:cr.obj
 0001:000680e0       _crConvertApiRSASigToXml   100690e0 f   xmlsigd:cr.obj
 0001:00068260       ?crGenerateKey@@YAKPAU_DS_DATA_BLOB@@K@Z 10069260 f   xmlsigd:cr.obj
 0001:00068360       ?CreatePrivateExponentOneKey@@YAHKPAK@Z 10069360 f   xmlsigd:cr.obj
 0001:00068700       ?ImportPlainSessionBlob@@YAHKKIPAEKPAK@Z 10069700 f   xmlsigd:cr.obj
 0001:00068c30       _crPFX2X509                10069c30 f   xmlsigd:cr.obj
 0001:00068ef0       _crIsPFX                   10069ef0 f   xmlsigd:cr.obj
 0001:00069040       _getCRLDist                1006a040 f   xmlsigd:cr.obj
 0001:00069460       _fetch_URL                 1006a460 f   xmlsigd:cr.obj
 0001:00069500       _fetchLDAP_URL             1006a500 f   xmlsigd:cr.obj
 0001:00069d70       _cleanupError              1006ad70 f   xmlsigd:cr.obj
 0001:00069df0       _normalizeCertName         1006adf0 f   xmlsigd:cr.obj
 0001:00069fd0       _certIsNameEqual           1006afd0 f   xmlsigd:cr.obj
 0001:0006a210       _certIsNameChainOK         1006b210 f   xmlsigd:cr.obj
 0001:0006a490       _certIsBasicExtensionConstraintOK 1006b490 f   xmlsigd:cr.obj
 0001:0006a6d0       _certIsPathLengthConstraintOK 1006b6d0 f   xmlsigd:cr.obj
 0001:0006a9d0       _certIsKeyUsageOK          1006b9d0 f   xmlsigd:cr.obj
 0001:0006aad0       _getAuthConstrainedPolicySet 1006bad0 f   xmlsigd:cr.obj
 0001:0006b150       _getUserConstrainedPolicySet 1006c150 f   xmlsigd:cr.obj
 0001:0006b550       _crGetSignerCertChain      1006c550 f   xmlsigd:cr.obj
 0001:0006bd40       _crDecodeCertificate       1006cd40 f   xmlsigd:cr.obj
 0001:0006bfc0       _axSelectCertificate       1006cfc0 f   xmlsigd:cryptui.obj
 0001:0006c2a0       _crFilterCerts             1006d2a0 f   xmlsigd:cryptui.obj
 0001:0006c580       _axGetRecipientCertificateList 1006d580 f   xmlsigd:cryptui.obj
 0001:0006c810       _axGetCertificateList      1006d810 f   xmlsigd:cryptui.obj
 0001:0006ca80       _axGetCertificate          1006da80 f   xmlsigd:cryptui.obj
 0001:0006cd70       _axViewCertificate         1006dd70 f   xmlsigd:cryptui.obj
 0001:0006d030       _axViewAnyCertificate      1006e030 f   xmlsigd:cryptui.obj
 0001:0006d3c0       _axExportCertificate       1006e3c0 f   xmlsigd:cryptui.obj
 0001:0006d920       _setError                  1006e920 f   xmlsigd:utils.obj
 0001:0006d9d0       _setErrorWithDescr         1006e9d0 f   xmlsigd:utils.obj
 0001:0006da80       _xsGetErrorDescription     1006ea80 f   xmlsigd:utils.obj
 0001:0006dbf0       _xsGetErrorNumber          1006ebf0 f   xmlsigd:utils.obj
 0001:0006dc10       _xsCheckError              1006ec10 f   xmlsigd:utils.obj
 0001:0006dc70       _trim                      1006ec70 f   xmlsigd:utils.obj
 0001:0006ddb0       _zeroSpace                 1006edb0 f   xmlsigd:utils.obj
 0001:0006def0       _xsRemovePath              1006eef0 f   xmlsigd:utils.obj
 0001:0006e090       _decodeBigEndian           1006f090 f   xmlsigd:utils.obj
 0001:0006e3d0       _printStatus               1006f3d0 f   xmlsigd:utils.obj
 0001:0006e3e0       _freeThisSignature         1006f3e0 f   xmlsigd:utils.obj
 0001:0006e4b0       _simpleSort                1006f4b0 f   xmlsigd:utils.obj
 0001:0006e800       _rfcTimeToSystem           1006f800 f   xmlsigd:utils.obj
 0001:0006eaa0       _getSystemTimeAsRfcTime    1006faa0 f   xmlsigd:utils.obj
 0001:0006eb90       _systemTimeToRfcTime       1006fb90 f   xmlsigd:utils.obj
 0001:0006ec30       _systemTimeToVbNowTime     1006fc30 f   xmlsigd:utils.obj
 0001:0006ecf0       _vbNowTimeToSystem         1006fcf0 f   xmlsigd:utils.obj
 0001:0006ef60       _systemTimeToJsUtcTime     1006ff60 f   xmlsigd:utils.obj
 0001:0006f000       _jsUtcTimeToSystem         10070000 f   xmlsigd:utils.obj
 0001:0006f2a0       _stolower                  100702a0 f   xmlsigd:utils.obj
 0001:0006f360       _s_log                     10070360 f   xmlsigd:utils.obj
 0001:0006f3e0       _insertLineBreak           100703e0 f   xmlsigd:utils.obj
 0001:0006f550       _xsDereferenceURI          10070550 f   xmlsigd:xs.obj
 0001:0006f960       _xsGenerateReference       10070960 f   xmlsigd:xs.obj
 0001:0006fe60       _xsGenerateObject          10070e60 f   xmlsigd:xs.obj
 0001:000704c0       _xsGenerateTransform       100714c0 f   xmlsigd:xs.obj
 0001:00070840       _xsInitSignature           10071840 f   xmlsigd:xs.obj
 0001:00070e80       _xsGetReferenceOctets      10071e80 f   xmlsigd:xs.obj
 0001:00071dc0       _xsDecodeAlg               10072dc0 f   xmlsigd:xs.obj
 0001:00071ff0       _xsFree                    10072ff0 f   xmlsigd:xs.obj
 0001:00072730       _xsHTTPFetch               10073730 f   xmlsigd:xs.obj
 0001:00072aa0       _xsSigNodeById             10073aa0 f   xmlsigd:xs.obj
 0001:00072cb0       _xsSigNodeWithNoIdNoSigValue 10073cb0 f   xmlsigd:xs.obj
 0001:00072f10       _xsGetSigNodeSet           10073f10 f   xmlsigd:xs.obj
 0001:00073060       _isSignatureComplete       10074060 f   xmlsigd:xs.obj
 0001:00073130       _xsGetChildNodeSet         10074130 f   xmlsigd:xs.obj
 0001:00073380       ?bin2hex@@YADD@Z           10074380 f   xmlsigd:xs.obj
 0001:000733b0       ?isAllowed@@YAHD@Z         100743b0 f   xmlsigd:xs.obj
 0001:00073570       ?URLencode@@YAHPBDPADH@Z   10074570 f   xmlsigd:xs.obj
 0001:00073670       _axInit                    10074670 f   xmlsigd:axBean.obj
 0001:000736a0       _axGetSignature            100746a0 f   xmlsigd:axBean.obj
 0001:000736d0       _axFree                    100746d0 f   xmlsigd:axBean.obj
 0001:00073800       _axGetError                10074800 f   xmlsigd:axBean.obj
 0001:00073820       _axGetLastError            10074820 f   xmlsigd:axBean.obj
 0001:00073840       _axVerifyDetachedFile      10074840 f   xmlsigd:axBean.obj
 0001:000738a0       _axVerifyFile              100748a0 f   xmlsigd:axBean.obj
 0001:00073980       _axVerify                  10074980 f   xmlsigd:axBean.obj
 0001:00073ec0       _xsCoreInit                10074ec0 f   xmlsigd:coresig.obj
 0001:000740c0       _xsCoreInitSignature       100750c0 f   xmlsigd:coresig.obj
 0001:000740e0       _xsCoreInitXmlDocument     100750e0 f   xmlsigd:coresig.obj
 0001:00074590       _xsCoreGetSignedInfoBlob   10075590 f   xmlsigd:coresig.obj
 0001:00074890       _xsCoreGetReference        10075890 f   xmlsigd:coresig.obj
 0001:00074980       _xsCoreAddReference        10075980 f   xmlsigd:coresig.obj
 0001:00074aa0       ?xsCoreGetTransforms@@YAPAU_transforms@@PAU_reference@@PAU_GLOBAL_SIG@@@Z 10075aa0 f   xmlsigd:coresig.obj
 0001:00074ad0       _xsCoreGetRMTransforms     10075ad0 f   xmlsigd:coresig.obj
 0001:00074b00       ?xsCoreGetDigestMethod@@YAPAU_digestmethod@@PAU_reference@@PAU_GLOBAL_SIG@@@Z 10075b00 f   xmlsigd:coresig.obj
 0001:00074b30       ?xsCoreGetDigestValue@@YAPAU_digestvalue@@PAU_reference@@PAU_GLOBAL_SIG@@@Z 10075b30 f   xmlsigd:coresig.obj
 0001:00074b60       _xsCoreGetTransform        10075b60 f   xmlsigd:coresig.obj
 0001:00074bd0       _xsCoreAddTransform        10075bd0 f   xmlsigd:coresig.obj
 0001:00074c70       _xsCoreGetKeyValueElements 10075c70 f   xmlsigd:coresig.obj
 0001:00074ce0       _xsCoreAddKeyValueElements 10075ce0 f   xmlsigd:coresig.obj
 0001:00074d80       _xsCoreGetX509Data         10075d80 f   xmlsigd:coresig.obj
 0001:00074e10       _xsCoreAddX509Data         10075e10 f   xmlsigd:coresig.obj
 0001:00074f50       _xsCoreAddX509Group        10075f50 f   xmlsigd:coresig.obj
 0001:00075090       _xsCoreGetObject           10076090 f   xmlsigd:coresig.obj
 0001:00075180       _xsCoreAddObject           10076180 f   xmlsigd:coresig.obj
 0001:00075290       _xsCoreGetSignatureProperties 10076290 f   xmlsigd:coresig.obj
 0001:000752c0       _xsCoreGetSignatureProperty 100762c0 f   xmlsigd:coresig.obj
 0001:00075330       _xsCoreAddSignatureProperty 10076330 f   xmlsigd:coresig.obj
 0001:00075470       _xsCoreSetSignature        10076470 f   xmlsigd:coresig.obj
 0001:00075550       _xsCoreSetSignatureNSPrefix 10076550 f   xmlsigd:coresig.obj
 0001:00075590       _xsCoreSetSignedInfo       10076590 f   xmlsigd:coresig.obj
 0001:00075650       _xsCoreSetCanonicalizationMethod 10076650 f   xmlsigd:coresig.obj
 0001:000757e0       _xsCoreSetSignatureMethod  100767e0 f   xmlsigd:coresig.obj
 0001:00075990       _xsCoreSetReference        10076990 f   xmlsigd:coresig.obj
 0001:00075ad0       _xsCoreSetDigestMethod     10076ad0 f   xmlsigd:coresig.obj
 0001:00075c20       _xsCoreSetDigestValue      10076c20 f   xmlsigd:coresig.obj
 0001:00075d50       _xsCoreSetTransforms       10076d50 f   xmlsigd:coresig.obj
 0001:00075e30       _xsCoreSetTransform        10076e30 f   xmlsigd:coresig.obj
 0001:00075fe0       _xsCoreSetSignatureValue   10076fe0 f   xmlsigd:coresig.obj
 0001:000760f0       _xsCoreSetKeyInfo          100770f0 f   xmlsigd:coresig.obj
 0001:000761f0       _xsCoreSetKeyName          100771f0 f   xmlsigd:coresig.obj
 0001:00076310       _xsCoreSetKeyValueElements 10077310 f   xmlsigd:coresig.obj
 0001:00076470       _xsCoreSetDSAKeyValue      10077470 f   xmlsigd:coresig.obj
 0001:00076600       _xsCoreSetRSAKeyValue      10077600 f   xmlsigd:coresig.obj
 0001:00076700       _xsCoreSetRetrievalMethod  10077700 f   xmlsigd:coresig.obj
 0001:00076820       _xsCoreSetRMTransforms     10077820 f   xmlsigd:coresig.obj
 0001:00076910       _xsCoreSetX509Group        10077910 f   xmlsigd:coresig.obj
 0001:00076af0       _xsCoreSetPGPData          10077af0 f   xmlsigd:coresig.obj
 0001:00076bf0       _xsCoreSetSPKIData         10077bf0 f   xmlsigd:coresig.obj
 0001:00076cd0       _xsCoreSetMgmtData         10077cd0 f   xmlsigd:coresig.obj
 0001:00076d90       _xsCoreSetObject           10077d90 f   xmlsigd:coresig.obj
 0001:00076f40       _xsCoreSetSignatureProperties 10077f40 f   xmlsigd:coresig.obj
 0001:00077040       _xsCoreSetSignatureProperty 10078040 f   xmlsigd:coresig.obj
 0001:00077270       _xsCoreGenerateXMLSecDoc   10078270 f   xmlsigd:coresig.obj
 0001:000773f0       _xsCoreGenerateXMLSec      100783f0 f   xmlsigd:coresig.obj
 0001:00079ee0       _xsCoreFreeSignature       1007aee0 f   xmlsigd:coresig.obj
 0001:0007bd60       _xsCoreAddXPath            1007cd60 f   xmlsigd:coresig.obj
 0001:0007bea0       _xsCoreSetXPath            1007cea0 f   xmlsigd:coresig.obj
 0001:0007c0d0       _xsCoreAddManifest         1007d0d0 f   xmlsigd:coresig.obj
 0001:0007c2a0       _xsCoreAddSignatureProperties 1007d2a0 f   xmlsigd:coresig.obj
 0001:0007c470       _xsCoreAddDsaKeyValue      1007d470 f   xmlsigd:coresig.obj
 0001:0007c6b0       _xsCoreAddRsaKeyValue      1007d6b0 f   xmlsigd:coresig.obj
 0001:0007c870       _xsCoreAddKeyInfo          1007d870 f   xmlsigd:coresig.obj
 0001:0007ca10       _xsCoreAddKeyName          1007da10 f   xmlsigd:coresig.obj
 0001:0007cbc0       _xsCoreAddRetrievalMethod  1007dbc0 f   xmlsigd:coresig.obj
 0001:0007cdf0       _xsCoreAddPGPData          1007ddf0 f   xmlsigd:coresig.obj
 0001:0007cfb0       _xsCoreAddSPKIData         1007dfb0 f   xmlsigd:coresig.obj
 0001:0007d150       _xsCoreSetCSP              1007e150 f   xmlsigd:coresig.obj
 0001:0007d2c0       _xsCoreNewReference        1007e2c0 f   xmlsigd:coresig.obj
 0001:0007d2e0       _xsCoreNewX509Data         1007e2e0 f   xmlsigd:coresig.obj
 0001:0007d300       _xsCoreNewX509Group        1007e300 f   xmlsigd:coresig.obj
 0001:0007d320       _xsCoreAddTimestamp        1007e320 f   xmlsigd:coresig.obj
 0001:0007d6f0       _xsCoreSetManifest         1007e6f0 f   xmlsigd:coresig.obj
 0001:0007d7e0       _xsCoreManifestAddReference 1007e7e0 f   xmlsigd:coresig.obj
 0001:0007d930       _xsSign                    1007e930 f   xmlsigd:xsSign.obj
 0001:0007dac0       _xsSignOnClient            1007eac0 f   xmlsigd:xsSign.obj
 0001:0007dc50       _xsGetSignedInfo           1007ec50 f   xmlsigd:xsSign.obj
 0001:0007ec50       _xsAcceptSignature         1007fc50 f   xmlsigd:xsSign.obj
 0001:0007feba       _CryptUIDlgSelectCertificateA@4 10080eba f   xmlsigd:CRYPTUI.dll
 0001:0007fec0       _CryptUIDlgViewCertificateA@8 10080ec0 f   xmlsigd:CRYPTUI.dll
 0001:0007fed0       _xsCoreParseSignature      10080ed0 f   xmlsigd:parser.obj
 0001:00082250       _xsCoreValidateXMLStructure 10083250 f   xmlsigd:parser.obj
 0001:000822b0       _CanonicalizeOctets        100832b0 f   xmlsigd:c14n.obj
 0001:00082490       _xmlXPathHereFunction      10083490 f   xmlsigd:c14n.obj
 0001:000825c0       _xmlC14NDocDumpMemory_Wrapper 100835c0 f   xmlsigd:c14n.obj
 0001:00084090       _xsTransform               10085090 f   xmlsigd:transform.obj
 0001:00085ec0       _xsVerify                  10086ec0 f   xmlsigd:xsVerify.obj
 0001:000893a6       _CertCloseStore@8          1008a3a6 f   crypt32:CRYPT32.dll
 0001:000893ac       _CertFreeCertificateContext@4 1008a3ac f   crypt32:CRYPT32.dll
 0001:000893b2       _CertAddEncodedCertificateToStore@24 1008a3b2 f   crypt32:CRYPT32.dll
 0001:000893b8       _CertOpenStore@20          1008a3b8 f   crypt32:CRYPT32.dll
 0001:000893be       _CertGetCertificateContextProperty@16 1008a3be f   crypt32:CRYPT32.dll
 0001:000893c4       _CertEnumCertificatesInStore@8 1008a3c4 f   crypt32:CRYPT32.dll
 0001:000893ca       _PFXImportCertStore@12     1008a3ca f   crypt32:CRYPT32.dll
 0001:000893d0       _PFXVerifyPassword@12      1008a3d0 f   crypt32:CRYPT32.dll
 0001:000893d6       _CertFreeCertificateChain@4 1008a3d6 f   crypt32:CRYPT32.dll
 0001:000893dc       _CertCompareCertificate@12 1008a3dc f   crypt32:CRYPT32.dll
 0001:000893e2       _CertCreateCertificateContext@12 1008a3e2 f   crypt32:CRYPT32.dll
 0001:000893e8       _CertGetCertificateChain@32 1008a3e8 f   crypt32:CRYPT32.dll
 0001:000893ee       _CertVerifyCRLTimeValidity@8 1008a3ee f   crypt32:CRYPT32.dll
 0001:000893f4       _CertFindCertificateInCRL@20 1008a3f4 f   crypt32:CRYPT32.dll
 0001:000893fa       _CertFindExtension@12      1008a3fa f   crypt32:CRYPT32.dll
 0001:00089400       _CertFreeCRLContext@4      1008a400 f   crypt32:CRYPT32.dll
 0001:00089406       _CryptVerifyCertificateSignature@20 1008a406 f   crypt32:CRYPT32.dll
 0001:0008940c       _CertCreateCRLContext@12   1008a40c f   crypt32:CRYPT32.dll
 0001:00089412       _CryptMsgControl@16        1008a412 f   crypt32:CRYPT32.dll
 0001:00089418       _CertGetSubjectCertificateFromStore@12 1008a418 f   crypt32:CRYPT32.dll
 0001:0008941e       _CryptMsgGetParam@20       1008a41e f   crypt32:CRYPT32.dll
 0001:00089424       _CryptMsgUpdate@16         1008a424 f   crypt32:CRYPT32.dll
 0001:0008942a       _CryptMsgClose@4           1008a42a f   crypt32:CRYPT32.dll
 0001:00089430       _CryptMsgOpenToDecode@24   1008a430 f   crypt32:CRYPT32.dll
 0001:00089436       _CryptDecryptMessage@24    1008a436 f   crypt32:CRYPT32.dll
 0001:0008943c       _CertOpenSystemStoreA@8    1008a43c f   crypt32:CRYPT32.dll
 0001:00089442       _PFXIsPFXBlob@4            1008a442 f   crypt32:CRYPT32.dll
 0001:00089448       _CryptMsgOpenToEncode@24   1008a448 f   crypt32:CRYPT32.dll
 0001:0008944e       _CryptMsgCalculateEncodedLength@24 1008a44e f   crypt32:CRYPT32.dll
 0001:00089454       _CertOIDToAlgId@4          1008a454 f   crypt32:CRYPT32.dll
 0001:0008945a       _CryptDecodeObject@28      1008a45a f   crypt32:CRYPT32.dll
 0001:00089460       _CryptAcquireCertificatePrivateKey@24 1008a460 f   crypt32:CRYPT32.dll
 0001:00089466       _CertFindCertificateInStore@24 1008a466 f   crypt32:CRYPT32.dll
 0001:0008946c       _CertNameToStrA@20         1008a46c f   crypt32:CRYPT32.dll
 0001:00089472       _CertGetNameStringA@24     1008a472 f   crypt32:CRYPT32.dll
 0001:00089478       _CertGetIntendedKeyUsage@16 1008a478 f   crypt32:CRYPT32.dll
 0001:0008947e       _CertDuplicateCertificateContext@4 1008a47e f   crypt32:CRYPT32.dll
 0001:00089484       _CertGetNameStringW@24     1008a484 f   crypt32:CRYPT32.dll
 0001:0008948a       _PFXExportCertStoreEx@20   1008a48a f   crypt32:CRYPT32.dll
 0001:00089490       _CertAddCertificateContextToStore@16 1008a490 f   crypt32:CRYPT32.dll
 0001:00089496       _closesocket@4             1008a496 f   ws2_32:WS2_32.dll
 0001:0008949c       _shutdown@8                1008a49c f   ws2_32:WS2_32.dll
 0001:000894a2       _recv@16                   1008a4a2 f   ws2_32:WS2_32.dll
 0001:000894a8       _gethostbyname@4           1008a4a8 f   ws2_32:WS2_32.dll
 0001:000894ae       _setsockopt@20             1008a4ae f   ws2_32:WS2_32.dll
 0001:000894b4       _connect@12                1008a4b4 f   ws2_32:WS2_32.dll
 0001:000894ba       _htons@4                   1008a4ba f   ws2_32:WS2_32.dll
 0001:000894c0       _socket@12                 1008a4c0 f   ws2_32:WS2_32.dll
 0001:000894c6       _WSAStartup@8              1008a4c6 f   ws2_32:WS2_32.dll
 0001:000894cc       _send@16                   1008a4cc f   ws2_32:WS2_32.dll
 0001:000894d2       _WSACleanup@0              1008a4d2 f   ws2_32:WS2_32.dll
 0001:000894d8       _ntohl@4                   1008a4d8 f   ws2_32:WS2_32.dll
 0001:000894de       _htonl@4                   1008a4de f   ws2_32:WS2_32.dll
 0001:000894e4       _inet_addr@4               1008a4e4 f   ws2_32:WS2_32.dll
 0001:000894ea       _select@20                 1008a4ea f   ws2_32:WS2_32.dll
 0001:000894f0       _xmlBuildQName             1008a4f0 f   libxml2d:tree.obj
 0001:00089600       _xmlSplitQName2            1008a600 f   libxml2d:tree.obj
 0001:00089740       _xmlValidateNCName         1008a740 f   libxml2d:tree.obj
 0001:00089a30       _xmlValidateQName          1008aa30 f   libxml2d:tree.obj
 0001:00089ec0       _xmlValidateName           1008aec0 f   libxml2d:tree.obj
 0001:0008a1d0       _xmlValidateNMToken        1008b1d0 f   libxml2d:tree.obj
 0001:0008a550       _xmlSetBufferAllocationScheme 1008b550 f   libxml2d:tree.obj
 0001:0008a560       _xmlGetBufferAllocationScheme 1008b560 f   libxml2d:tree.obj
 0001:0008a570       _xmlNewNs                  1008b570 f   libxml2d:tree.obj
 0001:0008a720       _xmlSetNs                  1008b720 f   libxml2d:tree.obj
 0001:0008a740       _xmlFreeNs                 1008b740 f   libxml2d:tree.obj
 0001:0008a7b0       _xmlFreeNsList             1008b7b0 f   libxml2d:tree.obj
 0001:0008a800       _xmlNewDtd                 1008b800 f   libxml2d:tree.obj
 0001:0008a920       _xmlGetIntSubset           1008b920 f   libxml2d:tree.obj
 0001:0008a970       _xmlCreateIntSubset        1008b970 f   libxml2d:tree.obj
 0001:0008aba0       _xmlFreeDtd                1008bba0 f   libxml2d:tree.obj
 0001:0008ad40       _xmlNewDoc                 1008bd40 f   libxml2d:tree.obj
 0001:0008ae30       _xmlFreeDoc                1008be30 f   libxml2d:tree.obj
 0001:0008b010       _xmlStringLenGetNodeList   1008c010 f   libxml2d:tree.obj
 0001:0008b370       _xmlStringGetNodeList      1008c370 f   libxml2d:tree.obj
 0001:0008b930       _xmlNodeListGetString      1008c930 f   libxml2d:tree.obj
 0001:0008bb20       _xmlNodeListGetRawString   1008cb20 f   libxml2d:tree.obj
 0001:0008bd10       _xmlNewProp                1008cd10 f   libxml2d:tree.obj
 0001:0008bf00       _xmlNewNsProp              1008cf00 f   libxml2d:tree.obj
 0001:0008c0d0       _xmlNewNsPropEatName       1008d0d0 f   libxml2d:tree.obj
 0001:0008c2b0       _xmlNewDocProp             1008d2b0 f   libxml2d:tree.obj
 0001:0008c3e0       _xmlFreePropList           1008d3e0 f   libxml2d:tree.obj
 0001:0008c430       _xmlFreeProp               1008d430 f   libxml2d:tree.obj
 0001:0008c530       _xmlRemoveProp             1008d530 f   libxml2d:tree.obj
 0001:0008c5f0       _xmlNewPI                  1008d5f0 f   libxml2d:tree.obj
 0001:0008c6d0       _xmlNewNode                1008d6d0 f   libxml2d:tree.obj
 0001:0008c7a0       _xmlNewNodeEatName         1008d7a0 f   libxml2d:tree.obj
 0001:0008c880       _xmlNewDocNode             1008d880 f   libxml2d:tree.obj
 0001:0008c940       _xmlNewDocNodeEatName      1008d940 f   libxml2d:tree.obj
 0001:0008ca00       _xmlNewDocRawNode          1008da00 f   libxml2d:tree.obj
 0001:0008cac0       _xmlNewDocFragment         1008dac0 f   libxml2d:tree.obj
 0001:0008cb70       _xmlNewText                1008db70 f   libxml2d:tree.obj
 0001:0008cc30       _xmlNewTextChild           1008dc30 f   libxml2d:tree.obj
 0001:0008cd20       _xmlNewCharRef             1008dd20 f   libxml2d:tree.obj
 0001:0008ce50       _xmlNewReference           1008de50 f   libxml2d:tree.obj
 0001:0008cfc0       _xmlNewDocText             1008dfc0 f   libxml2d:tree.obj
 0001:0008d000       _xmlNewTextLen             1008e000 f   libxml2d:tree.obj
 0001:0008d0d0       _xmlNewDocTextLen          1008e0d0 f   libxml2d:tree.obj
 0001:0008d110       _xmlNewComment             1008e110 f   libxml2d:tree.obj
 0001:0008d1d0       _xmlNewCDataBlock          1008e1d0 f   libxml2d:tree.obj
 0001:0008d2a0       _xmlNewDocComment          1008e2a0 f   libxml2d:tree.obj
 0001:0008d2e0       _xmlSetTreeDoc             1008e2e0 f   libxml2d:tree.obj
 0001:0008d370       _xmlSetListDoc             1008e370 f   libxml2d:tree.obj
 0001:0008d3d0       _xmlNewChild               1008e3d0 f   libxml2d:tree.obj
 0001:0008d550       _xmlAddNextSibling         1008e550 f   libxml2d:tree.obj
 0001:0008d770       _xmlAddPrevSibling         1008e770 f   libxml2d:tree.obj
 0001:0008d9a0       _xmlAddSibling             1008e9a0 f   libxml2d:tree.obj
 0001:0008dad0       _xmlAddChildList           1008ead0 f   libxml2d:tree.obj
 0001:0008dc10       _xmlAddChild               1008ec10 f   libxml2d:tree.obj
 0001:0008de70       _xmlGetLastChild           1008ee70 f   libxml2d:tree.obj
 0001:0008de90       _xmlFreeNodeList           1008ee90 f   libxml2d:tree.obj
 0001:0008e110       _xmlFreeNode               1008f110 f   libxml2d:tree.obj
 0001:0008e370       _xmlUnlinkNode             1008f370 f   libxml2d:tree.obj
 0001:0008e490       _xmlReplaceNode            1008f490 f   libxml2d:tree.obj
 0001:0008e630       _xmlCopyNamespace          1008f630 f   libxml2d:tree.obj
 0001:0008e6a0       _xmlCopyNamespaceList      1008f6a0 f   libxml2d:tree.obj
 0001:0008e720       _xmlCopyProp               1008f720 f   libxml2d:tree.obj
 0001:0008ea30       _xmlCopyPropList           1008fa30 f   libxml2d:tree.obj
 0001:0008f010       _xmlCopyNode               10090010 f   libxml2d:tree.obj
 0001:0008f050       _xmlDocCopyNode            10090050 f   libxml2d:tree.obj
 0001:0008f090       _xmlCopyNodeList           10090090 f   libxml2d:tree.obj
 0001:0008f0c0       _xmlCopyDtd                100900c0 f   libxml2d:tree.obj
 0001:0008f3e0       _xmlCopyDoc                100903e0 f   libxml2d:tree.obj
 0001:0008f580       _xmlGetLineNo              10090580 f   libxml2d:tree.obj
 0001:0008f630       _xmlGetNodePath            10090630 f   libxml2d:tree.obj
 0001:0008fd20       _xmlDocGetRootElement      10090d20 f   libxml2d:tree.obj
 0001:0008fd70       _xmlDocSetRootElement      10090d70 f   libxml2d:tree.obj
 0001:0008fe40       _xmlNodeSetLang            10090e40 f   libxml2d:tree.obj
 0001:0008fec0       _xmlNodeGetLang            10090ec0 f   libxml2d:tree.obj
 0001:0008ff10       _xmlNodeSetSpacePreserve   10090f10 f   libxml2d:tree.obj
 0001:0008ffd0       _xmlNodeGetSpacePreserve   10090fd0 f   libxml2d:tree.obj
 0001:000900a0       _xmlNodeSetName            100910a0 f   libxml2d:tree.obj
 0001:00090150       _xmlNodeSetBase            10091150 f   libxml2d:tree.obj
 0001:00090260       _xmlNodeGetBase            10091260 f   libxml2d:tree.obj
 0001:00090530       _xmlNodeGetContent         10091530 f   libxml2d:tree.obj
 0001:00090920       _xmlNodeSetContent         10091920 f   libxml2d:tree.obj
 0001:00090a90       _xmlNodeSetContentLen      10091a90 f   libxml2d:tree.obj
 0001:00090c10       _xmlNodeAddContentLen      10091c10 f   libxml2d:tree.obj
 0001:00090d20       _xmlNodeAddContent         10091d20 f   libxml2d:tree.obj
 0001:00090d70       _xmlTextMerge              10091d70 f   libxml2d:tree.obj
 0001:00090df0       _xmlGetNsList              10091df0 f   libxml2d:tree.obj
 0001:00090fb0       _xmlSearchNs               10091fb0 f   libxml2d:tree.obj
 0001:00091210       _xmlSearchNsByHref         10092210 f   libxml2d:tree.obj
 0001:000914b0       _xmlNewReconciliedNs       100924b0 f   libxml2d:tree.obj
 0001:00091660       _xmlReconciliateNs         10092660 f   libxml2d:tree.obj
 0001:00091c30       _xmlHasProp                10092c30 f   libxml2d:tree.obj
 0001:00091d20       _xmlHasNsProp              10092d20 f   libxml2d:tree.obj
 0001:00091f80       _xmlGetProp                10092f80 f   libxml2d:tree.obj
 0001:000920b0       _xmlGetNoNsProp            100930b0 f   libxml2d:tree.obj
 0001:000921f0       _xmlGetNsProp              100931f0 f   libxml2d:tree.obj
 0001:000923b0       _xmlSetProp                100933b0 f   libxml2d:tree.obj
 0001:00092540       _xmlUnsetProp              10093540 f   libxml2d:tree.obj
 0001:000925f0       _xmlSetNsProp              100935f0 f   libxml2d:tree.obj
 0001:000927b0       _xmlUnsetNsProp            100937b0 f   libxml2d:tree.obj
 0001:000928b0       _xmlNodeIsText             100938b0 f   libxml2d:tree.obj
 0001:000928e0       _xmlIsBlankNode            100938e0 f   libxml2d:tree.obj
 0001:00092980       _xmlTextConcat             10093980 f   libxml2d:tree.obj
 0001:000929e0       _xmlBufferCreate           100939e0 f   libxml2d:tree.obj
 0001:00092ad0       _xmlBufferCreateSize       10093ad0 f   libxml2d:tree.obj
 0001:00092bf0       _xmlBufferSetAllocationScheme 10093bf0 f   libxml2d:tree.obj
 0001:00092c10       _xmlBufferFree             10093c10 f   libxml2d:tree.obj
 0001:00092c60       _xmlBufferEmpty            10093c60 f   libxml2d:tree.obj
 0001:00092ca0       _xmlBufferShrink           10093ca0 f   libxml2d:tree.obj
 0001:00092d10       _xmlBufferGrow             10093d10 f   libxml2d:tree.obj
 0001:00092db0       _xmlBufferDump             10093db0 f   libxml2d:tree.obj
 0001:00092e10       _xmlBufferContent          10093e10 f   libxml2d:tree.obj
 0001:00092e30       _xmlBufferLength           10093e30 f   libxml2d:tree.obj
 0001:00092e50       _xmlBufferResize           10093e50 f   libxml2d:tree.obj
 0001:00092f80       _xmlBufferAdd              10093f80 f   libxml2d:tree.obj
 0001:00093070       _xmlBufferAddHead          10094070 f   libxml2d:tree.obj
 0001:00093170       _xmlBufferCat              10094170 f   libxml2d:tree.obj
 0001:000931a0       _xmlBufferCCat             100941a0 f   libxml2d:tree.obj
 0001:00093270       _xmlBufferWriteCHAR        10094270 f   libxml2d:tree.obj
 0001:00093290       _xmlBufferWriteChar        10094290 f   libxml2d:tree.obj
 0001:000932b0       _xmlBufferWriteQuotedString 100942b0 f   libxml2d:tree.obj
 0001:00093350       _xmlNodeDump               10094350 f   libxml2d:tree.obj
 0001:00093470       _xmlElemDump               10094470 f   libxml2d:tree.obj
 0001:00093500       _xmlNsListDumpOutput       10094500 f   libxml2d:tree.obj
 0001:000935f0       _xmlNodeDumpOutput         100945f0 f   libxml2d:tree.obj
 0001:00094650       _xmlIsXHTML                10095650 f   libxml2d:tree.obj
 0001:00095660       _xmlDocDumpFormatMemoryEnc 10096660 f   libxml2d:tree.obj
 0001:00095b10       _xmlDocDumpMemory          10096b10 f   libxml2d:tree.obj
 0001:00095b40       _xmlDocDumpFormatMemory    10096b40 f   libxml2d:tree.obj
 0001:00095b70       _xmlDocDumpMemoryEnc       10096b70 f   libxml2d:tree.obj
 0001:00095ba0       _xmlGetDocCompressMode     10096ba0 f   libxml2d:tree.obj
 0001:00095bc0       _xmlSetDocCompressMode     10096bc0 f   libxml2d:tree.obj
 0001:00095c00       _xmlGetCompressMode        10096c00 f   libxml2d:tree.obj
 0001:00095c10       _xmlSetCompressMode        10096c10 f   libxml2d:tree.obj
 0001:00095c50       _xmlDocFormatDump          10096c50 f   libxml2d:tree.obj
 0001:00095d80       _xmlDocDump                10096d80 f   libxml2d:tree.obj
 0001:00095da0       _xmlSaveFileTo             10096da0 f   libxml2d:tree.obj
 0001:00095df0       _xmlSaveFormatFileTo       10096df0 f   libxml2d:tree.obj
 0001:00095e40       _xmlSaveFormatFileEnc      10096e40 f   libxml2d:tree.obj
 0001:00095f40       _xmlSaveFileEnc            10096f40 f   libxml2d:tree.obj
 0001:00095f70       _xmlSaveFormatFile         10096f70 f   libxml2d:tree.obj
 0001:00095fa0       _xmlSaveFile               10096fa0 f   libxml2d:tree.obj
 0001:00095fc0       _xmlInitGlobals            10096fc0 f   libxml2d:globals.obj
 0001:00095fe0       _xmlCleanupGlobals         10096fe0 f   libxml2d:globals.obj
 0001:00096000       _xmlInitializeGlobalState  10097000 f   libxml2d:globals.obj
 0001:000961d0       _xmlThrDefSetGenericErrorFunc 100971d0 f   libxml2d:globals.obj
 0001:00096220       _xmlRegisterNodeDefault    10097220 f   libxml2d:globals.obj
 0001:00096250       _xmlThrDefRegisterNodeDefault 10097250 f   libxml2d:globals.obj
 0001:000962b0       _xmlDeregisterNodeDefault  100972b0 f   libxml2d:globals.obj
 0001:000962e0       _xmlThrDefDeregisterNodeDefault 100972e0 f   libxml2d:globals.obj
 0001:00096340       ___htmlDefaultSAXHandler   10097340 f   libxml2d:globals.obj
 0001:00096370       ___oldXMLWDcompatibility   10097370 f   libxml2d:globals.obj
 0001:000963a0       ___xmlBufferAllocScheme    100973a0 f   libxml2d:globals.obj
 0001:000963d0       _xmlThrDefBufferAllocScheme 100973d0 f   libxml2d:globals.obj
 0001:00096420       ___xmlDefaultBufferSize    10097420 f   libxml2d:globals.obj
 0001:00096450       _xmlThrDefDefaultBufferSize 10097450 f   libxml2d:globals.obj
 0001:000964a0       ___xmlDefaultSAXHandler    100974a0 f   libxml2d:globals.obj
 0001:000964d0       ___xmlDefaultSAXLocator    100974d0 f   libxml2d:globals.obj
 0001:00096500       ___xmlDoValidityCheckingDefaultValue 10097500 f   libxml2d:globals.obj
 0001:00096530       _xmlThrDefDoValidityCheckingDefaultValue 10097530 f   libxml2d:globals.obj
 0001:00096580       ___xmlGenericError         10097580 f   libxml2d:globals.obj
 0001:000965b0       ___xmlGenericErrorContext  100975b0 f   libxml2d:globals.obj
 0001:000965e0       ___xmlGetWarningsDefaultValue 100975e0 f   libxml2d:globals.obj
 0001:00096610       _xmlThrDefGetWarningsDefaultValue 10097610 f   libxml2d:globals.obj
 0001:00096660       ___xmlIndentTreeOutput     10097660 f   libxml2d:globals.obj
 0001:00096690       _xmlThrDefIndentTreeOutput 10097690 f   libxml2d:globals.obj
 0001:000966e0       ___xmlTreeIndentString     100976e0 f   libxml2d:globals.obj
 0001:00096710       _xmlThrDefTreeIndentString 10097710 f   libxml2d:globals.obj
 0001:00096760       ___xmlKeepBlanksDefaultValue 10097760 f   libxml2d:globals.obj
 0001:00096790       _xmlThrDefKeepBlanksDefaultValue 10097790 f   libxml2d:globals.obj
 0001:000967e0       ___xmlLineNumbersDefaultValue 100977e0 f   libxml2d:globals.obj
 0001:00096810       _xmlThrDefLineNumbersDefaultValue 10097810 f   libxml2d:globals.obj
 0001:00096860       ___xmlLoadExtDtdDefaultValue 10097860 f   libxml2d:globals.obj
 0001:00096890       _xmlThrDefLoadExtDtdDefaultValue 10097890 f   libxml2d:globals.obj
 0001:000968e0       ___xmlParserDebugEntities  100978e0 f   libxml2d:globals.obj
 0001:00096910       _xmlThrDefParserDebugEntities 10097910 f   libxml2d:globals.obj
 0001:00096960       ___xmlParserVersion        10097960 f   libxml2d:globals.obj
 0001:00096990       ___xmlPedanticParserDefaultValue 10097990 f   libxml2d:globals.obj
 0001:000969c0       _xmlThrDefPedanticParserDefaultValue 100979c0 f   libxml2d:globals.obj
 0001:00096a10       ___xmlSaveNoEmptyTags      10097a10 f   libxml2d:globals.obj
 0001:00096a40       _xmlThrDefSaveNoEmptyTags  10097a40 f   libxml2d:globals.obj
 0001:00096a90       ___xmlSubstituteEntitiesDefaultValue 10097a90 f   libxml2d:globals.obj
 0001:00096ac0       _xmlThrDefSubstituteEntitiesDefaultValue 10097ac0 f   libxml2d:globals.obj
 0001:00096b10       ___xmlRegisterNodeDefaultValue 10097b10 f   libxml2d:globals.obj
 0001:00096b40       ___xmlDeregisterNodeDefaultValue 10097b40 f   libxml2d:globals.obj
 0001:00096b70       _inputPush                 10097b70 f   libxml2d:parser.obj
 0001:00096c30       _inputPop                  10097c30 f   libxml2d:parser.obj
 0001:00096cb0       _nodePush                  10097cb0 f   libxml2d:parser.obj
 0001:00096df0       _nodePop                   10097df0 f   libxml2d:parser.obj
 0001:00096e70       _namePush                  10097e70 f   libxml2d:parser.obj
 0001:00096f60       _namePop                   10097f60 f   libxml2d:parser.obj
 0001:00097010       _xmlSkipBlankChars         10098010 f   libxml2d:parser.obj
 0001:000971f0       _xmlPopInput               100981f0 f   libxml2d:parser.obj
 0001:000972a0       _xmlPushInput              100982a0 f   libxml2d:parser.obj
 0001:000973e0       _xmlParseCharRef           100983e0 f   libxml2d:parser.obj
 0001:00097ad0       _xmlParserHandlePEReference 10098ad0 f   libxml2d:parser.obj
 0001:00098400       _xmlStringDecodeEntities   10099400 f   libxml2d:parser.obj
 0001:00098eb0       _xmlStrndup                10099eb0 f   libxml2d:parser.obj
 0001:00098f50       _xmlStrdup                 10099f50 f   libxml2d:parser.obj
 0001:00098fb0       _xmlCharStrndup            10099fb0 f   libxml2d:parser.obj
 0001:00099070       _xmlCharStrdup             1009a070 f   libxml2d:parser.obj
 0001:000990d0       _xmlStrcmp                 1009a0d0 f   libxml2d:parser.obj
 0001:00099160       _xmlStrEqual               1009a160 f   libxml2d:parser.obj
 0001:000991f0       _xmlStrncmp                1009a1f0 f   libxml2d:parser.obj
 0001:000992a0       _xmlStrcasecmp             1009a2a0 f   libxml2d:parser.obj
 0001:00099340       _xmlStrncasecmp            1009a340 f   libxml2d:parser.obj
 0001:00099400       _xmlStrchr                 1009a400 f   libxml2d:parser.obj
 0001:00099440       _xmlStrstr                 1009a440 f   libxml2d:parser.obj
 0001:000994d0       _xmlStrcasestr             1009a4d0 f   libxml2d:parser.obj
 0001:00099570       _xmlStrsub                 1009a570 f   libxml2d:parser.obj
 0001:00099600       _xmlStrlen                 1009a600 f   libxml2d:parser.obj
 0001:00099650       _xmlStrncat                1009a650 f   libxml2d:parser.obj
 0001:00099740       _xmlStrcat                 1009a740 f   libxml2d:parser.obj
 0001:000997b0       _xmlSplitQName             1009a7b0 f   libxml2d:parser.obj
 0001:00099d90       _xmlParseName              1009ad90 f   libxml2d:parser.obj
 0001:0009a610       _xmlParseNmtoken           1009b610 f   libxml2d:parser.obj
 0001:0009abf0       _xmlParseEntityValue       1009bbf0 f   libxml2d:parser.obj
 0001:0009b670       _xmlParseAttValue          1009c670 f   libxml2d:parser.obj
 0001:0009b8b0       _xmlParseAttValueComplex   1009c8b0 f   libxml2d:parser.obj
 0001:0009c230       _xmlParseSystemLiteral     1009d230 f   libxml2d:parser.obj
 0001:0009c720       _xmlParsePubidLiteral      1009d720 f   libxml2d:parser.obj
 0001:0009cad0       _xmlParseCharData          1009dad0 f   libxml2d:parser.obj
 0001:0009d140       _xmlParseCharDataComplex   1009e140 f   libxml2d:parser.obj
 0001:0009d630       _xmlParseExternalID        1009e630 f   libxml2d:parser.obj
 0001:0009dd40       _xmlParseComment           1009ed40 f   libxml2d:parser.obj
 0001:0009e530       _xmlParsePITarget          1009f530 f   libxml2d:parser.obj
 0001:0009e750       _xmlParsePI                1009f750 f   libxml2d:parser.obj
 0001:0009f300       _xmlParseNotationDecl      100a0300 f   libxml2d:parser.obj
 0001:0009f8a0       _xmlParseEntityDecl        100a08a0 f   libxml2d:parser.obj
 0001:000a07e0       _xmlParseDefaultDecl       100a17e0 f   libxml2d:parser.obj
 0001:000a0d30       _xmlParseNotationType      100a1d30 f   libxml2d:parser.obj
 0001:000a0fc0       _xmlParseEnumerationType   100a1fc0 f   libxml2d:parser.obj
 0001:000a1230       _xmlParseEnumeratedType    100a2230 f   libxml2d:parser.obj
 0001:000a1490       _xmlParseAttributeType     100a2490 f   libxml2d:parser.obj
 0001:000a1df0       _xmlParseAttributeListDecl 100a2df0 f   libxml2d:parser.obj
 0001:000a2890       _xmlParseElementMixedContentDecl 100a3890 f   libxml2d:parser.obj
 0001:000a2f70       _xmlParseElementChildrenContentDecl 100a3f70 f   libxml2d:parser.obj
 0001:000a3b10       _xmlParseElementContentDecl 100a4b10 f   libxml2d:parser.obj
 0001:000a3cf0       _xmlParseElementDecl       100a4cf0 f   libxml2d:parser.obj
 0001:000a45b0       _xmlParseMarkupDecl        100a55b0 f   libxml2d:parser.obj
 0001:000a5290       _xmlParseTextDecl          100a6290 f   libxml2d:parser.obj
 0001:000a5820       _xmlParseExternalSubset    100a6820 f   libxml2d:parser.obj
 0001:000a5c20       _xmlParseReference         100a6c20 f   libxml2d:parser.obj
 0001:000a6720       _xmlParseEntityRef         100a7720 f   libxml2d:parser.obj
 0001:000a6c50       _xmlParseStringEntityRef   100a7c50 f   libxml2d:parser.obj
 0001:000a7170       _xmlParsePEReference       100a8170 f   libxml2d:parser.obj
 0001:000a75b0       _xmlParseStringPEReference 100a85b0 f   libxml2d:parser.obj
 0001:000a78d0       _xmlParseDocTypeDecl       100a88d0 f   libxml2d:parser.obj
 0001:000a7ba0       _xmlParseAttribute         100a8ba0 f   libxml2d:parser.obj
 0001:000a7e90       _xmlParseStartTag          100a8e90 f   libxml2d:parser.obj
 0001:000a86d0       _xmlParseEndTag            100a96d0 f   libxml2d:parser.obj
 0001:000a8d80       _xmlParseCDSect            100a9d80 f   libxml2d:parser.obj
 0001:000a9620       _xmlParseContent           100aa620 f   libxml2d:parser.obj
 0001:000a9970       _xmlParseElement           100aa970 f   libxml2d:parser.obj
 0001:000aa0b0       _xmlParseVersionNum        100ab0b0 f   libxml2d:parser.obj
 0001:000aa240       _xmlParseVersionInfo       100ab240 f   libxml2d:parser.obj
 0001:000aa620       _xmlParseEncName           100ab620 f   libxml2d:parser.obj
 0001:000aa8e0       _xmlParseEncodingDecl      100ab8e0 f   libxml2d:parser.obj
 0001:000aadf0       _xmlParseSDDecl            100abdf0 f   libxml2d:parser.obj
 0001:000ab600       _xmlParseXMLDecl           100ac600 f   libxml2d:parser.obj
 0001:000abd90       _xmlParseMisc              100acd90 f   libxml2d:parser.obj
 0001:000abef0       _xmlParseDocument          100acef0 f   libxml2d:parser.obj
 0001:000ac7e0       _xmlParseExtParsedEnt      100ad7e0 f   libxml2d:parser.obj
 0001:000acc40       _xmlParseChunk             100adc40 f   libxml2d:parser.obj
 0001:000aefc0       _xmlStopParser             100affc0 f   libxml2d:parser.obj
 0001:000aeff0       _xmlCreatePushParserCtxt   100afff0 f   libxml2d:parser.obj
 0001:000af310       _xmlCreateIOParserCtxt     100b0310 f   libxml2d:parser.obj
 0001:000af470       _xmlIOParseDTD             100b0470 f   libxml2d:parser.obj
 0001:000af730       _xmlSAXParseDTD            100b0730 f   libxml2d:parser.obj
 0001:000af9b0       _xmlParseDTD               100b09b0 f   libxml2d:parser.obj
 0001:000af9d0       _xmlParseCtxtExternalEntity 100b09d0 f   libxml2d:parser.obj
 0001:000b06e0       _xmlParseExternalEntity    100b16e0 f   libxml2d:parser.obj
 0001:000b0720       _xmlParseBalancedChunkMemory 100b1720 f   libxml2d:parser.obj
 0001:000b0c10       _xmlParseBalancedChunkMemoryRecover 100b1c10 f   libxml2d:parser.obj
 0001:000b1050       _xmlSAXParseEntity         100b2050 f   libxml2d:parser.obj
 0001:000b1130       _xmlParseEntity            100b2130 f   libxml2d:parser.obj
 0001:000b1150       _xmlCreateEntityParserCtxt 100b2150 f   libxml2d:parser.obj
 0001:000b12e0       _xmlCreateFileParserCtxt   100b22e0 f   libxml2d:parser.obj
 0001:000b13d0       _xmlSAXParseFileWithData   100b23d0 f   libxml2d:parser.obj
 0001:000b1520       _xmlSAXParseFile           100b2520 f   libxml2d:parser.obj
 0001:000b1550       _xmlRecoverDoc             100b2550 f   libxml2d:parser.obj
 0001:000b1570       _xmlParseFile              100b2570 f   libxml2d:parser.obj
 0001:000b1590       _xmlRecoverFile            100b2590 f   libxml2d:parser.obj
 0001:000b15b0       _xmlSetupParserForBuffer   100b25b0 f   libxml2d:parser.obj
 0001:000b1680       _xmlSAXUserParseFile       100b2680 f   libxml2d:parser.obj
 0001:000b1760       _xmlCreateMemoryParserCtxt 100b2760 f   libxml2d:parser.obj
 0001:000b1880       _xmlSAXParseMemoryWithData 100b2880 f   libxml2d:parser.obj
 0001:000b1980       _xmlSAXParseMemory         100b2980 f   libxml2d:parser.obj
 0001:000b19b0       _xmlParseMemory            100b29b0 f   libxml2d:parser.obj
 0001:000b19d0       _xmlRecoverMemory          100b29d0 f   libxml2d:parser.obj
 0001:000b19f0       _xmlSAXUserParseMemory     100b29f0 f   libxml2d:parser.obj
 0001:000b1ad0       _xmlCreateDocParserCtxt    100b2ad0 f   libxml2d:parser.obj
 0001:000b1b20       _xmlSAXParseDoc            100b2b20 f   libxml2d:parser.obj
 0001:000b1bf0       _xmlParseDoc               100b2bf0 f   libxml2d:parser.obj
 0001:000b1c50       _xmlSetEntityReferenceFunc 100b2c50 f   libxml2d:parser.obj
 0001:000b1c60       _xmlInitParser             100b2c60 f   libxml2d:parser.obj
 0001:000b1ce0       _xmlCleanupParser          100b2ce0 f   libxml2d:parser.obj
 0001:000b1d10       _xmlSchemaNewFacet         100b2d10 f   libxml2d:xmlschemas.obj
 0001:000b1d60       _xmlSchemaFreeFacet        100b2d60 f   libxml2d:xmlschemas.obj
 0001:000b1e50       _xmlSchemaFreeType         100b2e50 f   libxml2d:xmlschemas.obj
 0001:000b1f50       _xmlSchemaFree             100b2f50 f   libxml2d:xmlschemas.obj
 0001:000b23b0       _xmlSchemaDump             100b33b0 f   libxml2d:xmlschemas.obj
 0001:000b2bc0       _xmlSchemaNewParserCtxt    100b3bc0 f   libxml2d:xmlschemas.obj
 0001:000b2c50       _xmlSchemaNewMemParserCtxt 100b3c50 f   libxml2d:xmlschemas.obj
 0001:000b2ce0       _xmlSchemaFreeParserCtxt   100b3ce0 f   libxml2d:xmlschemas.obj
 0001:000b2d50       _xmlSchemaCheckFacet       100b3d50 f   libxml2d:xmlschemas.obj
 0001:000b3480       _xmlSchemaParse            100b4480 f   libxml2d:xmlschemas.obj
 0001:000bc280       _xmlSchemaSetParserErrors  100bd280 f   libxml2d:xmlschemas.obj
 0001:000bc7d0       _xmlSchemaNewValidCtxt     100bd7d0 f   libxml2d:xmlschemas.obj
 0001:000bc8c0       _xmlSchemaFreeValidCtxt    100bd8c0 f   libxml2d:xmlschemas.obj
 0001:000bc930       _xmlSchemaSetValidErrors   100bd930 f   libxml2d:xmlschemas.obj
 0001:000bc960       _xmlSchemaValidateDoc      100bd960 f   libxml2d:xmlschemas.obj
 0001:000be990       _xmlSchemaValidateStream   100bf990 f   libxml2d:xmlschemas.obj
 0001:000bea00       _xmlXPathInit              100bfa00 f   libxml2d:xpath.obj
 0001:000bebe0       _xmlXPathIsNaN             100bfbe0 f   libxml2d:xpath.obj
 0001:000bec30       _xmlXPathIsInf             100bfc30 f   libxml2d:xpath.obj
 0001:000becf0       _xmlXPathFreeCompExpr      100bfcf0 f   libxml2d:xpath.obj
 0001:000bee10       _xmlXPathDebugDumpObject   100bfe10 f   libxml2d:xpath.obj
 0001:000bfb50       _xmlXPathDebugDumpCompExpr 100c0b50 f   libxml2d:xpath.obj
 0001:000c04b0       _valuePop                  100c14b0 f   libxml2d:xpath.obj
 0001:000c0530       _valuePush                 100c1530 f   libxml2d:xpath.obj
 0001:000c05f0       _xmlXPathPopBoolean        100c15f0 f   libxml2d:xpath.obj
 0001:000c0670       _xmlXPathPopNumber         100c1670 f   libxml2d:xpath.obj
 0001:000c0700       _xmlXPathPopString         100c1700 f   libxml2d:xpath.obj
 0001:000c0790       _xmlXPathPopNodeSet        100c1790 f   libxml2d:xpath.obj
 0001:000c0850       _xmlXPathPopExternal       100c1850 f   libxml2d:xpath.obj
 0001:000c0900       _xmlXPatherror             100c1900 f   libxml2d:xpath.obj
 0001:000c0bc0       _xmlXPathOrderDocElems     100c1bc0 f   libxml2d:xpath.obj
 0001:000c0c90       _xmlXPathCmpNodes          100c1c90 f   libxml2d:xpath.obj
 0001:000c0f30       _xmlXPathNodeSetSort       100c1f30 f   libxml2d:xpath.obj
 0001:000c1040       _xmlXPathNodeSetFreeNs     100c2040 f   libxml2d:xpath.obj
 0001:000c10d0       _xmlXPathNodeSetCreate     100c20d0 f   libxml2d:xpath.obj
 0001:000c1300       _xmlXPathNodeSetContains   100c2300 f   libxml2d:xpath.obj
 0001:000c1400       _xmlXPathNodeSetAddNs      100c2400 f   libxml2d:xpath.obj
 0001:000c15d0       _xmlXPathNodeSetAdd        100c25d0 f   libxml2d:xpath.obj
 0001:000c1780       _xmlXPathNodeSetAddUnique  100c2780 f   libxml2d:xpath.obj
 0001:000c18f0       _xmlXPathNodeSetMerge      100c28f0 f   libxml2d:xpath.obj
 0001:000c1ba0       _xmlXPathNodeSetDel        100c2ba0 f   libxml2d:xpath.obj
 0001:000c1ca0       _xmlXPathNodeSetRemove     100c2ca0 f   libxml2d:xpath.obj
 0001:000c1d50       _xmlXPathFreeNodeSet       100c2d50 f   libxml2d:xpath.obj
 0001:000c1e10       _xmlXPathNewNodeSet        100c2e10 f   libxml2d:xpath.obj
 0001:000c1eb0       _xmlXPathNewValueTree      100c2eb0 f   libxml2d:xpath.obj
 0001:000c1f50       _xmlXPathNewNodeSetList    100c2f50 f   libxml2d:xpath.obj
 0001:000c1ff0       _xmlXPathWrapNodeSet       100c2ff0 f   libxml2d:xpath.obj
 0001:000c2070       _xmlXPathFreeNodeSetList   100c3070 f   libxml2d:xpath.obj
 0001:000c20a0       _xmlXPathDifference        100c30a0 f   libxml2d:xpath.obj
 0001:000c21b0       _xmlXPathIntersection      100c31b0 f   libxml2d:xpath.obj
 0001:000c22c0       _xmlXPathDistinctSorted    100c32c0 f   libxml2d:xpath.obj
 0001:000c2420       _xmlXPathDistinct          100c3420 f   libxml2d:xpath.obj
 0001:000c2460       _xmlXPathHasSameNodes      100c3460 f   libxml2d:xpath.obj
 0001:000c2550       _xmlXPathNodeLeadingSorted 100c3550 f   libxml2d:xpath.obj
 0001:000c2660       _xmlXPathNodeLeading       100c3660 f   libxml2d:xpath.obj
 0001:000c2690       _xmlXPathLeadingSorted     100c3690 f   libxml2d:xpath.obj
 0001:000c2710       _xmlXPathLeading           100c3710 f   libxml2d:xpath.obj
 0001:000c27c0       _xmlXPathNodeTrailingSorted 100c37c0 f   libxml2d:xpath.obj
 0001:000c28c0       _xmlXPathNodeTrailing      100c38c0 f   libxml2d:xpath.obj
 0001:000c28f0       _xmlXPathTrailingSorted    100c38f0 f   libxml2d:xpath.obj
 0001:000c2960       _xmlXPathTrailing          100c3960 f   libxml2d:xpath.obj
 0001:000c2a10       _xmlXPathRegisterFunc      100c3a10 f   libxml2d:xpath.obj
 0001:000c2a40       _xmlXPathRegisterFuncNS    100c3a40 f   libxml2d:xpath.obj
 0001:000c2ab0       _xmlXPathRegisterFuncLookup 100c3ab0 f   libxml2d:xpath.obj
 0001:000c2ad0       _xmlXPathFunctionLookup    100c3ad0 f   libxml2d:xpath.obj
 0001:000c2b50       _xmlXPathFunctionLookupNS  100c3b50 f   libxml2d:xpath.obj
 0001:000c2bf0       _xmlXPathRegisteredFuncsCleanup 100c3bf0 f   libxml2d:xpath.obj
 0001:000c2c20       _xmlXPathRegisterVariable  100c3c20 f   libxml2d:xpath.obj
 0001:000c2c50       _xmlXPathRegisterVariableNS 100c3c50 f   libxml2d:xpath.obj
 0001:000c2cc0       _xmlXPathRegisterVariableLookup 100c3cc0 f   libxml2d:xpath.obj
 0001:000c2ce0       _xmlXPathVariableLookup    100c3ce0 f   libxml2d:xpath.obj
 0001:000c2d50       _xmlXPathVariableLookupNS  100c3d50 f   libxml2d:xpath.obj
 0001:000c2df0       _xmlXPathRegisteredVariablesCleanup 100c3df0 f   libxml2d:xpath.obj
 0001:000c2e30       _xmlXPathRegisterNs        100c3e30 f   libxml2d:xpath.obj
 0001:000c2ea0       _xmlXPathNsLookup          100c3ea0 f   libxml2d:xpath.obj
 0001:000c2f70       _xmlXPathRegisteredNsCleanup 100c3f70 f   libxml2d:xpath.obj
 0001:000c2fb0       _xmlXPathNewFloat          100c3fb0 f   libxml2d:xpath.obj
 0001:000c3030       _xmlXPathNewBoolean        100c4030 f   libxml2d:xpath.obj
 0001:000c30c0       _xmlXPathNewString         100c40c0 f   libxml2d:xpath.obj
 0001:000c3170       _xmlXPathWrapString        100c4170 f   libxml2d:xpath.obj
 0001:000c31f0       _xmlXPathNewCString        100c41f0 f   libxml2d:xpath.obj
 0001:000c3280       _xmlXPathWrapCString       100c4280 f   libxml2d:xpath.obj
 0001:000c32a0       _xmlXPathWrapExternal      100c42a0 f   libxml2d:xpath.obj
 0001:000c3320       _xmlXPathObjectCopy        100c4320 f   libxml2d:xpath.obj
 0001:000c3560       _xmlXPathFreeObject        100c4560 f   libxml2d:xpath.obj
 0001:000c3730       _xmlXPathCastBooleanToString 100c4730 f   libxml2d:xpath.obj
 0001:000c3780       _xmlXPathCastNumberToString 100c4780 f   libxml2d:xpath.obj
 0001:000c3cb0       _xmlXPathCastNodeToString  100c4cb0 f   libxml2d:xpath.obj
 0001:000c3cd0       _xmlXPathCastNodeSetToString 100c4cd0 f   libxml2d:xpath.obj
 0001:000c3d20       _xmlXPathCastToString      100c4d20 f   libxml2d:xpath.obj
 0001:000c3e50       _xmlXPathConvertString     100c4e50 f   libxml2d:xpath.obj
 0001:000c3f80       _xmlXPathCastBooleanToNumber 100c4f80 f   libxml2d:xpath.obj
 0001:000c3fa0       _xmlXPathCastStringToNumber 100c4fa0 f   libxml2d:xpath.obj
 0001:000c3fc0       _xmlXPathCastNodeToNumber  100c4fc0 f   libxml2d:xpath.obj
 0001:000c4040       _xmlXPathCastNodeSetToNumber 100c5040 f   libxml2d:xpath.obj
 0001:000c40b0       _xmlXPathCastToNumber      100c50b0 f   libxml2d:xpath.obj
 0001:000c41c0       _xmlXPathConvertNumber     100c51c0 f   libxml2d:xpath.obj
 0001:000c4230       _xmlXPathCastNumberToBoolean 100c5230 f   libxml2d:xpath.obj
 0001:000c4270       _xmlXPathCastStringToBoolean 100c5270 f   libxml2d:xpath.obj
 0001:000c42a0       _xmlXPathCastNodeSetToBoolean 100c52a0 f   libxml2d:xpath.obj
 0001:000c42c0       _xmlXPathCastToBoolean     100c52c0 f   libxml2d:xpath.obj
 0001:000c43d0       _xmlXPathConvertBoolean    100c53d0 f   libxml2d:xpath.obj
 0001:000c4430       _xmlXPathNewContext        100c5430 f   libxml2d:xpath.obj
 0001:000c4550       _xmlXPathFreeContext       100c5550 f   libxml2d:xpath.obj
 0001:000c45a0       _xmlXPathNewParserContext  100c55a0 f   libxml2d:xpath.obj
 0001:000c4780       _xmlXPathFreeParserContext 100c5780 f   libxml2d:xpath.obj
 0001:000c47e0       _xmlXPathEqualValues       100c57e0 f   libxml2d:xpath.obj
 0001:000c5b40       _xmlXPathNotEqualValues    100c6b40 f   libxml2d:xpath.obj
 0001:000c5d70       _xmlXPathCompareValues     100c6d70 f   libxml2d:xpath.obj
 0001:000c6930       _xmlXPathValueFlipSign     100c7930 f   libxml2d:xpath.obj
 0001:000c6a90       _xmlXPathAddValues         100c7a90 f   libxml2d:xpath.obj
 0001:000c6b80       _xmlXPathSubValues         100c7b80 f   libxml2d:xpath.obj
 0001:000c6c70       _xmlXPathMultValues        100c7c70 f   libxml2d:xpath.obj
 0001:000c6d60       _xmlXPathDivValues         100c7d60 f   libxml2d:xpath.obj
 0001:000c6fd0       _xmlXPathModValues         100c7fd0 f   libxml2d:xpath.obj
 0001:000c7100       _xmlXPathNextSelf          100c8100 f   libxml2d:xpath.obj
 0001:000c7120       _xmlXPathNextChild         100c8120 f   libxml2d:xpath.obj
 0001:000c71e0       _xmlXPathNextDescendant    100c81e0 f   libxml2d:xpath.obj
 0001:000c7310       _xmlXPathNextDescendantOrSelf 100c8310 f   libxml2d:xpath.obj
 0001:000c7370       _xmlXPathNextParent        100c8370 f   libxml2d:xpath.obj
 0001:000c74d0       _xmlXPathNextAncestor      100c84d0 f   libxml2d:xpath.obj
 0001:000c7760       _xmlXPathNextAncestorOrSelf 100c8760 f   libxml2d:xpath.obj
 0001:000c7790       _xmlXPathNextFollowingSibling 100c8790 f   libxml2d:xpath.obj
 0001:000c77f0       _xmlXPathNextPrecedingSibling 100c87f0 f   libxml2d:xpath.obj
 0001:000c7880       _xmlXPathNextFollowing     100c8880 f   libxml2d:xpath.obj
 0001:000c7910       _xmlXPathNextPreceding     100c8910 f   libxml2d:xpath.obj
 0001:000c7a40       _xmlXPathNextNamespace     100c8a40 f   libxml2d:xpath.obj
 0001:000c7b90       _xmlXPathNextAttribute     100c8b90 f   libxml2d:xpath.obj
 0001:000c7bf0       _xmlXPathRoot              100c8bf0 f   libxml2d:xpath.obj
 0001:000c7c30       _xmlXPathLastFunction      100c8c30 f   libxml2d:xpath.obj
 0001:000c7cc0       _xmlXPathPositionFunction  100c8cc0 f   libxml2d:xpath.obj
 0001:000c7d50       _xmlXPathCountFunction     100c8d50 f   libxml2d:xpath.obj
 0001:000c7f10       _xmlXPathIdFunction        100c8f10 f   libxml2d:xpath.obj
 0001:000c82a0       _xmlXPathLocalNameFunction 100c92a0 f   libxml2d:xpath.obj
 0001:000c84c0       _xmlXPathNamespaceURIFunction 100c94c0 f   libxml2d:xpath.obj
 0001:000c8680       _xmlXPathStringFunction    100c9680 f   libxml2d:xpath.obj
 0001:000c8750       _xmlXPathStringLengthFunction 100c9750 f   libxml2d:xpath.obj
 0001:000c88e0       _xmlXPathConcatFunction    100c98e0 f   libxml2d:xpath.obj
 0001:000c8a80       _xmlXPathContainsFunction  100c9a80 f   libxml2d:xpath.obj
 0001:000c8c20       _xmlXPathStartsWithFunction 100c9c20 f   libxml2d:xpath.obj
 0001:000c8de0       _xmlXPathSubstringFunction 100c9de0 f   libxml2d:xpath.obj
 0001:000c91c0       _xmlXPathSubstringBeforeFunction 100ca1c0 f   libxml2d:xpath.obj
 0001:000c9310       _xmlXPathSubstringAfterFunction 100ca310 f   libxml2d:xpath.obj
 0001:000c9490       _xmlXPathNormalizeFunction 100ca490 f   libxml2d:xpath.obj
 0001:000c96e0       _xmlXPathTranslateFunction 100ca6e0 f   libxml2d:xpath.obj
 0001:000c99a0       _xmlXPathBooleanFunction   100ca9a0 f   libxml2d:xpath.obj
 0001:000c9a40       _xmlXPathNotFunction       100caa40 f   libxml2d:xpath.obj
 0001:000c9af0       _xmlXPathTrueFunction      100caaf0 f   libxml2d:xpath.obj
 0001:000c9b40       _xmlXPathFalseFunction     100cab40 f   libxml2d:xpath.obj
 0001:000c9b90       _xmlXPathLangFunction      100cab90 f   libxml2d:xpath.obj
 0001:000c9d00       _xmlXPathNumberFunction    100cad00 f   libxml2d:xpath.obj
 0001:000c9e10       _xmlXPathSumFunction       100cae10 f   libxml2d:xpath.obj
 0001:000c9f60       _xmlXPathFloorFunction     100caf60 f   libxml2d:xpath.obj
 0001:000ca080       _xmlXPathCeilingFunction   100cb080 f   libxml2d:xpath.obj
 0001:000ca1d0       _xmlXPathRoundFunction     100cb1d0 f   libxml2d:xpath.obj
 0001:000ca3c0       _xmlXPathParseNCName       100cb3c0 f   libxml2d:xpath.obj
 0001:000ca550       _xmlXPathParseName         100cb550 f   libxml2d:xpath.obj
 0001:000cad60       _xmlXPathStringEvalNumber  100cbd60 f   libxml2d:xpath.obj
 0001:000cb060       _xmlXPathIsNodeType        100cc060 f   libxml2d:xpath.obj
 0001:000cb0f0       _xmlXPathEvalPredicate     100cc0f0 f   libxml2d:xpath.obj
 0001:000cb220       _xmlXPathEvaluatePredicateResult 100cc220 f   libxml2d:xpath.obj
 0001:000cb360       _xmlXPathCompile           100cc360 f   libxml2d:xpath.obj
 0001:000d00b0       _xmlXPathCompiledEval      100d10b0 f   libxml2d:xpath.obj
 0001:000d41b0       _xmlXPathEvalExpr          100d51b0 f   libxml2d:xpath.obj
 0001:000d41e0       _xmlXPathEval              100d51e0 f   libxml2d:xpath.obj
 0001:000d43d0       _xmlXPathEvalExpression    100d53d0 f   libxml2d:xpath.obj
 0001:000d4560       _xmlXPathRegisterAllFunctions 100d5560 f   libxml2d:xpath.obj
 0001:000d4e60       _xmlValidBuildContentModel 100d5e60 f   libxml2d:valid.obj
 0001:000d5660       _xmlNewValidCtxt           100d6660 f   libxml2d:valid.obj
 0001:000d56b0       _xmlFreeValidCtxt          100d66b0 f   libxml2d:valid.obj
 0001:000d56e0       _xmlNewElementContent      100d66e0 f   libxml2d:valid.obj
 0001:000d58c0       _xmlCopyElementContent     100d68c0 f   libxml2d:valid.obj
 0001:000d59c0       _xmlFreeElementContent     100d69c0 f   libxml2d:valid.obj
 0001:000d5ac0       _xmlSprintfElementContent  100d6ac0 f   libxml2d:valid.obj
 0001:000d5ad0       _xmlSnprintfElementContent 100d6ad0 f   libxml2d:valid.obj
 0001:000d5ed0       _xmlAddElementDecl         100d6ed0 f   libxml2d:valid.obj
 0001:000d6570       _xmlFreeElementTable       100d7570 f   libxml2d:valid.obj
 0001:000d6590       _xmlCopyElementTable       100d7590 f   libxml2d:valid.obj
 0001:000d66b0       _xmlDumpElementDecl        100d76b0 f   libxml2d:valid.obj
 0001:000d6b90       _xmlDumpElementTable       100d7b90 f   libxml2d:valid.obj
 0001:000d6bc0       _xmlCreateEnumeration      100d7bc0 f   libxml2d:valid.obj
 0001:000d6c50       _xmlFreeEnumeration        100d7c50 f   libxml2d:valid.obj
 0001:000d6cc0       _xmlCopyEnumeration        100d7cc0 f   libxml2d:valid.obj
 0001:000d6d20       _xmlScanAttributeDecl      100d7d20 f   libxml2d:valid.obj
 0001:000d6e20       _xmlAddAttributeDecl       100d7e20 f   libxml2d:valid.obj
 0001:000d7520       _xmlFreeAttributeTable     100d8520 f   libxml2d:valid.obj
 0001:000d7540       _xmlCopyAttributeTable     100d8540 f   libxml2d:valid.obj
 0001:000d7680       _xmlDumpAttributeDecl      100d8680 f   libxml2d:valid.obj
 0001:000d79d0       _xmlDumpAttributeTable     100d89d0 f   libxml2d:valid.obj
 0001:000d7a00       _xmlAddNotationDecl        100d8a00 f   libxml2d:valid.obj
 0001:000d7c90       _xmlFreeNotationTable      100d8c90 f   libxml2d:valid.obj
 0001:000d7cb0       _xmlCopyNotationTable      100d8cb0 f   libxml2d:valid.obj
 0001:000d7db0       _xmlDumpNotationDecl       100d8db0 f   libxml2d:valid.obj
 0001:000d7e70       _xmlDumpNotationTable      100d8e70 f   libxml2d:valid.obj
 0001:000d7ea0       _xmlAddID                  100d8ea0 f   libxml2d:valid.obj
 0001:000d8200       _xmlFreeIDTable            100d9200 f   libxml2d:valid.obj
 0001:000d8220       _xmlIsID                   100d9220 f   libxml2d:valid.obj
 0001:000d8440       _xmlRemoveID               100d9440 f   libxml2d:valid.obj
 0001:000d8540       _xmlGetID                  100d9540 f   libxml2d:valid.obj
 0001:000d8600       _xmlAddRef                 100d9600 f   libxml2d:valid.obj
 0001:000d8900       _xmlFreeRefTable           100d9900 f   libxml2d:valid.obj
 0001:000d8940       _xmlIsRef                  100d9940 f   libxml2d:valid.obj
 0001:000d89f0       _xmlRemoveRef              100d99f0 f   libxml2d:valid.obj
 0001:000d8bc0       _xmlGetRefs                100d9bc0 f   libxml2d:valid.obj
 0001:000d8c50       _xmlGetDtdElementDesc      100d9c50 f   libxml2d:valid.obj
 0001:000d8f70       _xmlGetDtdQElementDesc     100d9f70 f   libxml2d:valid.obj
 0001:000d8fc0       _xmlGetDtdAttrDesc         100d9fc0 f   libxml2d:valid.obj
 0001:000d90f0       _xmlGetDtdQAttrDesc        100da0f0 f   libxml2d:valid.obj
 0001:000d9150       _xmlGetDtdNotationDesc     100da150 f   libxml2d:valid.obj
 0001:000d91a0       _xmlValidateNotationUse    100da1a0 f   libxml2d:valid.obj
 0001:000d9260       _xmlIsMixedElement         100da260 f   libxml2d:valid.obj
 0001:000d9320       _xmlValidateNameValue      100da320 f   libxml2d:valid.obj
 0001:000d9490       _xmlValidateNamesValue     100da490 f   libxml2d:valid.obj
 0001:000d9740       _xmlValidateNmtokenValue   100da740 f   libxml2d:valid.obj
 0001:000d98d0       _xmlValidateNmtokensValue  100da8d0 f   libxml2d:valid.obj
 0001:000d9c00       _xmlValidateNotationDecl   100dac00 f   libxml2d:valid.obj
 0001:000d9c20       _xmlValidateAttributeValue 100dac20 f   libxml2d:valid.obj
 0001:000d9cc0       _xmlValidCtxtNormalizeAttributeValue 100dacc0 f   libxml2d:valid.obj
 0001:000d9fc0       _xmlValidNormalizeAttributeValue 100dafc0 f   libxml2d:valid.obj
 0001:000da230       _xmlValidateAttributeDecl  100db230 f   libxml2d:valid.obj
 0001:000da5e0       _xmlValidateElementDecl    100db5e0 f   libxml2d:valid.obj
 0001:000da8d0       _xmlValidateOneAttribute   100db8d0 f   libxml2d:valid.obj
 0001:000db6f0       _xmlValidateOneNamespace   100dc6f0 f   libxml2d:valid.obj
 0001:000dc370       _xmlValidatePushElement    100dd370 f   libxml2d:valid.obj
 0001:000dcdc0       _xmlValidatePushCData      100dddc0 f   libxml2d:valid.obj
 0001:000dd0c0       _xmlValidatePopElement     100de0c0 f   libxml2d:valid.obj
 0001:000dd350       _xmlValidateOneElement     100de350 f   libxml2d:valid.obj
 0001:000dfab0       _xmlValidateRoot           100e0ab0 f   libxml2d:valid.obj
 0001:000dfd90       _xmlValidateElement        100e0d90 f   libxml2d:valid.obj
 0001:000dfef0       _xmlValidateDocumentFinal  100e0ef0 f   libxml2d:valid.obj
 0001:000e0520       _xmlValidateDtd            100e1520 f   libxml2d:valid.obj
 0001:000e0630       _xmlValidateDtdFinal       100e1630 f   libxml2d:valid.obj
 0001:000e0a00       _xmlValidateDocument       100e1a00 f   libxml2d:valid.obj
 0001:000e0c00       _xmlValidGetPotentialChildren 100e1c00 f   libxml2d:valid.obj
 0001:000e0dd0       _xmlValidGetValidElements  100e1dd0 f   libxml2d:valid.obj
 0001:000e11e0       _xmlNanoHTTPInit           100e21e0 f   libxml2d:nanohttp.obj
 0001:000e1300       _xmlNanoHTTPCleanup        100e2300 f   libxml2d:nanohttp.obj
 0001:000e1360       _xmlNanoHTTPScanProxy      100e2360 f   libxml2d:nanohttp.obj
 0001:000e1800       _xmlNanoHTTPOpen           100e2800 f   libxml2d:nanohttp.obj
 0001:000e1840       _xmlNanoHTTPOpenRedir      100e2840 f   libxml2d:nanohttp.obj
 0001:000e1890       _xmlNanoHTTPRead           100e2890 f   libxml2d:nanohttp.obj
 0001:000e1e00       _xmlNanoHTTPClose          100e2e00 f   libxml2d:nanohttp.obj
 0001:000e1fb0       _xmlNanoHTTPMethodRedir    100e2fb0 f   libxml2d:nanohttp.obj
 0001:000e3b20       _xmlNanoHTTPMethod         100e4b20 f   libxml2d:nanohttp.obj
 0001:000e3b50       _xmlNanoHTTPFetch          100e4b50 f   libxml2d:nanohttp.obj
 0001:000e3cb0       _xmlNanoHTTPSave           100e4cb0 f   libxml2d:nanohttp.obj
 0001:000e3dc0       _xmlNanoHTTPReturnCode     100e4dc0 f   libxml2d:nanohttp.obj
 0001:000e3df0       _xmlNanoHTTPAuthHeader     100e4df0 f   libxml2d:nanohttp.obj
 0001:000e3e20       _xmlNanoHTTPContentLength  100e4e20 f   libxml2d:nanohttp.obj
 0001:000e3e60       _xmlNanoHTTPFetchContent   100e4e60 f   libxml2d:nanohttp.obj
 0001:000e3fb0       _xmlGenericErrorDefaultFunc 100e4fb0 f   libxml2d:error.obj
 0001:000e4000       _initGenericErrorDefaultFunc 100e5000 f   libxml2d:error.obj
 0001:000e4020       _xmlSetGenericErrorFunc    100e5020 f   libxml2d:error.obj
 0001:000e4050       _xmlParserPrintFileInfo    100e5050 f   libxml2d:error.obj
 0001:000e40c0       _xmlParserPrintFileContext 100e50c0 f   libxml2d:error.obj
 0001:000e4310       _xmlParserError            100e5310 f   libxml2d:error.obj
 0001:000e4530       _xmlParserWarning          100e5530 f   libxml2d:error.obj
 0001:000e4750       _xmlParserValidityError    100e5750 f   libxml2d:error.obj
 0001:000e4980       _xmlParserValidityWarning  100e5980 f   libxml2d:error.obj
 0001:000e4b70       _xmlCheckVersion           100e5b70 f   libxml2d:parserInternals.obj
 0001:000e4c70       _xmlGetFeaturesList        100e5c70 f   libxml2d:parserInternals.obj
 0001:000e4d00       _xmlGetFeature             100e5d00 f   libxml2d:parserInternals.obj
 0001:000e5330       _xmlSetFeature             100e6330 f   libxml2d:parserInternals.obj
 0001:000e59b0       _xmlIsChar                 100e69b0 f   libxml2d:parserInternals.obj
 0001:000e5a20       _xmlIsBlank                100e6a20 f   libxml2d:parserInternals.obj
 0001:000e5a60       _xmlIsBaseChar             100e6a60 f   libxml2d:parserInternals.obj
 0001:000e69c0       _xmlIsDigit                100e79c0 f   libxml2d:parserInternals.obj
 0001:000e6b20       _xmlIsCombining            100e7b20 f   libxml2d:parserInternals.obj
 0001:000e7280       _xmlIsExtender             100e8280 f   libxml2d:parserInternals.obj
 0001:000e7420       _xmlIsIdeographic          100e8420 f   libxml2d:parserInternals.obj
 0001:000e74b0       _xmlIsLetter               100e84b0 f   libxml2d:parserInternals.obj
 0001:000e7500       _xmlIsPubidChar            100e8500 f   libxml2d:parserInternals.obj
 0001:000e75e0       _xmlParserInputRead        100e85e0 f   libxml2d:parserInternals.obj
 0001:000e7730       _xmlParserInputGrow        100e8730 f   libxml2d:parserInternals.obj
 0001:000e7850       _xmlParserInputShrink      100e8850 f   libxml2d:parserInternals.obj
 0001:000e79b0       _xmlNextChar               100e89b0 f   libxml2d:parserInternals.obj
 0001:000e7f00       _xmlCurrentChar            100e8f00 f   libxml2d:parserInternals.obj
 0001:000e83f0       _xmlStringCurrentChar      100e93f0 f   libxml2d:parserInternals.obj
 0001:000e8730       _xmlCopyCharMultiByte      100e9730 f   libxml2d:parserInternals.obj
 0001:000e8860       _xmlCopyChar               100e9860 f   libxml2d:parserInternals.obj
 0001:000e88a0       _xmlSwitchEncoding         100e98a0 f   libxml2d:parserInternals.obj
 0001:000e8dc0       _xmlSwitchToEncoding       100e9dc0 f   libxml2d:parserInternals.obj
 0001:000e9320       _xmlFreeInputStream        100ea320 f   libxml2d:parserInternals.obj
 0001:000e9420       _xmlNewInputStream         100ea420 f   libxml2d:parserInternals.obj
 0001:000e94e0       _xmlNewIOInputStream       100ea4e0 f   libxml2d:parserInternals.obj
 0001:000e95a0       _xmlNewEntityInputStream   100ea5a0 f   libxml2d:parserInternals.obj
 0001:000e9820       _xmlNewStringInputStream   100ea820 f   libxml2d:parserInternals.obj
 0001:000e9900       _xmlNewInputFromFile       100ea900 f   libxml2d:parserInternals.obj
 0001:000e9a80       _xmlInitParserCtxt         100eaa80 f   libxml2d:parserInternals.obj
 0001:000ea000       _xmlFreeParserCtxt         100eb000 f   libxml2d:parserInternals.obj
 0001:000ea280       _xmlNewParserCtxt          100eb280 f   libxml2d:parserInternals.obj
 0001:000ea330       _xmlClearParserCtxt        100eb330 f   libxml2d:parserInternals.obj
 0001:000ea360       _xmlParserFindNodeInfo     100eb360 f   libxml2d:parserInternals.obj
 0001:000ea3c0       _xmlInitNodeInfoSeq        100eb3c0 f   libxml2d:parserInternals.obj
 0001:000ea3f0       _xmlClearNodeInfoSeq       100eb3f0 f   libxml2d:parserInternals.obj
 0001:000ea430       _xmlParserFindNodeInfoIndex 100eb430 f   libxml2d:parserInternals.obj
 0001:000ea500       _xmlParserAddNodeInfo      100eb500 f   libxml2d:parserInternals.obj
 0001:000ea710       _xmlPedanticParserDefault  100eb710 f   libxml2d:parserInternals.obj
 0001:000ea740       _xmlLineNumbersDefault     100eb740 f   libxml2d:parserInternals.obj
 0001:000ea770       _xmlSubstituteEntitiesDefault 100eb770 f   libxml2d:parserInternals.obj
 0001:000ea7a0       _xmlKeepBlanksDefault      100eb7a0 f   libxml2d:parserInternals.obj
 0001:000ea7e0       _xmlCheckLanguageID        100eb7e0 f   libxml2d:parserInternals.obj
 0001:000eaa10       _xmlDecodeEntities         100eba10 f   libxml2d:parserInternals.obj
 0001:000eaa50       _xmlNamespaceParseNCName   100eba50 f   libxml2d:parserInternals.obj
 0001:000eaa90       _xmlNamespaceParseQName    100eba90 f   libxml2d:parserInternals.obj
 0001:000eaad0       _xmlNamespaceParseNSDef    100ebad0 f   libxml2d:parserInternals.obj
 0001:000eab10       _xmlParseQuotedString      100ebb10 f   libxml2d:parserInternals.obj
 0001:000eab50       _xmlParseNamespace         100ebb50 f   libxml2d:parserInternals.obj
 0001:000eab90       _xmlScanName               100ebb90 f   libxml2d:parserInternals.obj
 0001:000eabd0       _xmlParserHandleReference  100ebbd0 f   libxml2d:parserInternals.obj
 0001:000eac10       _xmlHandleEntity           100ebc10 f   libxml2d:parserInternals.obj
 0001:000eac50       _xmlNewGlobalNs            100ebc50 f   libxml2d:parserInternals.obj
 0001:000eac90       _xmlUpgradeOldNs           100ebc90 f   libxml2d:parserInternals.obj
 0001:000eacd0       _xmlC14NExecute            100ebcd0 f   libxml2d:c14n.obj
 0001:000ecc30       _xmlC14NDocSaveTo          100edc30 f   libxml2d:c14n.obj
 0001:000ecd20       _xmlC14NDocDumpMemory      100edd20 f   libxml2d:c14n.obj
 0001:000ece00       _xmlC14NDocSave            100ede00 f   libxml2d:c14n.obj
 0001:000ed2b0       _xmlNormalizeWindowsPath   100ee2b0 f   libxml2d:xmlIO.obj
 0001:000ed2d0       _xmlCleanupInputCallbacks  100ee2d0 f   libxml2d:xmlIO.obj
 0001:000ed370       _xmlCleanupOutputCallbacks 100ee370 f   libxml2d:xmlIO.obj
 0001:000ed410       _xmlCheckFilename          100ee410 f   libxml2d:xmlIO.obj
 0001:000ed4a0       _xmlFileMatch              100ee4a0 f   libxml2d:xmlIO.obj
 0001:000ed4b0       _xmlFileOpen               100ee4b0 f   libxml2d:xmlIO.obj
 0001:000ed600       _xmlFileRead               100ee600 f   libxml2d:xmlIO.obj
 0001:000ed630       _xmlFileClose              100ee630 f   libxml2d:xmlIO.obj
 0001:000ed690       _xmlIOHTTPMatch            100ee690 f   libxml2d:xmlIO.obj
 0001:000ed6c0       _xmlIOHTTPOpen             100ee6c0 f   libxml2d:xmlIO.obj
 0001:000ed6e0       _xmlIOHTTPOpenW            100ee6e0 f   libxml2d:xmlIO.obj
 0001:000ed840       _xmlIOHTTPRead             100ee840 f   libxml2d:xmlIO.obj
 0001:000ed860       _xmlIOHTTPClose            100ee860 f   libxml2d:xmlIO.obj
 0001:000ed880       _xmlIOFTPMatch             100ee880 f   libxml2d:xmlIO.obj
 0001:000ed8b0       _xmlIOFTPOpen              100ee8b0 f   libxml2d:xmlIO.obj
 0001:000ed8d0       _xmlIOFTPRead              100ee8d0 f   libxml2d:xmlIO.obj
 0001:000ed8f0       _xmlIOFTPClose             100ee8f0 f   libxml2d:xmlIO.obj
 0001:000ed910       _xmlRegisterInputCallbacks 100ee910 f   libxml2d:xmlIO.obj
 0001:000ed990       _xmlRegisterOutputCallbacks 100ee990 f   libxml2d:xmlIO.obj
 0001:000eda10       _xmlRegisterDefaultInputCallbacks 100eea10 f   libxml2d:xmlIO.obj
 0001:000eda90       _xmlRegisterDefaultOutputCallbacks 100eea90 f   libxml2d:xmlIO.obj
 0001:000edea0       _xmlRegisterHTTPPostCallbacks 100eeea0 f   libxml2d:xmlIO.obj
 0001:000edf00       _xmlAllocParserInputBuffer 100eef00 f   libxml2d:xmlIO.obj
 0001:000ee000       _xmlAllocOutputBuffer      100ef000 f   libxml2d:xmlIO.obj
 0001:000ee120       _xmlFreeParserInputBuffer  100ef120 f   libxml2d:xmlIO.obj
 0001:000ee1d0       _xmlOutputBufferClose      100ef1d0 f   libxml2d:xmlIO.obj
 0001:000ee2e0       _xmlParserInputBufferCreateFilename 100ef2e0 f   libxml2d:xmlIO.obj
 0001:000ee400       _xmlOutputBufferCreateFilename 100ef400 f   libxml2d:xmlIO.obj
 0001:000ee5e0       _xmlParserInputBufferCreateFile 100ef5e0 f   libxml2d:xmlIO.obj
 0001:000ee680       _xmlOutputBufferCreateFile 100ef680 f   libxml2d:xmlIO.obj
 0001:000ee6f0       _xmlParserInputBufferCreateFd 100ef6f0 f   libxml2d:xmlIO.obj
 0001:000ee790       _xmlParserInputBufferCreateMem 100ef790 f   libxml2d:xmlIO.obj
 0001:000ee820       _xmlOutputBufferCreateFd   100ef820 f   libxml2d:xmlIO.obj
 0001:000ee8a0       _xmlParserInputBufferCreateIO 100ef8a0 f   libxml2d:xmlIO.obj
 0001:000ee900       _xmlOutputBufferCreateIO   100ef900 f   libxml2d:xmlIO.obj
 0001:000ee960       _xmlParserInputBufferPush  100ef960 f   libxml2d:xmlIO.obj
 0001:000eea30       _xmlParserInputBufferGrow  100efa30 f   libxml2d:xmlIO.obj
 0001:000eec80       _xmlParserInputBufferRead  100efc80 f   libxml2d:xmlIO.obj
 0001:000eecb0       _xmlOutputBufferWrite      100efcb0 f   libxml2d:xmlIO.obj
 0001:000eef00       _xmlOutputBufferWriteString 100eff00 f   libxml2d:xmlIO.obj
 0001:000eef60       _xmlOutputBufferFlush      100eff60 f   libxml2d:xmlIO.obj
 0001:000ef0f0       _xmlParserGetDirectory     100f00f0 f   libxml2d:xmlIO.obj
 0001:000ef620       _xmlSetExternalEntityLoader 100f0620 f   libxml2d:xmlIO.obj
 0001:000ef630       _xmlGetExternalEntityLoader 100f0630 f   libxml2d:xmlIO.obj
 0001:000ef640       _xmlLoadExternalEntity     100f0640 f   libxml2d:xmlIO.obj
 0001:000ef720       _xmlNoNetExternalEntityLoader 100f0720 f   libxml2d:xmlIO.obj
 0001:000efa10       _xmlListCreate             100f0a10 f   libxml2d:list.obj
 0001:000efb60       _xmlListSearch             100f0b60 f   libxml2d:list.obj
 0001:000efc70       _xmlListReverseSearch      100f0c70 f   libxml2d:list.obj
 0001:000efd90       _xmlListInsert             100f0d90 f   libxml2d:list.obj
 0001:000efe50       _xmlListAppend             100f0e50 f   libxml2d:list.obj
 0001:000eff00       _xmlListDelete             100f0f00 f   libxml2d:list.obj
 0001:000eff50       _xmlListRemoveFirst        100f0f50 f   libxml2d:list.obj
 0001:000f0000       _xmlListRemoveLast         100f1000 f   libxml2d:list.obj
 0001:000f0050       _xmlListRemoveAll          100f1050 f   libxml2d:list.obj
 0001:000f00a0       _xmlListClear              100f10a0 f   libxml2d:list.obj
 0001:000f0100       _xmlListEmpty              100f1100 f   libxml2d:list.obj
 0001:000f0120       _xmlListFront              100f1120 f   libxml2d:list.obj
 0001:000f0130       _xmlListEnd                100f1130 f   libxml2d:list.obj
 0001:000f0140       _xmlListSize               100f1140 f   libxml2d:list.obj
 0001:000f0190       _xmlListPopFront           100f1190 f   libxml2d:list.obj
 0001:000f01c0       _xmlListPopBack            100f11c0 f   libxml2d:list.obj
 0001:000f0200       _xmlListPushFront          100f1200 f   libxml2d:list.obj
 0001:000f02a0       _xmlListPushBack           100f12a0 f   libxml2d:list.obj
 0001:000f0350       _xmlLinkGetData            100f1350 f   libxml2d:list.obj
 0001:000f0360       _xmlListReverse            100f1360 f   libxml2d:list.obj
 0001:000f03d0       _xmlListSort               100f13d0 f   libxml2d:list.obj
 0001:000f0440       _xmlListWalk               100f1440 f   libxml2d:list.obj
 0001:000f04a0       _xmlListReverseWalk        100f14a0 f   libxml2d:list.obj
 0001:000f0500       _xmlListMerge              100f1500 f   libxml2d:list.obj
 0001:000f0530       _xmlListDup                100f1530 f   libxml2d:list.obj
 0001:000f0590       _xmlListCopy               100f1590 f   libxml2d:list.obj
 0001:000f0600       _xmlCreateURI              100f1600 f   libxml2d:uri.obj
 0001:000f0670       _xmlSaveUri                100f1670 f   libxml2d:uri.obj
 0001:000f1af0       _xmlPrintURI               100f2af0 f   libxml2d:uri.obj
 0001:000f1b50       _xmlFreeURI                100f2b50 f   libxml2d:uri.obj
 0001:000f1c90       _xmlNormalizeURIPath       100f2c90 f   libxml2d:uri.obj
 0001:000f1fd0       _xmlURIUnescapeString      100f2fd0 f   libxml2d:uri.obj
 0001:000f2210       _xmlURIEscapeStr           100f3210 f   libxml2d:uri.obj
 0001:000f24f0       _xmlURIEscape              100f34f0 f   libxml2d:uri.obj
 0001:000f2a30       _xmlParseURIReference      100f3a30 f   libxml2d:uri.obj
 0001:000f5670       _xmlParseURI               100f6670 f   libxml2d:uri.obj
 0001:000f56e0       _xmlBuildURI               100f66e0 f   libxml2d:uri.obj
 0001:000f5e20       _xmlCanonicPath            100f6e20 f   libxml2d:uri.obj
 0001:000f5ff0       _xmlInitializePredefinedEntities 100f6ff0 f   libxml2d:entities.obj
 0001:000f64e0       _xmlCleanupPredefinedEntities 100f74e0 f   libxml2d:entities.obj
 0001:000f6510       _xmlGetPredefinedEntity    100f7510 f   libxml2d:entities.obj
 0001:000f6540       _xmlAddDtdEntity           100f7540 f   libxml2d:entities.obj
 0001:000f6650       _xmlAddDocEntity           100f7650 f   libxml2d:entities.obj
 0001:000f6760       _xmlGetParameterEntity     100f7760 f   libxml2d:entities.obj
 0001:000f6820       _xmlGetDtdEntity           100f7820 f   libxml2d:entities.obj
 0001:000f6880       _xmlGetDocEntity           100f7880 f   libxml2d:entities.obj
 0001:000f6960       _xmlEncodeEntities         100f7960 f   libxml2d:entities.obj
 0001:000f6eb0       _xmlEncodeEntitiesReentrant 100f7eb0 f   libxml2d:entities.obj
 0001:000f7570       _xmlEncodeSpecialChars     100f8570 f   libxml2d:entities.obj
 0001:000f78a0       _xmlCreateEntitiesTable    100f88a0 f   libxml2d:entities.obj
 0001:000f78c0       _xmlFreeEntitiesTable      100f88c0 f   libxml2d:entities.obj
 0001:000f7900       _xmlCopyEntitiesTable      100f8900 f   libxml2d:entities.obj
 0001:000f7a60       _xmlDumpEntityDecl         100f8a60 f   libxml2d:entities.obj
 0001:000f7e30       _xmlDumpEntitiesTable      100f8e30 f   libxml2d:entities.obj
 0001:000f7e60       _xmlHashCreate             100f8e60 f   libxml2d:hash.obj
 0001:000f7f20       _xmlHashFree               100f8f20 f   libxml2d:hash.obj
 0001:000f80c0       _xmlHashAddEntry           100f90c0 f   libxml2d:hash.obj
 0001:000f80f0       _xmlHashAddEntry2          100f90f0 f   libxml2d:hash.obj
 0001:000f8120       _xmlHashUpdateEntry        100f9120 f   libxml2d:hash.obj
 0001:000f8150       _xmlHashUpdateEntry2       100f9150 f   libxml2d:hash.obj
 0001:000f8180       _xmlHashLookup             100f9180 f   libxml2d:hash.obj
 0001:000f81a0       _xmlHashLookup2            100f91a0 f   libxml2d:hash.obj
 0001:000f81d0       _xmlHashAddEntry3          100f91d0 f   libxml2d:hash.obj
 0001:000f87a0       _xmlHashUpdateEntry3       100f97a0 f   libxml2d:hash.obj
 0001:000f89e0       _xmlHashLookup3            100f99e0 f   libxml2d:hash.obj
 0001:000f8ac0       _xmlHashScan               100f9ac0 f   libxml2d:hash.obj
 0001:000f8b90       _xmlHashScanFull           100f9b90 f   libxml2d:hash.obj
 0001:000f8c70       _xmlHashScan3              100f9c70 f   libxml2d:hash.obj
 0001:000f8ca0       _xmlHashScanFull3          100f9ca0 f   libxml2d:hash.obj
 0001:000f8de0       _xmlHashCopy               100f9de0 f   libxml2d:hash.obj
 0001:000f8ef0       _xmlHashSize               100f9ef0 f   libxml2d:hash.obj
 0001:000f8f10       _xmlHashRemoveEntry        100f9f10 f   libxml2d:hash.obj
 0001:000f8f40       _xmlHashRemoveEntry2       100f9f40 f   libxml2d:hash.obj
 0001:000f8f70       _xmlHashRemoveEntry3       100f9f70 f   libxml2d:hash.obj
 0001:000f9190       _htmlGetMetaEncoding       100fa190 f   libxml2d:HTMLtree.obj
 0001:000f94d0       _htmlSetMetaEncoding       100fa4d0 f   libxml2d:HTMLtree.obj
 0001:000f98b0       _htmlIsBooleanAttr         100fa8b0 f   libxml2d:HTMLtree.obj
 0001:000f9910       _htmlNodeDump              100fa910 f   libxml2d:HTMLtree.obj
 0001:000f9a60       _htmlNodeDumpFileFormat    100faa60 f   libxml2d:HTMLtree.obj
 0001:000f9b40       _htmlNodeDumpFile          100fab40 f   libxml2d:HTMLtree.obj
 0001:000f9b70       _htmlDocDumpMemory         100fab70 f   libxml2d:HTMLtree.obj
 0001:000f9d20       _htmlNodeDumpFormatOutput  100fad20 f   libxml2d:HTMLtree.obj
 0001:000fa740       _htmlNodeDumpOutput        100fb740 f   libxml2d:HTMLtree.obj
 0001:000fa770       _htmlDocContentDumpFormatOutput 100fb770 f   libxml2d:HTMLtree.obj
 0001:000fa920       _htmlDocContentDumpOutput  100fb920 f   libxml2d:HTMLtree.obj
 0001:000fa950       _htmlDocDump               100fb950 f   libxml2d:HTMLtree.obj
 0001:000faa60       _htmlSaveFile              100fba60 f   libxml2d:HTMLtree.obj
 0001:000fab60       _htmlSaveFileFormat        100fbb60 f   libxml2d:HTMLtree.obj
 0001:000fac80       _htmlSaveFileEnc           100fbc80 f   libxml2d:HTMLtree.obj
 0001:000facb0       _xmlUTF8Strlen             100fbcb0 f   libxml2d:encoding.obj
 0001:000fadc0       _xmlGetUTF8Char            100fbdc0 f   libxml2d:encoding.obj
 0001:000faf90       _xmlCheckUTF8              100fbf90 f   libxml2d:encoding.obj
 0001:000fb090       _xmlUTF8Strsize            100fc090 f   libxml2d:encoding.obj
 0001:000fb140       _xmlUTF8Strndup            100fc140 f   libxml2d:encoding.obj
 0001:000fb200       _xmlUTF8Strpos             100fc200 f   libxml2d:encoding.obj
 0001:000fb320       _xmlUTF8Strloc             100fc320 f   libxml2d:encoding.obj
 0001:000fb430       _xmlUTF8Strsub             100fc430 f   libxml2d:encoding.obj
 0001:000fb560       _isolat1ToUTF8             100fc560 f   libxml2d:encoding.obj
 0001:000fb6d0       _UTF8Toisolat1             100fc6d0 f   libxml2d:encoding.obj
 0001:000fb920       _xmlDetectCharEncoding     100fc920 f   libxml2d:encoding.obj
 0001:000fbb10       _xmlCleanupEncodingAliases 100fcb10 f   libxml2d:encoding.obj
 0001:000fbbf0       _xmlGetEncodingAlias       100fcbf0 f   libxml2d:encoding.obj
 0001:000fbd10       _xmlAddEncodingAlias       100fcd10 f   libxml2d:encoding.obj
 0001:000fbf40       _xmlDelEncodingAlias       100fcf40 f   libxml2d:encoding.obj
 0001:000fc040       _xmlParseCharEncoding      100fd040 f   libxml2d:encoding.obj
 0001:000fc4d0       _xmlGetCharEncodingName    100fd4d0 f   libxml2d:encoding.obj
 0001:000fc620       _xmlNewCharEncodingHandler 100fd620 f   libxml2d:encoding.obj
 0001:000fc800       _xmlInitCharEncodingHandlers 100fd800 f   libxml2d:encoding.obj
 0001:000fda00       _xmlCleanupCharEncodingHandlers 100fea00 f   libxml2d:encoding.obj
 0001:000fdae0       _xmlRegisterCharEncodingHandler 100feae0 f   libxml2d:encoding.obj
 0001:000fdb90       _xmlGetCharEncodingHandler 100feb90 f   libxml2d:encoding.obj
 0001:000fdf90       _xmlFindCharEncodingHandler 100fef90 f   libxml2d:encoding.obj
 0001:000fe140       _xmlCharEncFirstLine       100ff140 f   libxml2d:encoding.obj
 0001:000fe2b0       _xmlCharEncInFunc          100ff2b0 f   libxml2d:encoding.obj
 0001:000fe4a0       _xmlCharEncOutFunc         100ff4a0 f   libxml2d:encoding.obj
 0001:000fe7d0       _xmlCharEncCloseFunc       100ff7d0 f   libxml2d:encoding.obj
 0001:000fe810       _getPublicId               100ff810 f   libxml2d:SAX.obj
 0001:000fe820       _getSystemId               100ff820 f   libxml2d:SAX.obj
 0001:000fe840       _getLineNumber             100ff840 f   libxml2d:SAX.obj
 0001:000fe860       _getColumnNumber           100ff860 f   libxml2d:SAX.obj
 0001:000fe880       _isStandalone              100ff880 f   libxml2d:SAX.obj
 0001:000fe8b0       _hasInternalSubset         100ff8b0 f   libxml2d:SAX.obj
 0001:000fe8e0       _hasExternalSubset         100ff8e0 f   libxml2d:SAX.obj
 0001:000fe910       _internalSubset            100ff910 f   libxml2d:SAX.obj
 0001:000fe9b0       _externalSubset            100ff9b0 f   libxml2d:SAX.obj
 0001:000fecc0       _resolveEntity             100ffcc0 f   libxml2d:SAX.obj
 0001:000fed70       _getEntity                 100ffd70 f   libxml2d:SAX.obj
 0001:000fefe0       _getParameterEntity        100fffe0 f   libxml2d:SAX.obj
 0001:000ff030       _entityDecl                10100030 f   libxml2d:SAX.obj
 0001:000ff260       _attributeDecl             10100260 f   libxml2d:SAX.obj
 0001:000ff460       _elementDecl               10100460 f   libxml2d:SAX.obj
 0001:000ff590       _notationDecl              10100590 f   libxml2d:SAX.obj
 0001:000ff720       _unparsedEntityDecl        10100720 f   libxml2d:SAX.obj
 0001:000ff940       _setDocumentLocator        10100940 f   libxml2d:SAX.obj
 0001:000ff950       _startDocument             10100950 f   libxml2d:SAX.obj
 0001:000ffb30       _endDocument               10100b30 f   libxml2d:SAX.obj
 0001:000ffc50       _attribute                 10100c50 f   libxml2d:SAX.obj
 0001:001007c0       _startElement              101017c0 f   libxml2d:SAX.obj
 0001:00101200       _endElement                10102200 f   libxml2d:SAX.obj
 0001:00101320       _reference                 10102320 f   libxml2d:SAX.obj
 0001:001013a0       _characters                101023a0 f   libxml2d:SAX.obj
 0001:00101700       _ignorableWhitespace       10102700 f   libxml2d:SAX.obj
 0001:00101710       _processingInstruction     10102710 f   libxml2d:SAX.obj
 0001:00101810       _globalNamespace           10102810 f   libxml2d:SAX.obj
 0001:00101850       _setNamespace              10102850 f   libxml2d:SAX.obj
 0001:00101900       _getNamespace              10102900 f   libxml2d:SAX.obj
 0001:00101930       _checkNamespace            10102930 f   libxml2d:SAX.obj
 0001:00101aa0       _namespaceDecl             10102aa0 f   libxml2d:SAX.obj
 0001:00101ae0       _comment                   10102ae0 f   libxml2d:SAX.obj
 0001:00101be0       _cdataBlock                10102be0 f   libxml2d:SAX.obj
 0001:00101c80       _initxmlDefaultSAXHandler  10102c80 f   libxml2d:SAX.obj
 0001:00101dc0       _xmlDefaultSAXHandlerInit  10102dc0 f   libxml2d:SAX.obj
 0001:00101de0       _inithtmlDefaultSAXHandler 10102de0 f   libxml2d:SAX.obj
 0001:00101f10       _htmlDefaultSAXHandlerInit 10102f10 f   libxml2d:SAX.obj
 0001:00101f30       _xmlNewMutex               10102f30 f   libxml2d:threads.obj
 0001:00101f70       _xmlFreeMutex              10102f70 f   libxml2d:threads.obj
 0001:00101f90       _xmlMutexLock              10102f90 f   libxml2d:threads.obj
 0001:00101fa0       _xmlMutexUnlock            10102fa0 f   libxml2d:threads.obj
 0001:00101fb0       _xmlNewRMutex              10102fb0 f   libxml2d:threads.obj
 0001:00101ff0       _xmlFreeRMutex             10102ff0 f   libxml2d:threads.obj
 0001:00102010       _xmlRMutexLock             10103010 f   libxml2d:threads.obj
 0001:00102020       _xmlRMutexUnlock           10103020 f   libxml2d:threads.obj
 0001:00102030       _xmlGetGlobalState         10103030 f   libxml2d:threads.obj
 0001:00102040       _xmlGetThreadId            10103040 f   libxml2d:threads.obj
 0001:00102050       _xmlIsMainThread           10103050 f   libxml2d:threads.obj
 0001:00102060       _xmlLockLibrary            10103060 f   libxml2d:threads.obj
 0001:00102080       _xmlUnlockLibrary          10103080 f   libxml2d:threads.obj
 0001:001020a0       _xmlInitThreads            101030a0 f   libxml2d:threads.obj
 0001:001020b0       _xmlCleanupThreads         101030b0 f   libxml2d:threads.obj
 0001:001020c0       _xmlFreeCatalog            101030c0 f   libxml2d:catalog.obj
 0001:001022a0       _xmlConvertSGMLCatalog     101032a0 f   libxml2d:catalog.obj
 0001:001024a0       _xmlParseCatalogFile       101034a0 f   libxml2d:catalog.obj
 0001:00102680       _xmlLoadSGMLSuperCatalog   10103680 f   libxml2d:catalog.obj
 0001:00103600       _xmlLoadACatalog           10104600 f   libxml2d:catalog.obj
 0001:001038b0       _xmlACatalogResolveSystem  101048b0 f   libxml2d:catalog.obj
 0001:00105280       _xmlACatalogResolvePublic  10106280 f   libxml2d:catalog.obj
 0001:001053b0       _xmlACatalogResolve        101063b0 f   libxml2d:catalog.obj
 0001:00105530       _xmlACatalogResolveURI     10106530 f   libxml2d:catalog.obj
 0001:00105ba0       _xmlACatalogDump           10106ba0 f   libxml2d:catalog.obj
 0001:00106340       _xmlACatalogAdd            10107340 f   libxml2d:catalog.obj
 0001:00106980       _xmlACatalogRemove         10107980 f   libxml2d:catalog.obj
 0001:00106b30       _xmlNewCatalog             10107b30 f   libxml2d:catalog.obj
 0001:00106ba0       _xmlCatalogIsEmpty         10107ba0 f   libxml2d:catalog.obj
 0001:00106c50       _xmlInitializeCatalog      10107c50 f   libxml2d:catalog.obj
 0001:00106e80       _xmlLoadCatalog            10107e80 f   libxml2d:catalog.obj
 0001:00106f40       _xmlLoadCatalogs           10107f40 f   libxml2d:catalog.obj
 0001:00107090       _xmlCatalogCleanup         10108090 f   libxml2d:catalog.obj
 0001:001071e0       _xmlCatalogResolveSystem   101081e0 f   libxml2d:catalog.obj
 0001:00107220       _xmlCatalogResolvePublic   10108220 f   libxml2d:catalog.obj
 0001:00107260       _xmlCatalogResolve         10108260 f   libxml2d:catalog.obj
 0001:001072b0       _xmlCatalogResolveURI      101082b0 f   libxml2d:catalog.obj
 0001:001072f0       _xmlCatalogDump            101082f0 f   libxml2d:catalog.obj
 0001:00107330       _xmlCatalogAdd             10108330 f   libxml2d:catalog.obj
 0001:00107410       _xmlCatalogRemove          10108410 f   libxml2d:catalog.obj
 0001:00107470       _xmlCatalogConvert         10108470 f   libxml2d:catalog.obj
 0001:001074d0       _xmlCatalogGetDefaults     101084d0 f   libxml2d:catalog.obj
 0001:001074e0       _xmlCatalogSetDefaults     101084e0 f   libxml2d:catalog.obj
 0001:001075c0       _xmlCatalogSetDefaultPrefer 101085c0 f   libxml2d:catalog.obj
 0001:00107660       _xmlCatalogSetDebug        10108660 f   libxml2d:catalog.obj
 0001:001076a0       _xmlCatalogFreeLocal       101086a0 f   libxml2d:catalog.obj
 0001:001076e0       _xmlCatalogAddLocal        101086e0 f   libxml2d:catalog.obj
 0001:001077a0       _xmlCatalogLocalResolve    101087a0 f   libxml2d:catalog.obj
 0001:00107880       _xmlCatalogLocalResolveURI 10108880 f   libxml2d:catalog.obj
 0001:00107920       _xmlCatalogGetSystem       10108920 f   libxml2d:catalog.obj
 0001:00107a10       _xmlCatalogGetPublic       10108a10 f   libxml2d:catalog.obj
 0001:00107b00       _htmlInitAutoClose         10108b00 f   libxml2d:HTMLparser.obj
 0001:00107bc0       _htmlTagLookup             10108bc0 f   libxml2d:HTMLparser.obj
 0001:00107c20       _htmlAutoCloseTag          10108c20 f   libxml2d:HTMLparser.obj
 0001:00107da0       _htmlIsAutoClosed          10108da0 f   libxml2d:HTMLparser.obj
 0001:00107e10       _htmlIsScriptAttribute     10108e10 f   libxml2d:HTMLparser.obj
 0001:00107e90       _htmlEntityLookup          10108e90 f   libxml2d:HTMLparser.obj
 0001:00107f00       _htmlEntityValueLookup     10108f00 f   libxml2d:HTMLparser.obj
 0001:00107f60       _UTF8ToHtml                10108f60 f   libxml2d:HTMLparser.obj
 0001:00108200       _htmlEncodeEntities        10109200 f   libxml2d:HTMLparser.obj
 0001:00108500       _htmlDecodeEntities        10109500 f   libxml2d:HTMLparser.obj
 0001:00108540       _htmlNewDocNoDtD           10109540 f   libxml2d:HTMLparser.obj
 0001:00108660       _htmlNewDoc                10109660 f   libxml2d:HTMLparser.obj
 0001:001086a0       _htmlParseEntityRef        101096a0 f   libxml2d:HTMLparser.obj
 0001:001093c0       _htmlParseCharRef          1010a3c0 f   libxml2d:HTMLparser.obj
 0001:001097b0       _htmlParseElement          1010a7b0 f   libxml2d:HTMLparser.obj
 0001:0010ecb0       _htmlParseDocument         1010fcb0 f   libxml2d:HTMLparser.obj
 0001:0010f040       _htmlFreeParserCtxt        10110040 f   libxml2d:HTMLparser.obj
 0001:0010f060       _htmlCreateMemoryParserCtxt 10110060 f   libxml2d:HTMLparser.obj
 0001:0010f550       _htmlParseChunk            10110550 f   libxml2d:HTMLparser.obj
 0001:00110f10       _htmlCreatePushParserCtxt  10111f10 f   libxml2d:HTMLparser.obj
 0001:00111340       _htmlSAXParseDoc           10112340 f   libxml2d:HTMLparser.obj
 0001:00111570       _htmlParseDoc              10112570 f   libxml2d:HTMLparser.obj
 0001:00111590       _htmlCreateFileParserCtxt  10112590 f   libxml2d:HTMLparser.obj
 0001:00111750       _htmlSAXParseFile          10112750 f   libxml2d:HTMLparser.obj
 0001:00111800       _htmlParseFile             10112800 f   libxml2d:HTMLparser.obj
 0001:00111820       _htmlHandleOmittedElem     10112820 f   libxml2d:HTMLparser.obj
 0001:00111850       _htmlElementAllowedHere    10112850 f   libxml2d:HTMLparser.obj
 0001:001118c0       _htmlElementStatusHere     101128c0 f   libxml2d:HTMLparser.obj
 0001:00111910       _htmlAttrAllowed           10112910 f   libxml2d:HTMLparser.obj
 0001:00111a20       _htmlNodeStatus            10112a20 f   libxml2d:HTMLparser.obj
 0001:00111b00       _xmlMallocBreakpoint       10112b00 f   libxml2d:xmlmemory.obj
 0001:00111b40       _xmlMallocLoc              10112b40 f   libxml2d:xmlmemory.obj
 0001:00111c90       _xmlMallocAtomicLoc        10112c90 f   libxml2d:xmlmemory.obj
 0001:00111de0       _xmlMemMalloc              10112de0 f   libxml2d:xmlmemory.obj
 0001:00111e00       _xmlReallocLoc             10112e00 f   libxml2d:xmlmemory.obj
 0001:00111f70       _xmlMemRealloc             10112f70 f   libxml2d:xmlmemory.obj
 0001:00111fa0       _xmlMemFree                10112fa0 f   libxml2d:xmlmemory.obj
 0001:001120c0       _xmlMemStrdupLoc           101130c0 f   libxml2d:xmlmemory.obj
 0001:00112220       _xmlMemoryStrdup           10113220 f   libxml2d:xmlmemory.obj
 0001:00112240       _xmlMemUsed                10113240 f   libxml2d:xmlmemory.obj
 0001:00112250       _xmlMemShow                10113250 f   libxml2d:xmlmemory.obj
 0001:00112610       _xmlMemDisplay             10113610 f   libxml2d:xmlmemory.obj
 0001:001128e0       _xmlMemoryDump             101138e0 f   libxml2d:xmlmemory.obj
 0001:00112960       _xmlInitMemory             10113960 f   libxml2d:xmlmemory.obj
 0001:00112a10       _xmlMemSetup               10113a10 f   libxml2d:xmlmemory.obj
 0001:00112a70       _xmlMemGet                 10113a70 f   libxml2d:xmlmemory.obj
 0001:00112ac0       _xmlGcMemSetup             10113ac0 f   libxml2d:xmlmemory.obj
 0001:00112b30       _xmlGcMemGet               10113b30 f   libxml2d:xmlmemory.obj
 0001:00112b90       _xmlRegNewExecCtxt         10113b90 f   libxml2d:xmlregexp.obj
 0001:00112d30       _xmlRegFreeExecCtxt        10113d30 f   libxml2d:xmlregexp.obj
 0001:00112e90       _xmlRegExecPushString      10113e90 f   libxml2d:xmlregexp.obj
 0001:00113cb0       _xmlRegExecPushString2     10114cb0 f   libxml2d:xmlregexp.obj
 0001:00113ee0       _xmlRegexpPrint            10114ee0 f   libxml2d:xmlregexp.obj
 0001:00114af0       _xmlRegexpCompile          10115af0 f   libxml2d:xmlregexp.obj
 0001:00118ca0       _xmlRegexpExec             10119ca0 f   libxml2d:xmlregexp.obj
 0001:00119ae0       _xmlRegexpIsDeterminist    1011aae0 f   libxml2d:xmlregexp.obj
 0001:00119fb0       _xmlRegFreeRegexp          1011afb0 f   libxml2d:xmlregexp.obj
 0001:0011a180       _xmlNewAutomata            1011b180 f   libxml2d:xmlregexp.obj
 0001:0011a230       _xmlFreeAutomata           1011b230 f   libxml2d:xmlregexp.obj
 0001:0011a250       _xmlAutomataGetInitState   1011b250 f   libxml2d:xmlregexp.obj
 0001:0011a270       _xmlAutomataSetFinalState  1011b270 f   libxml2d:xmlregexp.obj
 0001:0011a2a0       _xmlAutomataNewTransition  1011b2a0 f   libxml2d:xmlregexp.obj
 0001:0011a350       _xmlAutomataNewTransition2 1011b350 f   libxml2d:xmlregexp.obj
 0001:0011a4d0       _xmlAutomataNewCountTrans  1011b4d0 f   libxml2d:xmlregexp.obj
 0001:0011a5f0       _xmlAutomataNewOnceTrans   1011b5f0 f   libxml2d:xmlregexp.obj
 0001:0011a760       _xmlAutomataNewState       1011b760 f   libxml2d:xmlregexp.obj
 0001:0011a7b0       _xmlAutomataNewEpsilon     1011b7b0 f   libxml2d:xmlregexp.obj
 0001:0011a800       _xmlAutomataNewAllTrans    1011b800 f   libxml2d:xmlregexp.obj
 0001:0011a8d0       _xmlAutomataNewCounter     1011b8d0 f   libxml2d:xmlregexp.obj
 0001:0011a930       _xmlAutomataNewCountedTrans 1011b930 f   libxml2d:xmlregexp.obj
 0001:0011a980       _xmlAutomataNewCounterTrans 1011b980 f   libxml2d:xmlregexp.obj
 0001:0011a9d0       _xmlAutomataCompile        1011b9d0 f   libxml2d:xmlregexp.obj
 0001:0011aa20       _xmlAutomataIsDeterminist  1011ba20 f   libxml2d:xmlregexp.obj
 0001:0011aa60       _xmlSchemaInitTypes        1011ba60 f   libxml2d:xmlschemastypes.obj
 0001:0011aee0       _xmlSchemaCleanupTypes     1011bee0 f   libxml2d:xmlschemastypes.obj
 0001:0011af20       _xmlSchemaFreeValue        1011bf20 f   libxml2d:xmlschemastypes.obj
 0001:0011b020       _xmlSchemaGetPredefinedType 1011c020 f   libxml2d:xmlschemastypes.obj
 0001:0011b060       _xmlSchemaValPredefTypeNode 1011c060 f   libxml2d:xmlschemastypes.obj
 0001:0011ec60       _xmlSchemaValidatePredefinedType 1011fc60 f   libxml2d:xmlschemastypes.obj
 0001:0011ec90       _xmlSchemaCompareValues    1011fc90 f   libxml2d:xmlschemastypes.obj
 0001:00120ec0       _xmlSchemaValidateFacet    10121ec0 f   libxml2d:xmlschemastypes.obj
 0001:00121510       _xmlDebugDumpString        10122510 f   libxml2d:debugXML.obj
 0001:00121630       _xmlDebugDumpAttr          10122630 f   libxml2d:debugXML.obj
 0001:00121830       _xmlDebugDumpAttrList      10122830 f   libxml2d:debugXML.obj
 0001:00121870       _xmlDebugDumpOneNode       10122870 f   libxml2d:debugXML.obj
 0001:00123200       _xmlDebugDumpNode          10124200 f   libxml2d:debugXML.obj
 0001:00123320       _xmlDebugDumpNodeList      10124320 f   libxml2d:debugXML.obj
 0001:00123360       _xmlDebugDumpDocumentHead  10124360 f   libxml2d:debugXML.obj
 0001:00123650       _xmlDebugDumpDocument      10124650 f   libxml2d:debugXML.obj
 0001:001236d0       _xmlDebugDumpDTD           101246d0 f   libxml2d:debugXML.obj
 0001:001238b0       _xmlDebugDumpEntities      101248b0 f   libxml2d:debugXML.obj
 0001:00123ce0       _xmlLsCountNode            10124ce0 f   libxml2d:debugXML.obj
 0001:00123de0       _xmlLsOneNode              10124de0 f   libxml2d:debugXML.obj
 0001:00124220       _xmlBoolToText             10125220 f   libxml2d:debugXML.obj
 0001:00124240       _xmlShellPrintXPathError   10125240 f   libxml2d:debugXML.obj
 0001:00124430       _xmlShellPrintNode         10125430 f   libxml2d:debugXML.obj
 0001:001244f0       _xmlShellPrintXPathResult  101254f0 f   libxml2d:debugXML.obj
 0001:001246a0       _xmlShellList              101256a0 f   libxml2d:debugXML.obj
 0001:00124780       _xmlShellBase              10125780 f   libxml2d:debugXML.obj
 0001:00124830       _xmlShellDir               10125830 f   libxml2d:debugXML.obj
 0001:001248d0       _xmlShellCat               101258d0 f   libxml2d:debugXML.obj
 0001:001249a0       _xmlShellLoad              101259a0 f   libxml2d:debugXML.obj
 0001:00124aa0       _xmlShellWrite             10125aa0 f   libxml2d:debugXML.obj
 0001:00124c10       _xmlShellSave              10125c10 f   libxml2d:debugXML.obj
 0001:00124d10       _xmlShellValidate          10125d10 f   libxml2d:debugXML.obj
 0001:00124df0       _xmlShellDu                10125df0 f   libxml2d:debugXML.obj
 0001:00124fc0       _xmlShellPwd               10125fc0 f   libxml2d:debugXML.obj
 0001:00125040       _xmlShell                  10126040 f   libxml2d:debugXML.obj
 0001:00126710       _xmlXPtrNewRange           10127710 f   libxml2d:xpointer.obj
 0001:00126900       _xmlXPtrNewRangePoints     10127900 f   libxml2d:xpointer.obj
 0001:001269f0       _xmlXPtrNewRangePointNode  101279f0 f   libxml2d:xpointer.obj
 0001:00126ad0       _xmlXPtrNewRangeNodePoint  10127ad0 f   libxml2d:xpointer.obj
 0001:00126bc0       _xmlXPtrNewRangeNodes      10127bc0 f   libxml2d:xpointer.obj
 0001:00126c90       _xmlXPtrNewCollapsedRange  10127c90 f   libxml2d:xpointer.obj
 0001:00126d40       _xmlXPtrNewRangeNodeObject 10127d40 f   libxml2d:xpointer.obj
 0001:00126ee0       _xmlXPtrLocationSetCreate  10127ee0 f   libxml2d:xpointer.obj
 0001:00126fe0       _xmlXPtrLocationSetAdd     10127fe0 f   libxml2d:xpointer.obj
 0001:001271f0       _xmlXPtrLocationSetMerge   101281f0 f   libxml2d:xpointer.obj
 0001:00127260       _xmlXPtrLocationSetDel     10128260 f   libxml2d:xpointer.obj
 0001:00127320       _xmlXPtrLocationSetRemove  10128320 f   libxml2d:xpointer.obj
 0001:00127390       _xmlXPtrFreeLocationSet    10128390 f   libxml2d:xpointer.obj
 0001:00127420       _xmlXPtrNewLocationSetNodes 10128420 f   libxml2d:xpointer.obj
 0001:001274e0       _xmlXPtrNewLocationSetNodeSet 101284e0 f   libxml2d:xpointer.obj
 0001:001275d0       _xmlXPtrWrapLocationSet    101285d0 f   libxml2d:xpointer.obj
 0001:00127650       _xmlXPtrNewContext         10128650 f   libxml2d:xpointer.obj
 0001:00127760       _xmlXPtrEval               10128760 f   libxml2d:xpointer.obj
 0001:00128790       _xmlXPtrBuildNodeList      10129790 f   libxml2d:xpointer.obj
 0001:00128e90       _xmlXPtrHereFunction       10129e90 f   libxml2d:xpointer.obj
 0001:00128f20       _xmlXPtrOriginFunction     10129f20 f   libxml2d:xpointer.obj
 0001:00128fb0       _xmlXPtrStartPointFunction 10129fb0 f   libxml2d:xpointer.obj
 0001:001292c0       _xmlXPtrEndPointFunction   1012a2c0 f   libxml2d:xpointer.obj
 0001:001295f0       _xmlXPtrRangeFunction      1012a5f0 f   libxml2d:xpointer.obj
 0001:001299f0       _xmlXPtrRangeInsideFunction 1012a9f0 f   libxml2d:xpointer.obj
 0001:00129d90       _xmlXPtrRangeToFunction    1012ad90 f   libxml2d:xpointer.obj
 0001:00129fc0       _xmlXPtrAdvanceNode        1012afc0 f   libxml2d:xpointer.obj
 0001:0012a0a0       _xmlXPtrStringRangeFunction 1012b0a0 f   libxml2d:xpointer.obj
 0001:0012ad50       _xmlXPtrEvalRangePredicate 1012bd50 f   libxml2d:xpointer.obj
 0001:0012b1d0       _xmlNanoFTPInit            1012c1d0 f   libxml2d:nanoftp.obj
 0001:0012b350       _xmlNanoFTPCleanup         1012c350 f   libxml2d:nanoftp.obj
 0001:0012b410       _xmlNanoFTPProxy           1012c410 f   libxml2d:nanoftp.obj
 0001:0012b500       _xmlNanoFTPUpdateURL       1012c500 f   libxml2d:nanoftp.obj
 0001:0012bab0       _xmlNanoFTPScanProxy       1012cab0 f   libxml2d:nanoftp.obj
 0001:0012bf50       _xmlNanoFTPNewCtxt         1012cf50 f   libxml2d:nanoftp.obj
 0001:0012c750       _xmlNanoFTPFreeCtxt        1012d750 f   libxml2d:nanoftp.obj
 0001:0012c850       _xmlNanoFTPGetResponse     1012d850 f   libxml2d:nanoftp.obj
 0001:0012ccd0       _xmlNanoFTPCheckResponse   1012dcd0 f   libxml2d:nanoftp.obj
 0001:0012ce40       _xmlNanoFTPQuit            1012de40 f   libxml2d:nanoftp.obj
 0001:0012cf10       _xmlNanoFTPConnect         1012df10 f   libxml2d:nanoftp.obj
 0001:0012da40       _xmlNanoFTPConnectTo       1012ea40 f   libxml2d:nanoftp.obj
 0001:0012dae0       _xmlNanoFTPCwd             1012eae0 f   libxml2d:nanoftp.obj
 0001:0012dc10       _xmlNanoFTPDele            1012ec10 f   libxml2d:nanoftp.obj
 0001:0012dd40       _xmlNanoFTPGetConnection   1012ed40 f   libxml2d:nanoftp.obj
 0001:0012e3e0       _xmlNanoFTPCloseConnection 1012f3e0 f   libxml2d:nanoftp.obj
 0001:0012e670       _xmlNanoFTPList            1012f670 f   libxml2d:nanoftp.obj
 0001:0012f3a0       _xmlNanoFTPGetSocket       101303a0 f   libxml2d:nanoftp.obj
 0001:0012f630       _xmlNanoFTPGet             10130630 f   libxml2d:nanoftp.obj
 0001:0012f950       _xmlNanoFTPRead            10130950 f   libxml2d:nanoftp.obj
 0001:0012f9e0       _xmlNanoFTPOpen            101309e0 f   libxml2d:nanoftp.obj
 0001:0012faa0       _xmlNanoFTPClose           10130aa0 f   libxml2d:nanoftp.obj
 0001:0012fb40       _xmlUCSIsAlphabeticPresentationForms 10130b40 f   libxml2d:xmlunicode.obj
 0001:0012fb80       _xmlUCSIsArabic            10130b80 f   libxml2d:xmlunicode.obj
 0001:0012fbc0       _xmlUCSIsArabicPresentationFormsA 10130bc0 f   libxml2d:xmlunicode.obj
 0001:0012fc00       _xmlUCSIsArabicPresentationFormsB 10130c00 f   libxml2d:xmlunicode.obj
 0001:0012fc40       _xmlUCSIsArmenian          10130c40 f   libxml2d:xmlunicode.obj
 0001:0012fc80       _xmlUCSIsArrows            10130c80 f   libxml2d:xmlunicode.obj
 0001:0012fcc0       _xmlUCSIsBasicLatin        10130cc0 f   libxml2d:xmlunicode.obj
 0001:0012fcf0       _xmlUCSIsBengali           10130cf0 f   libxml2d:xmlunicode.obj
 0001:0012fd30       _xmlUCSIsBlockElements     10130d30 f   libxml2d:xmlunicode.obj
 0001:0012fd70       _xmlUCSIsBopomofo          10130d70 f   libxml2d:xmlunicode.obj
 0001:0012fdb0       _xmlUCSIsBopomofoExtended  10130db0 f   libxml2d:xmlunicode.obj
 0001:0012fdf0       _xmlUCSIsBoxDrawing        10130df0 f   libxml2d:xmlunicode.obj
 0001:0012fe30       _xmlUCSIsBraillePatterns   10130e30 f   libxml2d:xmlunicode.obj
 0001:0012fe70       _xmlUCSIsByzantineMusicalSymbols 10130e70 f   libxml2d:xmlunicode.obj
 0001:0012feb0       _xmlUCSIsCJKCompatibility  10130eb0 f   libxml2d:xmlunicode.obj
 0001:0012fef0       _xmlUCSIsCJKCompatibilityForms 10130ef0 f   libxml2d:xmlunicode.obj
 0001:0012ff30       _xmlUCSIsCJKCompatibilityIdeographs 10130f30 f   libxml2d:xmlunicode.obj
 0001:0012ff70       _xmlUCSIsCJKCompatibilityIdeographsSupplement 10130f70 f   libxml2d:xmlunicode.obj
 0001:0012ffb0       _xmlUCSIsCJKRadicalsSupplement 10130fb0 f   libxml2d:xmlunicode.obj
 0001:0012fff0       _xmlUCSIsCJKSymbolsandPunctuation 10130ff0 f   libxml2d:xmlunicode.obj
 0001:00130030       _xmlUCSIsCJKUnifiedIdeographs 10131030 f   libxml2d:xmlunicode.obj
 0001:00130070       _xmlUCSIsCJKUnifiedIdeographsExtensionA 10131070 f   libxml2d:xmlunicode.obj
 0001:001300b0       _xmlUCSIsCJKUnifiedIdeographsExtensionB 101310b0 f   libxml2d:xmlunicode.obj
 0001:001300f0       _xmlUCSIsCherokee          101310f0 f   libxml2d:xmlunicode.obj
 0001:00130130       _xmlUCSIsCombiningDiacriticalMarks 10131130 f   libxml2d:xmlunicode.obj
 0001:00130170       _xmlUCSIsCombiningHalfMarks 10131170 f   libxml2d:xmlunicode.obj
 0001:001301b0       _xmlUCSIsCombiningMarksforSymbols 101311b0 f   libxml2d:xmlunicode.obj
 0001:001301f0       _xmlUCSIsControlPictures   101311f0 f   libxml2d:xmlunicode.obj
 0001:00130230       _xmlUCSIsCurrencySymbols   10131230 f   libxml2d:xmlunicode.obj
 0001:00130270       _xmlUCSIsCyrillic          10131270 f   libxml2d:xmlunicode.obj
 0001:001302b0       _xmlUCSIsDeseret           101312b0 f   libxml2d:xmlunicode.obj
 0001:001302f0       _xmlUCSIsDevanagari        101312f0 f   libxml2d:xmlunicode.obj
 0001:00130330       _xmlUCSIsDingbats          10131330 f   libxml2d:xmlunicode.obj
 0001:00130370       _xmlUCSIsEnclosedAlphanumerics 10131370 f   libxml2d:xmlunicode.obj
 0001:001303b0       _xmlUCSIsEnclosedCJKLettersandMonths 101313b0 f   libxml2d:xmlunicode.obj
 0001:001303f0       _xmlUCSIsEthiopic          101313f0 f   libxml2d:xmlunicode.obj
 0001:00130430       _xmlUCSIsGeneralPunctuation 10131430 f   libxml2d:xmlunicode.obj
 0001:00130470       _xmlUCSIsGeometricShapes   10131470 f   libxml2d:xmlunicode.obj
 0001:001304b0       _xmlUCSIsGeorgian          101314b0 f   libxml2d:xmlunicode.obj
 0001:001304f0       _xmlUCSIsGothic            101314f0 f   libxml2d:xmlunicode.obj
 0001:00130530       _xmlUCSIsGreek             10131530 f   libxml2d:xmlunicode.obj
 0001:00130570       _xmlUCSIsGreekExtended     10131570 f   libxml2d:xmlunicode.obj
 0001:001305b0       _xmlUCSIsGujarati          101315b0 f   libxml2d:xmlunicode.obj
 0001:001305f0       _xmlUCSIsGurmukhi          101315f0 f   libxml2d:xmlunicode.obj
 0001:00130630       _xmlUCSIsHalfwidthandFullwidthForms 10131630 f   libxml2d:xmlunicode.obj
 0001:00130670       _xmlUCSIsHangulCompatibilityJamo 10131670 f   libxml2d:xmlunicode.obj
 0001:001306b0       _xmlUCSIsHangulJamo        101316b0 f   libxml2d:xmlunicode.obj
 0001:001306f0       _xmlUCSIsHangulSyllables   101316f0 f   libxml2d:xmlunicode.obj
 0001:00130730       _xmlUCSIsHebrew            10131730 f   libxml2d:xmlunicode.obj
 0001:00130770       _xmlUCSIsHighPrivateUseSurrogates 10131770 f   libxml2d:xmlunicode.obj
 0001:001307b0       _xmlUCSIsHighSurrogates    101317b0 f   libxml2d:xmlunicode.obj
 0001:001307f0       _xmlUCSIsHiragana          101317f0 f   libxml2d:xmlunicode.obj
 0001:00130830       _xmlUCSIsIPAExtensions     10131830 f   libxml2d:xmlunicode.obj
 0001:00130870       _xmlUCSIsIdeographicDescriptionCharacters 10131870 f   libxml2d:xmlunicode.obj
 0001:001308b0       _xmlUCSIsKanbun            101318b0 f   libxml2d:xmlunicode.obj
 0001:001308f0       _xmlUCSIsKangxiRadicals    101318f0 f   libxml2d:xmlunicode.obj
 0001:00130930       _xmlUCSIsKannada           10131930 f   libxml2d:xmlunicode.obj
 0001:00130970       _xmlUCSIsKatakana          10131970 f   libxml2d:xmlunicode.obj
 0001:001309b0       _xmlUCSIsKhmer             101319b0 f   libxml2d:xmlunicode.obj
 0001:001309f0       _xmlUCSIsLao               101319f0 f   libxml2d:xmlunicode.obj
 0001:00130a30       _xmlUCSIsLatin1Supplement  10131a30 f   libxml2d:xmlunicode.obj
 0001:00130a70       _xmlUCSIsLatinExtendedA    10131a70 f   libxml2d:xmlunicode.obj
 0001:00130ab0       _xmlUCSIsLatinExtendedB    10131ab0 f   libxml2d:xmlunicode.obj
 0001:00130af0       _xmlUCSIsLatinExtendedAdditional 10131af0 f   libxml2d:xmlunicode.obj
 0001:00130b30       _xmlUCSIsLetterlikeSymbols 10131b30 f   libxml2d:xmlunicode.obj
 0001:00130b70       _xmlUCSIsLowSurrogates     10131b70 f   libxml2d:xmlunicode.obj
 0001:00130bb0       _xmlUCSIsMalayalam         10131bb0 f   libxml2d:xmlunicode.obj
 0001:00130bf0       _xmlUCSIsMathematicalAlphanumericSymbols 10131bf0 f   libxml2d:xmlunicode.obj
 0001:00130c30       _xmlUCSIsMathematicalOperators 10131c30 f   libxml2d:xmlunicode.obj
 0001:00130c70       _xmlUCSIsMiscellaneousSymbols 10131c70 f   libxml2d:xmlunicode.obj
 0001:00130cb0       _xmlUCSIsMiscellaneousTechnical 10131cb0 f   libxml2d:xmlunicode.obj
 0001:00130cf0       _xmlUCSIsMongolian         10131cf0 f   libxml2d:xmlunicode.obj
 0001:00130d30       _xmlUCSIsMusicalSymbols    10131d30 f   libxml2d:xmlunicode.obj
 0001:00130d70       _xmlUCSIsMyanmar           10131d70 f   libxml2d:xmlunicode.obj
 0001:00130db0       _xmlUCSIsNumberForms       10131db0 f   libxml2d:xmlunicode.obj
 0001:00130df0       _xmlUCSIsOgham             10131df0 f   libxml2d:xmlunicode.obj
 0001:00130e30       _xmlUCSIsOldItalic         10131e30 f   libxml2d:xmlunicode.obj
 0001:00130e70       _xmlUCSIsOpticalCharacterRecognition 10131e70 f   libxml2d:xmlunicode.obj
 0001:00130eb0       _xmlUCSIsOriya             10131eb0 f   libxml2d:xmlunicode.obj
 0001:00130ef0       _xmlUCSIsPrivateUse        10131ef0 f   libxml2d:xmlunicode.obj
 0001:00130f30       _xmlUCSIsRunic             10131f30 f   libxml2d:xmlunicode.obj
 0001:00130f70       _xmlUCSIsSinhala           10131f70 f   libxml2d:xmlunicode.obj
 0001:00130fb0       _xmlUCSIsSmallFormVariants 10131fb0 f   libxml2d:xmlunicode.obj
 0001:00130ff0       _xmlUCSIsSpacingModifierLetters 10131ff0 f   libxml2d:xmlunicode.obj
 0001:00131030       _xmlUCSIsSpecials          10132030 f   libxml2d:xmlunicode.obj
 0001:00131070       _xmlUCSIsSuperscriptsandSubscripts 10132070 f   libxml2d:xmlunicode.obj
 0001:001310b0       _xmlUCSIsSyriac            101320b0 f   libxml2d:xmlunicode.obj
 0001:001310f0       _xmlUCSIsTags              101320f0 f   libxml2d:xmlunicode.obj
 0001:00131130       _xmlUCSIsTamil             10132130 f   libxml2d:xmlunicode.obj
 0001:00131170       _xmlUCSIsTelugu            10132170 f   libxml2d:xmlunicode.obj
 0001:001311b0       _xmlUCSIsThaana            101321b0 f   libxml2d:xmlunicode.obj
 0001:001311f0       _xmlUCSIsThai              101321f0 f   libxml2d:xmlunicode.obj
 0001:00131230       _xmlUCSIsTibetan           10132230 f   libxml2d:xmlunicode.obj
 0001:00131270       _xmlUCSIsUnifiedCanadianAboriginalSyllabics 10132270 f   libxml2d:xmlunicode.obj
 0001:001312b0       _xmlUCSIsYiRadicals        101322b0 f   libxml2d:xmlunicode.obj
 0001:001312f0       _xmlUCSIsYiSyllables       101322f0 f   libxml2d:xmlunicode.obj
 0001:00131330       _xmlUCSIsBlock             10132330 f   libxml2d:xmlunicode.obj
 0001:00132180       _xmlUCSIsCatC              10133180 f   libxml2d:xmlunicode.obj
 0001:001322f0       _xmlUCSIsCatCc             101332f0 f   libxml2d:xmlunicode.obj
 0001:00132330       _xmlUCSIsCatCf             10133330 f   libxml2d:xmlunicode.obj
 0001:00132400       _xmlUCSIsCatCo             10133400 f   libxml2d:xmlunicode.obj
 0001:00132460       _xmlUCSIsCatCs             10133460 f   libxml2d:xmlunicode.obj
 0001:001324c0       _xmlUCSIsCatL              101334c0 f   libxml2d:xmlunicode.obj
 0001:00133c10       _xmlUCSIsCatLl             10134c10 f   libxml2d:xmlunicode.obj
 0001:00135330       _xmlUCSIsCatLm             10136330 f   libxml2d:xmlunicode.obj
 0001:00135470       _xmlUCSIsCatLo             10136470 f   libxml2d:xmlunicode.obj
 0001:001363c0       _xmlUCSIsCatLt             101373c0 f   libxml2d:xmlunicode.obj
 0001:00136460       _xmlUCSIsCatLu             10137460 f   libxml2d:xmlunicode.obj
 0001:00137b60       _xmlUCSIsCatM              10138b60 f   libxml2d:xmlunicode.obj
 0001:001383a0       _xmlUCSIsCatMc             101393a0 f   libxml2d:xmlunicode.obj
 0001:001387b0       _xmlUCSIsCatMe             101397b0 f   libxml2d:xmlunicode.obj
 0001:00138820       _xmlUCSIsCatMn             10139820 f   libxml2d:xmlunicode.obj
 0001:00138f30       _xmlUCSIsCatN              10139f30 f   libxml2d:xmlunicode.obj
 0001:00139290       _xmlUCSIsCatNd             1013a290 f   libxml2d:xmlunicode.obj
 0001:00139460       _xmlUCSIsCatNl             1013a460 f   libxml2d:xmlunicode.obj
 0001:001394e0       _xmlUCSIsCatNo             1013a4e0 f   libxml2d:xmlunicode.obj
 0001:00139660       _xmlUCSIsCatP              1013a660 f   libxml2d:xmlunicode.obj
 0001:00139b90       _xmlUCSIsCatPc             1013ab90 f   libxml2d:xmlunicode.obj
 0001:00139c10       _xmlUCSIsCatPd             1013ac10 f   libxml2d:xmlunicode.obj
 0001:00139cb0       _xmlUCSIsCatPe             1013acb0 f   libxml2d:xmlunicode.obj
 0001:00139e70       _xmlUCSIsCatPf             1013ae70 f   libxml2d:xmlunicode.obj
 0001:00139ec0       _xmlUCSIsCatPi             1013aec0 f   libxml2d:xmlunicode.obj
 0001:00139f20       _xmlUCSIsCatPo             1013af20 f   libxml2d:xmlunicode.obj
 0001:0013a390       _xmlUCSIsCatPs             1013b390 f   libxml2d:xmlunicode.obj
 0001:0013a560       _xmlUCSIsCatS              1013b560 f   libxml2d:xmlunicode.obj
 0001:0013af90       _xmlUCSIsCatSc             1013bf90 f   libxml2d:xmlunicode.obj
 0001:0013b040       _xmlUCSIsCatSk             1013c040 f   libxml2d:xmlunicode.obj
 0001:0013b1d0       _xmlUCSIsCatSm             1013c1d0 f   libxml2d:xmlunicode.obj
 0001:0013b470       _xmlUCSIsCatSo             1013c470 f   libxml2d:xmlunicode.obj
 0001:0013bc80       _xmlUCSIsCatZ              1013cc80 f   libxml2d:xmlunicode.obj
 0001:0013bcf0       _xmlUCSIsCatZl             1013ccf0 f   libxml2d:xmlunicode.obj
 0001:0013bd10       _xmlUCSIsCatZp             1013cd10 f   libxml2d:xmlunicode.obj
 0001:0013bd30       _xmlUCSIsCatZs             1013cd30 f   libxml2d:xmlunicode.obj
 0001:0013bd90       _xmlUCSIsCat               1013cd90 f   libxml2d:xmlunicode.obj
 0001:0013c2ec       _VerQueryValueA@16         1013d2ec f   version:VERSION.dll
 0001:0013c2f2       _GetFileVersionInfoA@16    1013d2f2 f   version:VERSION.dll
 0001:0013c2f8       _GetFileVersionInfoSizeA@8 1013d2f8 f   version:VERSION.dll
 0001:0013c2fe       _StrStrIA@8                1013d2fe f   shlwapi:SHLWAPI.dll
 0001:0013c304       _StrChrA@8                 1013d304 f   shlwapi:SHLWAPI.dll
 0001:0013c30a       _ldap_msgfree              1013d30a f   wldap32:WLDAP32.dll
 0001:0013c310       _ldap_unbind               1013d310 f   wldap32:WLDAP32.dll
 0001:0013c316       _ber_free                  1013d316 f   wldap32:WLDAP32.dll
 0001:0013c31c       _ldap_memfree              1013d31c f   wldap32:WLDAP32.dll
 0001:0013c322       _ldap_value_free_len       1013d322 f   wldap32:WLDAP32.dll
 0001:0013c328       _ldap_get_values_len       1013d328 f   wldap32:WLDAP32.dll
 0001:0013c32e       _ldap_first_attribute      1013d32e f   wldap32:WLDAP32.dll
 0001:0013c334       _ldap_first_entry          1013d334 f   wldap32:WLDAP32.dll
 0001:0013c33a       _ldap_count_entries        1013d33a f   wldap32:WLDAP32.dll
 0001:0013c340       _ldap_search_s             1013d340 f   wldap32:WLDAP32.dll
 0001:0013c346       _ldap_simple_bind_s        1013d346 f   wldap32:WLDAP32.dll
 0001:0013c34c       _ldap_connect              1013d34c f   wldap32:WLDAP32.dll
 0001:0013c352       _ldap_set_option           1013d352 f   wldap32:WLDAP32.dll
 0001:0013c358       _ldap_init                 1013d358 f   wldap32:WLDAP32.dll
 0001:0013c360       _gzsetparams               1013d360 f   zlib:gzio.obj
 0001:0013c8d0       _gzwrite                   1013d8d0 f   zlib:gzio.obj
 0001:0013c970       _gzprintf                  1013d970 f   zlib:gzio.obj
 0001:0013ca00       _gzputc                    1013da00 f   zlib:gzio.obj
 0001:0013ca30       _gzputs                    1013da30 f   zlib:gzio.obj
 0001:0013cb20       _gzflush                   1013db20 f   zlib:gzio.obj
 0001:0013cb60       _gzrewind                  1013db60 f   zlib:gzio.obj
 0001:0013cbd0       _gzeof                     1013dbd0 f   zlib:gzio.obj
 0001:0013cc60       _gzclose                   1013dc60 f   zlib:gzio.obj
 0001:0013ccb0       _gzerror                   1013dcb0 f   zlib:gzio.obj
 0001:0013d010       _gzopen                    1013e010 f   zlib:gzio.obj
 0001:0013d030       _gzdopen                   1013e030 f   zlib:gzio.obj
 0001:0013d090       _gzread                    1013e090 f   zlib:gzio.obj
 0001:0013d2c0       _gzgetc                    1013e2c0 f   zlib:gzio.obj
 0001:0013d2f0       _gzgets                    1013e2f0 f   zlib:gzio.obj
 0001:0013d350       _gzseek                    1013e350 f   zlib:gzio.obj
 0001:0013d4b0       _gztell                    1013e4b0 f   zlib:gzio.obj
 0001:0013d4d0       _deflateSetDictionary      1013e4d0 f   zlib:deflate.obj
 0001:0013d660       _deflate                   1013e660 f   zlib:deflate.obj
 0001:0013d8f0       _deflateEnd                1013e8f0 f   zlib:deflate.obj
 0001:0013d9b0       _deflateCopy               1013e9b0 f   zlib:deflate.obj
 0001:0013e8d0       _deflateReset              1013f8d0 f   zlib:deflate.obj
 0001:0013e950       _deflateParams             1013f950 f   zlib:deflate.obj
 0001:0013ebd0       _deflateInit2_             1013fbd0 f   zlib:deflate.obj
 0001:0013edc0       _deflateInit_              1013fdc0 f   zlib:deflate.obj
 0001:0013edf0       _inflateReset              1013fdf0 f   zlib:inflate.obj
 0001:0013ee40       _inflateEnd                1013fe40 f   zlib:inflate.obj
 0001:0013ee90       _inflateInit2_             1013fe90 f   zlib:inflate.obj
 0001:0013ef90       _inflateInit_              1013ff90 f   zlib:inflate.obj
 0001:0013efb0       _inflate                   1013ffb0 f   zlib:inflate.obj
 0001:0013f3b0       _inflateSetDictionary      101403b0 f   zlib:inflate.obj
 0001:0013f440       _inflateSync               10140440 f   zlib:inflate.obj
 0001:0013f510       _inflateSyncPoint          10140510 f   zlib:inflate.obj
 0001:0013f540       _get_crc_table             10140540 f   zlib:crc32.obj
 0001:0013f550       _crc32                     10140550 f   zlib:crc32.obj
 0001:0013f680       _zlibVersion               10140680 f   zlib:zutil.obj
 0001:0013f690       _zError                    10140690 f   zlib:zutil.obj
 0001:0013f6b0       _zcalloc                   101406b0 f   zlib:zutil.obj
 0001:0013f6d0       _zcfree                    101406d0 f   zlib:zutil.obj
 0001:0013f6e0       _adler32                   101406e0 f   zlib:adler32.obj
 0001:00140400       __tr_tally                 10141400 f   zlib:trees.obj
 0001:00140b00       __tr_init                  10141b00 f   zlib:trees.obj
 0001:00140e70       __tr_stored_block          10141e70 f   zlib:trees.obj
 0001:00140f10       __tr_align                 10141f10 f   zlib:trees.obj
 0001:00141110       __tr_flush_block           10142110 f   zlib:trees.obj
 0001:00141300       _inflate_blocks_reset      10142300 f   zlib:infblock.obj
 0001:00141380       _inflate_blocks_new        10142380 f   zlib:infblock.obj
 0001:00141420       _inflate_blocks            10142420 f   zlib:infblock.obj
 0001:00141fb0       _inflate_blocks_free       10142fb0 f   zlib:infblock.obj
 0001:00142040       _inflate_set_dictionary    10143040 f   zlib:infblock.obj
 0001:00142080       _inflate_blocks_sync_point 10143080 f   zlib:infblock.obj
 0001:00142090       _inflate_codes_new         10143090 f   zlib:infcodes.obj
 0001:001420d0       _inflate_codes             101430d0 f   zlib:infcodes.obj
 0001:001427f0       _inflate_codes_free        101437f0 f   zlib:infcodes.obj
 0001:00142d00       _inflate_trees_bits        10143d00 f   zlib:inftrees.obj
 0001:00142db0       _inflate_trees_dynamic     10143db0 f   zlib:inftrees.obj
 0001:00142f40       _inflate_trees_fixed       10143f40 f   zlib:inftrees.obj
 0001:00142f70       _inflate_flush             10143f70 f   zlib:infutil.obj
 0001:001430a0       _inflate_fast              101440a0 f   zlib:inffast.obj
 0001:00143436       _SystemTimeToFileTime@8    10144436 f   kernel32:KERNEL32.dll
 0001:0014343c       _CompareFileTime@8         1014443c f   kernel32:KERNEL32.dll
 0001:00143442       _GetVersionExA@4           10144442 f   kernel32:KERNEL32.dll
 0001:00143448       _InterlockedExchange@8     10144448 f   kernel32:KERNEL32.dll
 0001:0014344e       _GetACP@0                  1014444e f   kernel32:KERNEL32.dll
 0001:00143454       _GetLocaleInfoA@16         10144454 f   kernel32:KERNEL32.dll
 0001:0014345a       _GetThreadLocale@0         1014445a f   kernel32:KERNEL32.dll
 0001:00143460       _GetEnvironmentVariableW@12 10144460 f   kernel32:KERNEL32.dll
 0001:00143466       _GetVersion@0              10144466 f   kernel32:KERNEL32.dll
 0001:0014346c       _MultiByteToWideChar@24    1014446c f   kernel32:KERNEL32.dll
 0001:00143472       _GetEnvironmentVariableA@12 10144472 f   kernel32:KERNEL32.dll
 0001:00143478       _CompareStringW@24         10144478 f   kernel32:KERNEL32.dll
 0001:0014347e       _CompareStringA@24         1014447e f   kernel32:KERNEL32.dll
 0001:00143484       _lstrlenW@4                10144484 f   kernel32:KERNEL32.dll
 0001:0014348a       _WideCharToMultiByte@32    1014448a f   kernel32:KERNEL32.dll
 0001:00143490       _GetStringTypeExW@20       10144490 f   kernel32:KERNEL32.dll
 0001:00143496       _GetStringTypeExA@20       10144496 f   kernel32:KERNEL32.dll
 0001:0014349c       _lstrcmpiW@8               1014449c f   kernel32:KERNEL32.dll
 0001:001434a2       _lstrcmpiA@8               101444a2 f   kernel32:KERNEL32.dll
 0001:001434a8       _lstrlenA@4                101444a8 f   kernel32:KERNEL32.dll
 0001:001434ae       _GetLastError@0            101444ae f   kernel32:KERNEL32.dll
 0001:001434b4       _InterlockedIncrement@4    101444b4 f   kernel32:KERNEL32.dll
 0001:001434ba       _InterlockedDecrement@4    101444ba f   kernel32:KERNEL32.dll
 0001:001434c0       _LocalAlloc@8              101444c0 f   kernel32:KERNEL32.dll
 0001:001434c6       _FormatMessageA@28         101444c6 f   kernel32:KERNEL32.dll
 0001:001434cc       _GetSystemTime@4           101444cc f   kernel32:KERNEL32.dll
 0001:001434d2       _GetComputerNameA@8        101444d2 f   kernel32:KERNEL32.dll
 0001:001434d8       _FindResourceA@12          101444d8 f   kernel32:KERNEL32.dll
 0001:001434de       _SizeofResource@8          101444de f   kernel32:KERNEL32.dll
 0001:001434e4       _LockResource@4            101444e4 f   kernel32:KERNEL32.dll
 0001:001434ea       _LoadResource@8            101444ea f   kernel32:KERNEL32.dll
 0001:001434f0       _GlobalUnlock@4            101444f0 f   kernel32:KERNEL32.dll
 0001:001434f6       _GlobalLock@4              101444f6 f   kernel32:KERNEL32.dll
 0001:001434fc       _GlobalAlloc@8             101444fc f   kernel32:KERNEL32.dll
 0001:00143502       _SetLastError@4            10144502 f   kernel32:KERNEL32.dll
 0001:00143508       _HeapFree@12               10144508 f   kernel32:KERNEL32.dll
 0001:0014350e       _GetProcessHeap@0          1014450e f   kernel32:KERNEL32.dll
 0001:00143514       _lstrcpyA@8                10144514 f   kernel32:KERNEL32.dll
 0001:0014351a       _LoadLibraryW@4            1014451a f   kernel32:KERNEL32.dll
 0001:00143520       _GetCommandLineA@0         10144520 f   kernel32:KERNEL32.dll
 0001:00143526       _DeleteFileW@4             10144526 f   kernel32:KERNEL32.dll
 0001:0014352c       _DeleteFileA@4             1014452c f   kernel32:KERNEL32.dll
 0001:00143532       _DebugBreak@0              10144532 f   kernel32:KERNEL32.dll
 0001:00143538       _MoveFileA@8               10144538 f   kernel32:KERNEL32.dll
 0001:0014353e       _lstrcmpA@8                1014453e f   kernel32:KERNEL32.dll
 0001:00143544       _WriteFile@20              10144544 f   kernel32:KERNEL32.dll
 0001:0014354a       _CloseHandle@4             1014454a f   kernel32:KERNEL32.dll
 0001:00143550       _CreateFileA@28            10144550 f   kernel32:KERNEL32.dll
 0001:00143556       _GetTempFileNameA@16       10144556 f   kernel32:KERNEL32.dll
 0001:0014355c       _GetTempPathA@8            1014455c f   kernel32:KERNEL32.dll
 0001:00143562       _GetTempPathW@8            10144562 f   kernel32:KERNEL32.dll
 0001:00143568       _GetProcAddress@8          10144568 f   kernel32:KERNEL32.dll
 0001:0014356e       _LoadLibraryA@4            1014456e f   kernel32:KERNEL32.dll
 0001:00143574       _GetFileSize@8             10144574 f   kernel32:KERNEL32.dll
 0001:0014357a       _GetTimeZoneInformation@4  1014457a f   kernel32:KERNEL32.dll
 0001:00143580       _IsBadStringPtrA@8         10144580 f   kernel32:KERNEL32.dll
 0001:00143586       _HeapAlloc@12              10144586 f   kernel32:KERNEL32.dll
 0001:0014358c       _FlushInstructionCache@12  1014458c f   kernel32:KERNEL32.dll
 0001:00143592       _GetCurrentProcess@0       10144592 f   kernel32:KERNEL32.dll
 0001:00143598       _SetSystemTime@4           10144598 f   kernel32:KERNEL32.dll
 0001:0014359e       _DisableThreadLibraryCalls@4 1014459e f   kernel32:KERNEL32.dll
 0001:001435a4       _GetModuleFileNameA@12     101445a4 f   kernel32:KERNEL32.dll
 0001:001435aa       _DeleteCriticalSection@4   101445aa f   kernel32:KERNEL32.dll
 0001:001435b0       _InitializeCriticalSection@4 101445b0 f   kernel32:KERNEL32.dll
 0001:001435b6       _EnterCriticalSection@4    101445b6 f   kernel32:KERNEL32.dll
 0001:001435bc       _LeaveCriticalSection@4    101445bc f   kernel32:KERNEL32.dll
 0001:001435c2       _ReleaseMutex@4            101445c2 f   kernel32:KERNEL32.dll
 0001:001435c8       _WaitForSingleObject@8     101445c8 f   kernel32:KERNEL32.dll
 0001:001435ce       _CreateMutexA@12           101445ce f   kernel32:KERNEL32.dll
 0001:001435d4       _GetCurrentThreadId@0      101445d4 f   kernel32:KERNEL32.dll
 0001:001435da       _GlobalMemoryStatusEx@4    101445da f   kernel32:KERNEL32.dll
 0001:001435e0       _LocalFree@4               101445e0 f   kernel32:KERNEL32.dll
 0001:001435e6       _FileTimeToSystemTime@8    101445e6 f   kernel32:KERNEL32.dll
 0001:001435ec       _CharLowerW@4              101445ec f   user32:USER32.dll
 0001:001435f2       _CharLowerA@4              101445f2 f   user32:USER32.dll
 0001:001435f8       _CharUpperW@4              101445f8 f   user32:USER32.dll
 0001:001435fe       _CharUpperA@4              101445fe f   user32:USER32.dll
 0001:00143604       _GetClientRect@8           10144604 f   user32:USER32.dll
 0001:0014360a       _GetDesktopWindow@0        1014460a f   user32:USER32.dll
 0001:00143610       _wsprintfA                 10144610 f   user32:USER32.dll
 0001:00143616       _SetWindowTextW@8          10144616 f   user32:USER32.dll
 0001:0014361c       _SendMessageA@16           1014461c f   user32:USER32.dll
 0001:00143622       _SendMessageW@16           10144622 f   user32:USER32.dll
 0001:00143628       _IsWindow@4                10144628 f   user32:USER32.dll
 0001:0014362e       _GetDlgItem@8              1014462e f   user32:USER32.dll
 0001:00143634       _SetWindowPos@28           10144634 f   user32:USER32.dll
 0001:0014363a       _MapWindowPoints@16        1014463a f   user32:USER32.dll
 0001:00143640       _SystemParametersInfoA@16  10144640 f   user32:USER32.dll
 0001:00143646       _GetWindowLongA@8          10144646 f   user32:USER32.dll
 0001:0014364c       _GetWindowRect@8           1014464c f   user32:USER32.dll
 0001:00143652       _GetWindow@8               10144652 f   user32:USER32.dll
 0001:00143658       _GetParent@4               10144658 f   user32:USER32.dll
 0001:0014365e       _EndDialog@8               1014465e f   user32:USER32.dll
 0001:00143664       _SetWindowContextHelpId@8  10144664 f   user32:USER32.dll
 0001:0014366a       _MapDialogRect@8           1014466a f   user32:USER32.dll
 0001:00143670       _CreateWindowExA@48        10144670 f   user32:USER32.dll
 0001:00143676       _DestroyWindow@4           10144676 f   user32:USER32.dll
 0001:0014367c       _SetWindowLongA@12         1014467c f   user32:USER32.dll
 0001:00143682       _SendMessageTimeoutA@28    10144682 f   user32:USER32.dll
 0001:00143688       _RegisterWindowMessageA@4  10144688 f   user32:USER32.dll
 0001:0014368e       _FindWindowExA@16          1014468e f   user32:USER32.dll
 0001:00143694       _GetClassNameA@12          10144694 f   user32:USER32.dll
 0001:0014369a       _GetActiveWindow@0         1014469a f   user32:USER32.dll
 0001:001436a0       _MessageBoxA@16            101446a0 f   user32:USER32.dll
 0001:001436a6       _CryptAcquireContextW@20   101446a6 f   advapi32:ADVAPI32.dll
 0001:001436ac       _RegCloseKey@4             101446ac f   advapi32:ADVAPI32.dll
 0001:001436b2       _RegQueryValueExA@24       101446b2 f   advapi32:ADVAPI32.dll
 0001:001436b8       _RegOpenKeyExA@20          101446b8 f   advapi32:ADVAPI32.dll
 0001:001436be       _CryptReleaseContext@8     101446be f   advapi32:ADVAPI32.dll
 0001:001436c4       _CryptAcquireContextA@20   101446c4 f   advapi32:ADVAPI32.dll
 0001:001436ca       _AdjustTokenPrivileges@24  101446ca f   advapi32:ADVAPI32.dll
 0001:001436d0       _LookupPrivilegeValueA@12  101446d0 f   advapi32:ADVAPI32.dll
 0001:001436d6       _OpenProcessToken@12       101446d6 f   advapi32:ADVAPI32.dll
 0001:001436dc       _CryptDestroyHash@4        101446dc f   advapi32:ADVAPI32.dll
 0001:001436e2       _CryptGetHashParam@20      101446e2 f   advapi32:ADVAPI32.dll
 0001:001436e8       _CryptHashData@16          101446e8 f   advapi32:ADVAPI32.dll
 0001:001436ee       _CryptSetHashParam@16      101446ee f   advapi32:ADVAPI32.dll
 0001:001436f4       _CryptCreateHash@20        101446f4 f   advapi32:ADVAPI32.dll
 0001:001436fa       _CryptDestroyKey@4         101446fa f   advapi32:ADVAPI32.dll
 0001:00143700       _CryptVerifySignatureA@24  10144700 f   advapi32:ADVAPI32.dll
 0001:00143706       _CryptImportKey@24         10144706 f   advapi32:ADVAPI32.dll
 0001:0014370c       _CryptSignHashA@24         1014470c f   advapi32:ADVAPI32.dll
 0001:00143712       _CryptExportKey@24         10144712 f   advapi32:ADVAPI32.dll
 0001:00143718       _CryptGetUserKey@12        10144718 f   advapi32:ADVAPI32.dll
 0001:0014371e       _CryptGenKey@16            1014471e f   advapi32:ADVAPI32.dll
 0001:00143724       _CryptGenRandom@12         10144724 f   advapi32:ADVAPI32.dll
 0001:0014372a       _CryptGetKeyParam@20       1014472a f   advapi32:ADVAPI32.dll
 0001:00143730       _CryptGetProvParam@20      10144730 f   advapi32:ADVAPI32.dll
 0001:00143736       _CoInitialize@4            10144736 f   ole32:ole32.dll
 0001:0014373c       _CoUninitialize@0          1014473c f   ole32:ole32.dll
 0001:00143742       _OleRun@4                  10144742 f   ole32:ole32.dll
 0001:00143748       _CoCreateInstance@20       10144748 f   ole32:ole32.dll
 0001:0014374e       _CreateStreamOnHGlobal@12  1014474e f   ole32:ole32.dll
 0001:00143754       _CoCreateGuid@4            10144754 f   ole32:ole32.dll
 0001:0014375a       _SysStringLen@4            1014475a f   oleaut32:OLEAUT32.dll
 0001:00143760       _SysStringByteLen@4        10144760 f   oleaut32:OLEAUT32.dll
 0001:00143766       _SysFreeString@4           10144766 f   oleaut32:OLEAUT32.dll
 0001:0014376c       _SysAllocStringLen@8       1014476c f   oleaut32:OLEAUT32.dll
 0001:00143772       _SysAllocString@4          10144772 f   oleaut32:OLEAUT32.dll
 0001:00143778       _SysAllocStringByteLen@8   10144778 f   oleaut32:OLEAUT32.dll
 0001:0014377e       _VariantClear@4            1014477e f   oleaut32:OLEAUT32.dll
 0001:00143784       _VariantInit@4             10144784 f   oleaut32:OLEAUT32.dll
 0001:0014378a       _VariantChangeType@16      1014478a f   oleaut32:OLEAUT32.dll
 0001:00143790       _VariantCopy@8             10144790 f   oleaut32:OLEAUT32.dll
 0001:00143796       _VarBstrCat@12             10144796 f   oleaut32:OLEAUT32.dll
 0001:0014379c       _SafeArrayGetElement@12    1014479c f   oleaut32:OLEAUT32.dll
 0001:001437a2       _SafeArrayGetElemsize@4    101447a2 f   oleaut32:OLEAUT32.dll
 0001:001437a8       _SafeArrayGetVartype@8     101447a8 f   oleaut32:OLEAUT32.dll
 0001:001437ae       _SafeArrayGetUBound@12     101447ae f   oleaut32:OLEAUT32.dll
 0001:001437b4       _SafeArrayGetLBound@12     101447b4 f   oleaut32:OLEAUT32.dll
 0001:001437ba       _SafeArrayGetDim@4         101447ba f   oleaut32:OLEAUT32.dll
 0001:001437c0       _SafeArrayPutElement@12    101447c0 f   oleaut32:OLEAUT32.dll
 0001:001437c6       _SafeArrayCreate@12        101447c6 f   oleaut32:OLEAUT32.dll
 0001:001437cc       _SafeArrayUnaccessData@4   101447cc f   oleaut32:OLEAUT32.dll
 0001:001437d2       _SafeArrayAccessData@8     101447d2 f   oleaut32:OLEAUT32.dll
 0001:001437d8       _SafeArrayRedim@8          101447d8 f   oleaut32:OLEAUT32.dll
 0001:001437de       _SafeArrayCopy@8           101447de f   oleaut32:OLEAUT32.dll
 0001:001437e4       _LoadRegTypeLib@20         101447e4 f   oleaut32:OLEAUT32.dll
 0001:001437ea       _LoadTypeLib@8             101447ea f   oleaut32:OLEAUT32.dll
 0001:001437f0       _AtlWinModuleInit@4        101447f0 f   atl:ATL71.DLL
 0001:001437f6       _AtlWinModuleTerm@8        101447f6 f   atl:ATL71.DLL
 0001:001437fc       _AtlAxCreateControlLicEx@32 101447fc f   atl:ATL71.DLL
 0001:00143802       _AtlAxWinInit@0            10144802 f   atl:ATL71.DLL
 0001:00143808       _AtlAxGetHost@8            10144808 f   atl:ATL71.DLL
 0001:0014380e       _AtlAxDialogBoxA@20        1014480e f   atl:ATL71.DLL
 0001:00143814       _AtlWinModuleAddCreateWndData@12 10144814 f   atl:ATL71.DLL
 0001:0014381a       _AtlWinModuleExtractCreateWndData@4 1014481a f   atl:ATL71.DLL
 0001:00143820       _AtlUpdateRegistryFromResourceD@20 10144820 f   atl:ATL71.DLL
 0001:00143826       _AtlCreateRegistrar@4      10144826 f   atl:ATL71.DLL
 0001:0014382c       _AtlCallTermFunc@4         1014482c f   atl:ATL71.DLL
 0001:00143832       _AtlComModuleGetClassObject@16 10144832 f   atl:ATL71.DLL
 0001:00143838       _AtlRegisterClassCategoriesHelper@12 10144838 f   atl:ATL71.DLL
 0001:0014383e       _AtlInternalQueryInterface@16 1014483e f   atl:ATL71.DLL
 0001:00143844       _AtlModuleAddTermFunc@12   10144844 f   atl:ATL71.DLL
 0001:0014384a       _AtlComModuleRegisterServer@12 1014484a f   atl:ATL71.DLL
 0001:00143850       _AtlComModuleUnregisterServer@12 10144850 f   atl:ATL71.DLL
 0001:00143856       _AtlComQIPtrAssign@12      10144856 f   atl:ATL71.DLL
 0001:00143860       ??0CAtlBaseModule@ATL@@QAE@XZ 10144860 f   atlsd:atlbase.obj
 0001:001439d0       ??1CAtlBaseModule@ATL@@QAE@XZ 101449d0 f   atlsd:atlbase.obj
 0001:001439f0       ?AddResourceInstance@CAtlBaseModule@ATL@@QAE_NPAUHINSTANCE__@@@Z 101449f0 f   atlsd:atlbase.obj
 0001:00143aa0       ?RemoveResourceInstance@CAtlBaseModule@ATL@@QAE_NPAUHINSTANCE__@@@Z 10144aa0 f   atlsd:atlbase.obj
 0001:00143ba0       ?GetHInstanceAt@CAtlBaseModule@ATL@@QAEPAUHINSTANCE__@@H@Z 10144ba0 f   atlsd:atlbase.obj
 0001:00143ca0       ??0_ATL_BASE_MODULE70@ATL@@QAE@XZ 10144ca0 f i atlsd:atlbase.obj
 0001:00143cd0       ??1_ATL_BASE_MODULE70@ATL@@QAE@XZ 10144cd0 f i atlsd:atlbase.obj
 0001:00143cf0       ??0?$CSimpleArray@PAUHINSTANCE__@@V?$CSimpleArrayEqualHelper@PAUHINSTANCE__@@@ATL@@@ATL@@QAE@XZ 10144cf0 f i atlsd:atlbase.obj
 0001:00143d20       ??1?$CSimpleArray@PAUHINSTANCE__@@V?$CSimpleArrayEqualHelper@PAUHINSTANCE__@@@ATL@@@ATL@@QAE@XZ 10144d20 f i atlsd:atlbase.obj
 0001:00143d40       ?GetSize@?$CSimpleArray@PAUHINSTANCE__@@V?$CSimpleArrayEqualHelper@PAUHINSTANCE__@@@ATL@@@ATL@@QBEHXZ 10144d40 f i atlsd:atlbase.obj
 0001:00143d60       ?Add@?$CSimpleArray@PAUHINSTANCE__@@V?$CSimpleArrayEqualHelper@PAUHINSTANCE__@@@ATL@@@ATL@@QAEHABQAUHINSTANCE__@@@Z 10144d60 f i atlsd:atlbase.obj
 0001:00143e00       ?RemoveAt@?$CSimpleArray@PAUHINSTANCE__@@V?$CSimpleArrayEqualHelper@PAUHINSTANCE__@@@ATL@@@ATL@@QAEHH@Z 10144e00 f i atlsd:atlbase.obj
 0001:00143eb0       ??A?$CSimpleArray@PAUHINSTANCE__@@V?$CSimpleArrayEqualHelper@PAUHINSTANCE__@@@ATL@@@ATL@@QAEAAPAUHINSTANCE__@@H@Z 10144eb0 f i atlsd:atlbase.obj
 0001:00143f20       ?RemoveAll@?$CSimpleArray@PAUHINSTANCE__@@V?$CSimpleArrayEqualHelper@PAUHINSTANCE__@@@ATL@@@ATL@@QAEXXZ 10144f20 f i atlsd:atlbase.obj
 0001:00143f80       ?InternalSetAtIndex@?$CSimpleArray@PAUHINSTANCE__@@V?$CSimpleArrayEqualHelper@PAUHINSTANCE__@@@ATL@@@ATL@@QAEXHABQAUHINSTANCE__@@@Z 10144f80 f i atlsd:atlbase.obj
 0001:00143fd0       ??0Wrapper@?$CSimpleArray@PAUHINSTANCE__@@V?$CSimpleArrayEqualHelper@PAUHINSTANCE__@@@ATL@@@ATL@@QAE@ABQAUHINSTANCE__@@@Z 10144fd0 f i atlsd:atlbase.obj
 0001:00143ff0       ??$?2PAUHINSTANCE__@@@Wrapper@?$CSimpleArray@PAUHINSTANCE__@@V?$CSimpleArrayEqualHelper@PAUHINSTANCE__@@@ATL@@@ATL@@SAPAXIPAPAUHINSTANCE__@@@Z 10144ff0 f i atlsd:atlbase.obj
 0001:00144000       ?_AtlRaiseException@ATL@@YAXKK@Z 10145000 f i atlsd:atlbase.obj
 0001:00144020       ?AtlWinModuleTerm@ATL@@YGJPAU_ATL_WIN_MODULE70@1@PAUHINSTANCE__@@@Z 10145020 f i atlsd:atlbase.obj
 0001:001440c0       ?GetSize@?$CSimpleArray@GV?$CSimpleArrayEqualHelper@G@ATL@@@ATL@@QBEHXZ 101450c0 f i atlsd:atlbase.obj
 0001:001440e0       ??A?$CSimpleArray@GV?$CSimpleArrayEqualHelper@G@ATL@@@ATL@@QAEAAGH@Z 101450e0 f i atlsd:atlbase.obj
 0001:00144150       ??0CTraceCategory@ATL@@QAE@PBDI@Z 10145150 f i atlsd:atltrace.obj
 0001:001441a0       ?ChangeCategory@CTrace@ATL@@QAE_NKIW4ATLTRACESTATUS@2@@Z 101451a0 f i atlsd:atltrace.obj
 0001:001441d0       ?RegisterCategory@CTrace@ATL@@QAEKPBD@Z 101451d0 f i atlsd:atltrace.obj
 0001:001441f0       ??0CAtlAllocator@@QAE@XZ   101451f0 f i atlsd:Externs.obj
 0001:00144240       ??0CTraceSnapshot@@QAE@XZ  10145240 f i atlsd:Externs.obj
 0001:00144270       ??0?$CSimpleArray@UCModuleInfo@CTraceSnapshot@@V?$CSimpleArrayEqualHelper@UCModuleInfo@CTraceSnapshot@@@ATL@@@ATL@@QAE@XZ 10145270 f i atlsd:Externs.obj
 0001:001442a0       ??0?$CSimpleArray@KV?$CSimpleArrayEqualHelper@K@ATL@@@ATL@@QAE@XZ 101452a0 f i atlsd:Externs.obj
 0001:001443a0       ??0CTrace@ATL@@AAE@P6AHHPBDH00ZZ@Z 101453a0 f i atlsd:Externs.obj
 0001:001443e0       ??1CAtlAllocator@@QAE@XZ   101453e0 f i atlsd:Externs.obj
 0001:00144400       ??1CTraceSnapshot@@QAE@XZ  10145400 f i atlsd:Externs.obj
 0001:00144420       ??1?$CSimpleArray@UCModuleInfo@CTraceSnapshot@@V?$CSimpleArrayEqualHelper@UCModuleInfo@CTraceSnapshot@@@ATL@@@ATL@@QAE@XZ 10145420 f i atlsd:Externs.obj
 0001:00144440       ??1?$CSimpleArray@KV?$CSimpleArrayEqualHelper@K@ATL@@@ATL@@QAE@XZ 10145440 f i atlsd:Externs.obj
 0001:00144460       ?RemoveAll@?$CSimpleArray@UCModuleInfo@CTraceSnapshot@@V?$CSimpleArrayEqualHelper@UCModuleInfo@CTraceSnapshot@@@ATL@@@ATL@@QAEXXZ 10145460 f i atlsd:Externs.obj
 0001:001444c0       ?RemoveAll@?$CSimpleArray@KV?$CSimpleArrayEqualHelper@K@ATL@@@ATL@@QAEXXZ 101454c0 f i atlsd:Externs.obj
 0001:00144520       ??1CTrace@ATL@@AAE@XZ      10145520 f i atlsd:Externs.obj
 0001:00144540       ?NotifyTool@ATL@@YGXXZ     10145540 f   atlsd:AtlDebugAPI.obj
 0001:00144580       _AtlTraceRegister@8        10145580 f   atlsd:AtlDebugAPI.obj
 0001:001445f0       _AtlTraceUnregister@4      101455f0 f   atlsd:AtlDebugAPI.obj
 0001:00144620       _AtlTraceRegisterCategoryA@8 10145620 f   atlsd:AtlDebugAPI.obj
 0001:001446c0       _AtlTraceRegisterCategoryU@8 101456c0 f   atlsd:AtlDebugAPI.obj
 0001:00144700       _AtlTraceModifyProcess@20  10145700 f   atlsd:AtlDebugAPI.obj
 0001:001447a0       _AtlTraceModifyModule@16   101457a0 f   atlsd:AtlDebugAPI.obj
 0001:00144880       _AtlTraceModifyCategory@16 10145880 f   atlsd:AtlDebugAPI.obj
 0001:00144930       _AtlTraceGetProcess@20     10145930 f   atlsd:AtlDebugAPI.obj
 0001:001449e0       _AtlTraceGetModule@16      101459e0 f   atlsd:AtlDebugAPI.obj
 0001:00144ad0       _AtlTraceGetCategory@16    10145ad0 f   atlsd:AtlDebugAPI.obj
 0001:00144b90       _AtlTraceGetUpdateEventNameA@4 10145b90 f   atlsd:AtlDebugAPI.obj
 0001:00144bc0       _AtlTraceGetUpdateEventNameU@4 10145bc0 f   atlsd:AtlDebugAPI.obj
 0001:00144c60       _AtlTraceVA                10145c60 f   atlsd:AtlDebugAPI.obj
 0001:00144e20       _AtlTraceVU                10145e20 f   atlsd:AtlDebugAPI.obj
 0001:00144fe0       _AtlTraceOpenProcess@4     10145fe0 f   atlsd:AtlDebugAPI.obj
 0001:00145090       _AtlTraceCloseProcess@4    10146090 f   atlsd:AtlDebugAPI.obj
 0001:001450e0       _AtlTraceSnapshotProcess@4 101460e0 f   atlsd:AtlDebugAPI.obj
 0001:00145100       _AtlTraceGetProcessInfo@8  10146100 f   atlsd:AtlDebugAPI.obj
 0001:00145250       _AtlTraceGetModuleInfo@12  10146250 f   atlsd:AtlDebugAPI.obj
 0001:00145390       _AtlTraceGetCategoryInfo@16 10146390 f   atlsd:AtlDebugAPI.obj
 0001:001456c0       ?GetProcess@CAtlAllocator@@QBEPAVCAtlTraceProcess@@XZ 101466c0 f i atlsd:AtlDebugAPI.obj
 0001:001456e0       ?Name@CAtlTraceCategory@@QBEPBGXZ 101466e0 f i atlsd:AtlDebugAPI.obj
 0001:00145700       ??_GCAtlAllocator@@QAEPAXI@Z 10146700 f i atlsd:AtlDebugAPI.obj
 0001:00145730       ?Path@CAtlTraceModuleInfo@@QBEPBGXZ 10146730 f i atlsd:AtlDebugAPI.obj
 0001:00145750       ?Name@CAtlTraceModuleInfo@@QBEPBGXZ 10146750 f i atlsd:AtlDebugAPI.obj
 0001:00145770       ?Id@CAtlTraceProcess@@QBEKXZ 10146770 f i atlsd:AtlDebugAPI.obj
 0001:00145790       ?CrtDbgReport@CAtlTraceModule@@QBEP6AHHPBDH00ZZXZ 10146790 f i atlsd:AtlDebugAPI.obj
 0001:001457b0       ?GetSize@?$CSimpleArray@UCModuleInfo@CTraceSnapshot@@V?$CSimpleArrayEqualHelper@UCModuleInfo@CTraceSnapshot@@@ATL@@@ATL@@QBEHXZ 101467b0 f i atlsd:AtlDebugAPI.obj
 0001:001457d0       ??A?$CSimpleArray@UCModuleInfo@CTraceSnapshot@@V?$CSimpleArrayEqualHelper@UCModuleInfo@CTraceSnapshot@@@ATL@@@ATL@@QAEAAUCModuleInfo@CTraceSnapshot@@H@Z 101467d0 f i atlsd:AtlDebugAPI.obj
 0001:00145840       ??0CTimeSpan@ATL@@QAE@XZ   10146840 f   atlsd:atltime.obj
 0001:00145860       ??0CTimeSpan@ATL@@QAE@_J@Z 10146860 f   atlsd:atltime.obj
 0001:00145880       ??0CTimeSpan@ATL@@QAE@JHHH@Z 10146880 f   atlsd:atltime.obj
 0001:00145900       ?GetDays@CTimeSpan@ATL@@QBE_JXZ 10146900 f   atlsd:atltime.obj
 0001:00145930       ?GetTotalHours@CTimeSpan@ATL@@QBE_JXZ 10146930 f   atlsd:atltime.obj
 0001:00145960       ?GetHours@CTimeSpan@ATL@@QBEJXZ 10146960 f   atlsd:atltime.obj
 0001:001459a0       ?GetTotalMinutes@CTimeSpan@ATL@@QBE_JXZ 101469a0 f   atlsd:atltime.obj
 0001:001459c0       ?GetMinutes@CTimeSpan@ATL@@QBEJXZ 101469c0 f   atlsd:atltime.obj
 0001:00145a00       ?GetTotalSeconds@CTimeSpan@ATL@@QBE_JXZ 10146a00 f   atlsd:atltime.obj
 0001:00145a20       ?GetSeconds@CTimeSpan@ATL@@QBEJXZ 10146a20 f   atlsd:atltime.obj
 0001:00145a60       ?GetTimeSpan@CTimeSpan@ATL@@QBE_JXZ 10146a60 f   atlsd:atltime.obj
 0001:00145a80       ??HCTimeSpan@ATL@@QBE?AV01@V01@@Z 10146a80 f   atlsd:atltime.obj
 0001:00145ab0       ??GCTimeSpan@ATL@@QBE?AV01@V01@@Z 10146ab0 f   atlsd:atltime.obj
 0001:00145ae0       ??YCTimeSpan@ATL@@QAEAAV01@V01@@Z 10146ae0 f   atlsd:atltime.obj
 0001:00145b10       ??ZCTimeSpan@ATL@@QAEAAV01@V01@@Z 10146b10 f   atlsd:atltime.obj
 0001:00145b40       ??8CTimeSpan@ATL@@QBE_NV01@@Z 10146b40 f   atlsd:atltime.obj
 0001:00145b80       ??9CTimeSpan@ATL@@QBE_NV01@@Z 10146b80 f   atlsd:atltime.obj
 0001:00145bc0       ??MCTimeSpan@ATL@@QBE_NV01@@Z 10146bc0 f   atlsd:atltime.obj
 0001:00145c00       ??OCTimeSpan@ATL@@QBE_NV01@@Z 10146c00 f   atlsd:atltime.obj
 0001:00145c40       ??NCTimeSpan@ATL@@QBE_NV01@@Z 10146c40 f   atlsd:atltime.obj
 0001:00145c80       ??PCTimeSpan@ATL@@QBE_NV01@@Z 10146c80 f   atlsd:atltime.obj
 0001:00145cc0       ?GetTickCount@CTime@ATL@@SG?AV12@XZ 10146cc0 f   atlsd:atltime.obj
 0001:00145ce0       ??0CTime@ATL@@QAE@XZ       10146ce0 f   atlsd:atltime.obj
 0001:00145d00       ??0CTime@ATL@@QAE@_J@Z     10146d00 f   atlsd:atltime.obj
 0001:00145d20       ??0CTime@ATL@@QAE@HHHHHHH@Z 10146d20 f   atlsd:atltime.obj
 0001:00145e60       ??0CTime@ATL@@QAE@GGH@Z    10146e60 f   atlsd:atltime.obj
 0001:00145f40       ??0CTime@ATL@@QAE@ABU_SYSTEMTIME@@H@Z 10146f40 f   atlsd:atltime.obj
 0001:00145fe0       ??0CTime@ATL@@QAE@ABU_FILETIME@@H@Z 10146fe0 f   atlsd:atltime.obj
 0001:00146070       ??4CTime@ATL@@QAEAAV01@_J@Z 10147070 f   atlsd:atltime.obj
 0001:00146090       ??YCTime@ATL@@QAEAAV01@VCTimeSpan@1@@Z 10147090 f   atlsd:atltime.obj
 0001:001460c0       ??ZCTime@ATL@@QAEAAV01@VCTimeSpan@1@@Z 101470c0 f   atlsd:atltime.obj
 0001:001460f0       ??GCTime@ATL@@QBE?AVCTimeSpan@1@V01@@Z 101470f0 f   atlsd:atltime.obj
 0001:00146120       ??GCTime@ATL@@QBE?AV01@VCTimeSpan@1@@Z 10147120 f   atlsd:atltime.obj
 0001:00146150       ??HCTime@ATL@@QBE?AV01@VCTimeSpan@1@@Z 10147150 f   atlsd:atltime.obj
 0001:00146180       ??8CTime@ATL@@QBE_NV01@@Z  10147180 f   atlsd:atltime.obj
 0001:001461c0       ??9CTime@ATL@@QBE_NV01@@Z  101471c0 f   atlsd:atltime.obj
 0001:00146200       ??MCTime@ATL@@QBE_NV01@@Z  10147200 f   atlsd:atltime.obj
 0001:00146240       ??OCTime@ATL@@QBE_NV01@@Z  10147240 f   atlsd:atltime.obj
 0001:00146280       ??NCTime@ATL@@QBE_NV01@@Z  10147280 f   atlsd:atltime.obj
 0001:001462c0       ??PCTime@ATL@@QBE_NV01@@Z  101472c0 f   atlsd:atltime.obj
 0001:00146300       ?GetGmtTm@CTime@ATL@@QBEPAUtm@@PAU3@@Z 10147300 f   atlsd:atltime.obj
 0001:00146350       ?GetLocalTm@CTime@ATL@@QBEPAUtm@@PAU3@@Z 10147350 f   atlsd:atltime.obj
 0001:001463a0       ?GetAsSystemTime@CTime@ATL@@QBE_NAAU_SYSTEMTIME@@@Z 101473a0 f   atlsd:atltime.obj
 0001:00146440       ?GetTime@CTime@ATL@@QBE_JXZ 10147440 f   atlsd:atltime.obj
 0001:00146460       ?GetYear@CTime@ATL@@QBEHXZ 10147460 f   atlsd:atltime.obj
 0001:001464a0       ?GetMonth@CTime@ATL@@QBEHXZ 101474a0 f   atlsd:atltime.obj
 0001:001464e0       ?GetDay@CTime@ATL@@QBEHXZ  101474e0 f   atlsd:atltime.obj
 0001:00146520       ?GetHour@CTime@ATL@@QBEHXZ 10147520 f   atlsd:atltime.obj
 0001:00146560       ?GetMinute@CTime@ATL@@QBEHXZ 10147560 f   atlsd:atltime.obj
 0001:001465a0       ?GetSecond@CTime@ATL@@QBEHXZ 101475a0 f   atlsd:atltime.obj
 0001:001465e0       ?GetDayOfWeek@CTime@ATL@@QBEHXZ 101475e0 f   atlsd:atltime.obj
 0001:00146620       ??0CFileTimeSpan@ATL@@QAE@XZ 10147620 f   atlsd:atltime.obj
 0001:00146640       ??0CFileTimeSpan@ATL@@QAE@ABV01@@Z 10147640 f   atlsd:atltime.obj
 0001:00146660       ??0CFileTimeSpan@ATL@@QAE@_J@Z 10147660 f   atlsd:atltime.obj
 0001:00146680       ??4CFileTimeSpan@ATL@@QAEAAV01@ABV01@@Z 10147680 f   atlsd:atltime.obj
 0001:001466a0       ??YCFileTimeSpan@ATL@@QAEAAV01@V01@@Z 101476a0 f   atlsd:atltime.obj
 0001:001466d0       ??ZCFileTimeSpan@ATL@@QAEAAV01@V01@@Z 101476d0 f   atlsd:atltime.obj
 0001:00146700       ??HCFileTimeSpan@ATL@@QBE?AV01@V01@@Z 10147700 f   atlsd:atltime.obj
 0001:00146730       ??GCFileTimeSpan@ATL@@QBE?AV01@V01@@Z 10147730 f   atlsd:atltime.obj
 0001:00146760       ??8CFileTimeSpan@ATL@@QBE_NV01@@Z 10147760 f   atlsd:atltime.obj
 0001:001467a0       ??9CFileTimeSpan@ATL@@QBE_NV01@@Z 101477a0 f   atlsd:atltime.obj
 0001:001467e0       ??MCFileTimeSpan@ATL@@QBE_NV01@@Z 101477e0 f   atlsd:atltime.obj
 0001:00146820       ??OCFileTimeSpan@ATL@@QBE_NV01@@Z 10147820 f   atlsd:atltime.obj
 0001:00146860       ??NCFileTimeSpan@ATL@@QBE_NV01@@Z 10147860 f   atlsd:atltime.obj
 0001:001468a0       ??PCFileTimeSpan@ATL@@QBE_NV01@@Z 101478a0 f   atlsd:atltime.obj
 0001:001468e0       ?GetTimeSpan@CFileTimeSpan@ATL@@QBE_JXZ 101478e0 f   atlsd:atltime.obj
 0001:00146900       ?SetTimeSpan@CFileTimeSpan@ATL@@QAEX_J@Z 10147900 f   atlsd:atltime.obj
 0001:00146920       ??0CFileTime@ATL@@QAE@XZ   10147920 f   atlsd:atltime.obj
 0001:00146950       ??0CFileTime@ATL@@QAE@ABU_FILETIME@@@Z 10147950 f   atlsd:atltime.obj
 0001:00146980       ??0CFileTime@ATL@@QAE@_K@Z 10147980 f   atlsd:atltime.obj
 0001:001469b0       ??4CFileTime@ATL@@QAEAAV01@ABU_FILETIME@@@Z 101479b0 f   atlsd:atltime.obj
 0001:001469e0       ?GetTickCount@CFileTime@ATL@@SG?AV12@XZ 101479e0 f   atlsd:atltime.obj
 0001:00146a10       ??YCFileTime@ATL@@QAEAAV01@VCFileTimeSpan@1@@Z 10147a10 f   atlsd:atltime.obj
 0001:00146a50       ??ZCFileTime@ATL@@QAEAAV01@VCFileTimeSpan@1@@Z 10147a50 f   atlsd:atltime.obj
 0001:00146a90       ??HCFileTime@ATL@@QBE?AV01@VCFileTimeSpan@1@@Z 10147a90 f   atlsd:atltime.obj
 0001:00146ad0       ??GCFileTime@ATL@@QBE?AV01@VCFileTimeSpan@1@@Z 10147ad0 f   atlsd:atltime.obj
 0001:00146b10       ??GCFileTime@ATL@@QBE?AVCFileTimeSpan@1@V01@@Z 10147b10 f   atlsd:atltime.obj
 0001:00146b50       ??8CFileTime@ATL@@QBE_NV01@@Z 10147b50 f   atlsd:atltime.obj
 0001:00146bb0       ??9CFileTime@ATL@@QBE_NV01@@Z 10147bb0 f   atlsd:atltime.obj
 0001:00146c10       ??MCFileTime@ATL@@QBE_NV01@@Z 10147c10 f   atlsd:atltime.obj
 0001:00146c70       ??OCFileTime@ATL@@QBE_NV01@@Z 10147c70 f   atlsd:atltime.obj
 0001:00146cd0       ??NCFileTime@ATL@@QBE_NV01@@Z 10147cd0 f   atlsd:atltime.obj
 0001:00146d30       ??PCFileTime@ATL@@QBE_NV01@@Z 10147d30 f   atlsd:atltime.obj
 0001:00146d90       ?GetTime@CFileTime@ATL@@QBE_KXZ 10147d90 f   atlsd:atltime.obj
 0001:00146dc0       ?SetTime@CFileTime@ATL@@QAEX_K@Z 10147dc0 f   atlsd:atltime.obj
 0001:00146df0       ?UTCToLocal@CFileTime@ATL@@QBE?AV12@XZ 10147df0 f   atlsd:atltime.obj
 0001:00146e30       ?LocalToUTC@CFileTime@ATL@@QBE?AV12@XZ 10147e30 f   atlsd:atltime.obj
 0001:00146e70       ??0CWin32Heap@ATL@@QAE@PAX@Z 10147e70 f i atlsd:atlstr.obj
 0001:00146ec0       ?Allocate@CWin32Heap@ATL@@UAEPAXI@Z 10147ec0 f i atlsd:atlstr.obj
 0001:00146ee0       ?Free@CWin32Heap@ATL@@UAEXPAX@Z 10147ee0 f i atlsd:atlstr.obj
 0001:00146f40       ?Reallocate@CWin32Heap@ATL@@UAEPAXPAXI@Z 10147f40 f i atlsd:atlstr.obj
 0001:00146f80       ?GetSize@CWin32Heap@ATL@@UAEIPAX@Z 10147f80 f i atlsd:atlstr.obj
 0001:00146fa0       ??_GCWin32Heap@ATL@@UAEPAXI@Z 10147fa0 f i atlsd:atlstr.obj
 0001:00146fa0       ??_ECWin32Heap@ATL@@UAEPAXI@Z 10147fa0 f i atlsd:atlstr.obj
 0001:00146fd0       ??1CWin32Heap@ATL@@UAE@XZ  10147fd0 f i atlsd:atlstr.obj
 0001:00147030       ??0CAtlStringMgr@ATL@@QAE@PAUIAtlMemMgr@1@@Z 10148030 f i atlsd:atlstr.obj
 0001:00147070       ??0CNilStringData@ATL@@QAE@XZ 10148070 f i atlsd:atlstr.obj
 0001:001470c0       ?SetManager@CNilStringData@ATL@@QAEXPAUIAtlStringMgr@2@@Z 101480c0 f i atlsd:atlstr.obj
 0001:00147100       ?Allocate@CAtlStringMgr@ATL@@UAEPAUCStringData@2@HH@Z 10148100 f i atlsd:atlstr.obj
 0001:00147180       ?Free@CAtlStringMgr@ATL@@UAEXPAUCStringData@2@@Z 10148180 f i atlsd:atlstr.obj
 0001:001471d0       ?Reallocate@CAtlStringMgr@ATL@@UAEPAUCStringData@2@PAU32@HH@Z 101481d0 f i atlsd:atlstr.obj
 0001:00147260       ?GetNilString@CAtlStringMgr@ATL@@UAEPAUCStringData@2@XZ 10148260 f i atlsd:atlstr.obj
 0001:00147280       ?AddRef@CStringData@ATL@@QAEXXZ 10148280 f i atlsd:atlstr.obj
 0001:001472d0       ?Clone@CAtlStringMgr@ATL@@UAEPAUIAtlStringMgr@2@XZ 101482d0 f i atlsd:atlstr.obj
 0001:001472e0       ??_GCAtlStringMgr@ATL@@UAEPAXI@Z 101482e0 f i atlsd:atlstr.obj
 0001:001472e0       ??_ECAtlStringMgr@ATL@@UAEPAXI@Z 101482e0 f i atlsd:atlstr.obj
 0001:00147310       ??1CAtlStringMgr@ATL@@UAE@XZ 10148310 f i atlsd:atlstr.obj
 0001:00147330       ??$AtlAlignUp@H@ATL@@YGHHK@Z 10148330 f i atlsd:atlstr.obj
 0001:00147350       ??0CAtlComModule@ATL@@QAE@XZ 10148350 f i atlsd:atlcommodule.obj
 0001:00147400       ??0_ATL_COM_MODULE70@ATL@@QAE@XZ 10148400 f i atlsd:atlcommodule.obj
 0001:00147420       ??1CAtlComModule@ATL@@QAE@XZ 10148420 f i atlsd:atlcommodule.obj
 0001:00147440       ?Term@CAtlComModule@ATL@@QAEXXZ 10148440 f i atlsd:atlcommodule.obj
 0001:001474d0       ?AtlAdvise@ATL@@YGJPAUIUnknown@@0ABU_GUID@@PAK@Z 101484d0 f   atlsd:atlfuncs.obj
 0001:00147590       ?AtlUnadvise@ATL@@YGJPAUIUnknown@@ABU_GUID@@K@Z 10148590 f   atlsd:atlfuncs.obj
 0001:00147650       ?AtlFreeMarshalStream@ATL@@YGJPAUIStream@@@Z 10148650 f   atlsd:atlfuncs.obj
 0001:001476a0       ?AtlMarshalPtrInProc@ATL@@YGJPAUIUnknown@@ABU_GUID@@PAPAUIStream@@@Z 101486a0 f   atlsd:atlfuncs.obj
 0001:00147740       ?AtlUnmarshalPtr@ATL@@YGJPAUIStream@@ABU_GUID@@PAPAUIUnknown@@@Z 10148740 f   atlsd:atlfuncs.obj
 0001:001477e0       ?AtlComModuleGetClassObject@ATL@@YGJPAU_ATL_COM_MODULE70@1@ABU_GUID@@1PAPAX@Z 101487e0 f   atlsd:atlfuncs.obj
 0001:001479b0       ?AtlComModuleRegisterClassObjects@ATL@@YGJPAU_ATL_COM_MODULE70@1@KK@Z 101489b0 f   atlsd:atlfuncs.obj
 0001:00147a40       ?AtlComModuleRevokeClassObjects@ATL@@YGJPAU_ATL_COM_MODULE70@1@@Z 10148a40 f   atlsd:atlfuncs.obj
 0001:00147ad0       ?AtlWaitWithMessageLoop@ATL@@YGHPAX@Z 10148ad0 f   atlsd:atlfuncs.obj
 0001:00147bc0       ?AtlInternalQueryInterface@ATL@@YGJPAXPBU_ATL_INTMAP_ENTRY@1@ABU_GUID@@PAPAX@Z 10148bc0 f   atlsd:atlfuncs.obj
 0001:00147d80       ?AtlGetVersion@ATL@@YGKPAX@Z 10148d80 f   atlsd:atlfuncs.obj
 0001:00147d90       ?AtlWinModuleAddCreateWndData@ATL@@YGXPAU_ATL_WIN_MODULE70@1@PAU_AtlCreateWndData@1@PAX@Z 10148d90 f   atlsd:atlfuncs.obj
 0001:00147ea0       ?AtlWinModuleExtractCreateWndData@ATL@@YGPAXPAU_ATL_WIN_MODULE70@1@@Z 10148ea0 f   atlsd:atlfuncs.obj
 0001:00147fc0       ?AtlWinModuleInit@ATL@@YGJPAU_ATL_WIN_MODULE70@1@@Z 10148fc0 f   atlsd:atlfuncs.obj
 0001:00148060       ?AtlModuleAddTermFunc@ATL@@YGJPAU_ATL_MODULE70@1@P6GXK@ZK@Z 10149060 f   atlsd:atlfuncs.obj
 0001:00148170       ?AtlCallTermFunc@ATL@@YGXPAU_ATL_MODULE70@1@@Z 10149170 f   atlsd:atlfuncs.obj
 0001:001481e0       ?CComStdCallThunkHelper@ATL@@YGXXZ 101491e0 f   atlsd:atlfuncs.obj
 0001:001481f0       ??1?$CComPtr@UIConnectionPointContainer@@@ATL@@QAE@XZ 101491f0 f i atlsd:atlfuncs.obj
 0001:00148210       ??1?$CComPtr@UIConnectionPoint@@@ATL@@QAE@XZ 10149210 f i atlsd:atlfuncs.obj
 0001:00148230       ??0?$CComPtr@UIConnectionPointContainer@@@ATL@@QAE@XZ 10149230 f i atlsd:atlfuncs.obj
 0001:00148250       ??1?$CComPtrBase@UIConnectionPointContainer@@@ATL@@QAE@XZ 10149250 f i atlsd:atlfuncs.obj
 0001:00148280       ??I?$CComPtrBase@UIConnectionPointContainer@@@ATL@@QAEPAPAUIConnectionPointContainer@@XZ 10149280 f i atlsd:atlfuncs.obj
 0001:001482c0       ??C?$CComPtrBase@UIConnectionPointContainer@@@ATL@@QBEPAV?$_NoAddRefReleaseOnCComPtr@UIConnectionPointContainer@@@1@XZ 101492c0 f i atlsd:atlfuncs.obj
 0001:00148300       ??0?$CComPtr@UIConnectionPoint@@@ATL@@QAE@XZ 10149300 f i atlsd:atlfuncs.obj
 0001:00148320       ??1?$CComPtrBase@UIConnectionPoint@@@ATL@@QAE@XZ 10149320 f i atlsd:atlfuncs.obj
 0001:00148350       ??I?$CComPtrBase@UIConnectionPoint@@@ATL@@QAEPAPAUIConnectionPoint@@XZ 10149350 f i atlsd:atlfuncs.obj
 0001:00148390       ??C?$CComPtrBase@UIConnectionPoint@@@ATL@@QBEPAV?$_NoAddRefReleaseOnCComPtr@UIConnectionPoint@@@1@XZ 10149390 f i atlsd:atlfuncs.obj
 0001:001483d0       ??0?$CComPtrBase@UIConnectionPointContainer@@@ATL@@IAE@XZ 101493d0 f i atlsd:atlfuncs.obj
 0001:001483f0       ??0?$CComPtrBase@UIConnectionPoint@@@ATL@@IAE@XZ 101493f0 f i atlsd:atlfuncs.obj
 0001:00148410       ?RevokeClassObject@_ATL_OBJMAP_ENTRY30@ATL@@QAGJXZ 10149410 f i atlsd:atlfuncs.obj
 0001:00148440       ?RegisterClassObject@_ATL_OBJMAP_ENTRY30@ATL@@QAGJKK@Z 10149440 f i atlsd:atlfuncs.obj
 0001:001484c0       ?Init@CAtlAllocator@@QAE_NPBDK@Z 101494c0 f   atlsd:Allocate.obj
 0001:00148800       ?Open@CAtlAllocator@@QAE_NPBD@Z 10149800 f   atlsd:Allocate.obj
 0001:00148930       ?Close@CAtlAllocator@@QAEX_N@Z 10149930 f   atlsd:Allocate.obj
 0001:001489a0       ?GetModule@CAtlAllocator@@QBEPAVCAtlTraceModule@@H@Z 101499a0 f   atlsd:Allocate.obj
 0001:00148a20       ?GetCategory@CAtlAllocator@@QBEPAVCAtlTraceCategory@@H@Z 10149a20 f   atlsd:Allocate.obj
 0001:00148ac0       ?GetCategoryCount@CAtlAllocator@@QBEHH@Z 10149ac0 f   atlsd:Allocate.obj
 0001:00148b30       ?GetCategoryCount@CAtlAllocator@@QBEHABVCAtlTraceModule@@@Z 10149b30 f   atlsd:Allocate.obj
 0001:00148b90       ?GetModuleCount@CAtlAllocator@@QBEHXZ 10149b90 f   atlsd:Allocate.obj
 0001:00148bd0       ?FindModule@CAtlAllocator@@QBE_NPBGPAI@Z 10149bd0 f   atlsd:Allocate.obj
 0001:00148c40       ?AddModule@CAtlAllocator@@QAEHPAUHINSTANCE__@@@Z 10149c40 f   atlsd:Allocate.obj
 0001:00148e00       ?AddCategory@CAtlAllocator@@QAEHHPBG@Z 10149e00 f   atlsd:Allocate.obj
 0001:00149020       ?RemoveModule@CAtlAllocator@@QAE_NH@Z 1014a020 f   atlsd:Allocate.obj
 0001:001490c0       ?CleanUp@CAtlAllocator@@QAEXXZ 1014a0c0 f   atlsd:Allocate.obj
 0001:001490e0       ?TakeSnapshot@CAtlAllocator@@QAEXXZ 1014a0e0 f   atlsd:Allocate.obj
 0001:001492a0       ?ReleaseSnapshot@CAtlAllocator@@QAEXXZ 1014a2a0 f   atlsd:Allocate.obj
 0001:00149370       ?IncRef@CAtlTraceProcess@@QAEIXZ 1014a370 f i atlsd:Allocate.obj
 0001:001493a0       ?Base@CAtlTraceProcess@@QBEPAXXZ 1014a3a0 f i atlsd:Allocate.obj
 0001:001493c0       ?DecRef@CAtlTraceProcess@@QAEIXZ 1014a3c0 f i atlsd:Allocate.obj
 0001:001493f0       ?ModuleCount@CAtlTraceProcess@@QBEHXZ 1014a3f0 f i atlsd:Allocate.obj
 0001:00149410       ?MaxSize@CAtlTraceProcess@@QBEKXZ 1014a410 f i atlsd:Allocate.obj
 0001:00149430       ?CategoryCount@CAtlTraceProcess@@QBEHXZ 1014a430 f i atlsd:Allocate.obj
 0001:00149450       ?TryAllocate@CAtlTraceSettings@@QAE_NXZ 1014a450 f i atlsd:Allocate.obj
 0001:00149490       ?MarkValid@CAtlTraceSettings@@QAEXJ@Z 1014a490 f i atlsd:Allocate.obj
 0001:001494d0       ?IncModuleCount@CAtlTraceProcess@@QAEXI@Z 1014a4d0 f i atlsd:Allocate.obj
 0001:00149500       ?TryAddRef@CAtlTraceSettings@@QAE_NXZ 1014a500 f i atlsd:Allocate.obj
 0001:00149540       ?Release@CAtlTraceSettings@@QAEXXZ 1014a540 f i atlsd:Allocate.obj
 0001:00149570       ?IncCategoryCount@CAtlTraceProcess@@QAEXI@Z 1014a570 f i atlsd:Allocate.obj
 0001:001495a0       ?Add@?$CSimpleArray@UCModuleInfo@CTraceSnapshot@@V?$CSimpleArrayEqualHelper@UCModuleInfo@CTraceSnapshot@@@ATL@@@ATL@@QAEHABUCModuleInfo@CTraceSnapshot@@@Z 1014a5a0 f i atlsd:Allocate.obj
 0001:00149640       ?GetSize@?$CSimpleArray@KV?$CSimpleArrayEqualHelper@K@ATL@@@ATL@@QBEHXZ 1014a640 f i atlsd:Allocate.obj
 0001:00149660       ?Add@?$CSimpleArray@KV?$CSimpleArrayEqualHelper@K@ATL@@@ATL@@QAEHABK@Z 1014a660 f i atlsd:Allocate.obj
 0001:00149700       ?RemoveAt@?$CSimpleArray@KV?$CSimpleArrayEqualHelper@K@ATL@@@ATL@@QAEHH@Z 1014a700 f i atlsd:Allocate.obj
 0001:001497b0       ??A?$CSimpleArray@KV?$CSimpleArrayEqualHelper@K@ATL@@@ATL@@QAEAAKH@Z 1014a7b0 f i atlsd:Allocate.obj
 0001:00149820       ?InternalSetAtIndex@?$CSimpleArray@UCModuleInfo@CTraceSnapshot@@V?$CSimpleArrayEqualHelper@UCModuleInfo@CTraceSnapshot@@@ATL@@@ATL@@QAEXHABUCModuleInfo@CTraceSnapshot@@@Z 1014a820 f i atlsd:Allocate.obj
 0001:00149870       ?InternalSetAtIndex@?$CSimpleArray@KV?$CSimpleArrayEqualHelper@K@ATL@@@ATL@@QAEXHABK@Z 1014a870 f i atlsd:Allocate.obj
 0001:001498c0       ??0Wrapper@?$CSimpleArray@UCModuleInfo@CTraceSnapshot@@V?$CSimpleArrayEqualHelper@UCModuleInfo@CTraceSnapshot@@@ATL@@@ATL@@QAE@ABUCModuleInfo@CTraceSnapshot@@@Z 1014a8c0 f i atlsd:Allocate.obj
 0001:001498f0       ??0Wrapper@?$CSimpleArray@KV?$CSimpleArrayEqualHelper@K@ATL@@@ATL@@QAE@ABK@Z 1014a8f0 f i atlsd:Allocate.obj
 0001:00149910       ??$?2UCModuleInfo@CTraceSnapshot@@@Wrapper@?$CSimpleArray@UCModuleInfo@CTraceSnapshot@@V?$CSimpleArrayEqualHelper@UCModuleInfo@CTraceSnapshot@@@ATL@@@ATL@@SAPAXIPAUCModuleInfo@CTraceSnapshot@@@Z 1014a910 f i atlsd:Allocate.obj
 0001:00149920       ??$?2K@Wrapper@?$CSimpleArray@KV?$CSimpleArrayEqualHelper@K@ATL@@@ATL@@SAPAXIPAK@Z 1014a920 f i atlsd:Allocate.obj
 0001:00149930       ??0CAtlTraceModuleInfo@@QAE@XZ 1014a930 f   atlsd:AtlTraceModuleManager.obj
 0001:00149980       ?Reset@CAtlTraceModuleInfo@@QAEXPAUHINSTANCE__@@@Z 1014a980 f   atlsd:AtlTraceModuleManager.obj
 0001:00149b90       ??0CAtlTraceCategory@@QAE@XZ 1014ab90 f   atlsd:AtlTraceModuleManager.obj
 0001:00149bc0       ?Reset@CAtlTraceCategory@@QAEXPBGJ@Z 1014abc0 f   atlsd:AtlTraceModuleManager.obj
 0001:00149bf0       ??0CAtlTraceModule@@QAE@XZ 1014abf0 f   atlsd:AtlTraceModuleManager.obj
 0001:00149c30       ?CrtDbgReport@CAtlTraceModule@@QAEXP6AHHPBDH00ZZ@Z 1014ac30 f   atlsd:AtlTraceModuleManager.obj
 0001:00149c60       ??0CAtlTraceProcess@@QAE@K@Z 1014ac60 f   atlsd:AtlTraceModuleManager.obj
 0001:00149d30       ?GetNextCookie@CAtlTraceProcess@@QAEJXZ 1014ad30 f   atlsd:AtlTraceModuleManager.obj
 0001:00149d50       ??0CAtlTraceSettings@@QAE@XZ 1014ad50 f i atlsd:AtlTraceModuleManager.obj
 0001:00149d90       __RTC_InitBase             1014ad90 f   LIBCMTD:init.obj
 0001:00149dc0       __RTC_Shutdown             1014adc0 f   LIBCMTD:init.obj
 0001:00149de0       _strlen                    1014ade0 f   LIBCMTD:strlen.obj
 0001:00149e70       __RTC_CheckEsp             1014ae70 f   LIBCMTD:stack.obj
 0001:00149ea0       @_RTC_CheckStackVars@8     1014aea0 f   LIBCMTD:stack.obj
 0001:00149f10       _memcpy                    1014af10 f   LIBCMTD:memcpy.obj
 0001:0014a250       _sscanf                    1014b250 f   LIBCMTD:sscanf.obj
 0001:0014a300       @__security_check_cookie@4 1014b300 f   LIBCMTD:secchk.obj
 0001:0014a380       _fclose                    1014b380 f   LIBCMTD:fclose.obj
 0001:0014a440       __fclose_lk                1014b440 f   LIBCMTD:fclose.obj
 0001:0014a4f0       _fread                     1014b4f0 f   LIBCMTD:fread.obj
 0001:0014a570       __fread_lk                 1014b570 f   LIBCMTD:fread.obj
 0001:0014a740       __fsopen                   1014b740 f   LIBCMTD:fopen.obj
 0001:0014a870       _fopen                     1014b870 f   LIBCMTD:fopen.obj
 0001:0014a890       __onexit                   1014b890 f   LIBCMTD:onexit.obj
 0001:0014a9f0       _atexit                    1014b9f0 f   LIBCMTD:onexit.obj
 0001:0014aa10       ___onexitinit              1014ba10 f   LIBCMTD:onexit.obj
 0001:0014aa60       _memset                    1014ba60 f   LIBCMTD:memset.obj
 0001:0014aac0       ?_JumpToContinuation@@YGXPAXPAUEHRegistrationNode@@@Z 1014bac0 f   LIBCMTD:trnsctrl.obj
 0001:0014ab00       ?_CallMemberFunction0@@YGXPAX0@Z 1014bb00 f   LIBCMTD:trnsctrl.obj
 0001:0014ab10       ?_CallMemberFunction1@@YGXPAX00@Z 1014bb10 f   LIBCMTD:trnsctrl.obj
 0001:0014ab20       ?_CallMemberFunction2@@YGXPAX00H@Z 1014bb20 f   LIBCMTD:trnsctrl.obj
 0001:0014ab30       ?_UnwindNestedFrames@@YGXPAUEHRegistrationNode@@PAUEHExceptionRecord@@@Z 1014bb30 f   LIBCMTD:trnsctrl.obj
 0001:0014ab90       ___CxxFrameHandler         1014bb90 f   LIBCMTD:trnsctrl.obj
 0001:0014abd0       ___CxxLongjmpUnwind@4      1014bbd0 f   LIBCMTD:trnsctrl.obj
 0001:0014ac00       ?_CallCatchBlock2@@YAPAXPAUEHRegistrationNode@@PBU_s_FuncInfo@@PAXHK@Z 1014bc00 f   LIBCMTD:trnsctrl.obj
 0001:0014acd0       ?_CallSETranslator@@YAHPAUEHExceptionRecord@@PAUEHRegistrationNode@@PAX2PBU_s_FuncInfo@@H1@Z 1014bcd0 f   LIBCMTD:trnsctrl.obj
 0001:0014ae80       ?_GetRangeOfTrysToCheck@@YAPBU_s_TryBlockMapEntry@@PBU_s_FuncInfo@@HHPAI1@Z 1014be80 f   LIBCMTD:trnsctrl.obj
 0001:0014af10       ?_CreateFrameInfo@@YAPAUFrameInfo@@PAU1@PAX@Z 1014bf10 f   LIBCMTD:trnsctrl.obj
 0001:0014af40       ?IsExceptionObjectToBeDestroyed@@YAHPAX@Z 1014bf40 f   LIBCMTD:trnsctrl.obj
 0001:0014af70       ?_FindAndUnlinkFrame@@YAXPAUFrameInfo@@@Z 1014bf70 f   LIBCMTD:trnsctrl.obj
 0001:0014afc8       __global_unwind2           1014bfc8 f   LIBCMTD:exsup.obj
 0001:0014b00a       __local_unwind2            1014c00a f   LIBCMTD:exsup.obj
 0001:0014b062       __NLG_Return2              1014c062     LIBCMTD:exsup.obj
 0001:0014b072       __abnormal_termination     1014c072 f   LIBCMTD:exsup.obj
 0001:0014b095       __NLG_Notify1              1014c095 f   LIBCMTD:exsup.obj
 0001:0014b09e       __NLG_Notify               1014c09e f   LIBCMTD:exsup.obj
 0001:0014b0b1       __NLG_Dispatch             1014c0b1     LIBCMTD:exsup.obj
 0001:0014b0c0       _malloc                    1014c0c0 f   LIBCMTD:dbgheap.obj
 0001:0014b0f0       __malloc_dbg               1014c0f0 f   LIBCMTD:dbgheap.obj
 0001:0014b120       __nh_malloc                1014c120 f   LIBCMTD:dbgheap.obj
 0001:0014b140       __nh_malloc_dbg            1014c140 f   LIBCMTD:dbgheap.obj
 0001:0014b1e0       __heap_alloc               1014c1e0 f   LIBCMTD:dbgheap.obj
 0001:0014b200       __heap_alloc_dbg           1014c200 f   LIBCMTD:dbgheap.obj
 0001:0014b520       _calloc                    1014c520 f   LIBCMTD:dbgheap.obj
 0001:0014b550       __calloc_dbg               1014c550 f   LIBCMTD:dbgheap.obj
 0001:0014b5b0       _realloc                   1014c5b0 f   LIBCMTD:dbgheap.obj
 0001:0014b5e0       __realloc_dbg              1014c5e0 f   LIBCMTD:dbgheap.obj
 0001:0014bb80       __expand                   1014cb80 f   LIBCMTD:dbgheap.obj
 0001:0014bbb0       __expand_dbg               1014cbb0 f   LIBCMTD:dbgheap.obj
 0001:0014bc40       _free                      1014cc40 f   LIBCMTD:dbgheap.obj
 0001:0014bc60       __free_lk                  1014cc60 f   LIBCMTD:dbgheap.obj
 0001:0014bc80       __free_dbg                 1014cc80 f   LIBCMTD:dbgheap.obj
 0001:0014bcf0       __free_dbg_lk              1014ccf0 f   LIBCMTD:dbgheap.obj
 0001:0014c100       __msize                    1014d100 f   LIBCMTD:dbgheap.obj
 0001:0014c120       __msize_dbg                1014d120 f   LIBCMTD:dbgheap.obj
 0001:0014c290       __CrtSetBreakAlloc         1014d290 f   LIBCMTD:dbgheap.obj
 0001:0014c2b0       __CrtSetDbgBlockType       1014d2b0 f   LIBCMTD:dbgheap.obj
 0001:0014c390       __CrtSetAllocHook          1014d390 f   LIBCMTD:dbgheap.obj
 0001:0014c400       __CrtCheckMemory           1014d400 f   LIBCMTD:dbgheap.obj
 0001:0014c770       __CrtSetDbgFlag            1014d770 f   LIBCMTD:dbgheap.obj
 0001:0014c820       __CrtDoForAllClientObjects 1014d820 f   LIBCMTD:dbgheap.obj
 0001:0014c8d0       __CrtIsValidPointer        1014d8d0 f   LIBCMTD:dbgheap.obj
 0001:0014c920       __CrtIsValidHeapPointer    1014d920 f   LIBCMTD:dbgheap.obj
 0001:0014c9d0       __CrtIsMemoryBlock         1014d9d0 f   LIBCMTD:dbgheap.obj
 0001:0014cb00       __CrtReportBlockType       1014db00 f   LIBCMTD:dbgheap.obj
 0001:0014cb30       __CrtSetDumpClient         1014db30 f   LIBCMTD:dbgheap.obj
 0001:0014cb50       __CrtMemCheckpoint         1014db50 f   LIBCMTD:dbgheap.obj
 0001:0014ccf0       __CrtMemDifference         1014dcf0 f   LIBCMTD:dbgheap.obj
 0001:0014ce10       __CrtMemDumpAllObjectsSince 1014de10 f   LIBCMTD:dbgheap.obj
 0001:0014d210       __CrtDumpMemoryLeaks       1014e210 f   LIBCMTD:dbgheap.obj
 0001:0014d280       __CrtMemDumpStatistics     1014e280 f   LIBCMTD:dbgheap.obj
 0001:0014d330       __aligned_malloc           1014e330 f   LIBCMTD:dbgheap.obj
 0001:0014d350       __aligned_malloc_dbg       1014e350 f   LIBCMTD:dbgheap.obj
 0001:0014d370       __aligned_realloc          1014e370 f   LIBCMTD:dbgheap.obj
 0001:0014d390       __aligned_realloc_dbg      1014e390 f   LIBCMTD:dbgheap.obj
 0001:0014d3c0       __aligned_offset_malloc    1014e3c0 f   LIBCMTD:dbgheap.obj
 0001:0014d3e0       __aligned_offset_malloc_dbg 1014e3e0 f   LIBCMTD:dbgheap.obj
 0001:0014d520       __aligned_offset_realloc   1014e520 f   LIBCMTD:dbgheap.obj
 0001:0014d550       __aligned_offset_realloc_dbg 1014e550 f   LIBCMTD:dbgheap.obj
 0001:0014d7b0       __aligned_free             1014e7b0 f   LIBCMTD:dbgheap.obj
 0001:0014d7d0       __aligned_free_dbg         1014e7d0 f   LIBCMTD:dbgheap.obj
 0001:0014d880       ?_RTC_Failure@@YAXPAXH@Z   1014e880 f   LIBCMTD:error.obj
 0001:0014dae0       ?_RTC_MemFailure@@YAXPAXHPBX@Z 1014eae0 f   LIBCMTD:error.obj
 0001:0014dd30       ?_RTC_StackFailure@@YAXPAXPBD@Z 1014ed30 f   LIBCMTD:error.obj
 0001:0014ddf0       __RTC_UninitUse            1014edf0 f   LIBCMTD:error.obj
 0001:0014dfb0       ??3@YAXPAX@Z               1014efb0 f   LIBCMTD:dbgdel.obj
 0001:0014e090       _strcpy                    1014f090 f   LIBCMTD:strcat.obj
 0001:0014e0a0       _strcat                    1014f0a0 f   LIBCMTD:strcat.obj
 0001:0014e190       ??2@YAPAXI@Z               1014f190 f   LIBCMTD:new.obj
 0001:0014e1b0       _fwrite                    1014f1b0 f   LIBCMTD:fwrite.obj
 0001:0014e230       __fwrite_lk                1014f230 f   LIBCMTD:fwrite.obj
 0001:0014e450       _sprintf                   1014f450 f   LIBCMTD:sprintf.obj
 0001:0014e540       __scprintf                 1014f540 f   LIBCMTD:sprintf.obj
 0001:0014e5c0       _strncmp                   1014f5c0 f   LIBCMTD:strncmp.obj
 0001:0014e600       __CxxThrowException@8      1014f600 f   LIBCMTD:throw.obj
 0001:0014e650       ??0exception@@QAE@XZ       1014f650 f   LIBCMTD:stdexcpt.obj
 0001:0014e680       ??_Gexception@@UAEPAXI@Z   1014f680 f i LIBCMTD:stdexcpt.obj
 0001:0014e680       ??_Eexception@@UAEPAXI@Z   1014f680 f i LIBCMTD:stdexcpt.obj
 0001:0014e6b0       ??0exception@@QAE@ABQBD@Z  1014f6b0 f   LIBCMTD:stdexcpt.obj
 0001:0014e720       ??0exception@@QAE@ABV0@@Z  1014f720 f   LIBCMTD:stdexcpt.obj
 0001:0014e7a0       ??4exception@@QAEAAV0@ABV0@@Z 1014f7a0 f   LIBCMTD:stdexcpt.obj
 0001:0014e7d0       ??1exception@@UAE@XZ       1014f7d0 f   LIBCMTD:stdexcpt.obj
 0001:0014e800       ?what@exception@@UBEPBDXZ  1014f800 f   LIBCMTD:stdexcpt.obj
 0001:0014e830       ??0bad_cast@@QAE@PBD@Z     1014f830 f   LIBCMTD:stdexcpt.obj
 0001:0014e860       ??_Gbad_cast@@UAEPAXI@Z    1014f860 f i LIBCMTD:stdexcpt.obj
 0001:0014e860       ??_Ebad_cast@@UAEPAXI@Z    1014f860 f i LIBCMTD:stdexcpt.obj
 0001:0014e890       ??0bad_cast@@QAE@ABV0@@Z   1014f890 f   LIBCMTD:stdexcpt.obj
 0001:0014e8c0       ??1bad_cast@@UAE@XZ        1014f8c0 f   LIBCMTD:stdexcpt.obj
 0001:0014e8e0       ??0bad_typeid@@QAE@PBD@Z   1014f8e0 f   LIBCMTD:stdexcpt.obj
 0001:0014e910       ??_Gbad_typeid@@UAEPAXI@Z  1014f910 f i LIBCMTD:stdexcpt.obj
 0001:0014e910       ??_Ebad_typeid@@UAEPAXI@Z  1014f910 f i LIBCMTD:stdexcpt.obj
 0001:0014e940       ??0bad_typeid@@QAE@ABV0@@Z 1014f940 f   LIBCMTD:stdexcpt.obj
 0001:0014e970       ??1bad_typeid@@UAE@XZ      1014f970 f   LIBCMTD:stdexcpt.obj
 0001:0014e990       ??0__non_rtti_object@@QAE@PBD@Z 1014f990 f   LIBCMTD:stdexcpt.obj
 0001:0014e9c0       ??_E__non_rtti_object@@UAEPAXI@Z 1014f9c0 f i LIBCMTD:stdexcpt.obj
 0001:0014e9c0       ??_G__non_rtti_object@@UAEPAXI@Z 1014f9c0 f i LIBCMTD:stdexcpt.obj
 0001:0014e9f0       ??0__non_rtti_object@@QAE@ABV0@@Z 1014f9f0 f   LIBCMTD:stdexcpt.obj
 0001:0014ea20       ??1__non_rtti_object@@UAE@XZ 1014fa20 f   LIBCMTD:stdexcpt.obj
 0001:0014ea40       ??1type_info@@UAE@XZ       1014fa40 f   LIBCMTD:typinfo.obj
 0001:0014ead0       ??_Gtype_info@@UAEPAXI@Z   1014fad0 f i LIBCMTD:typinfo.obj
 0001:0014ead0       ??_Etype_info@@UAEPAXI@Z   1014fad0 f i LIBCMTD:typinfo.obj
 0001:0014eb00       ??8type_info@@QBEHABV0@@Z  1014fb00 f   LIBCMTD:typinfo.obj
 0001:0014eb30       ??9type_info@@QBEHABV0@@Z  1014fb30 f   LIBCMTD:typinfo.obj
 0001:0014eb60       ?before@type_info@@QBEHABV1@@Z 1014fb60 f   LIBCMTD:typinfo.obj
 0001:0014eb90       ?raw_name@type_info@@QBEPBDXZ 1014fb90 f   LIBCMTD:typinfo.obj
 0001:0014ebb0       ??0type_info@@AAE@ABV0@@Z  1014fbb0 f   LIBCMTD:typinfo.obj
 0001:0014ebd0       ??4type_info@@AAEAAV0@ABV0@@Z 1014fbd0 f   LIBCMTD:typinfo.obj
 0001:0014ebe0       _memmove                   1014fbe0 f   LIBCMTD:memmove.obj
 0001:0014ef20       _printf                    1014ff20 f   LIBCMTD:printf.obj
 0001:0014eff0       _isalpha                   1014fff0 f   LIBCMTD:_ctype.obj
 0001:0014f060       _isupper                   10150060 f   LIBCMTD:_ctype.obj
 0001:0014f0c0       _islower                   101500c0 f   LIBCMTD:_ctype.obj
 0001:0014f120       _isdigit                   10150120 f   LIBCMTD:_ctype.obj
 0001:0014f180       _isxdigit                  10150180 f   LIBCMTD:_ctype.obj
 0001:0014f1f0       _isspace                   101501f0 f   LIBCMTD:_ctype.obj
 0001:0014f250       _ispunct                   10150250 f   LIBCMTD:_ctype.obj
 0001:0014f2b0       _isalnum                   101502b0 f   LIBCMTD:_ctype.obj
 0001:0014f320       _isprint                   10150320 f   LIBCMTD:_ctype.obj
 0001:0014f390       _isgraph                   10150390 f   LIBCMTD:_ctype.obj
 0001:0014f400       _iscntrl                   10150400 f   LIBCMTD:_ctype.obj
 0001:0014f460       ___isascii                 10150460 f   LIBCMTD:_ctype.obj
 0001:0014f470       ___toascii                 10150470 f   LIBCMTD:_ctype.obj
 0001:0014f480       ___iscsymf                 10150480 f   LIBCMTD:_ctype.obj
 0001:0014f4c0       ___iscsym                  101504c0 f   LIBCMTD:_ctype.obj
 0001:0014f500       __fgetchar                 10150500 f   LIBCMTD:fgetchar.obj
 0001:0014f520       _getchar                   10150520 f   LIBCMTD:fgetchar.obj
 0001:0014f530       ??_V@YAXPAX@Z              10150530 f   LIBCMTD:delete2.obj
 0001:0014f550       ??_M@YGXPAXIHP6EX0@Z@Z     10150550 f   LIBCMTD:ehvecdtr.obj
 0001:0014f5f0       ?__ArrayUnwind@@YGXPAXIHP6EX0@Z@Z 101505f0 f   LIBCMTD:ehvecdtr.obj
 0001:0014f6a0       __CrtDbgBreak              101506a0 f   LIBCMTD:dbgrpt.obj
 0001:0014f6b0       __CrtSetReportMode         101506b0 f   LIBCMTD:dbgrpt.obj
 0001:0014f710       __CrtSetReportFile         10150710 f   LIBCMTD:dbgrpt.obj
 0001:0014f790       __CrtSetReportHook         10150790 f   LIBCMTD:dbgrpt.obj
 0001:0014f7b0       __CrtSetReportHook2        101507b0 f   LIBCMTD:dbgrpt.obj
 0001:0014fa00       __CrtDbgReport             10150a00 f   LIBCMTD:dbgrpt.obj
 0001:00150170       __chkstk                   10151170 f   LIBCMTD:chkstk.obj
 0001:00150170       __alloca_probe             10151170     LIBCMTD:chkstk.obj
 0001:001501b0       __resetstkoflw             101511b0 f   LIBCMTD:resetstk.obj
 0001:00150304       __except_handler3          10151304 f   LIBCMTD:exsup3.obj
 0001:001503ea       __seh_longjmp_unwind@4     101513ea f   LIBCMTD:exsup3.obj
 0001:00150410       _wcscat                    10151410 f   LIBCMTD:wcscat.obj
 0001:00150460       _wcscpy                    10151460 f   LIBCMTD:wcscat.obj
 0001:001504b0       _strchr                    101514b0 f   LIBCMTD:strchr.obj
 0001:001504b6       ___from_strstr_to_strchr   101514b6     LIBCMTD:strchr.obj
 0001:00150570       _atol                      10151570 f   LIBCMTD:atox.obj
 0001:00150680       _atoi                      10151680 f   LIBCMTD:atox.obj
 0001:001506a0       __atoi64                   101516a0 f   LIBCMTD:atox.obj
 0001:001507e0       __assert                   101517e0 f   LIBCMTD:assert.obj
 0001:00150de0       _strcmp                    10151de0 f   LIBCMTD:strcmp.obj
 0001:00150e70       _strstr                    10151e70 f   LIBCMTD:strstr.obj
 0001:00150f00       _memcmp                    10151f00 f   LIBCMTD:memcmp.obj
 0001:00150fc0       __strlwr                   10151fc0 f   LIBCMTD:strlwr.obj
 0001:00151180       _wcsrchr                   10152180 f   LIBCMTD:wcsrchr.obj
 0001:001511e0       __wfsopen                  101521e0 f   LIBCMTD:wfopen.obj
 0001:00151310       __wfopen                   10152310 f   LIBCMTD:wfopen.obj
 0001:00151330       ___wdtoxmode               10152330 f   LIBCMTD:wstat.obj
 0001:00151470       __wstat                    10152470 f   LIBCMTD:wstat.obj
 0001:001519b0       _wcslen                    101529b0 f   LIBCMTD:wcslen.obj
 0001:001519e0       _wcscmp                    101529e0 f   LIBCMTD:wcscmp.obj
 0001:00151a40       ??_U@YAPAXI@Z              10152a40 f   LIBCMTD:new2.obj
 0001:00151a60       _wcschr                    10152a60 f   LIBCMTD:wcschr.obj
 0001:00151aa0       _fputc                     10152aa0 f   LIBCMTD:fputc.obj
 0001:00151b80       _putc                      10152b80 f   LIBCMTD:fputc.obj
 0001:00151c60       _ungetc                    10152c60 f   LIBCMTD:ungetc.obj
 0001:00151d00       __ungetc_lk                10152d00 f   LIBCMTD:ungetc.obj
 0001:00151e30       _fgetc                     10152e30 f   LIBCMTD:fgetc.obj
 0001:00151f10       _getc                      10152f10 f   LIBCMTD:fgetc.obj
 0001:00151ff0       _fgetpos                   10152ff0 f   LIBCMTD:fgetpos.obj
 0001:00152030       _fseek                     10153030 f   LIBCMTD:fseek.obj
 0001:001520d0       __fseek_lk                 101530d0 f   LIBCMTD:fseek.obj
 0001:001521e0       _fsetpos                   101531e0 f   LIBCMTD:fsetpos.obj
 0001:00152200       _setvbuf                   10153200 f   LIBCMTD:setvbuf.obj
 0001:001523a0       _fflush                    101533a0 f   LIBCMTD:fflush.obj
 0001:00152430       __fflush_lk                10153430 f   LIBCMTD:fflush.obj
 0001:00152470       __flush                    10153470 f   LIBCMTD:fflush.obj
 0001:00152530       __flushall                 10153530 f   LIBCMTD:fflush.obj
 0001:001526d0       _vsprintf                  101536d0 f   LIBCMTD:vsprintf.obj
 0001:001527c0       __vscprintf                101537c0 f   LIBCMTD:vsprintf.obj
 0001:00152840       __allshl                   10153840 f   LIBCMTD:llshl.obj
 0001:00152860       __allmul                   10153860 f   LIBCMTD:llmul.obj
 0001:001528a0       __fpmath                   101538a0 f   LIBCMTD:fpinit.obj
 0001:001528d0       __fpclear                  101538d0 f   LIBCMTD:fpinit.obj
 0001:001528e0       __cfltcvt_init             101538e0 f   LIBCMTD:fpinit.obj
 0001:00152930       ___setfflag                10153930 f   LIBCMTD:fpinit.obj
 0001:00152950       _modf                      10153950 f   LIBCMTD:modf_pentium4.obj
 0001:00152990       __modf_pentium4            10153990 f   LIBCMTD:modf_pentium4.obj
 0001:00152a98       __ftol2                    10153a98 f   LIBCMTD:ftol2.obj
 0001:00152b10       __aullshr                  10153b10 f   LIBCMTD:ullshr.obj
 0001:00152b30       __purecall                 10153b30 f   LIBCMTD:purevirt.obj
 0001:00152b50       __set_purecall_handler     10153b50 f   LIBCMTD:purevirt.obj
 0001:00152b80       ??_L@YGXPAXIHP6EX0@Z1@Z    10153b80 f   LIBCMTD:ehvecctr.obj
 0001:00152c20       __CRT_INIT@12              10153c20 f   LIBCMTD:dllcrt0.obj
 0001:00152e70       __DllMainCRTStartup@12     10153e70 f   LIBCMTD:dllcrt0.obj
 0001:00152ff0       __amsg_exit                10153ff0 f   LIBCMTD:dllcrt0.obj
 0001:00153030       _strncpy                   10154030 f   LIBCMTD:strncpy.obj
 0001:00153160       __ctime64                  10154160 f   LIBCMTD:ctime64.obj
 0001:00153190       _fprintf                   10154190 f   LIBCMTD:fprintf.obj
 0001:00153280       __time64                   10154280 f   LIBCMTD:time64.obj
 0001:001532e0       __aulldiv                  101542e0 f   LIBCMTD:ulldiv.obj
 0001:00153350       _strtol                    10154350 f   LIBCMTD:strtol.obj
 0001:00153670       _strtoul                   10154670 f   LIBCMTD:strtol.obj
 0001:00153690       _fmod                      10154690 f   LIBCMTD:87fmod.obj
 0001:0015369a       __CIfmod                   1015469a f   LIBCMTD:87fmod.obj
 0001:001536d0       _strtok                    101546d0 f   LIBCMTD:strtok.obj
 0001:00153810       __toupper                  10154810 f   LIBCMTD:toupper.obj
 0001:00153820       _toupper                   10154820 f   LIBCMTD:toupper.obj
 0001:00153860       ___toupper_mt              10154860 f   LIBCMTD:toupper.obj
 0001:001539a0       _strncat                   101549a0 f   LIBCMTD:strncat.obj
 0001:00153ae0       _strrchr                   10154ae0 f   LIBCMTD:strrchr.obj
 0001:00153b10       __tolower                  10154b10 f   LIBCMTD:tolower.obj
 0001:00153b20       _tolower                   10154b20 f   LIBCMTD:tolower.obj
 0001:00153b60       ___tolower_mt              10154b60 f   LIBCMTD:tolower.obj
 0001:00153ca0       _srand                     10154ca0 f   LIBCMTD:rand.obj
 0001:00153cb0       _rand                      10154cb0 f   LIBCMTD:rand.obj
 0001:00153cf0       _vprintf                   10154cf0 f   LIBCMTD:vprintf.obj
 0001:00153dc0       _vfprintf                  10154dc0 f   LIBCMTD:vfprintf.obj
 0001:00153eb0       ___dtoxmode                10154eb0 f   LIBCMTD:stat.obj
 0001:00153ff0       _stat                      10154ff0 f   LIBCMTD:stat.obj
 0001:00153ff0       __stat                     10154ff0 f   LIBCMTD:stat.obj
 0001:00154530       _perror                    10155530 f   LIBCMTD:perror.obj
 0001:00154650       __snprintf                 10155650 f   LIBCMTD:snprintf.obj
 0001:00154740       ___iob_func                10155740 f   LIBCMTD:_file.obj
 0001:00154750       ___initstdio               10155750 f   LIBCMTD:_file.obj
 0001:00154880       ___endstdio                10155880 f   LIBCMTD:_file.obj
 0001:001548a0       __lock_file                101558a0 f   LIBCMTD:_file.obj
 0001:001548e0       __lock_file2               101558e0 f   LIBCMTD:_file.obj
 0001:00154910       __unlock_file              10155910 f   LIBCMTD:_file.obj
 0001:00154950       __unlock_file2             10155950 f   LIBCMTD:_file.obj
 0001:00154980       __copysign                 10155980 f   LIBCMTD:ieeemisc.obj
 0001:001549b0       __chgsign                  101559b0 f   LIBCMTD:ieeemisc.obj
 0001:001549e0       __scalb                    101559e0 f   LIBCMTD:ieeemisc.obj
 0001:00154a00       __logb                     10155a00 f   LIBCMTD:ieeemisc.obj
 0001:00154b30       __nextafter                10155b30 f   LIBCMTD:ieeemisc.obj
 0001:00154e60       __finite                   10155e60 f   LIBCMTD:ieeemisc.obj
 0001:00154e80       __isnan                    10155e80 f   LIBCMTD:ieeemisc.obj
 0001:00154ec0       __fpclass                  10155ec0 f   LIBCMTD:ieeemisc.obj
 0001:00154f90       _log10                     10155f90 f   LIBCMTD:log10.obj
 0001:00154fd0       __CIlog10                  10155fd0 f   LIBCMTD:log10.obj
 0001:0015500b       __CIlog10_default          1015600b f   LIBCMTD:log10.obj
 0001:0015501f       __log10_default            1015601f     LIBCMTD:log10.obj
 0001:001550e0       _fabs                      101560e0 f   LIBCMTD:fabs.obj
 0001:001551e0       _pow                       101561e0 f   LIBCMTD:pow.obj
 0001:00155220       __CIpow                    10156220 f   LIBCMTD:pow.obj
 0001:0015525b       __CIpow_default            1015625b f   LIBCMTD:pow.obj
 0001:00155274       __pow_default              10156274     LIBCMTD:pow.obj
 0001:00155470       _getenv                    10156470 f   LIBCMTD:getenv.obj
 0001:001554e0       __getenv_lk                101564e0 f   LIBCMTD:getenv.obj
 0001:001555b0       _strerror                  101565b0 f   LIBCMTD:strerror.obj
 0001:00155640       __dosmaperr                10156640 f   LIBCMTD:dosmap.obj
 0001:001556e0       __errno                    101566e0 f   LIBCMTD:dosmap.obj
 0001:001556f0       ___doserrno                101566f0 f   LIBCMTD:dosmap.obj
 0001:00155700       __vsnprintf                10156700 f   LIBCMTD:vsnprint.obj
 0001:001557d0       _floor                     101567d0 f   LIBCMTD:floor_pentium4.obj
 0001:00155810       __floor_pentium4           10156810 f   LIBCMTD:floor_pentium4.obj
 0001:00155900       _rewind                    10156900 f   LIBCMTD:rewind.obj
 0001:00155a20       _ftell                     10156a20 f   LIBCMTD:ftell.obj
 0001:00155ac0       __ftell_lk                 10156ac0 f   LIBCMTD:ftell.obj
 0001:00155d40       __fdopen                   10156d40 f   LIBCMTD:fdopen.obj
 0001:00156030       __vsnwprintf               10157030 f   LIBCMTD:vsnwprnt.obj
 0001:00156160       __snwprintf                10157160 f   LIBCMTD:snwprint.obj
 0001:001562a0       __alldiv                   101572a0 f   LIBCMTD:lldiv.obj
 0001:00156350       __mktime64                 10157350 f   LIBCMTD:mktime64.obj
 0001:00156370       __mkgmtime64               10157370 f   LIBCMTD:mktime64.obj
 0001:00156710       __gmtime64                 10157710 f   LIBCMTD:gmtime64.obj
 0001:00156a40       __localtime64              10157a40 f   LIBCMTD:loctim64.obj
 0001:00156d40       _wcsncpy                   10157d40 f   LIBCMTD:wcsncpy.obj
 0001:00156db0       __RTC_NumErrors            10157db0 f   LIBCMTD:userapi.obj
 0001:00156dc0       __RTC_GetErrDesc           10157dc0 f   LIBCMTD:userapi.obj
 0001:00156de0       __RTC_SetErrorType         10157de0 f   LIBCMTD:userapi.obj
 0001:00156e10       __RTC_SetErrorFunc         10157e10 f   LIBCMTD:userapi.obj
 0001:00156e30       ?_RTC_GetErrorFunc@@YAP6AHHPBDH00ZZPBX@Z 10157e30 f   LIBCMTD:userapi.obj
 0001:00156e40       __chkesp                   10157e40 f   LIBCMTD:chkesp.obj
 0001:00156e80       __CRT_RTC_INIT             10157e80 f   LIBCMTD:chkesp.obj
 0001:00156e90       __input                    10157e90 f   LIBCMTD:input.obj
 0001:00158300       ___security_init_cookie    10159300 f   LIBCMTD:seccinit.obj
 0001:001583a0       ___security_error_handler  101593a0 f   LIBCMTD:secfail.obj
 0001:001585d0       __set_security_error_handler 101595d0 f   LIBCMTD:secfail.obj
 0001:001585f0       ___buffer_overrun          101595f0 f   LIBCMTD:secfail.obj
 0001:00158610       ___set_buffer_overrun_handler 10159610 f   LIBCMTD:secfail.obj
 0001:00158630       __close                    10159630 f   LIBCMTD:close.obj
 0001:00158630       _close                     10159630 f   LIBCMTD:close.obj
 0001:00158720       __close_lk                 10159720 f   LIBCMTD:close.obj
 0001:001587d0       __freebuf                  101597d0 f   LIBCMTD:_freebuf.obj
 0001:00158860       __filbuf                   10159860 f   LIBCMTD:_filbuf.obj
 0001:00158a30       _read                      10159a30 f   LIBCMTD:read.obj
 0001:00158a30       __read                     10159a30 f   LIBCMTD:read.obj
 0001:00158b40       __read_lk                  10159b40 f   LIBCMTD:read.obj
 0001:00158f80       __openfile                 10159f80 f   LIBCMTD:_open.obj
 0001:00159310       __getstream                1015a310 f   LIBCMTD:stream.obj
 0001:00159540       __cinit                    1015a540 f   LIBCMTD:crt0dat.obj
 0001:001595a0       _exit                      1015a5a0 f   LIBCMTD:crt0dat.obj
 0001:001595c0       __exit                     1015a5c0 f   LIBCMTD:crt0dat.obj
 0001:001595e0       __cexit                    1015a5e0 f   LIBCMTD:crt0dat.obj
 0001:00159600       __c_exit                   1015a600 f   LIBCMTD:crt0dat.obj
 0001:00159750       ___crtExitProcess          1015a750 f   LIBCMTD:crt0dat.obj
 0001:001597a0       __lockexit                 1015a7a0 f   LIBCMTD:crt0dat.obj
 0001:001597b0       __unlockexit               1015a7b0 f   LIBCMTD:crt0dat.obj
 0001:00159830       ___InternalCxxFrameHandler 1015a830 f   LIBCMTD:frame.obj
 0001:00159da0       ___FrameUnwindToState      1015ada0 f   LIBCMTD:frame.obj
 0001:0015a510       ___DestructExceptionObject 1015b510 f   LIBCMTD:frame.obj
 0001:0015a5f0       ?__uncaught_exception@@YA_NXZ 1015b5f0 f   LIBCMTD:frame.obj
 0001:0015a610       ___CxxExceptionFilter      1015b610 f   LIBCMTD:frame.obj
 0001:0015a7c0       ___CxxRegisterExceptionObject 1015b7c0 f   LIBCMTD:frame.obj
 0001:0015a8e0       ___CxxDetectRethrow        1015b8e0 f   LIBCMTD:frame.obj
 0001:0015a940       ___CxxUnregisterExceptionObject 1015b940 f   LIBCMTD:frame.obj
 0001:0015aa10       ___CxxQueryExceptionSize   1015ba10 f   LIBCMTD:frame.obj
 0001:0015aa20       ___CxxCallUnwindDtor       1015ba20 f   LIBCMTD:frame.obj
 0001:0015aa90       ___CxxCallUnwindVecDtor    1015ba90 f   LIBCMTD:frame.obj
 0001:0015ab10       __CallSettingFrame@12      1015bb10 f   LIBCMTD:lowhelpr.obj
 0001:0015ab37       __NLG_Return               1015bb37     LIBCMTD:lowhelpr.obj
 0001:0015ab60       ___crtTlsAlloc@4           1015bb60 f   LIBCMTD:tidtable.obj
 0001:0015ab70       __mtinit                   1015bb70 f   LIBCMTD:tidtable.obj
 0001:0015acc0       __mtterm                   1015bcc0 f   LIBCMTD:tidtable.obj
 0001:0015acf0       __initptd                  1015bcf0 f   LIBCMTD:tidtable.obj
 0001:0015ad10       __getptd                   1015bd10 f   LIBCMTD:tidtable.obj
 0001:0015adb0       __freefls@4                1015bdb0 f   LIBCMTD:tidtable.obj
 0001:0015b030       __freeptd                  1015c030 f   LIBCMTD:tidtable.obj
 0001:0015b070       ___threadid                1015c070 f   LIBCMTD:tidtable.obj
 0001:0015b080       ___threadhandle            1015c080 f   LIBCMTD:tidtable.obj
 0001:0015b090       ?terminate@@YAXXZ          1015c090 f   LIBCMTD:hooks.obj
 0001:0015b100       ?unexpected@@YAXXZ         1015c100 f   LIBCMTD:hooks.obj
 0001:0015b120       ?_inconsistency@@YAXXZ     1015c120 f   LIBCMTD:hooks.obj
 0001:0015b190       ?_set_new_handler@@YAP6AHI@ZP6AHI@Z@Z 1015c190 f   LIBCMTD:handler.obj
 0001:0015b1c0       ?_query_new_handler@@YAP6AHI@ZXZ 1015c1c0 f   LIBCMTD:handler.obj
 0001:0015b1d0       __callnewh                 1015c1d0 f   LIBCMTD:handler.obj
 0001:0015b200       __mtinitlocks              1015c200 f   LIBCMTD:mlock.obj
 0001:0015b290       __mtdeletelocks            1015c290 f   LIBCMTD:mlock.obj
 0001:0015b350       __mtinitlocknum            1015c350 f   LIBCMTD:mlock.obj
 0001:0015b470       __lock                     1015c470 f   LIBCMTD:mlock.obj
 0001:0015b4b0       __unlock                   1015c4b0 f   LIBCMTD:mlock.obj
 0001:0015b4d0       __lockerr_exit             1015c4d0 f   LIBCMTD:mlock.obj
 0001:0015b4f0       __malloc_base              1015c4f0 f   LIBCMTD:malloc.obj
 0001:0015b510       __nh_malloc_base           1015c510 f   LIBCMTD:malloc.obj
 0001:0015b570       __heap_alloc_base          1015c570 f   LIBCMTD:malloc.obj
 0001:0015b640       __CrtDefaultAllocHook      1015c640 f   LIBCMTD:dbghook.obj
 0001:0015b650       __expand_base              1015c650 f   LIBCMTD:expand.obj
 0001:0015b770       __realloc_base             1015c770 f   LIBCMTD:realloc.obj
 0001:0015ba20       __free_base                1015ca20 f   LIBCMTD:free.obj
 0001:0015baf0       __heapchk                  1015caf0 f   LIBCMTD:heapchk.obj
 0001:0015bbb0       __heapset                  1015cbb0 f   LIBCMTD:heapchk.obj
 0001:0015bbc0       ___heap_select             1015cbc0 f   LIBCMTD:heapinit.obj
 0001:0015bbf0       __heap_init                1015cbf0 f   LIBCMTD:heapinit.obj
 0001:0015bc60       __heap_term                1015cc60 f   LIBCMTD:heapinit.obj
 0001:0015bd10       __get_heap_handle          1015cd10 f   LIBCMTD:heapinit.obj
 0001:0015bd20       __get_sbh_threshold        1015cd20 f   LIBCMTD:sbheap.obj
 0001:0015bd40       __set_sbh_threshold        1015cd40 f   LIBCMTD:sbheap.obj
 0001:0015bdb0       ___sbh_heap_init           1015cdb0 f   LIBCMTD:sbheap.obj
 0001:0015be20       ___sbh_find_block          1015ce20 f   LIBCMTD:sbheap.obj
 0001:0015be80       ___sbh_verify_block        1015ce80 f   LIBCMTD:sbheap.obj
 0001:0015bee0       ___sbh_free_block          1015cee0 f   LIBCMTD:sbheap.obj
 0001:0015c4a0       ___sbh_alloc_block         1015d4a0 f   LIBCMTD:sbheap.obj
 0001:0015c9c0       ___sbh_alloc_new_region    1015d9c0 f   LIBCMTD:sbheap.obj
 0001:0015cad0       ___sbh_alloc_new_group     1015dad0 f   LIBCMTD:sbheap.obj
 0001:0015ccc0       ___sbh_resize_block        1015dcc0 f   LIBCMTD:sbheap.obj
 0001:0015d290       ___sbh_heapmin             1015e290 f   LIBCMTD:sbheap.obj
 0001:0015d3c0       ___sbh_heap_check          1015e3c0 f   LIBCMTD:sbheap.obj
 0001:0015d8d0       ____setlc_active_func      1015e8d0 f   LIBCMTD:setlocal.obj
 0001:0015d8e0       ____unguarded_readlc_active_add_func 1015e8e0 f   LIBCMTD:setlocal.obj
 0001:0015d8f0       ___freetlocinfo            1015e8f0 f   LIBCMTD:setlocal.obj
 0001:0015da70       ___updatetlocinfo          1015ea70 f   LIBCMTD:setlocal.obj
 0001:0015dcb0       _setlocale                 1015ecb0 f   LIBCMTD:setlocal.obj
 0001:0015e760       __expandlocale             1015f760 f   LIBCMTD:setlocal.obj
 0001:0015e940       ___init_dummy              1015f940 f   LIBCMTD:setlocal.obj
 0001:0015e950       __strcats                  1015f950 f   LIBCMTD:setlocal.obj
 0001:0015e9a0       ___lc_strtolc              1015f9a0 f   LIBCMTD:setlocal.obj
 0001:0015eb10       ___lc_lctostr              1015fb10 f   LIBCMTD:setlocal.obj
 0001:0015eb80       __chvalidator              1015fb80 f   LIBCMTD:isctype.obj
 0001:0015ebc0       __chvalidator_mt           1015fbc0 f   LIBCMTD:isctype.obj
 0001:0015ec00       __isctype                  1015fc00 f   LIBCMTD:isctype.obj
 0001:0015ec40       ___isctype_mt              1015fc40 f   LIBCMTD:isctype.obj
 0001:0015ed00       ?_RTC_GetSrcLine@@YAHKPADHPAHPAPAD@Z 1015fd00 f   LIBCMTD:pdblkup.obj
 0001:0015f5a0       __flsbuf                   101605a0 f   LIBCMTD:_flsbuf.obj
 0001:0015f800       __write                    10160800 f   LIBCMTD:write.obj
 0001:0015f800       _write                     10160800 f   LIBCMTD:write.obj
 0001:0015f910       __write_lk                 10160910 f   LIBCMTD:write.obj
 0001:0015fc00       __output                   10160c00 f   LIBCMTD:output.obj
 0001:00160b80       ?__CxxUnhandledExceptionFilter@@YGJPAU_EXCEPTION_POINTERS@@@Z 10161b80 f   LIBCMTD:unhandld.obj
 0001:00160bf0       ?__CxxSetUnhandledExceptionFilter@@YAHXZ 10161bf0 f   LIBCMTD:unhandld.obj
 0001:00160c10       ?__CxxRestoreUnhandledExceptionFilter@@YAXXZ 10161c10 f   LIBCMTD:unhandld.obj
 0001:00160c30       __stbuf                    10161c30 f   LIBCMTD:_sftbuf.obj
 0001:00160d80       __ftbuf                    10161d80 f   LIBCMTD:_sftbuf.obj
 0001:00160e10       __itoa                     10161e10 f   LIBCMTD:xtoa.obj
 0001:00160e10       _itoa                      10161e10 f   LIBCMTD:xtoa.obj
 0001:00160f30       __ltoa                     10161f30 f   LIBCMTD:xtoa.obj
 0001:00160f70       __ultoa                    10161f70 f   LIBCMTD:xtoa.obj
 0001:00160f90       __i64toa                   10161f90 f   LIBCMTD:xtoa.obj
 0001:001610e0       __ui64toa                  101620e0 f   LIBCMTD:xtoa.obj
 0001:00161100       _signal                    10162100 f   LIBCMTD:winsig.obj
 0001:00161440       _raise                     10162440 f   LIBCMTD:winsig.obj
 0001:00161700       ___fpecode                 10162700 f   LIBCMTD:winsig.obj
 0001:00161710       ___pxcptinfoptrs           10162710 f   LIBCMTD:winsig.obj
 0001:00161720       ___crtMessageBoxA          10162720 f   LIBCMTD:crtmbox.obj
 0001:00161890       __ValidateEH3RN            10162890 f   LIBCMTD:eh3valid.obj
 0001:00161c80       _abort                     10162c80 f   LIBCMTD:abort.obj
 0001:00161ca0       ___crtLCMapStringA         10162ca0 f   LIBCMTD:a_map.obj
 0001:00162260       __wopenfile                10163260 f   LIBCMTD:_wopen.obj
 0001:001625f0       __wcsicmp                  101635f0 f   LIBCMTD:wcsicmp.obj
 0001:00162730       ___loctotime_t             10163730 f   LIBCMTD:dtoxtime.obj
 0001:00162890       __wfullpath                10163890 f   LIBCMTD:wfullpat.obj
 0001:00162970       __getdrive                 10163970 f   LIBCMTD:drive.obj
 0001:00162b10       __chdrive                  10163b10 f   LIBCMTD:drive.obj
 0001:00162be0       _towlower                  10163be0 f   LIBCMTD:towlower.obj
 0001:00162c60       ___towlower_mt             10163c60 f   LIBCMTD:towlower.obj
 0001:00162ce0       _wcspbrk                   10163ce0 f   LIBCMTD:wcspbrk.obj
 0001:00162d40       __getbuf                   10163d40 f   LIBCMTD:_getbuf.obj
 0001:00162e00       __ftelli64                 10163e00 f   LIBCMTD:ftelli64.obj
 0001:00162ea0       __ftelli64_lk              10163ea0 f   LIBCMTD:ftelli64.obj
 0001:00163170       __lseek                    10164170 f   LIBCMTD:lseek.obj
 0001:00163280       __lseek_lk                 10164280 f   LIBCMTD:lseek.obj
 0001:00163340       __fseeki64                 10164340 f   LIBCMTD:fseeki64.obj
 0001:001633f0       __fseeki64_lk              101643f0 f   LIBCMTD:fseeki64.obj
 0001:00163530       __commit                   10164530 f   LIBCMTD:commit.obj
 0001:00163640       __setdefaultprecision      10164640 f   LIBCMTD:fp8.obj
 0001:00163660       __ms_p5_test_fdiv          10164660 f   LIBCMTD:testfdiv.obj
 0001:001636b0       __ms_p5_mp_test_fdiv       101646b0 f   LIBCMTD:testfdiv.obj
 0001:00163700       __forcdecpt                10164700 f   LIBCMTD:cvt.obj
 0001:00163780       __cropzeros                10164780 f   LIBCMTD:cvt.obj
 0001:00163860       __positive                 10164860 f   LIBCMTD:cvt.obj
 0001:00163890       __fassign                  10164890 f   LIBCMTD:cvt.obj
 0001:001638e0       __cftoe                    101648e0 f   LIBCMTD:cvt.obj
 0001:00163ae0       __cftof                    10164ae0 f   LIBCMTD:cvt.obj
 0001:00163ca0       __cftog                    10164ca0 f   LIBCMTD:cvt.obj
 0001:00163da0       __cfltcvt                  10164da0 f   LIBCMTD:cvt.obj
 0001:00163e30       ___sse2_available_init     10164e30 f   LIBCMTD:cpu_disp.obj
 0001:00163fc0       __set_SSE2_enable          10164fc0 f   LIBCMTD:cpu_disp.obj
 0001:00163fe0       __modf_default             10164fe0 f   LIBCMTD:modf.obj
 0001:00164160       ___libm_error_support      10165160 f   LIBCMTD:libm_error.obj
 0001:00164b70       __ioinit                   10165b70 f   LIBCMTD:ioinit.obj
 0001:00164f00       __ioterm                   10165f00 f   LIBCMTD:ioinit.obj
 0001:00164fa0       __setenvp                  10165fa0 f   LIBCMTD:stdenvp.obj
 0001:00165120       __setargv                  10166120 f   LIBCMTD:stdargv.obj
 0001:00165580       ___crtGetEnvironmentStringsA 10166580 f   LIBCMTD:a_env.obj
 0001:001657a0       __RTC_Initialize           101667a0 f   LIBCMTD:initsect.obj
 0001:00165820       __RTC_Terminate            10166820 f   LIBCMTD:initsect.obj
 0001:001658a0       ___CppXcptFilter           101668a0 f   LIBCMTD:winxfltr.obj
 0001:001658d0       __XcptFilter               101668d0 f   LIBCMTD:winxfltr.obj
 0001:00165af0       __FF_MSGBANNER             10166af0 f   LIBCMTD:crt0msg.obj
 0001:00165b40       __NMSG_WRITE               10166b40 f   LIBCMTD:crt0msg.obj
 0001:00165d50       __GET_RTERRMSG             10166d50 f   LIBCMTD:crt0msg.obj
 0001:00165da0       _asctime                   10166da0 f   LIBCMTD:asctime.obj
 0001:00165fa0       __cintrindisp2             10166fa0 f   LIBCMTD:87cdisp.obj
 0001:00165fde       __cintrindisp1             10166fde f   LIBCMTD:87cdisp.obj
 0001:0016601b       __ctrandisp2               1016701b f   LIBCMTD:87cdisp.obj
 0001:001661b1       __ctrandisp1               101671b1 f   LIBCMTD:87cdisp.obj
 0001:001661e4       __fload                    101671e4 f   LIBCMTD:87cdisp.obj
 0001:00166220       __trandisp1                10167220 f   LIBCMTD:87disp.obj
 0001:00166287       __trandisp2                10167287 f   LIBCMTD:87disp.obj
 0001:00166313       __rttospopde               10167313     LIBCMTD:87disp.obj
 0001:00166318       __rttospop                 10167318     LIBCMTD:87disp.obj
 0001:0016631a       __rtnospop                 1016731a     LIBCMTD:87disp.obj
 0001:0016631c       __rttosnpop                1016731c     LIBCMTD:87disp.obj
 0001:0016631d       __rtnospopde               1016731d     LIBCMTD:87disp.obj
 0001:00166324       __rtzeropop                10167324     LIBCMTD:87disp.obj
 0001:00166326       __rtzeronpop               10167326     LIBCMTD:87disp.obj
 0001:0016632b       __rtonepop                 1016732b     LIBCMTD:87disp.obj
 0001:0016632d       __rtonenpop                1016732d     LIBCMTD:87disp.obj
 0001:00166332       __tosnan1                  10167332     LIBCMTD:87disp.obj
 0001:0016635d       __nosnan2                  1016735d     LIBCMTD:87disp.obj
 0001:0016635f       __tosnan2                  1016735f     LIBCMTD:87disp.obj
 0001:00166387       __nan2                     10167387     LIBCMTD:87disp.obj
 0001:001663c6       __rtindfpop                101673c6     LIBCMTD:87disp.obj
 0001:001663c8       __rtindfnpop               101673c8     LIBCMTD:87disp.obj
 0001:001663d9       __rttosnpopde              101673d9     LIBCMTD:87disp.obj
 0001:001663e3       __rtchsifneg               101673e3     LIBCMTD:87disp.obj
 0001:001663f0       _fdiv_main_routine         101673f0 f   LIBCMTD:adj_fdiv.obj
 0001:00166507       __adj_fdiv_r               10167507 f   LIBCMTD:adj_fdiv.obj
 0001:001669a6       __fdivp_sti_st             101679a6 f   LIBCMTD:adj_fdiv.obj
 0001:001669b9       __fdivrp_sti_st            101679b9 f   LIBCMTD:adj_fdiv.obj
 0001:001669cc       __adj_fdiv_m32             101679cc f   LIBCMTD:adj_fdiv.obj
 0001:00166a18       __adj_fdiv_m64             10167a18 f   LIBCMTD:adj_fdiv.obj
 0001:00166a64       __adj_fdiv_m16i            10167a64 f   LIBCMTD:adj_fdiv.obj
 0001:00166a98       __adj_fdiv_m32i            10167a98 f   LIBCMTD:adj_fdiv.obj
 0001:00166acc       __adj_fdivr_m32            10167acc f   LIBCMTD:adj_fdiv.obj
 0001:00166b18       __adj_fdivr_m64            10167b18 f   LIBCMTD:adj_fdiv.obj
 0001:00166b64       __adj_fdivr_m16i           10167b64 f   LIBCMTD:adj_fdiv.obj
 0001:00166b98       __adj_fdivr_m32i           10167b98 f   LIBCMTD:adj_fdiv.obj
 0001:00166bcc       __safe_fdiv                10167bcc f   LIBCMTD:adj_fdiv.obj
 0001:00166be1       __safe_fdivr               10167be1 f   LIBCMTD:adj_fdiv.obj
 0001:00166bf6       __fprem_common             10167bf6 f   LIBCMTD:adj_fdiv.obj
 0001:00166dfc       __adj_fprem                10167dfc f   LIBCMTD:adj_fdiv.obj
 0001:00166eae       __fprem1_common            10167eae f   LIBCMTD:adj_fdiv.obj
 0001:001670b4       __adj_fprem1               101680b4 f   LIBCMTD:adj_fdiv.obj
 0001:00167169       __safe_fprem               10168169 f   LIBCMTD:adj_fdiv.obj
 0001:0016716f       __safe_fprem1              1016816f f   LIBCMTD:adj_fdiv.obj
 0001:00167175       __adj_fpatan               10168175 f   LIBCMTD:adj_fdiv.obj
 0001:00167178       __adj_fptan                10168178 f   LIBCMTD:adj_fdiv.obj
 0001:00167180       __mbsicmp                  10168180 f   LIBCMTD:mbsicmp.obj
 0001:001673b0       __mbsrchr                  101683b0 f   LIBCMTD:mbsrchr.obj
 0001:00167480       __fullpath                 10168480 f   LIBCMTD:fullpath.obj
 0001:00167560       __mbctolower               10168560 f   LIBCMTD:mbtolwr.obj
 0001:00167640       __mbspbrk                  10168640 f   LIBCMTD:mbspbrk.obj
 0001:00167680       ___mbspbrk_mt              10168680 f   LIBCMTD:mbspbrk.obj
 0001:00167790       __alloc_osfhnd             10168790 f   LIBCMTD:osfinfo.obj
 0001:00167a10       __set_osfhnd               10168a10 f   LIBCMTD:osfinfo.obj
 0001:00167ad0       __free_osfhnd              10168ad0 f   LIBCMTD:osfinfo.obj
 0001:00167bb0       __get_osfhandle            10168bb0 f   LIBCMTD:osfinfo.obj
 0001:00167c20       __open_osfhandle           10168c20 f   LIBCMTD:osfinfo.obj
 0001:00167d70       __lock_fhandle             10168d70 f   LIBCMTD:osfinfo.obj
 0001:00167e60       __unlock_fhandle           10168e60 f   LIBCMTD:osfinfo.obj
 0001:00167e90       __fcloseall                10168e90 f   LIBCMTD:closeall.obj
 0001:00167fb0       _ldexp                     10168fb0 f   LIBCMTD:ldexp.obj
 0001:00168280       __set_exp                  10169280 f   LIBCMTD:util.obj
 0001:001682c0       __get_exp                  101692c0 f   LIBCMTD:util.obj
 0001:001682f0       __add_exp                  101692f0 f   LIBCMTD:util.obj
 0001:00168320       __set_bexp                 10169320 f   LIBCMTD:util.obj
 0001:00168350       __sptype                   10169350 f   LIBCMTD:util.obj
 0001:001683d0       __decomp                   101693d0 f   LIBCMTD:util.obj
 0001:00168500       __handle_qnan1             10169500 f   LIBCMTD:fpexcept.obj
 0001:00168560       __handle_qnan2             10169560 f   LIBCMTD:fpexcept.obj
 0001:001685d0       __except1                  101695d0 f   LIBCMTD:fpexcept.obj
 0001:001686d0       __except2                  101696d0 f   LIBCMTD:fpexcept.obj
 0001:001687e0       __raise_exc                101697e0 f   LIBCMTD:fpexcept.obj
 0001:00168c90       __handle_exc               10169c90 f   LIBCMTD:fpexcept.obj
 0001:00168fb0       __umatherr                 10169fb0 f   LIBCMTD:fpexcept.obj
 0001:00169050       __set_errno                1016a050 f   LIBCMTD:fpexcept.obj
 0001:001690d0       __errcode                  1016a0d0 f   LIBCMTD:fpexcept.obj
 0001:00169140       __statfp                   1016a140 f   LIBCMTD:fpctrl.obj
 0001:00169150       __clrfp                    1016a150 f   LIBCMTD:fpctrl.obj
 0001:00169170       __ctrlfp                   1016a170 f   LIBCMTD:fpctrl.obj
 0001:001691a0       __set_statfp               1016a1a0 f   LIBCMTD:fpctrl.obj
 0001:00169210       __CIlog10_pentium4         1016a210 f   LIBCMTD:log10_pentium4.obj
 0001:00169228       __log10_pentium4           1016a228     LIBCMTD:log10_pentium4.obj
 0001:001694b1       __fFEXP                    1016a4b1     LIBCMTD:87tran.obj
 0001:00169518       __rtinfpopse               1016a518     LIBCMTD:87tran.obj
 0001:0016951a       __rtinfnpopse              1016a51a     LIBCMTD:87tran.obj
 0001:0016952a       __fFLN                     1016a52a     LIBCMTD:87tran.obj
 0001:001695df       __rtinfpop                 1016a5df     LIBCMTD:87tran.obj
 0001:001695e1       __rtinfnpop                1016a5e1     LIBCMTD:87tran.obj
 0001:001695fe       __ffexpm1                  1016a5fe     LIBCMTD:87tran.obj
 0001:001696b0       __twoToTOS                 1016a6b0 f   LIBCMTD:common.obj
 0001:001696c5       __load_CW                  1016a6c5 f   LIBCMTD:common.obj
 0001:001696dc       __convertTOStoQNaN         1016a6dc f   LIBCMTD:common.obj
 0001:001696f5       __fload_withFB             1016a6f5 f   LIBCMTD:common.obj
 0001:00169738       __checkTOS_withFB          1016a738 f   LIBCMTD:common.obj
 0001:0016974e       __fast_exit                1016a74e f   LIBCMTD:common.obj
 0001:0016975b       __math_exit                1016a75b f   LIBCMTD:common.obj
 0001:00169785       __check_overflow_exit      1016a785 f   LIBCMTD:common.obj
 0001:00169799       __check_range_exit         1016a799 f   LIBCMTD:common.obj
 0001:00169840       __startTwoArgErrorHandling 1016a840 f   LIBCMTD:genexcep.obj
 0001:00169857       __startOneArgErrorHandling 1016a857 f   LIBCMTD:genexcep.obj
 0001:001698a0       __CIpow_pentium4           1016a8a0 f   LIBCMTD:pow_pentium4.obj
 0001:001698b9       __pow_pentium4             1016a8b9     LIBCMTD:pow_pentium4.obj
 0001:0016a3f0       __powhlp                   1016b3f0 f   LIBCMTD:powhlp.obj
 0001:0016a5f0       __d_inttype                1016b5f0 f   LIBCMTD:powhlp.obj
 0001:0016a680       __mbsnbicoll               1016b680 f   LIBCMTD:mbsnbico.obj
 0001:0016a6f0       ___wtomb_environ           1016b6f0 f   LIBCMTD:wtombenv.obj
 0001:0016a7e0       __floor_default            1016b7e0 f   LIBCMTD:floor.obj
 0001:0016a920       __woutput                  1016b920 f   LIBCMTD:woutput.obj
 0001:0016b7f0       ___tzset                   1016c7f0 f   LIBCMTD:tzset.obj
 0001:0016b880       __tzset                    1016c880 f   LIBCMTD:tzset.obj
 0001:0016bd10       __isindst                  1016cd10 f   LIBCMTD:tzset.obj
 0001:0016c2f0       __allrem                   1016d2f0 f   LIBCMTD:llrem.obj
 0001:0016c3b0       _mbtowc                    1016d3b0 f   LIBCMTD:mbtowc.obj
 0001:0016c3f0       ___mbtowc_mt               1016d3f0 f   LIBCMTD:mbtowc.obj
 0001:0016c540       ___pwctype_func            1016d540 f   LIBCMTD:ctype.obj
 0001:0016c550       ___pctype_func             1016d550 f   LIBCMTD:ctype.obj
 0001:0016c560       _open                      1016d560 f   LIBCMTD:open.obj
 0001:0016c560       __open                     1016d560 f   LIBCMTD:open.obj
 0001:0016c610       __sopen                    1016d610 f   LIBCMTD:open.obj
 0001:0016cbc0       ___crtInitCritSecAndSpinCount 1016dbc0 f   LIBCMTD:initcrit.obj
 0001:0016cce0       ?_ValidateRead@@YAHPBXI@Z  1016dce0 f   LIBCMTD:validate.obj
 0001:0016cd10       ?_ValidateWrite@@YAHPAXI@Z 1016dd10 f   LIBCMTD:validate.obj
 0001:0016cd40       ?_ValidateExecute@@YAHP6GHXZ@Z 1016dd40 f   LIBCMTD:validate.obj
 0001:0016cd70       ___updatetmbcinfo          1016dd70 f   LIBCMTD:mbctype.obj
 0001:0016ce40       __setmbcp                  1016de40 f   LIBCMTD:mbctype.obj
 0001:0016d780       __getmbcp                  1016e780 f   LIBCMTD:mbctype.obj
 0001:0016d7a0       ___initmbctable            1016e7a0 f   LIBCMTD:mbctype.obj
 0001:0016d7d0       __Getdays                  1016e7d0 f   LIBCMTD:strftime.obj
 0001:0016d900       __Getmonths                1016e900 f   LIBCMTD:strftime.obj
 0001:0016da30       __Gettnames                1016ea30 f   LIBCMTD:strftime.obj
 0001:0016ddc0       _strftime                  1016edc0 f   LIBCMTD:strftime.obj
 0001:0016dde0       __Strftime                 1016ede0 f   LIBCMTD:strftime.obj
 0001:0016de30       __Strftime_mt              1016ee30 f   LIBCMTD:strftime.obj
 0001:0016f050       _localeconv                10170050 f   LIBCMTD:lconv.obj
 0001:0016f060       ___init_time               10170060 f   LIBCMTD:inittime.obj
 0001:0016f670       ___free_lc_time            10170670 f   LIBCMTD:inittime.obj
 0001:0016f980       ___init_numeric            10170980 f   LIBCMTD:initnum.obj
 0001:0016fcc0       ___free_lconv_num          10170cc0 f   LIBCMTD:initnum.obj
 0001:0016fd60       ___init_monetary           10170d60 f   LIBCMTD:initmon.obj
 0001:00170160       ___free_lconv_mon          10171160 f   LIBCMTD:initmon.obj
 0001:001702c0       ___init_ctype              101712c0 f   LIBCMTD:initctyp.obj
 0001:00170580       ____mb_cur_max_func        10171580 f   LIBCMTD:initctyp.obj
 0001:00170590       ____lc_codepage_func       10171590 f   LIBCMTD:initctyp.obj
 0001:001705c0       ____lc_collate_cp_func     101715c0 f   LIBCMTD:initctyp.obj
 0001:001705f0       ____lc_handle_func         101715f0 f   LIBCMTD:initctyp.obj
 0001:00170620       ___init_collate            10171620 f   LIBCMTD:initcoll.obj
 0001:00170630       _strcspn                   10171630 f   LIBCMTD:strcspn.obj
 0001:00170680       _strpbrk                   10171680 f   LIBCMTD:strpbrk.obj
 0001:001706c0       ___crtGetStringTypeA       101716c0 f   LIBCMTD:a_str.obj
 0001:00170960       ___get_qualified_locale    10171960 f   LIBCMTD:getqloc.obj
 0001:00171790       __isatty                   10172790 f   LIBCMTD:isatty.obj
 0001:001717d0       __lseeki64                 101727d0 f   LIBCMTD:lseeki64.obj
 0001:001718f0       __lseeki64_lk              101728f0 f   LIBCMTD:lseeki64.obj
 0001:001719c0       _wctomb                    101729c0 f   LIBCMTD:wctomb.obj
 0001:00171a00       ___wctomb_mt               10172a00 f   LIBCMTD:wctomb.obj
 0001:00171aa0       __aullrem                  10172aa0 f   LIBCMTD:ullrem.obj
 0001:00171b20       ___ansicp                  10172b20 f   LIBCMTD:convrtcp.obj
 0001:00171b80       ___convertcp               10172b80 f   LIBCMTD:convrtcp.obj
 0001:00171e20       __wopen                    10172e20 f   LIBCMTD:wopen.obj
 0001:00171ed0       __wsopen                   10172ed0 f   LIBCMTD:wopen.obj
 0001:00172480       __wgetcwd                  10173480 f   LIBCMTD:wgetcwd.obj
 0001:00172500       __wgetdcwd                 10173500 f   LIBCMTD:wgetcwd.obj
 0001:00172580       __wgetdcwd_lk              10173580 f   LIBCMTD:wgetcwd.obj
 0001:001726e0       ___crtLCMapStringW         101736e0 f   LIBCMTD:w_map.obj
 0001:00172ac0       _iswctype                  10173ac0 f   LIBCMTD:iswctype.obj
 0001:00172b30       ___iswctype_mt             10173b30 f   LIBCMTD:iswctype.obj
 0001:00172ba0       _is_wctype                 10173ba0 f   LIBCMTD:iswctype.obj
 0001:00172bc0       __statusfp                 10173bc0 f   LIBCMTD:ieee87.obj
 0001:00172be0       __clearfp                  10173be0 f   LIBCMTD:ieee87.obj
 0001:00172c00       __control87                10173c00 f   LIBCMTD:ieee87.obj
 0001:00172c50       __controlfp                10173c50 f   LIBCMTD:ieee87.obj
 0001:00172c70       __fpreset                  10173c70 f   LIBCMTD:ieee87.obj
 0001:00173000       __ZeroTail                 10174000 f   LIBCMTD:intrncvt.obj
 0001:00173090       __IncMan                   10174090 f   LIBCMTD:intrncvt.obj
 0001:00173140       __RoundMan                 10174140 f   LIBCMTD:intrncvt.obj
 0001:00173220       __CopyMan                  10174220 f   LIBCMTD:intrncvt.obj
 0001:00173270       __FillZeroMan              10174270 f   LIBCMTD:intrncvt.obj
 0001:001732a0       __IsZeroMan                101742a0 f   LIBCMTD:intrncvt.obj
 0001:001732e0       __ShrMan                   101742e0 f   LIBCMTD:intrncvt.obj
 0001:001733d0       __ld12cvt                  101743d0 f   LIBCMTD:intrncvt.obj
 0001:00173610       __ld12tod                  10174610 f   LIBCMTD:intrncvt.obj
 0001:00173630       __ld12tof                  10174630 f   LIBCMTD:intrncvt.obj
 0001:00173650       __ld12told                 10174650 f   LIBCMTD:intrncvt.obj
 0001:00173700       __atodbl                   10174700 f   LIBCMTD:intrncvt.obj
 0001:00173750       __atoldbl                  10174750 f   LIBCMTD:intrncvt.obj
 0001:001737a0       __atoflt                   101747a0 f   LIBCMTD:intrncvt.obj
 0001:001737f0       __fptostr                  101747f0 f   LIBCMTD:_fptostr.obj
 0001:001738f0       __fltout2                  101748f0 f   LIBCMTD:cfout.obj
 0001:00173980       ___dtold                   10174980 f   LIBCMTD:cfout.obj
 0001:00173ad0       __fptrap                   10174ad0 f   LIBCMTD:crt0fp.obj
 0001:00173ae0       __frnd                     10174ae0 f   LIBCMTD:frnd.obj
 0001:00173b00       __matherr                  10174b00 f   LIBCMTD:matherr.obj
 0001:00173b10       __87except                 10174b10 f   LIBCMTD:87except.obj
 0001:00173cc0       __stricmp                  10174cc0 f   LIBCMTD:stricmp.obj
 0001:00173cc0       _stricmp                   10174cc0 f   LIBCMTD:stricmp.obj
 0001:00173d70       _getcwd                    10174d70 f   LIBCMTD:getcwd.obj
 0001:00173d70       __getcwd                   10174d70 f   LIBCMTD:getcwd.obj
 0001:00173df0       __getdcwd                  10174df0 f   LIBCMTD:getcwd.obj
 0001:00173e70       __getdcwd_lk               10174e70 f   LIBCMTD:getcwd.obj
 0001:00173fd0       __validdrive               10174fd0 f   LIBCMTD:getcwd.obj
 0001:00174020       ___crtCompareStringA       10175020 f   LIBCMTD:a_cmp.obj
 0001:001745e0       ___crtsetenv               101755e0 f   LIBCMTD:setenv.obj
 0001:00174ad0       _fputwc                    10175ad0 f   LIBCMTD:fputwc.obj
 0001:00174b80       __putwc_lk                 10175b80 f   LIBCMTD:fputwc.obj
 0001:00174d10       _putwc                     10175d10 f   LIBCMTD:fputwc.obj
 0001:00174d30       __chsize                   10175d30 f   LIBCMTD:chsize.obj
 0001:00174e20       __chsize_lk                10175e20 f   LIBCMTD:chsize.obj
 0001:00175000       ___ascii_stricmp           10176000 f   LIBCMTD:_stricmp.obj
 0001:00175050       ___getlocaleinfo           10176050 f   LIBCMTD:inithelp.obj
 0001:001752b0       _strnicmp                  101762b0 f   LIBCMTD:strnicmp.obj
 0001:001752b0       __strnicmp                 101762b0 f   LIBCMTD:strnicmp.obj
 0001:00175370       ___crtGetStringTypeW       10176370 f   LIBCMTD:w_str.obj
 0001:001756a0       ___addl                    101766a0 f   LIBCMTD:mantold.obj
 0001:001756e0       ___add_12                  101766e0 f   LIBCMTD:mantold.obj
 0001:00175790       ___shl_12                  10176790 f   LIBCMTD:mantold.obj
 0001:001757f0       ___shr_12                  101767f0 f   LIBCMTD:mantold.obj
 0001:00175860       ___mtold12                 10176860 f   LIBCMTD:mantold.obj
 0001:001759b0       ___strgtold12              101769b0 f   LIBCMTD:strgtold.obj
 0001:001763b0       ___STRINGTOLD              101773b0 f   LIBCMTD:strgtold.obj
 0001:00176410       _$I10_OUTPUT               10177410 f   LIBCMTD:x10fout.obj
 0001:001768f0       __mbschr                   101778f0 f   LIBCMTD:mbschr.obj
 0001:001769c0       __flswbuf                  101779c0 f   LIBCMTD:_flswbuf.obj
 0001:00176c30       __setmode                  10177c30 f   LIBCMTD:setmode.obj
 0001:00176d20       __setmode_lk               10177d20 f   LIBCMTD:setmode.obj
 0001:00176e00       ___crtGetLocaleInfoW       10177e00 f   LIBCMTD:w_loc.obj
 0001:00176fe0       ___crtGetLocaleInfoA       10177fe0 f   LIBCMTD:a_loc.obj
 0001:001771d0       ___ascii_strnicmp          101781d0 f   LIBCMTD:_strnicm.obj
 0001:00177240       ___ld12mul                 10178240 f   LIBCMTD:tenpow.obj
 0001:00177630       ___multtenpow12            10178630 f   LIBCMTD:tenpow.obj
 0001:00177700       ?_Xlen@_String_base@std@@QBEXXZ 10178700 f   libcpmtd:string.obj
 0001:00177760       ?_Xran@_String_base@std@@QBEXXZ 10178760 f   libcpmtd:string.obj
 0001:001777c0       ?clear@ios_base@std@@QAEXH_N@Z 101787c0 f   libcpmtd:ios.obj
 0001:00177900       ??0failure@ios_base@std@@QAE@ABV?$basic_string@DU?$char_traits@D@std@@V?$allocator@D@2@@2@@Z 10178900 f i libcpmtd:ios.obj
 0001:00177930       ??0runtime_error@std@@QAE@ABV?$basic_string@DU?$char_traits@D@std@@V?$allocator@D@2@@1@@Z 10178930 f i libcpmtd:ios.obj
 0001:00177990       ?what@runtime_error@std@@UBEPBDXZ 10178990 f i libcpmtd:ios.obj
 0001:001779b0       ??_Eruntime_error@std@@UAEPAXI@Z 101789b0 f i libcpmtd:ios.obj
 0001:001779b0       ??_Gruntime_error@std@@UAEPAXI@Z 101789b0 f i libcpmtd:ios.obj
 0001:001779e0       ??1runtime_error@std@@UAE@XZ 101789e0 f i libcpmtd:ios.obj
 0001:00177a40       ??1failure@ios_base@std@@UAE@XZ 10178a40 f i libcpmtd:ios.obj
 0001:00177a60       ??_Gfailure@ios_base@std@@UAEPAXI@Z 10178a60 f i libcpmtd:ios.obj
 0001:00177a60       ??_Efailure@ios_base@std@@UAEPAXI@Z 10178a60 f i libcpmtd:ios.obj
 0001:00177a90       ??0failure@ios_base@std@@QAE@ABV012@@Z 10178a90 f i libcpmtd:ios.obj
 0001:00177ac0       ??0runtime_error@std@@QAE@ABV01@@Z 10178ac0 f i libcpmtd:ios.obj
 0001:00177b30       ?copyfmt@ios_base@std@@QAEAAV12@ABV12@@Z 10178b30 f   libcpmtd:ios.obj
 0001:00177c40       ??4locale@std@@QAEAAV01@ABV01@@Z 10178c40 f i libcpmtd:ios.obj
 0001:00177c90       ?exceptions@ios_base@std@@QAEXH@Z 10178c90 f i libcpmtd:ios.obj
 0001:00177cc0       ?clear@ios_base@std@@QAEXH@Z 10178cc0 f i libcpmtd:ios.obj
 0001:00177ce0       ?iword@ios_base@std@@QAEAAJH@Z 10178ce0 f i libcpmtd:ios.obj
 0001:00177d00       ?pword@ios_base@std@@QAEAAPAXH@Z 10178d00 f i libcpmtd:ios.obj
 0001:00177d20       ?imbue@ios_base@std@@QAE?AVlocale@2@ABV32@@Z 10178d20 f   libcpmtd:ios.obj
 0001:00177db0       ?register_callback@ios_base@std@@QAEXP6AXW4event@12@AAV12@H@ZH@Z 10178db0 f   libcpmtd:ios.obj
 0001:00177e40       ??0_Fnarray@ios_base@std@@QAE@HP6AXW4event@12@AAV12@H@ZPAU012@@Z 10178e40 f i libcpmtd:ios.obj
 0001:00177e70       ??1ios_base@std@@UAE@XZ    10178e70 f   libcpmtd:ios.obj
 0001:00177ee0       ?_Callfns@ios_base@std@@AAEXW4event@12@@Z 10178ee0 f   libcpmtd:ios.obj
 0001:00177f30       ?_Findarr@ios_base@std@@AAEAAU_Iosarray@12@H@Z 10178f30 f   libcpmtd:ios.obj
 0001:00178080       ?setstate@ios_base@std@@QAEXH@Z 10179080 f i libcpmtd:ios.obj
 0001:001780b0       ??0_Iosarray@ios_base@std@@QAE@HPAU012@@Z 101790b0 f i libcpmtd:ios.obj
 0001:001780f0       ?_Addstd@ios_base@std@@QAEXXZ 101790f0 f   libcpmtd:ios.obj
 0001:00178190       ?_Init@ios_base@std@@IAEXXZ 10179190 f   libcpmtd:ios.obj
 0001:00178230       ?_Tidy@ios_base@std@@AAEXXZ 10179230 f   libcpmtd:ios.obj
 0001:001782c0       ??$_DebugHeapDelete@U_Iosarray@ios_base@std@@@std@@YAXPAU_Iosarray@ios_base@0@@Z 101792c0 f i libcpmtd:ios.obj
 0001:001782e0       ??$_DebugHeapDelete@U_Fnarray@ios_base@std@@@std@@YAXPAU_Fnarray@ios_base@0@@Z 101792e0 f i libcpmtd:ios.obj
 0001:00178300       ??0_Mutex@std@@QAE@XZ      10179300 f   libcpmtd:xmutex.obj
 0001:00178340       ??1_Mutex@std@@QAE@XZ      10179340 f   libcpmtd:xmutex.obj
 0001:00178370       ?_Lock@_Mutex@std@@QAEXXZ  10179370 f   libcpmtd:xmutex.obj
 0001:00178390       ?_Unlock@_Mutex@std@@QAEXXZ 10179390 f   libcpmtd:xmutex.obj
 0001:001783b0       ??$_DebugHeapDelete@U_RTL_CRITICAL_SECTION@@@std@@YAXPAU_RTL_CRITICAL_SECTION@@@Z 101793b0 f i libcpmtd:xmutex.obj
 0001:001783d0       ?_Fiopen@std@@YAPAU_iobuf@@PBDHH@Z 101793d0 f   libcpmtd:fiopen.obj
 0001:00178500       ??0_Init_locks@std@@QAE@XZ 10179500 f   libcpmtd:xlock.obj
 0001:00178550       ??1_Init_locks@std@@QAE@XZ 10179550 f   libcpmtd:xlock.obj
 0001:001785a0       ??0_Lockit@std@@QAE@XZ     101795a0 f   libcpmtd:xlock.obj
 0001:001785d0       ??0_Lockit@std@@QAE@H@Z    101795d0 f   libcpmtd:xlock.obj
 0001:00178610       ??1_Lockit@std@@QAE@XZ     10179610 f   libcpmtd:xlock.obj
 0001:00178640       ??2@YAPAXIABU_DebugHeapTag_t@std@@PADH@Z 10179640 f   libcpmtd:xdebug.obj
 0001:00178680       ??_U@YAPAXIABU_DebugHeapTag_t@std@@PADH@Z 10179680 f   libcpmtd:xdebug.obj
 0001:001786a0       ??3@YAXPAXABU_DebugHeapTag_t@std@@PADH@Z 101796a0 f   libcpmtd:xdebug.obj
 0001:001786c0       ??_V@YAXPAXABU_DebugHeapTag_t@std@@PADH@Z 101796c0 f   libcpmtd:xdebug.obj
 0001:001786e0       ?uncaught_exception@std@@YA_NXZ 101796e0 f   libcpmtd:uncaught.obj
 0001:001786f0       __Fac_tidy                 101796f0 f   libcpmtd:locale0.obj
 0001:00178740       __Deletegloballocale       10179740 f   libcpmtd:locale0.obj
 0001:00178770       __Getgloballocale          10179770 f   libcpmtd:locale0.obj
 0001:00178780       __Setgloballocale          10179780 f   libcpmtd:locale0.obj
 0001:001787e0       ??0locale@std@@QAE@XZ      101797e0 f   libcpmtd:locale0.obj
 0001:00178810       ?classic@locale@std@@SAABV12@XZ 10179810 f   libcpmtd:locale0.obj
 0001:00178820       ?empty@locale@std@@SA?AV12@XZ 10179820 f   libcpmtd:locale0.obj
 0001:001788c0       ??0locale@std@@AAE@PAV_Locimp@01@@Z 101798c0 f i libcpmtd:locale0.obj
 0001:001788e0       ?_Getfacet@locale@std@@QBEPBVfacet@12@I@Z 101798e0 f   libcpmtd:locale0.obj
 0001:00178970       ??8locale@std@@QBE_NABV01@@Z 10179970 f   libcpmtd:locale0.obj
 0001:00178ac0       ?name@locale@std@@QBE?AV?$basic_string@DU?$char_traits@D@std@@V?$allocator@D@2@@2@XZ 10179ac0 f i libcpmtd:locale0.obj
 0001:00178b40       ??B_DebugHeapString@std@@QBE?AV?$basic_string@DU?$char_traits@D@std@@V?$allocator@D@2@@1@XZ 10179b40 f i libcpmtd:locale0.obj
 0001:00178b80       ?_Init@locale@std@@CAPAV_Locimp@12@XZ 10179b80 f   libcpmtd:locale0.obj
 0001:00178cd0       ??0_DebugHeapString@std@@QAE@PBD@Z 10179cd0 f i libcpmtd:locale0.obj
 0001:00178cf0       ??4_DebugHeapString@std@@QAEAAV01@ABV01@@Z 10179cf0 f i libcpmtd:locale0.obj
 0001:00178d10       ?_Register@facet@locale@std@@QAEXXZ 10179d10 f   libcpmtd:locale0.obj
 0001:00178db0       ??0_Fac_node@std@@QAE@PAU01@PAVfacet@locale@1@@Z 10179db0 f i libcpmtd:locale0.obj
 0001:00178de0       ??0_Locimp@locale@std@@AAE@_N@Z 10179de0 f   libcpmtd:locale0.obj
 0001:00178e70       ??_G_Locimp@locale@std@@MAEPAXI@Z 10179e70 f i libcpmtd:locale0.obj
 0001:00178e70       ??_E_Locimp@locale@std@@MAEPAXI@Z 10179e70 f i libcpmtd:locale0.obj
 0001:00178ea0       ??1_Locimp@locale@std@@MAE@XZ 10179ea0 f   libcpmtd:locale0.obj
 0001:00178f70       ??0_Locinfo@std@@QAE@PBD@Z 10179f70 f   libcpmtd:locale0.obj
 0001:00179050       ??1_Locinfo@std@@QAE@XZ    1017a050 f   libcpmtd:locale0.obj
 0001:00179100       ??0?$basic_string@DU?$char_traits@D@std@@V?$_DebugHeapAllocator@D@2@@std@@QAE@PBD@Z 1017a100 f i libcpmtd:locale0.obj
 0001:00179140       ??4?$basic_string@DU?$char_traits@D@std@@V?$_DebugHeapAllocator@D@2@@std@@QAEAAV01@ABV01@@Z 1017a140 f i libcpmtd:locale0.obj
 0001:00179160       ?c_str@?$basic_string@DU?$char_traits@D@std@@V?$_DebugHeapAllocator@D@2@@std@@QBEPBDXZ 1017a160 f i libcpmtd:locale0.obj
 0001:00179180       ?assign@?$basic_string@DU?$char_traits@D@std@@V?$_DebugHeapAllocator@D@2@@std@@QAEAAV12@ABV12@@Z 1017a180 f i libcpmtd:locale0.obj
 0001:001791b0       ?assign@?$basic_string@DU?$char_traits@D@std@@V?$_DebugHeapAllocator@D@2@@std@@QAEAAV12@ABV12@II@Z 1017a1b0 f i libcpmtd:locale0.obj
 0001:00179270       ?assign@?$basic_string@DU?$char_traits@D@std@@V?$_DebugHeapAllocator@D@2@@std@@QAEAAV12@PBD@Z 1017a270 f i libcpmtd:locale0.obj
 0001:001792a0       ?_Myptr@?$basic_string@DU?$char_traits@D@std@@V?$_DebugHeapAllocator@D@2@@std@@QBEPBDXZ 1017a2a0 f i libcpmtd:locale0.obj
 0001:001792d0       ?assign@?$basic_string@DU?$char_traits@D@std@@V?$_DebugHeapAllocator@D@2@@std@@QAEAAV12@PBDI@Z 1017a2d0 f i libcpmtd:locale0.obj
 0001:00179350       ?_Inside@?$basic_string@DU?$char_traits@D@std@@V?$_DebugHeapAllocator@D@2@@std@@IAE_NPBD@Z 1017a350 f i libcpmtd:locale0.obj
 0001:00179390       ??$_DebugHeapDelete@U_Fac_node@std@@@std@@YAXPAU_Fac_node@0@@Z 1017a390 f i libcpmtd:locale0.obj
 0001:001793c0       ??_G_Fac_node@std@@QAEPAXI@Z 1017a3c0 f i libcpmtd:locale0.obj
 0001:001793f0       ??1_Fac_node@std@@QAE@XZ   1017a3f0 f i libcpmtd:locale0.obj
 0001:00179410       ??0locale@std@@QAE@W4_Uninitialized@1@@Z 1017a410 f i libcpmtd:locale0.obj
 0001:00179420       __Tolower                  1017a420 f   libcpmtd:_tolower.obj
 0001:00179520       __Tolower_lk               1017a520 f   libcpmtd:_tolower.obj
 0001:00179660       __Getctype                 1017a660 f   libcpmtd:_tolower.obj
 0001:00179790       __Toupper                  1017a790 f   libcpmtd:_toupper.obj
 0001:00179890       __Toupper_lk               1017a890 f   libcpmtd:_toupper.obj
 0001:001799d0       __Once                     1017a9d0 f   libcpmtd:xmtx.obj
 0001:00179a30       __Mtxinit                  1017aa30 f   libcpmtd:xmtx.obj
 0001:00179a40       __Mtxdst                   1017aa40 f   libcpmtd:xmtx.obj
 0001:00179a50       __Mtxlock                  1017aa50 f   libcpmtd:xmtx.obj
 0001:00179a60       __Mtxunlock                1017aa60 f   libcpmtd:xmtx.obj
 0001:00179a70       ?_Nomemory@std@@YAXXZ      1017aa70 f   libcpmtd:nomemory.obj
 0001:00179ad0       ??0bad_alloc@std@@QAE@PBD@Z 1017aad0 f i libcpmtd:nomemory.obj
 0001:00179b00       ??1bad_alloc@std@@UAE@XZ   1017ab00 f i libcpmtd:nomemory.obj
 0001:00179b20       ??_Gbad_alloc@std@@UAEPAXI@Z 1017ab20 f i libcpmtd:nomemory.obj
 0001:00179b20       ??_Ebad_alloc@std@@UAEPAXI@Z 1017ab20 f i libcpmtd:nomemory.obj
 0001:00179b50       ??0bad_alloc@std@@QAE@ABV01@@Z 1017ab50 f i libcpmtd:nomemory.obj
 0001:00179b80       __Atexit                   1017ab80 f   libcpmtd:iosptrs.obj
 0001:00179bb0       ??1_Init_atexit@@QAE@XZ    1017abb0 f i libcpmtd:iosptrs.obj
 0001:00179bf0       ?_set_com_error_handler@@YGXP6GXJPAUIErrorInfo@@@Z@Z 1017abf0 f   comsuppd:comsupp.obj
 0001:00179c00       ?_com_issue_error@@YGXJ@Z  1017ac00 f   comsuppd:comsupp.obj
 0001:00179c20       ?_com_issue_errorex@@YGXJPAUIUnknown@@ABU_GUID@@@Z 1017ac20 f   comsuppd:comsupp.obj
 0001:00179cb0       ?_com_dispatch_method@@YAJPAUIDispatch@@JGGPAXPBGZZ 1017acb0 f   comsuppd:comsupp.obj
 0001:00179d10       ?_com_dispatch_propget@@YGJPAUIDispatch@@JGPAX@Z 1017ad10 f   comsuppd:comsupp.obj
 0001:00179d40       ?_com_dispatch_propput@@YAJPAUIDispatch@@JGZZ 1017ad40 f   comsuppd:comsupp.obj
 0001:00179dd0       ?ConvertStringToBSTR@_com_util@@YGPAGPBD@Z 1017add0 f   comsuppd:comutil.obj
 0001:00179fb0       ?ConvertBSTRToString@_com_util@@YGPADPAG@Z 1017afb0 f   comsuppd:comutil.obj
 0001:0017a130       ?_com_raise_error@@YGXJPAUIErrorInfo@@@Z 1017b130 f   comsuppd:comraise.obj
 0001:0017a160       ??0_com_error@@QAE@JPAUIErrorInfo@@_N@Z 1017b160 f i comsuppd:comraise.obj
 0001:0017a1c0       ??_G_com_error@@UAEPAXI@Z  1017b1c0 f i comsuppd:comraise.obj
 0001:0017a1c0       ??_E_com_error@@UAEPAXI@Z  1017b1c0 f i comsuppd:comraise.obj
 0001:0017a1f0       ??0_com_error@@QAE@ABV0@@Z 1017b1f0 f i comsuppd:comraise.obj
 0001:0017a250       ??1_com_error@@UAE@XZ      1017b250 f i comsuppd:comraise.obj
 0001:0017a2a0       ?_com_invoke_helper@@YAJPAUIDispatch@@JGGPAXPBGPADPAPAUIErrorInfo@@@Z 1017b2a0 f   comsuppd:invkprxy.obj
 0001:0017b0d0       ?_com_dispatch_raw_method@@YAJPAUIDispatch@@JGGPAXPBGZZ 1017c0d0 f   comsuppd:invkprxy.obj
 0001:0017b130       ?_com_dispatch_raw_propget@@YGJPAUIDispatch@@JGPAX@Z 1017c130 f   comsuppd:invkprxy.obj
 0001:0017b160       ?_com_dispatch_raw_propput@@YAJPAUIDispatch@@JGZZ 1017c160 f   comsuppd:invkprxy.obj
 0001:0017b1f0       ?_com_handle_excepinfo@@YGJAAUtagEXCEPINFO@@PAPAUIErrorInfo@@@Z 1017c1f0 f   comsuppd:invkerr.obj
 0001:0017b350       ?WCodeToHRESULT@_com_error@@SAJG@Z 1017c350 f i comsuppd:invkerr.obj
 0001:0017b37c       _WSAGetLastError@0         1017c37c f   ws2_32:WS2_32.dll
 0001:0017b382       _getsockopt@20             1017c382 f   ws2_32:WS2_32.dll
 0001:0017b388       ___WSAFDIsSet@8            1017c388 f   ws2_32:WS2_32.dll
 0001:0017b38e       _ioctlsocket@12            1017c38e f   ws2_32:WS2_32.dll
 0001:0017b394       _ntohs@4                   1017c394 f   ws2_32:WS2_32.dll
 0001:0017b39a       _listen@8                  1017c39a f   ws2_32:WS2_32.dll
 0001:0017b3a0       _bind@12                   1017c3a0 f   ws2_32:WS2_32.dll
 0001:0017b3a6       _getsockname@12            1017c3a6 f   ws2_32:WS2_32.dll
 0001:0017b3ac       _RaiseException@16         1017c3ac f   kernel32:KERNEL32.dll
 0001:0017b3b2       _GetCurrentProcessId@0     1017c3b2 f   kernel32:KERNEL32.dll
 0001:0017b3b8       _SetEvent@4                1017c3b8 f   kernel32:KERNEL32.dll
 0001:0017b3be       _OpenEventA@12             1017c3be f   kernel32:KERNEL32.dll
 0001:0017b3c4       _lstrcpyW@8                1017c3c4 f   kernel32:KERNEL32.dll
 0001:0017b3ca       _OutputDebugStringA@4      1017c3ca f   kernel32:KERNEL32.dll
 0001:0017b3d0       _OutputDebugStringW@4      1017c3d0 f   kernel32:KERNEL32.dll
 0001:0017b3d6       _lstrcpynW@12              1017c3d6 f   kernel32:KERNEL32.dll
 0001:0017b3dc       _FileTimeToLocalFileTime@8 1017c3dc f   kernel32:KERNEL32.dll
 0001:0017b3e2       _GetSystemTimeAsFileTime@4 1017c3e2 f   kernel32:KERNEL32.dll
 0001:0017b3e8       _LocalFileTimeToFileTime@8 1017c3e8 f   kernel32:KERNEL32.dll
 0001:0017b3ee       _HeapReAlloc@16            1017c3ee f   kernel32:KERNEL32.dll
 0001:0017b3f4       _HeapSize@12               1017c3f4 f   kernel32:KERNEL32.dll
 0001:0017b3fa       _HeapDestroy@4             1017c3fa f   kernel32:KERNEL32.dll
 0001:0017b400       _VirtualAlloc@16           1017c400 f   kernel32:KERNEL32.dll
 0001:0017b406       _UnmapViewOfFile@4         1017c406 f   kernel32:KERNEL32.dll
 0001:0017b40c       _IsBadReadPtr@8            1017c40c f   kernel32:KERNEL32.dll
 0001:0017b412       _GetSystemInfo@4           1017c412 f   kernel32:KERNEL32.dll
 0001:0017b418       _MapViewOfFile@20          1017c418 f   kernel32:KERNEL32.dll
 0001:0017b41e       _CreateFileMappingA@24     1017c41e f   kernel32:KERNEL32.dll
 0001:0017b424       _GetCurrentThread@0        1017c424 f   kernel32:KERNEL32.dll
 0001:0017b42a       _OpenFileMappingA@12       1017c42a f   kernel32:KERNEL32.dll
 0001:0017b430       _GetModuleFileNameW@12     1017c430 f   kernel32:KERNEL32.dll
 0001:0017b436       _ExitProcess@4             1017c436 f   kernel32:KERNEL32.dll
 0001:0017b43c       _RtlUnwind@16              1017c43c f   kernel32:KERNEL32.dll
 0001:0017b442       _IsBadWritePtr@8           1017c442 f   kernel32:KERNEL32.dll
 0001:0017b448       _HeapValidate@12           1017c448 f   kernel32:KERNEL32.dll
 0001:0017b44e       _GetStdHandle@4            1017c44e f   kernel32:KERNEL32.dll
 0001:0017b454       _VirtualProtect@16         1017c454 f   kernel32:KERNEL32.dll
 0001:0017b45a       _VirtualQuery@12           1017c45a f   kernel32:KERNEL32.dll
 0001:0017b460       _FindClose@4               1017c460 f   kernel32:KERNEL32.dll
 0001:0017b466       _GetDriveTypeW@4           1017c466 f   kernel32:KERNEL32.dll
 0001:0017b46c       _FindFirstFileW@8          1017c46c f   kernel32:KERNEL32.dll
 0001:0017b472       _GetDriveTypeA@4           1017c472 f   kernel32:KERNEL32.dll
 0001:0017b478       _FindFirstFileA@8          1017c478 f   kernel32:KERNEL32.dll
 0001:0017b47e       _QueryPerformanceCounter@4 1017c47e f   kernel32:KERNEL32.dll
 0001:0017b484       _GetTickCount@0            1017c484 f   kernel32:KERNEL32.dll
 0001:0017b48a       _ReadFile@20               1017c48a f   kernel32:KERNEL32.dll
 0001:0017b490       _TerminateProcess@8        1017c490 f   kernel32:KERNEL32.dll
 0001:0017b496       _GetModuleHandleA@4        1017c496 f   kernel32:KERNEL32.dll
 0001:0017b49c       _TlsAlloc@0                1017c49c f   kernel32:KERNEL32.dll
 0001:0017b4a2       _TlsFree@4                 1017c4a2 f   kernel32:KERNEL32.dll
 0001:0017b4a8       _TlsSetValue@8             1017c4a8 f   kernel32:KERNEL32.dll
 0001:0017b4ae       _TlsGetValue@4             1017c4ae f   kernel32:KERNEL32.dll
 0001:0017b4b4       _FatalAppExitA@8           1017c4b4 f   kernel32:KERNEL32.dll
 0001:0017b4ba       _HeapCreate@12             1017c4ba f   kernel32:KERNEL32.dll
 0001:0017b4c0       _VirtualFree@12            1017c4c0 f   kernel32:KERNEL32.dll
 0001:0017b4c6       _FreeLibrary@4             1017c4c6 f   kernel32:KERNEL32.dll
 0001:0017b4cc       _SetUnhandledExceptionFilter@4 1017c4cc f   kernel32:KERNEL32.dll
 0001:0017b4d2       _SetConsoleCtrlHandler@8   1017c4d2 f   kernel32:KERNEL32.dll
 0001:0017b4d8       _LCMapStringA@24           1017c4d8 f   kernel32:KERNEL32.dll
 0001:0017b4de       _LCMapStringW@24           1017c4de f   kernel32:KERNEL32.dll
 0001:0017b4e4       _GetFullPathNameW@16       1017c4e4 f   kernel32:KERNEL32.dll
 0001:0017b4ea       _GetCurrentDirectoryA@8    1017c4ea f   kernel32:KERNEL32.dll
 0001:0017b4f0       _SetCurrentDirectoryA@4    1017c4f0 f   kernel32:KERNEL32.dll
 0001:0017b4f6       _SetFilePointer@16         1017c4f6 f   kernel32:KERNEL32.dll
 0001:0017b4fc       _FlushFileBuffers@4        1017c4fc f   kernel32:KERNEL32.dll
 0001:0017b502       _SetHandleCount@4          1017c502 f   kernel32:KERNEL32.dll
 0001:0017b508       _GetFileType@4             1017c508 f   kernel32:KERNEL32.dll
 0001:0017b50e       _GetStartupInfoA@4         1017c50e f   kernel32:KERNEL32.dll
 0001:0017b514       _FreeEnvironmentStringsA@4 1017c514 f   kernel32:KERNEL32.dll
 0001:0017b51a       _GetEnvironmentStrings@0   1017c51a f   kernel32:KERNEL32.dll
 0001:0017b520       _FreeEnvironmentStringsW@4 1017c520 f   kernel32:KERNEL32.dll
 0001:0017b526       _GetEnvironmentStringsW@0  1017c526 f   kernel32:KERNEL32.dll
 0001:0017b52c       _UnhandledExceptionFilter@4 1017c52c f   kernel32:KERNEL32.dll
 0001:0017b532       _GetFullPathNameA@16       1017c532 f   kernel32:KERNEL32.dll
 0001:0017b538       _SetStdHandle@8            1017c538 f   kernel32:KERNEL32.dll
 0001:0017b53e       _IsBadCodePtr@4            1017c53e f   kernel32:KERNEL32.dll
 0001:0017b544       _GetOEMCP@0                1017c544 f   kernel32:KERNEL32.dll
 0001:0017b54a       _GetCPInfo@8               1017c54a f   kernel32:KERNEL32.dll
 0001:0017b550       _GetTimeFormatA@24         1017c550 f   kernel32:KERNEL32.dll
 0001:0017b556       _GetDateFormatA@24         1017c556 f   kernel32:KERNEL32.dll
 0001:0017b55c       _GetStringTypeA@20         1017c55c f   kernel32:KERNEL32.dll
 0001:0017b562       _GetStringTypeW@16         1017c562 f   kernel32:KERNEL32.dll
 0001:0017b568       _IsValidLocale@8           1017c568 f   kernel32:KERNEL32.dll
 0001:0017b56e       _IsValidCodePage@4         1017c56e f   kernel32:KERNEL32.dll
 0001:0017b574       _EnumSystemLocalesA@8      1017c574 f   kernel32:KERNEL32.dll
 0001:0017b57a       _GetUserDefaultLCID@0      1017c57a f   kernel32:KERNEL32.dll
 0001:0017b580       _CreateFileW@28            1017c580 f   kernel32:KERNEL32.dll
 0001:0017b586       _GetCurrentDirectoryW@8    1017c586 f   kernel32:KERNEL32.dll
 0001:0017b58c       _SetEnvironmentVariableA@8 1017c58c f   kernel32:KERNEL32.dll
 0001:0017b592       _SetEndOfFile@4            1017c592 f   kernel32:KERNEL32.dll
 0001:0017b598       _GetLocaleInfoW@16         1017c598 f   kernel32:KERNEL32.dll
 0001:0017b59e       _Sleep@4                   1017c59e f   kernel32:KERNEL32.dll
 0001:0017b5a4       _UnregisterClassA@8        1017c5a4 f   user32:USER32.dll
 0001:0017b5aa       _DispatchMessageA@4        1017c5aa f   user32:USER32.dll
 0001:0017b5b0       _DispatchMessageW@4        1017c5b0 f   user32:USER32.dll
 0001:0017b5b6       _TranslateMessage@4        1017c5b6 f   user32:USER32.dll
 0001:0017b5bc       _GetMessageA@16            1017c5bc f   user32:USER32.dll
 0001:0017b5c2       _GetMessageW@16            1017c5c2 f   user32:USER32.dll
 0001:0017b5c8       _IsWindowUnicode@4         1017c5c8 f   user32:USER32.dll
 0001:0017b5ce       _PeekMessageA@20           1017c5ce f   user32:USER32.dll
 0001:0017b5d4       _MsgWaitForMultipleObjects@20 1017c5d4 f   user32:USER32.dll
 0001:0017b5da       _SetThreadToken@8          1017c5da f   advapi32:ADVAPI32.dll
 0001:0017b5e0       _RevertToSelf@0            1017c5e0 f   advapi32:ADVAPI32.dll
 0001:0017b5e6       _OpenThreadToken@16        1017c5e6 f   advapi32:ADVAPI32.dll
 0001:0017b5ec       _CoReleaseMarshalData@4    1017c5ec f   ole32:ole32.dll
 0001:0017b5f2       _CoMarshalInterface@24     1017c5f2 f   ole32:ole32.dll
 0001:0017b5f8       _CoUnmarshalInterface@12   1017c5f8 f   ole32:ole32.dll
 0001:0017b5fe       _CoRevokeClassObject@4     1017c5fe f   ole32:ole32.dll
 0001:0017b604       _CoRegisterClassObject@20  1017c604 f   ole32:ole32.dll
 0001:0017b60a       _GetErrorInfo@8            1017c60a f   oleaut32:OLEAUT32.dll
 0001:0017b610       _SetErrorInfo@8            1017c610 f   oleaut32:OLEAUT32.dll
 0001:0017b616       _CreateErrorInfo@4         1017c616 f   oleaut32:OLEAUT32.dll
 0001:0017b620       __wcsnicmp                 1017c620 f   LIBCMTD:wcsnicmp.obj
 0001:0017b620       _wcsnicmp                  1017c620 f   LIBCMTD:wcsnicmp.obj
 0002:00000000       __imp__CryptAcquireContextW@20 10180000     advapi32:ADVAPI32.dll
 0002:00000004       __imp__RegQueryValueExA@24 10180004     advapi32:ADVAPI32.dll
 0002:00000008       __imp__RegOpenKeyExA@20    10180008     advapi32:ADVAPI32.dll
 0002:0000000c       __imp__CryptReleaseContext@8 1018000c     advapi32:ADVAPI32.dll
 0002:00000010       __imp__CryptAcquireContextA@20 10180010     advapi32:ADVAPI32.dll
 0002:00000014       __imp__AdjustTokenPrivileges@24 10180014     advapi32:ADVAPI32.dll
 0002:00000018       __imp__LookupPrivilegeValueA@12 10180018     advapi32:ADVAPI32.dll
 0002:0000001c       __imp__OpenProcessToken@12 1018001c     advapi32:ADVAPI32.dll
 0002:00000020       __imp__CryptDestroyHash@4  10180020     advapi32:ADVAPI32.dll
 0002:00000024       __imp__CryptGetHashParam@20 10180024     advapi32:ADVAPI32.dll
 0002:00000028       __imp__CryptHashData@16    10180028     advapi32:ADVAPI32.dll
 0002:0000002c       __imp__CryptSetHashParam@16 1018002c     advapi32:ADVAPI32.dll
 0002:00000030       __imp__CryptCreateHash@20  10180030     advapi32:ADVAPI32.dll
 0002:00000034       __imp__CryptDestroyKey@4   10180034     advapi32:ADVAPI32.dll
 0002:00000038       __imp__CryptVerifySignatureA@24 10180038     advapi32:ADVAPI32.dll
 0002:0000003c       __imp__CryptImportKey@24   1018003c     advapi32:ADVAPI32.dll
 0002:00000040       __imp__CryptSignHashA@24   10180040     advapi32:ADVAPI32.dll
 0002:00000044       __imp__CryptExportKey@24   10180044     advapi32:ADVAPI32.dll
 0002:00000048       __imp__CryptGetUserKey@12  10180048     advapi32:ADVAPI32.dll
 0002:0000004c       __imp__CryptGenKey@16      1018004c     advapi32:ADVAPI32.dll
 0002:00000050       __imp__CryptGenRandom@12   10180050     advapi32:ADVAPI32.dll
 0002:00000054       __imp__CryptGetKeyParam@20 10180054     advapi32:ADVAPI32.dll
 0002:00000058       __imp__CryptGetProvParam@20 10180058     advapi32:ADVAPI32.dll
 0002:0000005c       __imp__SetThreadToken@8    1018005c     advapi32:ADVAPI32.dll
 0002:00000060       __imp__RevertToSelf@0      10180060     advapi32:ADVAPI32.dll
 0002:00000064       __imp__OpenThreadToken@16  10180064     advapi32:ADVAPI32.dll
 0002:00000068       __imp__RegCloseKey@4       10180068     advapi32:ADVAPI32.dll
 0002:0000006c       \177ADVAPI32_NULL_THUNK_DATA 1018006c     advapi32:ADVAPI32.dll
 0002:00000070       __imp__AtlWinModuleInit@4  10180070     atl:ATL71.DLL
 0002:00000074       __imp__AtlWinModuleTerm@8  10180074     atl:ATL71.DLL
 0002:00000078       __imp__AtlAxCreateControlLicEx@32 10180078     atl:ATL71.DLL
 0002:0000007c       __imp__AtlAxWinInit@0      1018007c     atl:ATL71.DLL
 0002:00000080       __imp__AtlAxGetHost@8      10180080     atl:ATL71.DLL
 0002:00000084       __imp__AtlAxDialogBoxA@20  10180084     atl:ATL71.DLL
 0002:00000088       __imp__AtlWinModuleAddCreateWndData@12 10180088     atl:ATL71.DLL
 0002:0000008c       __imp__AtlWinModuleExtractCreateWndData@4 1018008c     atl:ATL71.DLL
 0002:00000090       __imp__AtlUpdateRegistryFromResourceD@20 10180090     atl:ATL71.DLL
 0002:00000094       __imp__AtlCreateRegistrar@4 10180094     atl:ATL71.DLL
 0002:00000098       __imp__AtlCallTermFunc@4   10180098     atl:ATL71.DLL
 0002:0000009c       __imp__AtlComModuleGetClassObject@16 1018009c     atl:ATL71.DLL
 0002:000000a0       __imp__AtlRegisterClassCategoriesHelper@12 101800a0     atl:ATL71.DLL
 0002:000000a4       __imp__AtlInternalQueryInterface@16 101800a4     atl:ATL71.DLL
 0002:000000a8       __imp__AtlModuleAddTermFunc@12 101800a8     atl:ATL71.DLL
 0002:000000ac       __imp__AtlComModuleRegisterServer@12 101800ac     atl:ATL71.DLL
 0002:000000b0       __imp__AtlComModuleUnregisterServer@12 101800b0     atl:ATL71.DLL
 0002:000000b4       __imp__AtlComQIPtrAssign@12 101800b4     atl:ATL71.DLL
 0002:000000b8       \177ATL71_NULL_THUNK_DATA  101800b8     atl:ATL71.DLL
 0002:000000bc       __imp__CryptMsgUpdate@16   101800bc     crypt32:CRYPT32.dll
 0002:000000c0       __imp__CryptMsgClose@4     101800c0     crypt32:CRYPT32.dll
 0002:000000c4       __imp__CryptMsgOpenToDecode@24 101800c4     crypt32:CRYPT32.dll
 0002:000000c8       __imp__CertAddCertificateContextToStore@16 101800c8     crypt32:CRYPT32.dll
 0002:000000cc       __imp__PFXExportCertStoreEx@20 101800cc     crypt32:CRYPT32.dll
 0002:000000d0       __imp__CertGetNameStringW@24 101800d0     crypt32:CRYPT32.dll
 0002:000000d4       __imp__CertDuplicateCertificateContext@4 101800d4     crypt32:CRYPT32.dll
 0002:000000d8       __imp__CertGetIntendedKeyUsage@16 101800d8     crypt32:CRYPT32.dll
 0002:000000dc       __imp__CertGetNameStringA@24 101800dc     crypt32:CRYPT32.dll
 0002:000000e0       __imp__CertNameToStrA@20   101800e0     crypt32:CRYPT32.dll
 0002:000000e4       __imp__CertFindCertificateInStore@24 101800e4     crypt32:CRYPT32.dll
 0002:000000e8       __imp__CryptAcquireCertificatePrivateKey@24 101800e8     crypt32:CRYPT32.dll
 0002:000000ec       __imp__CryptDecodeObject@28 101800ec     crypt32:CRYPT32.dll
 0002:000000f0       __imp__CertOIDToAlgId@4    101800f0     crypt32:CRYPT32.dll
 0002:000000f4       __imp__CryptMsgCalculateEncodedLength@24 101800f4     crypt32:CRYPT32.dll
 0002:000000f8       __imp__CryptMsgOpenToEncode@24 101800f8     crypt32:CRYPT32.dll
 0002:000000fc       __imp__PFXIsPFXBlob@4      101800fc     crypt32:CRYPT32.dll
 0002:00000100       __imp__CertOpenSystemStoreA@8 10180100     crypt32:CRYPT32.dll
 0002:00000104       __imp__CryptMsgGetParam@20 10180104     crypt32:CRYPT32.dll
 0002:00000108       __imp__CertGetSubjectCertificateFromStore@12 10180108     crypt32:CRYPT32.dll
 0002:0000010c       __imp__CryptMsgControl@16  1018010c     crypt32:CRYPT32.dll
 0002:00000110       __imp__CertCreateCRLContext@12 10180110     crypt32:CRYPT32.dll
 0002:00000114       __imp__CryptVerifyCertificateSignature@20 10180114     crypt32:CRYPT32.dll
 0002:00000118       __imp__CertFreeCRLContext@4 10180118     crypt32:CRYPT32.dll
 0002:0000011c       __imp__CertFindExtension@12 1018011c     crypt32:CRYPT32.dll
 0002:00000120       __imp__CertFindCertificateInCRL@20 10180120     crypt32:CRYPT32.dll
 0002:00000124       __imp__CertVerifyCRLTimeValidity@8 10180124     crypt32:CRYPT32.dll
 0002:00000128       __imp__CertGetCertificateChain@32 10180128     crypt32:CRYPT32.dll
 0002:0000012c       __imp__CertCreateCertificateContext@12 1018012c     crypt32:CRYPT32.dll
 0002:00000130       __imp__CertCompareCertificate@12 10180130     crypt32:CRYPT32.dll
 0002:00000134       __imp__CertFreeCertificateChain@4 10180134     crypt32:CRYPT32.dll
 0002:00000138       __imp__PFXVerifyPassword@12 10180138     crypt32:CRYPT32.dll
 0002:0000013c       __imp__PFXImportCertStore@12 1018013c     crypt32:CRYPT32.dll
 0002:00000140       __imp__CertEnumCertificatesInStore@8 10180140     crypt32:CRYPT32.dll
 0002:00000144       __imp__CertGetCertificateContextProperty@16 10180144     crypt32:CRYPT32.dll
 0002:00000148       __imp__CertOpenStore@20    10180148     crypt32:CRYPT32.dll
 0002:0000014c       __imp__CertAddEncodedCertificateToStore@24 1018014c     crypt32:CRYPT32.dll
 0002:00000150       __imp__CertFreeCertificateContext@4 10180150     crypt32:CRYPT32.dll
 0002:00000154       __imp__CertCloseStore@8    10180154     crypt32:CRYPT32.dll
 0002:00000158       __imp__CryptDecryptMessage@24 10180158     crypt32:CRYPT32.dll
 0002:0000015c       \177CRYPT32_NULL_THUNK_DATA 1018015c     crypt32:CRYPT32.dll
 0002:00000160       __imp__CryptUIDlgViewCertificateA@8 10180160     xmlsigd:CRYPTUI.dll
 0002:00000164       __imp__CryptUIDlgSelectCertificateA@4 10180164     xmlsigd:CRYPTUI.dll
 0002:00000168       \177CRYPTUI_NULL_THUNK_DATA 10180168     xmlsigd:CRYPTUI.dll
 0002:0000016c       __imp__MultiByteToWideChar@24 1018016c     kernel32:KERNEL32.dll
 0002:00000170       __imp__GetEnvironmentVariableA@12 10180170     kernel32:KERNEL32.dll
 0002:00000174       __imp__CompareStringW@24   10180174     kernel32:KERNEL32.dll
 0002:00000178       __imp__CompareStringA@24   10180178     kernel32:KERNEL32.dll
 0002:0000017c       __imp__lstrlenW@4          1018017c     kernel32:KERNEL32.dll
 0002:00000180       __imp__WideCharToMultiByte@32 10180180     kernel32:KERNEL32.dll
 0002:00000184       __imp__GetStringTypeExW@20 10180184     kernel32:KERNEL32.dll
 0002:00000188       __imp__GetStringTypeExA@20 10180188     kernel32:KERNEL32.dll
 0002:0000018c       __imp__lstrcmpiW@8         1018018c     kernel32:KERNEL32.dll
 0002:00000190       __imp__lstrcmpiA@8         10180190     kernel32:KERNEL32.dll
 0002:00000194       __imp__lstrlenA@4          10180194     kernel32:KERNEL32.dll
 0002:00000198       __imp__GetLastError@0      10180198     kernel32:KERNEL32.dll
 0002:0000019c       __imp__InterlockedIncrement@4 1018019c     kernel32:KERNEL32.dll
 0002:000001a0       __imp__InterlockedDecrement@4 101801a0     kernel32:KERNEL32.dll
 0002:000001a4       __imp__LocalAlloc@8        101801a4     kernel32:KERNEL32.dll
 0002:000001a8       __imp__FormatMessageA@28   101801a8     kernel32:KERNEL32.dll
 0002:000001ac       __imp__GetSystemTime@4     101801ac     kernel32:KERNEL32.dll
 0002:000001b0       __imp__GetComputerNameA@8  101801b0     kernel32:KERNEL32.dll
 0002:000001b4       __imp__FindResourceA@12    101801b4     kernel32:KERNEL32.dll
 0002:000001b8       __imp__SizeofResource@8    101801b8     kernel32:KERNEL32.dll
 0002:000001bc       __imp__LockResource@4      101801bc     kernel32:KERNEL32.dll
 0002:000001c0       __imp__LoadResource@8      101801c0     kernel32:KERNEL32.dll
 0002:000001c4       __imp__GlobalUnlock@4      101801c4     kernel32:KERNEL32.dll
 0002:000001c8       __imp__GlobalLock@4        101801c8     kernel32:KERNEL32.dll
 0002:000001cc       __imp__GlobalAlloc@8       101801cc     kernel32:KERNEL32.dll
 0002:000001d0       __imp__SetLastError@4      101801d0     kernel32:KERNEL32.dll
 0002:000001d4       __imp__HeapFree@12         101801d4     kernel32:KERNEL32.dll
 0002:000001d8       __imp__GetProcessHeap@0    101801d8     kernel32:KERNEL32.dll
 0002:000001dc       __imp__lstrcpyA@8          101801dc     kernel32:KERNEL32.dll
 0002:000001e0       __imp__LoadLibraryW@4      101801e0     kernel32:KERNEL32.dll
 0002:000001e4       __imp__GetCommandLineA@0   101801e4     kernel32:KERNEL32.dll
 0002:000001e8       __imp__DeleteFileW@4       101801e8     kernel32:KERNEL32.dll
 0002:000001ec       __imp__DeleteFileA@4       101801ec     kernel32:KERNEL32.dll
 0002:000001f0       __imp__DebugBreak@0        101801f0     kernel32:KERNEL32.dll
 0002:000001f4       __imp__MoveFileA@8         101801f4     kernel32:KERNEL32.dll
 0002:000001f8       __imp__lstrcmpA@8          101801f8     kernel32:KERNEL32.dll
 0002:000001fc       __imp__WriteFile@20        101801fc     kernel32:KERNEL32.dll
 0002:00000200       __imp__CloseHandle@4       10180200     kernel32:KERNEL32.dll
 0002:00000204       __imp__CreateFileA@28      10180204     kernel32:KERNEL32.dll
 0002:00000208       __imp__GetTempFileNameA@16 10180208     kernel32:KERNEL32.dll
 0002:0000020c       __imp__GetTempPathA@8      1018020c     kernel32:KERNEL32.dll
 0002:00000210       __imp__GetTempPathW@8      10180210     kernel32:KERNEL32.dll
 0002:00000214       __imp__GetProcAddress@8    10180214     kernel32:KERNEL32.dll
 0002:00000218       __imp__LoadLibraryA@4      10180218     kernel32:KERNEL32.dll
 0002:0000021c       __imp__GetFileSize@8       1018021c     kernel32:KERNEL32.dll
 0002:00000220       __imp__GetTimeZoneInformation@4 10180220     kernel32:KERNEL32.dll
 0002:00000224       __imp__IsBadStringPtrA@8   10180224     kernel32:KERNEL32.dll
 0002:00000228       __imp__HeapAlloc@12        10180228     kernel32:KERNEL32.dll
 0002:0000022c       __imp__FlushInstructionCache@12 1018022c     kernel32:KERNEL32.dll
 0002:00000230       __imp__GetCurrentProcess@0 10180230     kernel32:KERNEL32.dll
 0002:00000234       __imp__SetSystemTime@4     10180234     kernel32:KERNEL32.dll
 0002:00000238       __imp__DisableThreadLibraryCalls@4 10180238     kernel32:KERNEL32.dll
 0002:0000023c       __imp__GetModuleFileNameA@12 1018023c     kernel32:KERNEL32.dll
 0002:00000240       __imp__DeleteCriticalSection@4 10180240     kernel32:KERNEL32.dll
 0002:00000244       __imp__InitializeCriticalSection@4 10180244     kernel32:KERNEL32.dll
 0002:00000248       __imp__EnterCriticalSection@4 10180248     kernel32:KERNEL32.dll
 0002:0000024c       __imp__LeaveCriticalSection@4 1018024c     kernel32:KERNEL32.dll
 0002:00000250       __imp__ReleaseMutex@4      10180250     kernel32:KERNEL32.dll
 0002:00000254       __imp__WaitForSingleObject@8 10180254     kernel32:KERNEL32.dll
 0002:00000258       __imp__CreateMutexA@12     10180258     kernel32:KERNEL32.dll
 0002:0000025c       __imp__GetCurrentThreadId@0 1018025c     kernel32:KERNEL32.dll
 0002:00000260       __imp__GlobalMemoryStatusEx@4 10180260     kernel32:KERNEL32.dll
 0002:00000264       __imp__LocalFree@4         10180264     kernel32:KERNEL32.dll
 0002:00000268       __imp__FileTimeToSystemTime@8 10180268     kernel32:KERNEL32.dll
 0002:0000026c       __imp__SetEvent@4          1018026c     kernel32:KERNEL32.dll
 0002:00000270       __imp__GetCurrentProcessId@0 10180270     kernel32:KERNEL32.dll
 0002:00000274       __imp__Sleep@4             10180274     kernel32:KERNEL32.dll
 0002:00000278       __imp__GetLocaleInfoW@16   10180278     kernel32:KERNEL32.dll
 0002:0000027c       __imp__SetEndOfFile@4      1018027c     kernel32:KERNEL32.dll
 0002:00000280       __imp__SetEnvironmentVariableA@8 10180280     kernel32:KERNEL32.dll
 0002:00000284       __imp__GetCurrentDirectoryW@8 10180284     kernel32:KERNEL32.dll
 0002:00000288       __imp__CreateFileW@28      10180288     kernel32:KERNEL32.dll
 0002:0000028c       __imp__GetUserDefaultLCID@0 1018028c     kernel32:KERNEL32.dll
 0002:00000290       __imp__EnumSystemLocalesA@8 10180290     kernel32:KERNEL32.dll
 0002:00000294       __imp__IsValidCodePage@4   10180294     kernel32:KERNEL32.dll
 0002:00000298       __imp__IsValidLocale@8     10180298     kernel32:KERNEL32.dll
 0002:0000029c       __imp__GetStringTypeW@16   1018029c     kernel32:KERNEL32.dll
 0002:000002a0       __imp__GetStringTypeA@20   101802a0     kernel32:KERNEL32.dll
 0002:000002a4       __imp__GetDateFormatA@24   101802a4     kernel32:KERNEL32.dll
 0002:000002a8       __imp__GetTimeFormatA@24   101802a8     kernel32:KERNEL32.dll
 0002:000002ac       __imp__GetCPInfo@8         101802ac     kernel32:KERNEL32.dll
 0002:000002b0       __imp__GetOEMCP@0          101802b0     kernel32:KERNEL32.dll
 0002:000002b4       __imp__IsBadCodePtr@4      101802b4     kernel32:KERNEL32.dll
 0002:000002b8       __imp__SetStdHandle@8      101802b8     kernel32:KERNEL32.dll
 0002:000002bc       __imp__GetFullPathNameA@16 101802bc     kernel32:KERNEL32.dll
 0002:000002c0       __imp__UnhandledExceptionFilter@4 101802c0     kernel32:KERNEL32.dll
 0002:000002c4       __imp__GetEnvironmentStringsW@0 101802c4     kernel32:KERNEL32.dll
 0002:000002c8       __imp__FreeEnvironmentStringsW@4 101802c8     kernel32:KERNEL32.dll
 0002:000002cc       __imp__GetEnvironmentStrings@0 101802cc     kernel32:KERNEL32.dll
 0002:000002d0       __imp__FreeEnvironmentStringsA@4 101802d0     kernel32:KERNEL32.dll
 0002:000002d4       __imp__GetStartupInfoA@4   101802d4     kernel32:KERNEL32.dll
 0002:000002d8       __imp__GetFileType@4       101802d8     kernel32:KERNEL32.dll
 0002:000002dc       __imp__SetHandleCount@4    101802dc     kernel32:KERNEL32.dll
 0002:000002e0       __imp__FlushFileBuffers@4  101802e0     kernel32:KERNEL32.dll
 0002:000002e4       __imp__SetFilePointer@16   101802e4     kernel32:KERNEL32.dll
 0002:000002e8       __imp__SetCurrentDirectoryA@4 101802e8     kernel32:KERNEL32.dll
 0002:000002ec       __imp__GetVersion@0        101802ec     kernel32:KERNEL32.dll
 0002:000002f0       __imp__GetEnvironmentVariableW@12 101802f0     kernel32:KERNEL32.dll
 0002:000002f4       __imp__GetThreadLocale@0   101802f4     kernel32:KERNEL32.dll
 0002:000002f8       __imp__GetLocaleInfoA@16   101802f8     kernel32:KERNEL32.dll
 0002:000002fc       __imp__GetACP@0            101802fc     kernel32:KERNEL32.dll
 0002:00000300       __imp__InterlockedExchange@8 10180300     kernel32:KERNEL32.dll
 0002:00000304       __imp__GetVersionExA@4     10180304     kernel32:KERNEL32.dll
 0002:00000308       __imp__CompareFileTime@8   10180308     kernel32:KERNEL32.dll
 0002:0000030c       __imp__SystemTimeToFileTime@8 1018030c     kernel32:KERNEL32.dll
 0002:00000310       __imp__GetCurrentDirectoryA@8 10180310     kernel32:KERNEL32.dll
 0002:00000314       __imp__GetFullPathNameW@16 10180314     kernel32:KERNEL32.dll
 0002:00000318       __imp__LCMapStringW@24     10180318     kernel32:KERNEL32.dll
 0002:0000031c       __imp__LCMapStringA@24     1018031c     kernel32:KERNEL32.dll
 0002:00000320       __imp__SetConsoleCtrlHandler@8 10180320     kernel32:KERNEL32.dll
 0002:00000324       __imp__SetUnhandledExceptionFilter@4 10180324     kernel32:KERNEL32.dll
 0002:00000328       __imp__FreeLibrary@4       10180328     kernel32:KERNEL32.dll
 0002:0000032c       __imp__VirtualFree@12      1018032c     kernel32:KERNEL32.dll
 0002:00000330       __imp__HeapCreate@12       10180330     kernel32:KERNEL32.dll
 0002:00000334       __imp__FatalAppExitA@8     10180334     kernel32:KERNEL32.dll
 0002:00000338       __imp__TlsGetValue@4       10180338     kernel32:KERNEL32.dll
 0002:0000033c       __imp__TlsSetValue@8       1018033c     kernel32:KERNEL32.dll
 0002:00000340       __imp__TlsFree@4           10180340     kernel32:KERNEL32.dll
 0002:00000344       __imp__TlsAlloc@0          10180344     kernel32:KERNEL32.dll
 0002:00000348       __imp__GetModuleHandleA@4  10180348     kernel32:KERNEL32.dll
 0002:0000034c       __imp__TerminateProcess@8  1018034c     kernel32:KERNEL32.dll
 0002:00000350       __imp__ReadFile@20         10180350     kernel32:KERNEL32.dll
 0002:00000354       __imp__GetTickCount@0      10180354     kernel32:KERNEL32.dll
 0002:00000358       __imp__QueryPerformanceCounter@4 10180358     kernel32:KERNEL32.dll
 0002:0000035c       __imp__FindFirstFileA@8    1018035c     kernel32:KERNEL32.dll
 0002:00000360       __imp__GetDriveTypeA@4     10180360     kernel32:KERNEL32.dll
 0002:00000364       __imp__FindFirstFileW@8    10180364     kernel32:KERNEL32.dll
 0002:00000368       __imp__GetDriveTypeW@4     10180368     kernel32:KERNEL32.dll
 0002:0000036c       __imp__RaiseException@16   1018036c     kernel32:KERNEL32.dll
 0002:00000370       __imp__lstrcpyW@8          10180370     kernel32:KERNEL32.dll
 0002:00000374       __imp__OutputDebugStringA@4 10180374     kernel32:KERNEL32.dll
 0002:00000378       __imp__OutputDebugStringW@4 10180378     kernel32:KERNEL32.dll
 0002:0000037c       __imp__lstrcpynW@12        1018037c     kernel32:KERNEL32.dll
 0002:00000380       __imp__FileTimeToLocalFileTime@8 10180380     kernel32:KERNEL32.dll
 0002:00000384       __imp__GetSystemTimeAsFileTime@4 10180384     kernel32:KERNEL32.dll
 0002:00000388       __imp__LocalFileTimeToFileTime@8 10180388     kernel32:KERNEL32.dll
 0002:0000038c       __imp__HeapReAlloc@16      1018038c     kernel32:KERNEL32.dll
 0002:00000390       __imp__HeapSize@12         10180390     kernel32:KERNEL32.dll
 0002:00000394       __imp__HeapDestroy@4       10180394     kernel32:KERNEL32.dll
 0002:00000398       __imp__VirtualAlloc@16     10180398     kernel32:KERNEL32.dll
 0002:0000039c       __imp__UnmapViewOfFile@4   1018039c     kernel32:KERNEL32.dll
 0002:000003a0       __imp__IsBadReadPtr@8      101803a0     kernel32:KERNEL32.dll
 0002:000003a4       __imp__GetSystemInfo@4     101803a4     kernel32:KERNEL32.dll
 0002:000003a8       __imp__MapViewOfFile@20    101803a8     kernel32:KERNEL32.dll
 0002:000003ac       __imp__CreateFileMappingA@24 101803ac     kernel32:KERNEL32.dll
 0002:000003b0       __imp__GetCurrentThread@0  101803b0     kernel32:KERNEL32.dll
 0002:000003b4       __imp__OpenFileMappingA@12 101803b4     kernel32:KERNEL32.dll
 0002:000003b8       __imp__GetModuleFileNameW@12 101803b8     kernel32:KERNEL32.dll
 0002:000003bc       __imp__ExitProcess@4       101803bc     kernel32:KERNEL32.dll
 0002:000003c0       __imp__RtlUnwind@16        101803c0     kernel32:KERNEL32.dll
 0002:000003c4       __imp__IsBadWritePtr@8     101803c4     kernel32:KERNEL32.dll
 0002:000003c8       __imp__HeapValidate@12     101803c8     kernel32:KERNEL32.dll
 0002:000003cc       __imp__GetStdHandle@4      101803cc     kernel32:KERNEL32.dll
 0002:000003d0       __imp__VirtualProtect@16   101803d0     kernel32:KERNEL32.dll
 0002:000003d4       __imp__FindClose@4         101803d4     kernel32:KERNEL32.dll
 0002:000003d8       __imp__VirtualQuery@12     101803d8     kernel32:KERNEL32.dll
 0002:000003dc       __imp__OpenEventA@12       101803dc     kernel32:KERNEL32.dll
 0002:000003e0       \177KERNEL32_NULL_THUNK_DATA 101803e0     kernel32:KERNEL32.dll
 0002:000003e4       __imp__LoadTypeLib@8       101803e4     oleaut32:OLEAUT32.dll
 0002:000003e8       __imp__LoadRegTypeLib@20   101803e8     oleaut32:OLEAUT32.dll
 0002:000003ec       __imp__SafeArrayCopy@8     101803ec     oleaut32:OLEAUT32.dll
 0002:000003f0       __imp__SafeArrayRedim@8    101803f0     oleaut32:OLEAUT32.dll
 0002:000003f4       __imp__SafeArrayAccessData@8 101803f4     oleaut32:OLEAUT32.dll
 0002:000003f8       __imp__SafeArrayUnaccessData@4 101803f8     oleaut32:OLEAUT32.dll
 0002:000003fc       __imp__SafeArrayCreate@12  101803fc     oleaut32:OLEAUT32.dll
 0002:00000400       __imp__SafeArrayPutElement@12 10180400     oleaut32:OLEAUT32.dll
 0002:00000404       __imp__SafeArrayGetDim@4   10180404     oleaut32:OLEAUT32.dll
 0002:00000408       __imp__SafeArrayGetLBound@12 10180408     oleaut32:OLEAUT32.dll
 0002:0000040c       __imp__SafeArrayGetUBound@12 1018040c     oleaut32:OLEAUT32.dll
 0002:00000410       __imp__SafeArrayGetVartype@8 10180410     oleaut32:OLEAUT32.dll
 0002:00000414       __imp__SafeArrayGetElemsize@4 10180414     oleaut32:OLEAUT32.dll
 0002:00000418       __imp__SafeArrayGetElement@12 10180418     oleaut32:OLEAUT32.dll
 0002:0000041c       __imp__VarBstrCat@12       1018041c     oleaut32:OLEAUT32.dll
 0002:00000420       __imp__VariantCopy@8       10180420     oleaut32:OLEAUT32.dll
 0002:00000424       __imp__VariantChangeType@16 10180424     oleaut32:OLEAUT32.dll
 0002:00000428       __imp__VariantInit@4       10180428     oleaut32:OLEAUT32.dll
 0002:0000042c       __imp__VariantClear@4      1018042c     oleaut32:OLEAUT32.dll
 0002:00000430       __imp__SysAllocStringByteLen@8 10180430     oleaut32:OLEAUT32.dll
 0002:00000434       __imp__SysAllocString@4    10180434     oleaut32:OLEAUT32.dll
 0002:00000438       __imp__SysAllocStringLen@8 10180438     oleaut32:OLEAUT32.dll
 0002:0000043c       __imp__SysFreeString@4     1018043c     oleaut32:OLEAUT32.dll
 0002:00000440       __imp__SysStringByteLen@4  10180440     oleaut32:OLEAUT32.dll
 0002:00000444       __imp__SysStringLen@4      10180444     oleaut32:OLEAUT32.dll
 0002:00000448       __imp__GetErrorInfo@8      10180448     oleaut32:OLEAUT32.dll
 0002:0000044c       __imp__SetErrorInfo@8      1018044c     oleaut32:OLEAUT32.dll
 0002:00000450       __imp__CreateErrorInfo@4   10180450     oleaut32:OLEAUT32.dll
 0002:00000454       \177OLEAUT32_NULL_THUNK_DATA 10180454     oleaut32:OLEAUT32.dll
 0002:00000458       __imp__StrChrA@8           10180458     shlwapi:SHLWAPI.dll
 0002:0000045c       __imp__StrStrIA@8          1018045c     shlwapi:SHLWAPI.dll
 0002:00000460       \177SHLWAPI_NULL_THUNK_DATA 10180460     shlwapi:SHLWAPI.dll
 0002:00000464       __imp__PeekMessageA@20     10180464     user32:USER32.dll
 0002:00000468       __imp__IsWindowUnicode@4   10180468     user32:USER32.dll
 0002:0000046c       __imp__GetMessageW@16      1018046c     user32:USER32.dll
 0002:00000470       __imp__GetMessageA@16      10180470     user32:USER32.dll
 0002:00000474       __imp__TranslateMessage@4  10180474     user32:USER32.dll
 0002:00000478       __imp__DispatchMessageW@4  10180478     user32:USER32.dll
 0002:0000047c       __imp__DispatchMessageA@4  1018047c     user32:USER32.dll
 0002:00000480       __imp__UnregisterClassA@8  10180480     user32:USER32.dll
 0002:00000484       __imp__CharUpperW@4        10180484     user32:USER32.dll
 0002:00000488       __imp__CharUpperA@4        10180488     user32:USER32.dll
 0002:0000048c       __imp__GetClientRect@8     1018048c     user32:USER32.dll
 0002:00000490       __imp__GetDesktopWindow@0  10180490     user32:USER32.dll
 0002:00000494       __imp__wsprintfA           10180494     user32:USER32.dll
 0002:00000498       __imp__MsgWaitForMultipleObjects@20 10180498     user32:USER32.dll
 0002:0000049c       __imp__SendMessageA@16     1018049c     user32:USER32.dll
 0002:000004a0       __imp__SendMessageW@16     101804a0     user32:USER32.dll
 0002:000004a4       __imp__IsWindow@4          101804a4     user32:USER32.dll
 0002:000004a8       __imp__GetDlgItem@8        101804a8     user32:USER32.dll
 0002:000004ac       __imp__SetWindowPos@28     101804ac     user32:USER32.dll
 0002:000004b0       __imp__MapWindowPoints@16  101804b0     user32:USER32.dll
 0002:000004b4       __imp__SystemParametersInfoA@16 101804b4     user32:USER32.dll
 0002:000004b8       __imp__CharLowerA@4        101804b8     user32:USER32.dll
 0002:000004bc       __imp__CharLowerW@4        101804bc     user32:USER32.dll
 0002:000004c0       __imp__GetWindowLongA@8    101804c0     user32:USER32.dll
 0002:000004c4       __imp__GetWindowRect@8     101804c4     user32:USER32.dll
 0002:000004c8       __imp__GetWindow@8         101804c8     user32:USER32.dll
 0002:000004cc       __imp__GetParent@4         101804cc     user32:USER32.dll
 0002:000004d0       __imp__EndDialog@8         101804d0     user32:USER32.dll
 0002:000004d4       __imp__SetWindowContextHelpId@8 101804d4     user32:USER32.dll
 0002:000004d8       __imp__MapDialogRect@8     101804d8     user32:USER32.dll
 0002:000004dc       __imp__SetWindowTextW@8    101804dc     user32:USER32.dll
 0002:000004e0       __imp__CreateWindowExA@48  101804e0     user32:USER32.dll
 0002:000004e4       __imp__DestroyWindow@4     101804e4     user32:USER32.dll
 0002:000004e8       __imp__SetWindowLongA@12   101804e8     user32:USER32.dll
 0002:000004ec       __imp__SendMessageTimeoutA@28 101804ec     user32:USER32.dll
 0002:000004f0       __imp__RegisterWindowMessageA@4 101804f0     user32:USER32.dll
 0002:000004f4       __imp__FindWindowExA@16    101804f4     user32:USER32.dll
 0002:000004f8       __imp__GetClassNameA@12    101804f8     user32:USER32.dll
 0002:000004fc       __imp__GetActiveWindow@0   101804fc     user32:USER32.dll
 0002:00000500       __imp__MessageBoxA@16      10180500     user32:USER32.dll
 0002:00000504       \177USER32_NULL_THUNK_DATA 10180504     user32:USER32.dll
 0002:00000508       __imp__VerQueryValueA@16   10180508     version:VERSION.dll
 0002:0000050c       __imp__GetFileVersionInfoSizeA@8 1018050c     version:VERSION.dll
 0002:00000510       __imp__GetFileVersionInfoA@16 10180510     version:VERSION.dll
 0002:00000514       \177VERSION_NULL_THUNK_DATA 10180514     version:VERSION.dll
 0002:00000518       __imp__ldap_search_s       10180518     wldap32:WLDAP32.dll
 0002:0000051c       __imp__ldap_count_entries  1018051c     wldap32:WLDAP32.dll
 0002:00000520       __imp__ldap_first_entry    10180520     wldap32:WLDAP32.dll
 0002:00000524       __imp__ldap_first_attribute 10180524     wldap32:WLDAP32.dll
 0002:00000528       __imp__ldap_init           10180528     wldap32:WLDAP32.dll
 0002:0000052c       __imp__ldap_value_free_len 1018052c     wldap32:WLDAP32.dll
 0002:00000530       __imp__ldap_memfree        10180530     wldap32:WLDAP32.dll
 0002:00000534       __imp__ber_free            10180534     wldap32:WLDAP32.dll
 0002:00000538       __imp__ldap_unbind         10180538     wldap32:WLDAP32.dll
 0002:0000053c       __imp__ldap_msgfree        1018053c     wldap32:WLDAP32.dll
 0002:00000540       __imp__ldap_set_option     10180540     wldap32:WLDAP32.dll
 0002:00000544       __imp__ldap_connect        10180544     wldap32:WLDAP32.dll
 0002:00000548       __imp__ldap_get_values_len 10180548     wldap32:WLDAP32.dll
 0002:0000054c       __imp__ldap_simple_bind_s  1018054c     wldap32:WLDAP32.dll
 0002:00000550       \177WLDAP32_NULL_THUNK_DATA 10180550     wldap32:WLDAP32.dll
 0002:00000554       __imp__ntohs@4             10180554     ws2_32:WS2_32.dll
 0002:00000558       __imp__ioctlsocket@12      10180558     ws2_32:WS2_32.dll
 0002:0000055c       __imp__closesocket@4       1018055c     ws2_32:WS2_32.dll
 0002:00000560       __imp__listen@8            10180560     ws2_32:WS2_32.dll
 0002:00000564       __imp__bind@12             10180564     ws2_32:WS2_32.dll
 0002:00000568       __imp__recv@16             10180568     ws2_32:WS2_32.dll
 0002:0000056c       __imp__shutdown@8          1018056c     ws2_32:WS2_32.dll
 0002:00000570       __imp__select@20           10180570     ws2_32:WS2_32.dll
 0002:00000574       __imp__inet_addr@4         10180574     ws2_32:WS2_32.dll
 0002:00000578       __imp__htonl@4             10180578     ws2_32:WS2_32.dll
 0002:0000057c       __imp__ntohl@4             1018057c     ws2_32:WS2_32.dll
 0002:00000580       __imp__WSACleanup@0        10180580     ws2_32:WS2_32.dll
 0002:00000584       __imp__send@16             10180584     ws2_32:WS2_32.dll
 0002:00000588       __imp__WSAStartup@8        10180588     ws2_32:WS2_32.dll
 0002:0000058c       __imp__socket@12           1018058c     ws2_32:WS2_32.dll
 0002:00000590       __imp__htons@4             10180590     ws2_32:WS2_32.dll
 0002:00000594       __imp__connect@12          10180594     ws2_32:WS2_32.dll
 0002:00000598       __imp__setsockopt@20       10180598     ws2_32:WS2_32.dll
 0002:0000059c       __imp__gethostbyname@4     1018059c     ws2_32:WS2_32.dll
 0002:000005a0       __imp__WSAGetLastError@0   101805a0     ws2_32:WS2_32.dll
 0002:000005a4       __imp__getsockopt@20       101805a4     ws2_32:WS2_32.dll
 0002:000005a8       __imp____WSAFDIsSet@8      101805a8     ws2_32:WS2_32.dll
 0002:000005ac       __imp__getsockname@12      101805ac     ws2_32:WS2_32.dll
 0002:000005b0       \177WS2_32_NULL_THUNK_DATA 101805b0     ws2_32:WS2_32.dll
 0002:000005b4       __imp__CoCreateGuid@4      101805b4     ole32:ole32.dll
 0002:000005b8       __imp__CreateStreamOnHGlobal@12 101805b8     ole32:ole32.dll
 0002:000005bc       __imp__CoCreateInstance@20 101805bc     ole32:ole32.dll
 0002:000005c0       __imp__OleRun@4            101805c0     ole32:ole32.dll
 0002:000005c4       __imp__CoReleaseMarshalData@4 101805c4     ole32:ole32.dll
 0002:000005c8       __imp__CoMarshalInterface@24 101805c8     ole32:ole32.dll
 0002:000005cc       __imp__CoUnmarshalInterface@12 101805cc     ole32:ole32.dll
 0002:000005d0       __imp__CoRevokeClassObject@4 101805d0     ole32:ole32.dll
 0002:000005d4       __imp__CoRegisterClassObject@20 101805d4     ole32:ole32.dll
 0002:000005d8       __imp__CoUninitialize@0    101805d8     ole32:ole32.dll
 0002:000005dc       __imp__CoInitialize@4      101805dc     ole32:ole32.dll
 0002:000005e0       \177ole32_NULL_THUNK_DATA  101805e0     ole32:ole32.dll
 0002:00001718       ??_C@_0BM@NMJKDPPO@invalid?5vector?$DMT?$DO?5subscript?$AA@ 10181718     CertVerify.obj
 0002:00001734       ?npos@?$basic_string@DU?$char_traits@D@std@@V?$allocator@D@2@@std@@2IB 10181734     CertVerify.obj
 0002:00001738       ??_C@_0BB@MOGOBHAF@list?$DMT?$DO?5too?5long?$AA@ 10181738     CertVerify.obj
 0002:0000174c       ??_C@_0BD@OLBABOEK@vector?$DMT?$DO?5too?5long?$AA@ 1018174c     CertVerify.obj
 0002:00002858       ?licenseTimeout@CLicense@@0HB 10182858     config.obj
 0002:0000285c       ?szInvalidDateTimeSpan@ATL@@3QBDB 1018285c     config.obj
 0002:00002860       ?szInvalidDateTime@ATL@@3QBDB 10182860     config.obj
 0002:00002868       ?Week@CFileTime@ATL@@2_KB  10182868     config.obj
 0002:00002870       ?Day@CFileTime@ATL@@2_KB   10182870     config.obj
 0002:00002878       ?Hour@CFileTime@ATL@@2_KB  10182878     config.obj
 0002:00002880       ?Minute@CFileTime@ATL@@2_KB 10182880     config.obj
 0002:00002888       ?Second@CFileTime@ATL@@2_KB 10182888     config.obj
 0002:00002890       ?Millisecond@CFileTime@ATL@@2_KB 10182890     config.obj
 0002:00002898       ?c_bIsMFCDLLTraits@?$_MFCDLLTraitsCheck@GV?$StrTraitATL@GV?$ChTraitsCRT@G@ATL@@@ATL@@@_CSTRING_IMPL_@ATL@@2_NB 10182898     config.obj
 0002:00002899       ?c_bIsMFCDLLTraits@?$_MFCDLLTraitsCheck@DV?$StrTraitATL@DV?$ChTraitsCRT@D@ATL@@@ATL@@@_CSTRING_IMPL_@ATL@@2_NB 10182899     config.obj
 0002:0000289c       ?end@?$_Iosb@H@std@@2W4_Seekdir@12@B 1018289c     config.obj
 0002:000028a0       ?cur@?$_Iosb@H@std@@2W4_Seekdir@12@B 101828a0     config.obj
 0002:000028a4       ?beg@?$_Iosb@H@std@@2W4_Seekdir@12@B 101828a4     config.obj
 0002:000028a8       ?binary@?$_Iosb@H@std@@2W4_Openmode@12@B 101828a8     config.obj
 0002:000028ac       ?_Noreplace@?$_Iosb@H@std@@2W4_Openmode@12@B 101828ac     config.obj
 0002:000028b0       ?_Nocreate@?$_Iosb@H@std@@2W4_Openmode@12@B 101828b0     config.obj
 0002:000028b4       ?trunc@?$_Iosb@H@std@@2W4_Openmode@12@B 101828b4     config.obj
 0002:000028b8       ?app@?$_Iosb@H@std@@2W4_Openmode@12@B 101828b8     config.obj
 0002:000028bc       ?ate@?$_Iosb@H@std@@2W4_Openmode@12@B 101828bc     config.obj
 0002:000028c0       ?out@?$_Iosb@H@std@@2W4_Openmode@12@B 101828c0     config.obj
 0002:000028c4       ?in@?$_Iosb@H@std@@2W4_Openmode@12@B 101828c4     config.obj
 0002:000028c8       ?_Hardfail@?$_Iosb@H@std@@2W4_Iostate@12@B 101828c8     config.obj
 0002:000028cc       ?badbit@?$_Iosb@H@std@@2W4_Iostate@12@B 101828cc     config.obj
 0002:000028d0       ?failbit@?$_Iosb@H@std@@2W4_Iostate@12@B 101828d0     config.obj
 0002:000028d4       ?eofbit@?$_Iosb@H@std@@2W4_Iostate@12@B 101828d4     config.obj
 0002:000028d8       ?goodbit@?$_Iosb@H@std@@2W4_Iostate@12@B 101828d8     config.obj
 0002:000028dc       ?floatfield@?$_Iosb@H@std@@2W4_Fmtflags@12@B 101828dc     config.obj
 0002:000028e0       ?basefield@?$_Iosb@H@std@@2W4_Fmtflags@12@B 101828e0     config.obj
 0002:000028e4       ?adjustfield@?$_Iosb@H@std@@2W4_Fmtflags@12@B 101828e4     config.obj
 0002:000028e8       ?_Stdio@?$_Iosb@H@std@@2W4_Fmtflags@12@B 101828e8     config.obj
 0002:000028ec       ?boolalpha@?$_Iosb@H@std@@2W4_Fmtflags@12@B 101828ec     config.obj
 0002:000028f0       ?fixed@?$_Iosb@H@std@@2W4_Fmtflags@12@B 101828f0     config.obj
 0002:000028f4       ?scientific@?$_Iosb@H@std@@2W4_Fmtflags@12@B 101828f4     config.obj
 0002:000028f8       ?hex@?$_Iosb@H@std@@2W4_Fmtflags@12@B 101828f8     config.obj
 0002:000028fc       ?oct@?$_Iosb@H@std@@2W4_Fmtflags@12@B 101828fc     config.obj
 0002:00002900       ?dec@?$_Iosb@H@std@@2W4_Fmtflags@12@B 10182900     config.obj
 0002:00002904       ?internal@?$_Iosb@H@std@@2W4_Fmtflags@12@B 10182904     config.obj
 0002:00002908       ?right@?$_Iosb@H@std@@2W4_Fmtflags@12@B 10182908     config.obj
 0002:0000290c       ?left@?$_Iosb@H@std@@2W4_Fmtflags@12@B 1018290c     config.obj
 0002:00002910       ?showpos@?$_Iosb@H@std@@2W4_Fmtflags@12@B 10182910     config.obj
 0002:00002914       ?showpoint@?$_Iosb@H@std@@2W4_Fmtflags@12@B 10182914     config.obj
 0002:00002918       ?showbase@?$_Iosb@H@std@@2W4_Fmtflags@12@B 10182918     config.obj
 0002:0000291c       ?uppercase@?$_Iosb@H@std@@2W4_Fmtflags@12@B 1018291c     config.obj
 0002:00002920       ?unitbuf@?$_Iosb@H@std@@2W4_Fmtflags@12@B 10182920     config.obj
 0002:00002924       ?skipws@?$_Iosb@H@std@@2W4_Fmtflags@12@B 10182924     config.obj
 0002:00002928       ?none@?$_Locbase@H@std@@2HB 10182928     config.obj
 0002:0000292c       ?all@?$_Locbase@H@std@@2HB 1018292c     config.obj
 0002:00002930       ?messages@?$_Locbase@H@std@@2HB 10182930     config.obj
 0002:00002934       ?time@?$_Locbase@H@std@@2HB 10182934     config.obj
 0002:00002938       ?numeric@?$_Locbase@H@std@@2HB 10182938     config.obj
 0002:0000293c       ?monetary@?$_Locbase@H@std@@2HB 1018293c     config.obj
 0002:00002940       ?ctype@?$_Locbase@H@std@@2HB 10182940     config.obj
 0002:00002944       ?collate@?$_Locbase@H@std@@2HB 10182944     config.obj
 0002:00002948       ??_C@_0FB@DNILBHEN@C?3?2Program?5Files?2Microsoft?5Visua@ 10182948     config.obj
 0002:0000299c       ??_C@_0BA@CLMJJCOM@nSize?5?$DO?$DN?5nSizeW?$AA@ 1018299c     config.obj
 0002:000029bc       ??_C@_01GBGANLPD@0?$AA@    101829bc     config.obj
 0002:000029c0       ??_C@_08DMHHBMMN@lpa?5?$CB?$DN?50?$AA@ 101829c0     config.obj
 0002:000029d0       ??_C@_0FA@OHHMODBN@C?3?2Program?5Files?2Microsoft?5Visua@ 101829d0     config.obj
 0002:00002a20       ??_C@_08DIHJLFDJ@lpw?5?$CB?$DN?50?$AA@ 10182a20     config.obj
 0002:00002a30       ??_C@_0FC@CFIFHLCH@C?3?2Program?5Files?2Microsoft?5Visua@ 10182a30     config.obj
 0002:00002a84       ??_C@_0BF@IAAKIJDJ@AtlThrow?3?5hr?5?$DN?50x?$CFx?6?$AA@ 10182a84     config.obj
 0002:00002a9c       ??_7CConfig@@6B@           10182a9c     config.obj
 0002:00002aa0       ??_C@_0BJ@OGJFCAD@nResult?5?$DN?$DN?5nConvertedLen?$AA@ 10182aa0     config.obj
 0002:00002ac0       ??_C@_0FB@IAFJMJBP@C?3?2Program?5Files?2Microsoft?5Visua@ 10182ac0     config.obj
 0002:00002b14       ??_C@_08GPODJFIN@m_p?5?$DN?$DN?50?$AA@ 10182b14     config.obj
 0002:000032e0       __GUID_00000514_0000_0010_8000_00aa006d2ea4 101832e0     CRLCache.obj
 0002:000032f0       ??_C@_0CG@PAOIECBF@s?5?$DN?$DN?50?5?$HM?$HM?5?$CIconst?5wchar_t?$CK?$CJ?5?$CKthis@ 101832f0     CRLCache.obj
 0002:00003318       ??_C@_0EJ@DPIMAKHN@C?3?2Program?5Files?2Microsoft?5Visua@ 10183318     CRLCache.obj
 0002:00003364       ??_C@_0BF@IPPGFENJ@Unknown?5error?50x?$CF0lX?$AA@ 10183364     CRLCache.obj
 0002:0000337c       ??_C@_0BE@NNIJINN@IDispatch?5error?5?$CD?$CFd?$AA@ 1018337c     CRLCache.obj
 0002:00003390       __GUID_00000515_0000_0010_8000_00aa006d2ea4 10183390     CRLCache.obj
 0002:000033a0       __GUID_00000535_0000_0010_8000_00aa006d2ea4 101833a0     CRLCache.obj
 0002:000033b0       __GUID_0000054c_0000_0010_8000_00aa006d2ea4 101833b0     CRLCache.obj
 0002:000033c0       __GUID_00000506_0000_0010_8000_00aa006d2ea4 101833c0     CRLCache.obj
 0002:000033d0       __GUID_0000050e_0000_0010_8000_00aa006d2ea4 101833d0     CRLCache.obj
 0002:000033e0       __GUID_00000000_0000_0000_c000_000000000046 101833e0     CRLCache.obj
 0002:000033f0       __GUID_00000550_0000_0010_8000_00aa006d2ea4 101833f0     CRLCache.obj
 0002:00003400       __GUID_00000556_0000_0010_8000_00aa006d2ea4 10183400     CRLCache.obj
 0002:00006100       ??_7CLicense@@6B@          10186100     License.obj
 0002:00006850       ??_7CShowSelectCert@@6B@   10186850     ShowSelectCert.obj
 0002:00006864       ??_C@_0CE@BJCBICOJ@c?3?2activex?2xmlsign?2ShowSelectCer@ 10186864     ShowSelectCert.obj
 0002:00006888       ??_C@_0BN@BNLFFEBD@Invalid?5message?5map?5ID?5?$CI?$CFi?$CJ?6?$AA@ 10186888     ShowSelectCert.obj
 0002:000068a8       ??_C@_0FC@KBOEFHBO@C?3?2Program?5Files?2Microsoft?5Visua@ 101868a8     ShowSelectCert.obj
 0002:000068fc       ??_C@_0O@LPAFDJOF@bstrText?5?$DN?$DN?50?$AA@ 101868fc     ShowSelectCert.obj
 0002:00006910       ??_C@_0EP@FECMNBMC@C?3?2Program?5Files?2Microsoft?5Visua@ 10186910     ShowSelectCert.obj
 0002:00006960       ??_C@_0BD@OAFOKPBM@?3?3IsWindow?$CIm_hWnd?$CJ?$AA@ 10186960     ShowSelectCert.obj
 0002:00006974       ??_C@_0BH@LBNLFONB@?3?3IsWindow?$CIhWndCenter?$CJ?$AA@ 10186974     ShowSelectCert.obj
 0002:0000698c       ??_C@_0BH@ENLIMLGL@?3?3IsWindow?$CIhWndParent?$CJ?$AA@ 1018698c     ShowSelectCert.obj
 0002:000069a4       ??_C@_08LIEICNMC@m_bModal?$AA@ 101869a4     ShowSelectCert.obj
 0002:000069b0       ??_C@_0L@KAJDHFFC@dwLen?5?$DN?$DN?50?$AA@ 101869b0     ShowSelectCert.obj
 0002:000069bc       ??_C@_0M@MFNOGLO@m_hWnd?5?$DN?$DN?50?$AA@ 101869bc     ShowSelectCert.obj
 0002:000069c8       ??_C@_0O@HHPDHHJB@AtlAxWinLic71?$AA@ 101869c8     ShowSelectCert.obj
 0002:000069d8       ??_C@_0BF@CCFFBNDL@?$CI?$CIHRESULT?$CJ?$CIhr?$CJ?5?$DO?$DN?50?$CJ?$AA@ 101869d8     ShowSelectCert.obj
 0002:000069f0       ??_C@_04DBLLIIGB@p?$DN?$DN0?$AA@ 101869f0     ShowSelectCert.obj
 0002:000069f8       ??_C@_04CLHEGAEG@p?$CB?$DN0?$AA@ 101869f8     ShowSelectCert.obj
 0002:00006a00       __GUID_3935bda8_4ed9_495c_8650_e01fc1e38a4b 10186a00     ShowSelectCert.obj
 0002:00006a10       ??_C@_07MEKCDCMA@pp?5?$CB?$DN?50?$AA@ 10186a10     ShowSelectCert.obj
 0002:00006a18       ??_C@_09BNFEDJPE@?$CBm_bModal?$AA@ 10186a18     ShowSelectCert.obj
 0002:00006a24       ??_C@_0L@PGEBGEDK@ppUnk?5?$CB?$DN?50?$AA@ 10186a24     ShowSelectCert.obj
 0002:00006a30       ??_C@_0DE@JJEOCICO@ERROR?5?9?5Object?5deleted?5before?5wi@ 10186a30     ShowSelectCert.obj
 0002:00006a94       _IID_IePad                 10186a94     Signature.obj
 0002:00006aa4       _LIBID_SECUREPADLib        10186aa4     Signature.obj
 0002:00006ab4       _CLSID_ePad                10186ab4     Signature.obj
 0002:00020a10       ??_C@_0BM@LOCLFAIJ@c?3?2activex?2xmlsign?2config?4h?$AA@ 101a0a10     Signature.obj
 0002:00020a2c       ??_C@_0BH@IMJCHIMA@CConfig?3?3setConfigFile?$AA@ 101a0a2c     Signature.obj
 0002:00020a44       ??_7SigException@@6B@      101a0a44     Signature.obj
 0002:00020a4c       __GUID_0d61aa35_48d5_47f5_8249_f685f75250fd 101a0a4c     Signature.obj
 0002:00020a5c       __GUID_0a06154b_8ff9_48b2_a819_b68c327fc773 101a0a5c     Signature.obj
 0002:00020a6c       ??_C@_0CD@LOCFBMPJ@CShowSelectCert?3?3selectCertifica@ 101a0a6c     Signature.obj
 0002:00020a90       __GUID_0674a7d1_0a9c_4fe4_b914_96bcc6edc4cf 101a0a90     Signature.obj
 0002:00020aa0       __GUID_f18805cc_5075_4d36_bb01_76a4caf6ee31 101a0aa0     Signature.obj
 0002:00020ab0       __GUID_c8be4864_227a_4a1b_84ee_473681bd4872 101a0ab0     Signature.obj
 0002:00020ac0       __GUID_12f2bf07_dc45_4684_a4bc_8a5f44984777 101a0ac0     Signature.obj
 0002:00020ad0       __GUID_d8f3211f_302f_45db_8187_cdf6b7677d90 101a0ad0     Signature.obj
 0002:00020ae0       ??_7CBufferVariant@@6B@    101a0ae0     Signature.obj
 0002:00020ae4       ??_C@_0BO@OBIGOAOM@AtlIsValidString?$CI?5pszFormat?5?$CJ?$AA@ 101a0ae4     Signature.obj
 0002:00020b04       ??_7?$basic_ios@DU?$char_traits@D@std@@@std@@6B@ 101a0b04     Signature.obj
 0002:00020b08       ??_7?$basic_ofstream@DU?$char_traits@D@std@@@std@@6B@ 101a0b08     Signature.obj
 0002:00020b0c       ??_8?$basic_ofstream@DU?$char_traits@D@std@@@std@@7B@ 101a0b0c     Signature.obj
 0002:00020b14       ??_7?$basic_ostream@DU?$char_traits@D@std@@@std@@6B@ 101a0b14     Signature.obj
 0002:00020b18       ??_7?$basic_filebuf@DU?$char_traits@D@std@@@std@@6B@ 101a0b18     Signature.obj
 0002:00020b4c       ??_7?$basic_streambuf@DU?$char_traits@D@std@@@std@@6B@ 101a0b4c     Signature.obj
 0002:00020b80       ?npos@?$basic_string@DU?$char_traits@D@std@@V?$_DebugHeapAllocator@D@2@@std@@2IB 101a0b80     Signature.obj
 0002:00020b88       ??_C@_0FD@MKDEOELP@C?3?2Program?5Files?2Microsoft?5Visua@ 101a0b88     Signature.obj
 0002:00020bdc       ??_C@_0BA@GOIMFHNK@pStringMgr?5?$CB?$DN?50?$AA@ 101a0bdc     Signature.obj
 0002:00020bec       ??_C@_0L@OIIMFBNE@nRefs?5?$CB?$DN?50?$AA@ 101a0bec     Signature.obj
 0002:00020bf8       ??_C@_0CB@GFHAPKDK@pOldData?9?$DOnAllocLength?5?$DM?5nLength@ 101a0bf8     Signature.obj
 0002:00020c1c       ??_8?$basic_ostream@DU?$char_traits@D@std@@@std@@7B@ 101a0c1c     Signature.obj
 0002:00020c28       ??_C@_0EH@FCAPEONK@C?3?2Program?5Files?2Microsoft?5Visua@ 101a0c28     Signature.obj
 0002:00020c70       ??_C@_0BA@GNIEOBOF@nNewLength?5?$DO?$DN?50?$AA@ 101a0c70     Signature.obj
 0002:00020c80       ??_C@_0CD@EEFFJEGJ@nLength?5?$DM?$DN?5GetData?$CI?$CJ?9?$DOnAllocLeng@ 101a0c80     Signature.obj
 0002:00020ca4       ??_C@_0N@ILOMLJGA@nLength?5?$DO?$DN?50?$AA@ 101a0ca4     Signature.obj
 0002:00020cb8       ??_C@_0EJ@EMNMEGHE@C?3?2Program?5Files?2Microsoft?5Visua@ 101a0cb8     Signature.obj
 0002:00020d08       ??_C@_0EG@DKHIMJLN@C?3?2Program?5Files?2Microsoft?5Visua@ 101a0d08     Signature.obj
 0002:00020d50       ??_C@_0FA@KBNNCCJL@C?3?2Program?5Files?2Microsoft?5Visua@ 101a0d50     Signature.obj
 0002:00020da0       ??_C@_06CIAHICCP@pThunk?$AA@ 101a0da0     Signature.obj
 0002:00020da8       ??_C@_08EPJLHIJG@bad?5cast?$AA@ 101a0da8     Signature.obj
 0002:00020db8       ??_C@_0EH@NBFKEDIC@C?3?2Program?5Files?2Microsoft?5Visua@ 101a0db8     Signature.obj
 0002:00020e00       ??_C@_01GFHCPBMG@C?$AA@    101a0e00     Signature.obj
 0002:00020e04       ??_7?$ctype@D@std@@6B@     101a0e04     Signature.obj
 0002:00020e28       ??_7ctype_base@std@@6B@    101a0e28     Signature.obj
 0002:00020e2c       ??_7?$codecvt@DDH@std@@6B@ 101a0e2c     Signature.obj
 0002:00020e4c       ??_7codecvt_base@std@@6B@  101a0e4c     Signature.obj
 0002:000214f0       __real@41efffffffe00000    101a14f0     Sntp.obj
 0002:000214f8       __real@0000000000000000    101a14f8     Sntp.obj
 0002:00021500       __real@3fe0000000000000    101a1500     Sntp.obj
 0002:00021508       __real@4000000000000000    101a1508     Sntp.obj
 0002:00021cf0       _CLSID_StdGlobalInterfaceTable 101a1cf0     StdAfx.obj
 0002:00021d00       _IID_IAxWinAmbientDispatchEx 101a1d00     StdAfx.obj
 0002:00021d10       _IID_IAxWinHostWindowLic   101a1d10     StdAfx.obj
 0002:00021d20       _IID_IDocHostUIHandlerDispatch 101a1d20     StdAfx.obj
 0002:00021d30       _IID_IInternalConnection   101a1d30     StdAfx.obj
 0002:00021d40       _IID_IAxWinAmbientDispatch 101a1d40     StdAfx.obj
 0002:00021d50       _IID_IAxWinHostWindow      101a1d50     StdAfx.obj
 0002:00021d60       _IID_IRegistrar            101a1d60     StdAfx.obj
 0002:00021d70       _CLSID_Registrar           101a1d70     StdAfx.obj
 0002:00021d80       _LIBID_ATLLib              101a1d80     StdAfx.obj
 0002:00021d90       ?pmField@?$CVarTypeInfo@PATtagCY@@@ATL@@2QQtagVARIANT@@PATtagCY@@Q3@ 101a1d90     StdAfx.obj
 0002:00021d94       ?VT@?$CVarTypeInfo@PATtagCY@@@ATL@@2GB 101a1d94     StdAfx.obj
 0002:00021d98       ?pmField@?$CVarTypeInfo@TtagCY@@@ATL@@2QQtagVARIANT@@TtagCY@@Q3@ 101a1d98     StdAfx.obj
 0002:00021d9c       ?VT@?$CVarTypeInfo@TtagCY@@@ATL@@2GB 101a1d9c     StdAfx.obj
 0002:00021da0       ?pmField@?$CVarTypeInfo@PAPAUIDispatch@@@ATL@@2QQtagVARIANT@@PAPAUIDispatch@@Q3@ 101a1da0     StdAfx.obj
 0002:00021da4       ?VT@?$CVarTypeInfo@PAPAUIDispatch@@@ATL@@2GB 101a1da4     StdAfx.obj
 0002:00021da8       ?pmField@?$CVarTypeInfo@PAUIDispatch@@@ATL@@2QQtagVARIANT@@PAUIDispatch@@Q3@ 101a1da8     StdAfx.obj
 0002:00021dac       ?VT@?$CVarTypeInfo@PAUIDispatch@@@ATL@@2GB 101a1dac     StdAfx.obj
 0002:00021db0       ?pmField@?$CVarTypeInfo@PAPAUIUnknown@@@ATL@@2QQtagVARIANT@@PAPAUIUnknown@@Q3@ 101a1db0     StdAfx.obj
 0002:00021db4       ?VT@?$CVarTypeInfo@PAPAUIUnknown@@@ATL@@2GB 101a1db4     StdAfx.obj
 0002:00021db8       ?pmField@?$CVarTypeInfo@PAUIUnknown@@@ATL@@2QQtagVARIANT@@PAUIUnknown@@Q3@ 101a1db8     StdAfx.obj
 0002:00021dbc       ?VT@?$CVarTypeInfo@PAUIUnknown@@@ATL@@2GB 101a1dbc     StdAfx.obj
 0002:00021dc0       ?pmField@?$CVarTypeInfo@PAPAG@ATL@@2QQtagVARIANT@@PAPAGQ3@ 101a1dc0     StdAfx.obj
 0002:00021dc4       ?VT@?$CVarTypeInfo@PAPAG@ATL@@2GB 101a1dc4     StdAfx.obj
 0002:00021dc8       ?pmField@?$CVarTypeInfo@PAG@ATL@@2QQtagVARIANT@@PAGQ3@ 101a1dc8     StdAfx.obj
 0002:00021dcc       ?VT@?$CVarTypeInfo@PAG@ATL@@2GB 101a1dcc     StdAfx.obj
 0002:00021dd0       ?VT@?$CVarTypeInfo@UtagVARIANT@@@ATL@@2GB 101a1dd0     StdAfx.obj
 0002:00021dd4       ?pmField@?$CVarTypeInfo@PAN@ATL@@2QQtagVARIANT@@PANQ3@ 101a1dd4     StdAfx.obj
 0002:00021dd8       ?VT@?$CVarTypeInfo@PAN@ATL@@2GB 101a1dd8     StdAfx.obj
 0002:00021ddc       ?pmField@?$CVarTypeInfo@N@ATL@@2QQtagVARIANT@@NQ3@ 101a1ddc     StdAfx.obj
 0002:00021de0       ?VT@?$CVarTypeInfo@N@ATL@@2GB 101a1de0     StdAfx.obj
 0002:00021de4       ?pmField@?$CVarTypeInfo@PAM@ATL@@2QQtagVARIANT@@PAMQ3@ 101a1de4     StdAfx.obj
 0002:00021de8       ?VT@?$CVarTypeInfo@PAM@ATL@@2GB 101a1de8     StdAfx.obj
 0002:00021dec       ?pmField@?$CVarTypeInfo@M@ATL@@2QQtagVARIANT@@MQ3@ 101a1dec     StdAfx.obj
 0002:00021df0       ?VT@?$CVarTypeInfo@M@ATL@@2GB 101a1df0     StdAfx.obj
 0002:00021df4       ?pmField@?$CVarTypeInfo@PA_K@ATL@@2QQtagVARIANT@@PA_KQ3@ 101a1df4     StdAfx.obj
 0002:00021df8       ?VT@?$CVarTypeInfo@PA_K@ATL@@2GB 101a1df8     StdAfx.obj
 0002:00021dfc       ?pmField@?$CVarTypeInfo@_K@ATL@@2QQtagVARIANT@@_KQ3@ 101a1dfc     StdAfx.obj
 0002:00021e00       ?VT@?$CVarTypeInfo@_K@ATL@@2GB 101a1e00     StdAfx.obj
 0002:00021e04       ?pmField@?$CVarTypeInfo@PA_J@ATL@@2QQtagVARIANT@@PA_JQ3@ 101a1e04     StdAfx.obj
 0002:00021e08       ?VT@?$CVarTypeInfo@PA_J@ATL@@2GB 101a1e08     StdAfx.obj
 0002:00021e0c       ?pmField@?$CVarTypeInfo@_J@ATL@@2QQtagVARIANT@@_JQ3@ 101a1e0c     StdAfx.obj
 0002:00021e10       ?VT@?$CVarTypeInfo@_J@ATL@@2GB 101a1e10     StdAfx.obj
 0002:00021e14       ?pmField@?$CVarTypeInfo@PAK@ATL@@2QQtagVARIANT@@PAKQ3@ 101a1e14     StdAfx.obj
 0002:00021e18       ?VT@?$CVarTypeInfo@PAK@ATL@@2GB 101a1e18     StdAfx.obj
 0002:00021e1c       ?pmField@?$CVarTypeInfo@K@ATL@@2QQtagVARIANT@@KQ3@ 101a1e1c     StdAfx.obj
 0002:00021e20       ?VT@?$CVarTypeInfo@K@ATL@@2GB 101a1e20     StdAfx.obj
 0002:00021e24       ?pmField@?$CVarTypeInfo@PAJ@ATL@@2QQtagVARIANT@@PAJQ3@ 101a1e24     StdAfx.obj
 0002:00021e28       ?VT@?$CVarTypeInfo@PAJ@ATL@@2GB 101a1e28     StdAfx.obj
 0002:00021e2c       ?pmField@?$CVarTypeInfo@J@ATL@@2QQtagVARIANT@@JQ3@ 101a1e2c     StdAfx.obj
 0002:00021e30       ?VT@?$CVarTypeInfo@J@ATL@@2GB 101a1e30     StdAfx.obj
 0002:00021e34       ?pmField@?$CVarTypeInfo@PAI@ATL@@2QQtagVARIANT@@PAIQ3@ 101a1e34     StdAfx.obj
 0002:00021e38       ?VT@?$CVarTypeInfo@PAI@ATL@@2GB 101a1e38     StdAfx.obj
 0002:00021e3c       ?pmField@?$CVarTypeInfo@I@ATL@@2QQtagVARIANT@@IQ3@ 101a1e3c     StdAfx.obj
 0002:00021e40       ?VT@?$CVarTypeInfo@I@ATL@@2GB 101a1e40     StdAfx.obj
 0002:00021e44       ?pmField@?$CVarTypeInfo@PAH@ATL@@2QQtagVARIANT@@PAHQ3@ 101a1e44     StdAfx.obj
 0002:00021e48       ?VT@?$CVarTypeInfo@PAH@ATL@@2GB 101a1e48     StdAfx.obj
 0002:00021e4c       ?pmField@?$CVarTypeInfo@H@ATL@@2QQtagVARIANT@@HQ3@ 101a1e4c     StdAfx.obj
 0002:00021e50       ?VT@?$CVarTypeInfo@H@ATL@@2GB 101a1e50     StdAfx.obj
 0002:00021e54       ?pmField@?$CVarTypeInfo@G@ATL@@2QQtagVARIANT@@GQ3@ 101a1e54     StdAfx.obj
 0002:00021e58       ?VT@?$CVarTypeInfo@G@ATL@@2GB 101a1e58     StdAfx.obj
 0002:00021e5c       ?pmField@?$CVarTypeInfo@PAF@ATL@@2QQtagVARIANT@@PAFQ3@ 101a1e5c     StdAfx.obj
 0002:00021e60       ?VT@?$CVarTypeInfo@PAF@ATL@@2GB 101a1e60     StdAfx.obj
 0002:00021e64       ?pmField@?$CVarTypeInfo@F@ATL@@2QQtagVARIANT@@FQ3@ 101a1e64     StdAfx.obj
 0002:00021e68       ?VT@?$CVarTypeInfo@F@ATL@@2GB 101a1e68     StdAfx.obj
 0002:00021e6c       ?pmField@?$CVarTypeInfo@PAE@ATL@@2QQtagVARIANT@@PAEQ3@ 101a1e6c     StdAfx.obj
 0002:00021e70       ?VT@?$CVarTypeInfo@PAE@ATL@@2GB 101a1e70     StdAfx.obj
 0002:00021e74       ?pmField@?$CVarTypeInfo@PAD@ATL@@2QQtagVARIANT@@PADQ3@ 101a1e74     StdAfx.obj
 0002:00021e78       ?VT@?$CVarTypeInfo@PAD@ATL@@2GB 101a1e78     StdAfx.obj
 0002:00021e7c       ?pmField@?$CVarTypeInfo@E@ATL@@2QQtagVARIANT@@EQ3@ 101a1e7c     StdAfx.obj
 0002:00021e80       ?VT@?$CVarTypeInfo@E@ATL@@2GB 101a1e80     StdAfx.obj
 0002:00021e84       ?pmField@?$CVarTypeInfo@D@ATL@@2QQtagVARIANT@@DQ3@ 101a1e84     StdAfx.obj
 0002:00021e88       ?VT@?$CVarTypeInfo@D@ATL@@2GB 101a1e88     StdAfx.obj
 0002:00021e90       _IID_ISignature            101a1e90     XMLSign.obj
 0002:00021ea0       _LIBID_XMLSIGNLib          101a1ea0     XMLSign.obj
 0002:00021eb0       _CLSID_Signature           101a1eb0     XMLSign.obj
 0002:000222f0       _IID_IObjectSafety         101a22f0     XMLSign.obj
 0002:00022300       ??_C@_0BJ@MKNPNODP@0?5?$CB?$DN?5pMapEntries?9?$DOszData?$AA@ 101a2300     XMLSign.obj
 0002:0002231c       ?pMap@?1??GetCategoryMap@CSignature@@SAPBU_ATL_CATMAP_ENTRY@ATL@@XZ@4QBU34@B 101a231c     XMLSign.obj
 0002:00022338       ??_C@_0EH@BABLPHCB@ERROR?5?3?5Unable?5to?5lock?5critical?5@ 101a2338     XMLSign.obj
 0002:00022380       ??_C@_0EP@FBJOMLAB@C?3?2Program?5Files?2Microsoft?5Visua@ 101a2380     XMLSign.obj
 0002:000223d0       ??_C@_08NEPKAPOI@ppv?5?$CB?$DN?50?$AA@ 101a23d0     XMLSign.obj
 0002:000223dc       ??_C@_0N@JELNCKOF@m_dwRef?5?$DN?$DN?50?$AA@ 101a23dc     XMLSign.obj
 0002:000223ec       ??_7?$CComObjectCached@VCComClassFactory@ATL@@@ATL@@6B@ 101a23ec     XMLSign.obj
 0002:00022414       ??_7CComClassFactory@ATL@@6B@ 101a2414     XMLSign.obj
 0002:00022430       ??_C@_0FH@OCMNPHBO@CComClassFactory?3?5asked?5for?5non?5@ 101a2430     XMLSign.obj
 0002:00022488       ??_C@_0BJ@HNHMIKBN@m_pfnCreateInstance?5?$CB?$DN?50?$AA@ 101a2488     XMLSign.obj
 0002:000224a4       ??_C@_0DC@BBKMJDPM@pEntries?9?$DOpFunc?5?$DN?$DN?5?$CI?$CIATL?3?3_ATL_C@ 101a24a4     XMLSign.obj
 0002:000224d8       ??_C@_0L@DBHNDLKF@pThis?5?$CB?$DN?50?$AA@ 101a24d8     XMLSign.obj
 0002:000224e4       ??_C@_0P@BMHEGBAP@ppvObject?5?$CB?$DN?50?$AA@ 101a24e4     XMLSign.obj
 0002:000224f4       __GUID_00000001_0000_0000_c000_000000000046 101a24f4     XMLSign.obj
 0002:00022504       ??_C@_0BB@PADCHBLN@CComClassFactory?$AA@ 101a2504     XMLSign.obj
 0002:00022518       ?_entries@?1??_GetEntries@CComClassFactory@ATL@@SGPBU_ATL_INTMAP_ENTRY@3@XZ@4QBU43@B 101a2518     XMLSign.obj
 0002:0002253c       ??_C@_0P@IDNKKMJE@m_dwRef?5?$CB?$DN?5?91L?$AA@ 101a253c     XMLSign.obj
 0002:00022550       ??_C@_0EC@FOHBGNDM@0?5?$CG?$CG?5?$CCRelease?5called?5on?5a?5pointe@ 101a2550     XMLSign.obj
 0002:00022594       ??_7?$CComObject@VCSignature@@@ATL@@6BIObjectWithSite@@@ 101a2594     XMLSign.obj
 0002:000225a8       ??_7?$CComObject@VCSignature@@@ATL@@6BIOleCommandTarget@@@ 101a25a8     XMLSign.obj
 0002:000225c0       ??_7?$CComObject@VCSignature@@@ATL@@6B?$IDispatchImpl@UISignature@@$1?IID_ISignature@@3U_GUID@@B$1?LIBID_XMLSIGNLib@@3U3@B$00$0A@VCComTypeInfoHolder@ATL@@@1@@ 101a25c0     XMLSign.obj
 0002:00022948       ??_C@_0M@NNHBFKBG@ppInfo?5?$CB?$DN?50?$AA@ 101a2948     XMLSign.obj
 0002:00022958       ??_C@_0FB@GGFNIACC@?7IDispatchImpl?0?5CStockPropImpl?0?5@ 101a2958     XMLSign.obj
 0002:000229ac       ??_C@_0DE@PFCDKHBK@?7Verify?5TypelibID?5and?5major?5vers@ 101a29ac     XMLSign.obj
 0002:000229e0       ??_C@_0DG@JANIJOBP@ERROR?5?3?5Unable?5to?5load?5Typelibra@ 101a29e0     XMLSign.obj
 0002:00022a18       ??_C@_0DN@OOAEELGE@?7See?5IDispatchImpl?5overview?5help@ 101a2a18     XMLSign.obj
 0002:00022a58       ??_C@_0GE@IPBGNBKO@Warning?5?3?5CComTypeInfoHolder?3?3Ge@ 101a2a58     XMLSign.obj
 0002:00022ac0       ??_C@_0EG@JLAFHAGH@ERROR?5?3?5Unable?5to?5lock?5critical?5@ 101a2ac0     XMLSign.obj
 0002:00022b08       ??_C@_0GE@MNEAPMLF@?$CBInlineIsEqualGUID?$CI?$CKm_plibid?0?5GU@ 101a2b08     XMLSign.obj
 0002:00022b6c       ??_C@_0DG@CJCBGKEH@Did?5you?5forget?5to?5pass?5the?5LIBID@ 101a2b6c     XMLSign.obj
 0002:00022ba4       ??_C@_0BO@GHLKPFE@m_plibid?5?$CB?$DN?50?5?$CG?$CG?5m_pguid?5?$CB?$DN?50?$AA@ 101a2ba4     XMLSign.obj
 0002:00022bc4       ??_C@_07PJPEDDJP@dw?5?$CB?$DN?50?$AA@ 101a2bc4     XMLSign.obj
 0002:00022bcc       __GUID_fc4801a3_2ba9_11cf_a229_00aa003d7352 101a2bcc     XMLSign.obj
 0002:00022bdc       __GUID_b722bccb_4e68_101b_a2bc_00aa00404770 101a2bdc     XMLSign.obj
 0002:00022bec       __GUID_00020400_0000_0000_c000_000000000046 101a2bec     XMLSign.obj
 0002:00022bfc       __GUID_62ec64dc_b26d_46ce_9e33_24289bcf5f63 101a2bfc     XMLSign.obj
 0002:00022c0c       ??_C@_0L@KEHCEMNB@CSignature?$AA@ 101a2c0c     XMLSign.obj
 0002:00022c18       ?_entries@?1??_GetEntries@CSignature@@SGPBU_ATL_INTMAP_ENTRY@ATL@@XZ@4QBU34@B 101a2c18     XMLSign.obj
 0002:00022c60       ??_7?$CComAggObject@VCSignature@@@ATL@@6B@ 101a2c60     XMLSign.obj
 0002:00022c70       ??_7?$CComContainedObject@VCSignature@@@ATL@@6BIObjectWithSite@@@ 101a2c70     XMLSign.obj
 0002:00022c84       ??_7?$CComContainedObject@VCSignature@@@ATL@@6BIOleCommandTarget@@@ 101a2c84     XMLSign.obj
 0002:00022c98       ??_7?$CComContainedObject@VCSignature@@@ATL@@6B?$IDispatchImpl@UISignature@@$1?IID_ISignature@@3U_GUID@@B$1?LIBID_XMLSIGNLib@@3U3@B$00$0A@VCComTypeInfoHolder@ATL@@@1@@ 101a2c98     XMLSign.obj
 0002:0002301c       ??_C@_09HIEJFN@m_bLocked?$AA@ 101a301c     XMLSign.obj
 0002:00023028       ??_C@_0L@MPGHMANA@?$CBm_bLocked?$AA@ 101a3028     XMLSign.obj
 0002:00023034       __GUID_00020412_0000_0000_c000_000000000046 101a3034     XMLSign.obj
 0002:00023044       __GUID_00020401_0000_0000_c000_000000000046 101a3044     XMLSign.obj
 0002:00023054       ??_C@_0O@PGKIMHP@_pModule?5?$DN?$DN?50?$AA@ 101a3054     XMLSign.obj
 0002:00023064       ??_7CComModule@ATL@@6B@    101a3064     XMLSign.obj
 0002:0002308c       ??_C@_0M@GKCENBEN@m_pGIT?5?$CB?$DN?50?$AA@ 101a308c     XMLSign.obj
 0002:00023098       __GUID_00000146_0000_0000_c000_000000000046 101a3098     XMLSign.obj
 0002:000230a8       ??_C@_0L@NJOPLADJ@ppGIT?5?$CB?$DN?50?$AA@ 101a30a8     XMLSign.obj
 0002:000230b4       ??_C@_0DN@JALIHHGH@ERROR?5?3?5Unable?5to?5initialize?5cri@ 101a30b4     XMLSign.obj
 0002:000230f4       ??_C@_0BB@JLCMIEMB@_pAtlModule?5?$DN?$DN?50?$AA@ 101a30f4     XMLSign.obj
 0002:00023108       ??_C@_1M@PPPPCDEP@?$AAA?$AAP?$AAP?$AAI?$AAD?$AA?$AA@ 101a3108     XMLSign.obj
 0002:00023114       ??_C@_11LOCGONAA@?$AA?$AA@ 101a3114     XMLSign.obj
 0002:0002e9a8       _xmlStringText             101ae9a8     libxml2d:tree.obj
 0002:0002e9b0       _xmlStringTextNoenc        101ae9b0     libxml2d:tree.obj
 0002:0002e9bc       _xmlStringComment          101ae9bc     libxml2d:tree.obj
 0002:0002eb40       __real@3ee4f8b588e368f1    101aeb40     libxml2d:xpath.obj
 0002:0002eb48       __real@41cdcd6500000000    101aeb48     libxml2d:xpath.obj
 0002:0002eb50       __real@3ff0000000000000    101aeb50     libxml2d:xpath.obj
 0002:0002eb58       __real@4024000000000000    101aeb58     libxml2d:xpath.obj
 0002:00030590       __real@404e000000000000    101b0590     libxml2d:xmlschemastypes.obj
 0002:00030598       __real@40ac200000000000    101b0598     libxml2d:xmlschemastypes.obj
 0002:000305a0       __real@40f5180000000000    101b05a0     libxml2d:xmlschemastypes.obj
 0002:000305a8       __real@c0e89c0000000000    101b05a8     libxml2d:xmlschemastypes.obj
 0002:000305b0       __real@40e89c0000000000    101b05b0     libxml2d:xmlschemastypes.obj
 0002:000305b8       __real@4038000000000000    101b05b8     libxml2d:xmlschemastypes.obj
 0002:000305c0       __real@4028000000000000    101b05c0     libxml2d:xmlschemastypes.obj
 0002:000305c8       ??_C@_02LMMGGCAJ@?3?5?$AA@ 101b05c8     zlib:gzio.obj
 0002:000305cb       ??_C@_00CNPNBAHC@?$AA@     101b05cb     zlib:gzio.obj
 0002:000305cc       ??_C@_0BF@FJABJDFD@?$CFc?$CFc?$CFc?$CFc?$CFc?$CFc?$CFc?$CFc?$CFc?$CFc?$AA@ 101b05cc     zlib:gzio.obj
 0002:000305e4       ??_C@_05DOIEBMOI@1?41?44?$AA@ 101b05e4     zlib:gzio.obj
 0002:000305ec       ??_C@_07EBNKNFJN@?$DMfd?3?$CFd?$DO?$AA@ 101b05ec     zlib:gzio.obj
 0002:000305f8       _deflate_copyright         101b05f8     zlib:deflate.obj
 0002:000306ac       ??_C@_0BA@MOKMMFOD@need?5dictionary?$AA@ 101b06ac     zlib:inflate.obj
 0002:000306bc       ??_C@_0BF@MEIGEHBE@incorrect?5data?5check?$AA@ 101b06bc     zlib:inflate.obj
 0002:000306d4       ??_C@_0BH@LIBMMIGA@incorrect?5header?5check?$AA@ 101b06d4     zlib:inflate.obj
 0002:000306ec       ??_C@_0BE@EMOGCLGO@invalid?5window?5size?$AA@ 101b06ec     zlib:inflate.obj
 0002:00030700       ??_C@_0BL@IHKGDAEE@unknown?5compression?5method?$AA@ 101b0700     zlib:inflate.obj
 0002:00030b20       ??_C@_0BF@CJFPCCEG@incompatible?5version?$AA@ 101b0b20     zlib:zutil.obj
 0002:00030b38       ??_C@_0N@DFPGLBGC@buffer?5error?$AA@ 101b0b38     zlib:zutil.obj
 0002:00030b48       ??_C@_0BE@OGGJBMCE@insufficient?5memory?$AA@ 101b0b48     zlib:zutil.obj
 0002:00030b5c       ??_C@_0L@HAHMBNLP@data?5error?$AA@ 101b0b5c     zlib:zutil.obj
 0002:00030b68       ??_C@_0N@MKKNPMJD@stream?5error?$AA@ 101b0b68     zlib:zutil.obj
 0002:00030b78       ??_C@_0L@KIJFAKBJ@file?5error?$AA@ 101b0b78     zlib:zutil.obj
 0002:00030b84       ??_C@_0L@FNAOCBOG@stream?5end?$AA@ 101b0b84     zlib:zutil.obj
 0002:000311d8       __dist_code                101b11d8     zlib:trees.obj
 0002:000313d8       __length_code              101b13d8     zlib:trees.obj
 0002:00031614       ??_C@_0BK@BMMPFBBH@invalid?5bit?5length?5repeat?$AA@ 101b1614     zlib:infblock.obj
 0002:00031630       ??_C@_0CE@GMIGFPBB@too?5many?5length?5or?5distance?5symb@ 101b1630     zlib:infblock.obj
 0002:00031654       ??_C@_0BN@LGAADGOK@invalid?5stored?5block?5lengths?$AA@ 101b1654     zlib:infblock.obj
 0002:00031674       ??_C@_0BD@PJCBIDD@invalid?5block?5type?$AA@ 101b1674     zlib:infblock.obj
 0002:00031688       ??_C@_0BG@LBKINIKP@invalid?5distance?5code?$AA@ 101b1688     zlib:infcodes.obj
 0002:000316a0       ??_C@_0BM@FFFLPBBC@invalid?5literal?1length?5code?$AA@ 101b16a0     zlib:infcodes.obj
 0002:000316c0       _inflate_copyright         101b16c0     zlib:inftrees.obj
 0002:000318e0       ??_C@_0CE@LOHAHEGK@incomplete?5dynamic?5bit?5lengths?5t@ 101b18e0     zlib:inftrees.obj
 0002:00031904       ??_C@_0CI@CGMOPDPD@oversubscribed?5dynamic?5bit?5lengt@ 101b1904     zlib:inftrees.obj
 0002:0003192c       ??_C@_0BP@NEEEJJNA@incomplete?5literal?1length?5tree?$AA@ 101b192c     zlib:inftrees.obj
 0002:0003194c       ??_C@_0CD@GJIDGCKE@oversubscribed?5literal?1length?5tr@ 101b194c     zlib:inftrees.obj
 0002:00031970       ??_C@_0CB@KPKKKLFO@empty?5distance?5tree?5with?5lengths@ 101b1970     zlib:inftrees.obj
 0002:00031994       ??_C@_0BJ@CBCPDPJF@incomplete?5distance?5tree?$AA@ 101b1994     zlib:inftrees.obj
 0002:000319b0       ??_C@_0BN@KBLCDIAI@oversubscribed?5distance?5tree?$AA@ 101b19b0     zlib:inftrees.obj
 0002:000319d0       _SID_SCommDlgBrowser       101b19d0     shell32:shguid.obj
 0002:000319e0       _CLSID_MenuBandSite        101b19e0     shell32:shguid.obj
 0002:000319f0       _IID_IBanneredBar          101b19f0     shell32:shguid.obj
 0002:00031a00       _CLSID_MenuToolbarBase     101b1a00     shell32:shguid.obj
 0002:00031a10       _SID_SMenuBandTop          101b1a10     shell32:shguid.obj
 0002:00031a20       _CGID_MENUDESKBAR          101b1a20     shell32:shguid.obj
 0002:00031a30       _SID_MenuShellFolder       101b1a30     shell32:shguid.obj
 0002:00031a40       _SID_SMenuBandBottom       101b1a40     shell32:shguid.obj
 0002:00031a50       _SID_SMenuBandBottomSelected 101b1a50     shell32:shguid.obj
 0002:00031a60       _SID_SMenuPopup            101b1a60     shell32:shguid.obj
 0002:00031a70       _SID_SMenuBandParent       101b1a70     shell32:shguid.obj
 0002:00031a80       _SID_SMenuBandChild        101b1a80     shell32:shguid.obj
 0002:00031a90       _CLSID_ShellFldSetExt      101b1a90     shell32:shguid.obj
 0002:00031aa0       _IID_CDefView              101b1aa0     shell32:shguid.obj
 0002:00031ab0       _CLSID_ISFBand             101b1ab0     shell32:shguid.obj
 0002:00031ac0       _CLSID_QuickLinks          101b1ac0     shell32:shguid.obj
 0002:00031ad0       _IID_IDocViewSite          101b1ad0     shell32:shguid.obj
 0002:00031ae0       _SID_CtxQueryAssociations  101b1ae0     shell32:shguid.obj
 0002:00031af0       _BHID_StorageEnum          101b1af0     shell32:shguid.obj
 0002:00031b00       _BHID_LinkTargetItem       101b1b00     shell32:shguid.obj
 0002:00031b10       _BHID_Stream               101b1b10     shell32:shguid.obj
 0002:00031b20       _BHID_Storage              101b1b20     shell32:shguid.obj
 0002:00031b30       _BHID_SFViewObject         101b1b30     shell32:shguid.obj
 0002:00031b40       _BHID_SFUIObject           101b1b40     shell32:shguid.obj
 0002:00031b50       _BHID_SFObject             101b1b50     shell32:shguid.obj
 0002:00031b60       _CLSID_NewMenu             101b1b60     shell32:shguid.obj
 0002:00031b70       _CLSID_FolderItemsFDF      101b1b70     shell32:shguid.obj
 0002:00031b80       _CLSID_FolderItem          101b1b80     shell32:shguid.obj
 0002:00031b90       _SID_SGetViewFromViewDual  101b1b90     shell32:shguid.obj
 0002:00031ba0       _SID_STopWindow            101b1ba0     shell32:shguid.obj
 0002:00031bb0       _IID_IFileSystemBindData   101b1bb0     shell32:shguid.obj
 0002:00031bc0       _CLSID_CDocBrowsePropertyPage 101b1bc0     shell32:shguid.obj
 0002:00031bd0       _CLSID_CImageBrowsePropertyPage 101b1bd0     shell32:shguid.obj
 0002:00031be0       _CLSID_CAnchorBrowsePropertyPage 101b1be0     shell32:shguid.obj
 0002:00031bf0       _IID_IDragSourceHelper     101b1bf0     shell32:shguid.obj
 0002:00031c00       _IID_IDropTargetHelper     101b1c00     shell32:shguid.obj
 0002:00031c10       _CLSID_DragDropHelper      101b1c10     shell32:shguid.obj
 0002:00031c20       _IID_IMountedVolume        101b1c20     shell32:shguid.obj
 0002:00031c30       _CLSID_HWShellExecute      101b1c30     shell32:shguid.obj
 0002:00031c40       _CLSID_MountedVolume       101b1c40     shell32:shguid.obj
 0002:00031c50       _IID_IEnumExtraSearch      101b1c50     shell32:shguid.obj
 0002:00031c60       _FMTID_Query               101b1c60     shell32:shguid.obj
 0002:00031c70       _FMTID_Volume              101b1c70     shell32:shguid.obj
 0002:00031c80       _FMTID_DRM                 101b1c80     shell32:shguid.obj
 0002:00031c90       _FMTID_MUSIC               101b1c90     shell32:shguid.obj
 0002:00031ca0       _FMTID_WebView             101b1ca0     shell32:shguid.obj
 0002:00031cb0       _FMTID_Misc                101b1cb0     shell32:shguid.obj
 0002:00031cc0       _FMTID_Briefcase           101b1cc0     shell32:shguid.obj
 0002:00031cd0       _FMTID_Displaced           101b1cd0     shell32:shguid.obj
 0002:00031ce0       _FMTID_ImageProperties     101b1ce0     shell32:shguid.obj
 0002:00031cf0       _FMTID_Storage             101b1cf0     shell32:shguid.obj
 0002:00031d00       _FMTID_ShellDetails        101b1d00     shell32:shguid.obj
 0002:00031d10       _IID_IShellFolder2         101b1d10     shell32:shguid.obj
 0002:00031d20       _CLSID_DocHostUIHandler    101b1d20     shell32:shguid.obj
 0002:00031d30       _CLSID_DarwinAppPublisher  101b1d30     shell32:shguid.obj
 0002:00031d40       _CLSID_ToolbarExtButtons   101b1d40     shell32:shguid.obj
 0002:00031d50       _CLSID_MSOButtons          101b1d50     shell32:shguid.obj
 0002:00031d60       _CLSID_InternetButtons     101b1d60     shell32:shguid.obj
 0002:00031d70       _IID_INamedPropertyBag     101b1d70     shell32:shguid.obj
 0002:00031d80       _CGID_ShortCut             101b1d80     shell32:shguid.obj
 0002:00031d90       _CLSID_FileSysColumnProvider 101b1d90     shell32:shguid.obj
 0002:00031da0       _CLSID_LinkColumnProvider  101b1da0     shell32:shguid.obj
 0002:00031db0       _CLSID_DocFileColumnProvider 101b1db0     shell32:shguid.obj
 0002:00031dc0       _IID_IColumnProvider       101b1dc0     shell32:shguid.obj
 0002:00031dd0       _CLSID_QueryAssociations   101b1dd0     shell32:shguid.obj
 0002:00031de0       _IID_IQueryAssociations    101b1de0     shell32:shguid.obj
 0002:00031df0       _IID_IShellDetails3        101b1df0     shell32:shguid.obj
 0002:00031e00       _IID_ISynchronizedCallBack 101b1e00     shell32:shguid.obj
 0002:00031e10       _IID_IADesktopP2           101b1e10     shell32:shguid.obj
 0002:00031e20       _IID_IActiveDesktopP       101b1e20     shell32:shguid.obj
 0002:00031e30       _IID_IActiveDesktop        101b1e30     shell32:shguid.obj
 0002:00031e40       _CLSID_ActiveDesktop       101b1e40     shell32:shguid.obj
 0002:00031e50       _CLSID_FileTypes           101b1e50     shell32:shguid.obj
 0002:00031e60       _SID_STopLevelBrowser      101b1e60     shell32:shguid.obj
 0002:00031e70       _IID_IProgressDialog       101b1e70     shell32:shguid.obj
 0002:00031e80       _CLSID_ProgressDialog      101b1e80     shell32:shguid.obj
 0002:00031e90       _CLSID_ACLCustomMRU        101b1e90     shell32:shguid.obj
 0002:00031ea0       _CLSID_ACLMulti            101b1ea0     shell32:shguid.obj
 0002:00031eb0       _CLSID_ACLMRU              101b1eb0     shell32:shguid.obj
 0002:00031ec0       _CLSID_ACListISF           101b1ec0     shell32:shguid.obj
 0002:00031ed0       _CLSID_ACLHistory          101b1ed0     shell32:shguid.obj
 0002:00031ee0       _CLSID_AutoComplete        101b1ee0     shell32:shguid.obj
 0002:00031ef0       _IID_ICurrentWorkingDirectory 101b1ef0     shell32:shguid.obj
 0002:00031f00       _IID_IACList2              101b1f00     shell32:shguid.obj
 0002:00031f10       _IID_IACList               101b1f10     shell32:shguid.obj
 0002:00031f20       _IID_IObjMgr               101b1f20     shell32:shguid.obj
 0002:00031f30       _IID_IAutoCompList         101b1f30     shell32:shguid.obj
 0002:00031f40       _CLSID_CURLSearchHook      101b1f40     shell32:shguid.obj
 0002:00031f50       _CLSID_CUrlHistory         101b1f50     shell32:shguid.obj
 0002:00031f60       _IID_IUniformResourceLocatorW 101b1f60     shell32:shguid.obj
 0002:00031f70       _IID_IUniformResourceLocatorA 101b1f70     shell32:shguid.obj
 0002:00031f80       _CLSID_InternetShortcut    101b1f80     shell32:shguid.obj
 0002:00031f90       _IID_IShellChangeNotify    101b1f90     shell32:shguid.obj
 0002:00031fa0       _IID_IDiscardableBrowserProperty 101b1fa0     shell32:shguid.obj
 0002:00031fb0       _VID_ThumbStrip            101b1fb0     shell32:shguid.obj
 0002:00031fc0       _VID_Thumbnails            101b1fc0     shell32:shguid.obj
 0002:00031fd0       _VID_Tile                  101b1fd0     shell32:shguid.obj
 0002:00031fe0       _VID_Details               101b1fe0     shell32:shguid.obj
 0002:00031ff0       _VID_List                  101b1ff0     shell32:shguid.obj
 0002:00032000       _VID_SmallIcons            101b2000     shell32:shguid.obj
 0002:00032010       _VID_LargeIcons            101b2010     shell32:shguid.obj
 0002:00032020       _IID_IDefViewFrame         101b2020     shell32:shguid.obj
 0002:00032030       _IID_IShellFolderBand      101b2030     shell32:shguid.obj
 0002:00032040       _CLSID_MenuBand            101b2040     shell32:shguid.obj
 0002:00032050       _CGID_DefView              101b2050     shell32:shguid.obj
 0002:00032060       _SID_DefView               101b2060     shell32:shguid.obj
 0002:00032070       _IID_IContextMenu3         101b2070     shell32:shguid.obj
 0002:00032080       _CLSID_ShellThumbnailDiskCache 101b2080     shell32:shguid.obj
 0002:00032090       _IID_IEnumShellImageStore  101b2090     shell32:shguid.obj
 0002:000320a0       _IID_IShellImageStore      101b20a0     shell32:shguid.obj
 0002:000320b0       _IID_IThumbnailCapture     101b20b0     shell32:shguid.obj
 0002:000320c0       _IID_IRunnableTask         101b20c0     shell32:shguid.obj
 0002:000320d0       _IID_IShellIconOverlayManager 101b20d0     shell32:shguid.obj
 0002:000320e0       _CLSID_CFSIconOverlayManager 101b20e0     shell32:shguid.obj
 0002:000320f0       _IID_IPersistFolder3       101b20f0     shell32:shguid.obj
 0002:00032100       _IID_IShellFolderViewCB    101b2100     shell32:shguid.obj
 0002:00032110       _IID_ICommDlgBrowser2      101b2110     shell32:shguid.obj
 0002:00032120       _IID_IShellIconOverlayIdentifier 101b2120     shell32:shguid.obj
 0002:00032130       _IID_IShellIconOverlay     101b2130     shell32:shguid.obj
 0002:00032140       _IID_IDockingWindowFrame   101b2140     shell32:shguid.obj
 0002:00032150       _IID_IDockingWindowSite    101b2150     shell32:shguid.obj
 0002:00032160       _IID_IInputObjectSite      101b2160     shell32:shguid.obj
 0002:00032170       _IID_IInputObject          101b2170     shell32:shguid.obj
 0002:00032180       _CLSID_StgFolder           101b2180     shell32:shguid.obj
 0002:00032190       _CLSID_FolderShortcut      101b2190     shell32:shguid.obj
 0002:000321a0       _IID_IDefViewID            101b21a0     shell32:shguid.obj
 0002:000321b0       _IID_IDelegateFolder       101b21b0     shell32:shguid.obj
 0002:000321c0       _IID_IURLSearchHook2       101b21c0     shell32:shguid.obj
 0002:000321d0       _IID_ISearchContext        101b21d0     shell32:shguid.obj
 0002:000321e0       _IID_IURLSearchHook        101b21e0     shell32:shguid.obj
 0002:000321f0       _IID_IResolveShellLink     101b21f0     shell32:shguid.obj
 0002:00032200       _IID_IShellLinkDataList    101b2200     shell32:shguid.obj
 0002:00032210       _IID_IShellView2           101b2210     shell32:shguid.obj
 0002:00032220       _IID_IBriefcaseStg         101b2220     shell32:shguid.obj
 0002:00032230       _IID_IQueryInfo            101b2230     shell32:shguid.obj
 0002:00032240       _IID_IRemoteComputer       101b2240     shell32:shguid.obj
 0002:00032250       _IID_IShellCopyHookW       101b2250     shell32:shguid.obj
 0002:00032260       _IID_IShellExecuteHookW    101b2260     shell32:shguid.obj
 0002:00032270       _IID_IExtractIconW         101b2270     shell32:shguid.obj
 0002:00032280       _IID_IShellLinkW           101b2280     shell32:shguid.obj
 0002:00032290       _IID_IFileViewerW          101b2290     shell32:shguid.obj
 0002:000322a0       _IID_INewShortcutHookW     101b22a0     shell32:shguid.obj
 0002:000322b0       _IID_IPropSheetPage        101b22b0     shell32:shguid.obj
 0002:000322c0       _IID_IShellExecuteHookA    101b22c0     shell32:shguid.obj
 0002:000322d0       _IID_IContextMenu2         101b22d0     shell32:shguid.obj
 0002:000322e0       _IID_IFileViewerSite       101b22e0     shell32:shguid.obj
 0002:000322f0       _IID_IEnumIDList           101b22f0     shell32:shguid.obj
 0002:00032300       _IID_ICommDlgBrowser       101b2300     shell32:shguid.obj
 0002:00032310       _IID_IFileViewerA          101b2310     shell32:shguid.obj
 0002:00032320       _IID_IShellCopyHookA       101b2320     shell32:shguid.obj
 0002:00032330       _IID_IShellLinkA           101b2330     shell32:shguid.obj
 0002:00032340       _IID_IDelayedRelease       101b2340     shell32:shguid.obj
 0002:00032350       _IID_IShellDetails         101b2350     shell32:shguid.obj
 0002:00032360       _IID_IExtractIconA         101b2360     shell32:shguid.obj
 0002:00032370       _IID_IPersistFolder        101b2370     shell32:shguid.obj
 0002:00032380       _IID_IShellPropSheetExt    101b2380     shell32:shguid.obj
 0002:00032390       _IID_IShellExtInit         101b2390     shell32:shguid.obj
 0002:000323a0       _IID_IShellFolder          101b23a0     shell32:shguid.obj
 0002:000323b0       _IID_IShellIcon            101b23b0     shell32:shguid.obj
 0002:000323c0       _IID_IContextMenu          101b23c0     shell32:shguid.obj
 0002:000323d0       _IID_IShellView            101b23d0     shell32:shguid.obj
 0002:000323e0       _IID_IShellBrowser         101b23e0     shell32:shguid.obj
 0002:000323f0       _IID_INewShortcutHookA     101b23f0     shell32:shguid.obj
 0002:00032400       _CGID_ExplorerBarDoc       101b2400     shell32:shguid.obj
 0002:00032410       _CGID_ShellServiceObject   101b2410     shell32:shguid.obj
 0002:00032420       _CGID_ShellDocView         101b2420     shell32:shguid.obj
 0002:00032430       _CGID_Explorer             101b2430     shell32:shguid.obj
 0002:00032440       _FMTID_InternetSite        101b2440     shell32:shguid.obj
 0002:00032450       _FMTID_Intshcut            101b2450     shell32:shguid.obj
 0002:00032460       _CATID_CommBand            101b2460     shell32:shguid.obj
 0002:00032470       _CATID_InfoBand            101b2470     shell32:shguid.obj
 0002:00032480       _CATID_DeskBand            101b2480     shell32:shguid.obj
 0002:00032490       _CATID_BrowseInPlace       101b2490     shell32:shguid.obj
 0002:000324a0       _CATID_BrowsableShellExt   101b24a0     shell32:shguid.obj
 0002:000324b0       _CLSID_MyDocuments         101b24b0     shell32:shguid.obj
 0002:000324c0       _CLSID_Printers            101b24c0     shell32:shguid.obj
 0002:000324d0       _CLSID_ControlPanel        101b24d0     shell32:shguid.obj
 0002:000324e0       _CLSID_RecycleBin          101b24e0     shell32:shguid.obj
 0002:000324f0       _CLSID_ShellFSFolder       101b24f0     shell32:shguid.obj
 0002:00032500       _CLSID_Internet            101b2500     shell32:shguid.obj
 0002:00032510       _CLSID_MyComputer          101b2510     shell32:shguid.obj
 0002:00032520       _CLSID_NetworkShare        101b2520     shell32:shguid.obj
 0002:00032530       _CLSID_NetworkServer       101b2530     shell32:shguid.obj
 0002:00032540       _CLSID_NetworkDomain       101b2540     shell32:shguid.obj
 0002:00032550       _CLSID_NetworkPlaces       101b2550     shell32:shguid.obj
 0002:00032560       _CLSID_ShellLink           101b2560     shell32:shguid.obj
 0002:00032570       _CLSID_ShellDesktop        101b2570     shell32:shguid.obj
 0002:00032580       _GUID_DEVINTERFACE_SERENUM_BUS_ENUMERATOR 101b2580     uuid:cguid_i.obj
 0002:00032590       _GUID_DEVINTERFACE_COMPORT 101b2590     uuid:cguid_i.obj
 0002:000325a0       _GUID_DEVINTERFACE_STORAGEPORT 101b25a0     uuid:cguid_i.obj
 0002:000325b0       _GUID_DEVINTERFACE_CDCHANGER 101b25b0     uuid:cguid_i.obj
 0002:000325c0       _GUID_DEVINTERFACE_FLOPPY  101b25c0     uuid:cguid_i.obj
 0002:000325d0       _GUID_DEVINTERFACE_MEDIUMCHANGER 101b25d0     uuid:cguid_i.obj
 0002:000325e0       _GUID_DEVINTERFACE_VOLUME  101b25e0     uuid:cguid_i.obj
 0002:000325f0       _GUID_DEVINTERFACE_WRITEONCEDISK 101b25f0     uuid:cguid_i.obj
 0002:00032600       _GUID_DEVINTERFACE_TAPE    101b2600     uuid:cguid_i.obj
 0002:00032610       _GUID_DEVINTERFACE_PARTITION 101b2610     uuid:cguid_i.obj
 0002:00032620       _GUID_DEVINTERFACE_CDROM   101b2620     uuid:cguid_i.obj
 0002:00032630       _GUID_DEVINTERFACE_DISK    101b2630     uuid:cguid_i.obj
 0002:00032640       _GUID_DEVCLASS_FSFILTER_INFRASTRUCTURE 101b2640     uuid:cguid_i.obj
 0002:00032650       _GUID_DEVCLASS_FSFILTER_SYSTEM 101b2650     uuid:cguid_i.obj
 0002:00032660       _GUID_DEVCLASS_FSFILTER_COPYPROTECTION 101b2660     uuid:cguid_i.obj
 0002:00032670       _GUID_DEVCLASS_FSFILTER_SECURITYENHANCER 101b2670     uuid:cguid_i.obj
 0002:00032680       _GUID_DEVCLASS_FSFILTER_OPENFILEBACKUP 101b2680     uuid:cguid_i.obj
 0002:00032690       _GUID_DEVCLASS_FSFILTER_PHYSICALQUOTAMANAGEMENT 101b2690     uuid:cguid_i.obj
 0002:000326a0       _GUID_DEVCLASS_FSFILTER_ENCRYPTION 101b26a0     uuid:cguid_i.obj
 0002:000326b0       _GUID_DEVCLASS_FSFILTER_COMPRESSION 101b26b0     uuid:cguid_i.obj
 0002:000326c0       _GUID_DEVCLASS_FSFILTER_HSM 101b26c0     uuid:cguid_i.obj
 0002:000326d0       _GUID_DEVCLASS_FSFILTER_CFSMETADATASERVER 101b26d0     uuid:cguid_i.obj
 0002:000326e0       _GUID_DEVCLASS_FSFILTER_SYSTEMRECOVERY 101b26e0     uuid:cguid_i.obj
 0002:000326f0       _GUID_DEVCLASS_FSFILTER_QUOTAMANAGEMENT 101b26f0     uuid:cguid_i.obj
 0002:00032700       _GUID_DEVCLASS_FSFILTER_CONTENTSCREENER 101b2700     uuid:cguid_i.obj
 0002:00032710       _GUID_DEVCLASS_FSFILTER_CONTINUOUSBACKUP 101b2710     uuid:cguid_i.obj
 0002:00032720       _GUID_DEVCLASS_FSFILTER_REPLICATION 101b2720     uuid:cguid_i.obj
 0002:00032730       _GUID_DEVCLASS_FSFILTER_ANTIVIRUS 101b2730     uuid:cguid_i.obj
 0002:00032740       _GUID_DEVCLASS_FSFILTER_UNDELETE 101b2740     uuid:cguid_i.obj
 0002:00032750       _GUID_DEVCLASS_FSFILTER_ACTIVITYMONITOR 101b2750     uuid:cguid_i.obj
 0002:00032760       _GUID_DEVCLASS_BTRANS      101b2760     uuid:cguid_i.obj
 0002:00032770       _GUID_DEVCLASS_WCEUSBS     101b2770     uuid:cguid_i.obj
 0002:00032780       _GUID_DEVCLASS_VOLUMESNAPSHOT 101b2780     uuid:cguid_i.obj
 0002:00032790       _GUID_DEVCLASS_VOLUME      101b2790     uuid:cguid_i.obj
 0002:000327a0       _GUID_DEVCLASS_USB         101b27a0     uuid:cguid_i.obj
 0002:000327b0       _GUID_DEVCLASS_UNKNOWN     101b27b0     uuid:cguid_i.obj
 0002:000327c0       _GUID_DEVCLASS_TAPEDRIVE   101b27c0     uuid:cguid_i.obj
 0002:000327d0       _GUID_DEVCLASS_SYSTEM      101b27d0     uuid:cguid_i.obj
 0002:000327e0       _GUID_DEVCLASS_SOUND       101b27e0     uuid:cguid_i.obj
 0002:000327f0       _GUID_DEVCLASS_SMARTCARDREADER 101b27f0     uuid:cguid_i.obj
 0002:00032800       _GUID_DEVCLASS_SECURITYACCELERATOR 101b2800     uuid:cguid_i.obj
 0002:00032810       _GUID_DEVCLASS_SCSIADAPTER 101b2810     uuid:cguid_i.obj
 0002:00032820       _GUID_DEVCLASS_SBP2        101b2820     uuid:cguid_i.obj
 0002:00032830       _GUID_DEVCLASS_PROCESSOR   101b2830     uuid:cguid_i.obj
 0002:00032840       _GUID_DEVCLASS_PRINTERUPGRADE 101b2840     uuid:cguid_i.obj
 0002:00032850       _GUID_DEVCLASS_PRINTER     101b2850     uuid:cguid_i.obj
 0002:00032860       _GUID_DEVCLASS_PORTS       101b2860     uuid:cguid_i.obj
 0002:00032870       _GUID_DEVCLASS_PNPPRINTERS 101b2870     uuid:cguid_i.obj
 0002:00032880       _GUID_DEVCLASS_PCMCIA      101b2880     uuid:cguid_i.obj
 0002:00032890       _GUID_DEVCLASS_NODRIVER    101b2890     uuid:cguid_i.obj
 0002:000328a0       _GUID_DEVCLASS_NETTRANS    101b28a0     uuid:cguid_i.obj
 0002:000328b0       _GUID_DEVCLASS_NETSERVICE  101b28b0     uuid:cguid_i.obj
 0002:000328c0       _GUID_DEVCLASS_NETCLIENT   101b28c0     uuid:cguid_i.obj
 0002:000328d0       _GUID_DEVCLASS_NET         101b28d0     uuid:cguid_i.obj
 0002:000328e0       _GUID_DEVCLASS_MULTIPORTSERIAL 101b28e0     uuid:cguid_i.obj
 0002:000328f0       _GUID_DEVCLASS_MULTIFUNCTION 101b28f0     uuid:cguid_i.obj
 0002:00032900       _GUID_DEVCLASS_MTD         101b2900     uuid:cguid_i.obj
 0002:00032910       _GUID_DEVCLASS_MOUSE       101b2910     uuid:cguid_i.obj
 0002:00032920       _GUID_DEVCLASS_MONITOR     101b2920     uuid:cguid_i.obj
 0002:00032930       _GUID_DEVCLASS_MODEM       101b2930     uuid:cguid_i.obj
 0002:00032940       _GUID_DEVCLASS_MEDIUM_CHANGER 101b2940     uuid:cguid_i.obj
 0002:00032950       _GUID_DEVCLASS_MEDIA       101b2950     uuid:cguid_i.obj
 0002:00032960       _GUID_DEVCLASS_LEGACYDRIVER 101b2960     uuid:cguid_i.obj
 0002:00032970       _GUID_DEVCLASS_KEYBOARD    101b2970     uuid:cguid_i.obj
 0002:00032980       _GUID_DEVCLASS_INFRARED    101b2980     uuid:cguid_i.obj
 0002:00032990       _GUID_DEVCLASS_INFINIBAND  101b2990     uuid:cguid_i.obj
 0002:000329a0       _GUID_DEVCLASS_IMAGE       101b29a0     uuid:cguid_i.obj
 0002:000329b0       _GUID_DEVCLASS_HIDCLASS    101b29b0     uuid:cguid_i.obj
 0002:000329c0       _GUID_DEVCLASS_HDC         101b29c0     uuid:cguid_i.obj
 0002:000329d0       _GUID_DEVCLASS_GPS         101b29d0     uuid:cguid_i.obj
 0002:000329e0       _GUID_DEVCLASS_FLOPPYDISK  101b29e0     uuid:cguid_i.obj
 0002:000329f0       _GUID_DEVCLASS_FDC         101b29f0     uuid:cguid_i.obj
 0002:00032a00       _GUID_DEVCLASS_ENUM1394    101b2a00     uuid:cguid_i.obj
 0002:00032a10       _GUID_DEVCLASS_DOT4PRINT   101b2a10     uuid:cguid_i.obj
 0002:00032a20       _GUID_DEVCLASS_DOT4        101b2a20     uuid:cguid_i.obj
 0002:00032a30       _GUID_DEVCLASS_DISPLAY     101b2a30     uuid:cguid_i.obj
 0002:00032a40       _GUID_DEVCLASS_DISKDRIVE   101b2a40     uuid:cguid_i.obj
 0002:00032a50       _GUID_DEVCLASS_DECODER     101b2a50     uuid:cguid_i.obj
 0002:00032a60       _GUID_DEVCLASS_COMPUTER    101b2a60     uuid:cguid_i.obj
 0002:00032a70       _GUID_DEVCLASS_CDROM       101b2a70     uuid:cguid_i.obj
 0002:00032a80       _GUID_DEVCLASS_BLUETOOTH   101b2a80     uuid:cguid_i.obj
 0002:00032a90       _GUID_DEVCLASS_BATTERY     101b2a90     uuid:cguid_i.obj
 0002:00032aa0       _GUID_DEVCLASS_AVC         101b2aa0     uuid:cguid_i.obj
 0002:00032ab0       _GUID_DEVCLASS_APMSUPPORT  101b2ab0     uuid:cguid_i.obj
 0002:00032ac0       _GUID_DEVCLASS_ADAPTER     101b2ac0     uuid:cguid_i.obj
 0002:00032ad0       _GUID_DEVCLASS_61883       101b2ad0     uuid:cguid_i.obj
 0002:00032ae0       _GUID_DEVCLASS_1394DEBUG   101b2ae0     uuid:cguid_i.obj
 0002:00032af0       _GUID_DEVCLASS_1394        101b2af0     uuid:cguid_i.obj
 0002:00032b00       _CLSID_ThumbnailUpdater    101b2b00     uuid:cguid_i.obj
 0002:00032b10       _CLSID_ThumbnailFCNHandler 101b2b10     uuid:cguid_i.obj
 0002:00032b20       _CLSID_GblComponentCategoriesMgr 101b2b20     uuid:cguid_i.obj
 0002:00032b30       _IID_IBoundObjectSite      101b2b30     uuid:cguid_i.obj
 0002:00032b40       _IID_IBoundObject          101b2b40     uuid:cguid_i.obj
 0002:00032b50       __DBCIDGUID                101b2b50     uuid:cguid_i.obj
 0002:00032b60       __DBBMKGUID                101b2b60     uuid:cguid_i.obj
 0002:00032b70       __GUID_NAMEONLY            101b2b70     uuid:cguid_i.obj
 0002:00032b80       _IID_IEntryID              101b2b80     uuid:cguid_i.obj
 0002:00032b90       _IID_ICursorFind           101b2b90     uuid:cguid_i.obj
 0002:00032ba0       _IID_INotifyDBEvents       101b2ba0     uuid:cguid_i.obj
 0002:00032bb0       _IID_ICursorUpdateARow     101b2bb0     uuid:cguid_i.obj
 0002:00032bc0       _IID_ICursorScroll         101b2bc0     uuid:cguid_i.obj
 0002:00032bd0       _IID_ICursorMove           101b2bd0     uuid:cguid_i.obj
 0002:00032be0       _IID_ICursor               101b2be0     uuid:cguid_i.obj
 0002:00032bf0       _IID_StdOle                101b2bf0     uuid:cguid_i.obj
 0002:00032c00       _GUID_HANDLE               101b2c00     uuid:cguid_i.obj
 0002:00032c10       _GUID_FONTSTRIKETHROUGH    101b2c10     uuid:cguid_i.obj
 0002:00032c20       _GUID_FONTUNDERSCORE       101b2c20     uuid:cguid_i.obj
 0002:00032c30       _GUID_FONTITALIC           101b2c30     uuid:cguid_i.obj
 0002:00032c40       _GUID_FONTBOLD             101b2c40     uuid:cguid_i.obj
 0002:00032c50       _GUID_FONTSIZE             101b2c50     uuid:cguid_i.obj
 0002:00032c60       _GUID_FONTNAME             101b2c60     uuid:cguid_i.obj
 0002:00032c70       _GUID_CHECKVALUEEXCLUSIVE  101b2c70     uuid:cguid_i.obj
 0002:00032c80       _GUID_OPTIONVALUEEXCLUSIVE 101b2c80     uuid:cguid_i.obj
 0002:00032c90       _GUID_TRISTATE             101b2c90     uuid:cguid_i.obj
 0002:00032ca0       _GUID_YSIZE                101b2ca0     uuid:cguid_i.obj
 0002:00032cb0       _GUID_XSIZE                101b2cb0     uuid:cguid_i.obj
 0002:00032cc0       _GUID_YPOS                 101b2cc0     uuid:cguid_i.obj
 0002:00032cd0       _GUID_XPOS                 101b2cd0     uuid:cguid_i.obj
 0002:00032ce0       _GUID_YSIZEPIXEL           101b2ce0     uuid:cguid_i.obj
 0002:00032cf0       _GUID_XSIZEPIXEL           101b2cf0     uuid:cguid_i.obj
 0002:00032d00       _GUID_YPOSPIXEL            101b2d00     uuid:cguid_i.obj
 0002:00032d10       _GUID_XPOSPIXEL            101b2d10     uuid:cguid_i.obj
 0002:00032d20       _GUID_COLOR                101b2d20     uuid:cguid_i.obj
 0002:00032d30       _GUID_HIMETRIC             101b2d30     uuid:cguid_i.obj
 0002:00032d40       _CLSID_StdPicture          101b2d40     uuid:cguid_i.obj
 0002:00032d50       _CLSID_StdFont             101b2d50     uuid:cguid_i.obj
 0002:00032d60       _CLSID_ConvertVBX          101b2d60     uuid:cguid_i.obj
 0002:00032d70       _CLSID_PersistPropset      101b2d70     uuid:cguid_i.obj
 0002:00032d80       _CLSID_StockPicturePage    101b2d80     uuid:cguid_i.obj
 0002:00032d90       _CLSID_StockColorPage      101b2d90     uuid:cguid_i.obj
 0002:00032da0       _CLSID_StockFontPage       101b2da0     uuid:cguid_i.obj
 0002:00032db0       _CLSID_CPicturePropPage    101b2db0     uuid:cguid_i.obj
 0002:00032dc0       _CLSID_CColorPropPage      101b2dc0     uuid:cguid_i.obj
 0002:00032dd0       _CLSID_CFontPropPage       101b2dd0     uuid:cguid_i.obj
 0002:00032de0       _IID_IPropertyFrame        101b2de0     uuid:cguid_i.obj
 0002:00032df0       _CLSID_AddrControl         101b2df0     uuid:cguid_i.obj
 0002:00032e00       _CLSID_CurrentUserClasses  101b2e00     uuid:cguid_i.obj
 0002:00032e10       _CLSID_LocalMachineClasses 101b2e10     uuid:cguid_i.obj
 0002:00032e20       _CLSID_AllClasses          101b2e20     uuid:cguid_i.obj
 0002:00032e30       _IID_IRichEditOleCallback  101b2e30     uuid:cguid_i.obj
 0002:00032e40       _IID_IRichEditOle          101b2e40     uuid:cguid_i.obj
 0002:00032e50       _CLSID_RemoteUnknownPSFactory 101b2e50     uuid:cguid_i.obj
 0002:00032e60       _CLSID_InProcFreeMarshaler 101b2e60     uuid:cguid_i.obj
 0002:00032e70       _CLSID_StdAsyncActManager  101b2e70     uuid:cguid_i.obj
 0002:00032e80       _CLSID_ComBinding          101b2e80     uuid:cguid_i.obj
 0002:00032e90       _CLSID_SynchronizeContainer 101b2e90     uuid:cguid_i.obj
 0002:00032ea0       _CLSID_StdEvent            101b2ea0     uuid:cguid_i.obj
 0002:00032eb0       _CLSID_ManualResetEvent    101b2eb0     uuid:cguid_i.obj
 0002:00032ec0       _CLSID_DCOMAccessControl   101b2ec0     uuid:cguid_i.obj
 0002:00032ed0       _CLSID_Picture_Dib         101b2ed0     uuid:cguid_i.obj
 0002:00032ee0       _CLSID_Picture_EnhMetafile 101b2ee0     uuid:cguid_i.obj
 0002:00032ef0       _CLSID_Picture_Metafile    101b2ef0     uuid:cguid_i.obj
 0002:00032f00       _CLSID_StaticDib           101b2f00     uuid:cguid_i.obj
 0002:00032f10       _CLSID_StaticMetafile      101b2f10     uuid:cguid_i.obj
 0002:00032f20       _CLSID_PSEnumerators       101b2f20     uuid:cguid_i.obj
 0002:00032f30       _CLSID_PSBindCtx           101b2f30     uuid:cguid_i.obj
 0002:00032f40       _CLSID_PSDragDrop          101b2f40     uuid:cguid_i.obj
 0002:00032f50       _CLSID_PSInPlaceFrame      101b2f50     uuid:cguid_i.obj
 0002:00032f60       _CLSID_PSInPlaceActive     101b2f60     uuid:cguid_i.obj
 0002:00032f70       _CLSID_PSClassObject       101b2f70     uuid:cguid_i.obj
 0002:00032f80       _CLSID_PSClientSite        101b2f80     uuid:cguid_i.obj
 0002:00032f90       _CLSID_PSGenObject         101b2f90     uuid:cguid_i.obj
 0002:00032fa0       _IID_IDebugStream          101b2fa0     uuid:cguid_i.obj
 0002:00032fb0       _IID_IDebug                101b2fb0     uuid:cguid_i.obj
 0002:00032fc0       _IID_IOlePresObj           101b2fc0     uuid:cguid_i.obj
 0002:00032fd0       _IID_IOleManager           101b2fd0     uuid:cguid_i.obj
 0002:00032fe0       _IID_IEnumCallback         101b2fe0     uuid:cguid_i.obj
 0002:00032ff0       _IID_IEnumHolder           101b2ff0     uuid:cguid_i.obj
 0002:00033000       _IID_IEnumGeneric          101b3000     uuid:cguid_i.obj
 0002:00033010       _IID_IProxy                101b3010     uuid:cguid_i.obj
 0002:00033020       _IID_IStub                 101b3020     uuid:cguid_i.obj
 0002:00033030       _CLSID_StdMarshal          101b3030     uuid:cguid_i.obj
 0002:00033040       _IID_IDfReserved3          101b3040     uuid:cguid_i.obj
 0002:00033050       _IID_IDfReserved2          101b3050     uuid:cguid_i.obj
 0002:00033060       _IID_IDfReserved1          101b3060     uuid:cguid_i.obj
 0002:00033070       _IID_IInternalMoniker      101b3070     uuid:cguid_i.obj
 0002:00033080       _IID_IPSFactory            101b3080     uuid:cguid_i.obj
 0002:00033090       _IID_IProxyManager         101b3090     uuid:cguid_i.obj
 0002:000330a0       _IID_IRpcProxy             101b30a0     uuid:cguid_i.obj
 0002:000330b0       _IID_IStubManager          101b30b0     uuid:cguid_i.obj
 0002:000330c0       _IID_IRpcStub              101b30c0     uuid:cguid_i.obj
 0002:000330d0       _IID_IRpcChannel           101b30d0     uuid:cguid_i.obj
 0002:000330e0       _CATID_MARSHALER           101b30e0     uuid:cguid_i.obj
 0002:000330f0       _GUID_NULL                 101b30f0     uuid:cguid_i.obj
 0002:00033100       _IID_IHostBehaviorInit     101b3100     uuid:mshtml_i.obj
 0002:00033110       _IID_IElementBehaviorSiteLayout2 101b3110     uuid:mshtml_i.obj
 0002:00033120       _IID_IElementBehaviorSiteLayout 101b3120     uuid:mshtml_i.obj
 0002:00033130       _IID_IElementBehaviorLayout2 101b3130     uuid:mshtml_i.obj
 0002:00033140       _IID_IElementBehaviorLayout 101b3140     uuid:mshtml_i.obj
 0002:00033150       _IID_IElementBehaviorFocus 101b3150     uuid:mshtml_i.obj
 0002:00033160       _IID_IElementBehaviorSubmit 101b3160     uuid:mshtml_i.obj
 0002:00033170       _IID_IElementBehaviorSiteCategory 101b3170     uuid:mshtml_i.obj
 0002:00033180       _IID_IElementBehaviorCategory 101b3180     uuid:mshtml_i.obj
 0002:00033190       _IID_IElementBehaviorSiteOM2 101b3190     uuid:mshtml_i.obj
 0002:000331a0       _IID_IElementNamespaceFactoryCallback 101b31a0     uuid:mshtml_i.obj
 0002:000331b0       _IID_IElementNamespaceFactory2 101b31b0     uuid:mshtml_i.obj
 0002:000331c0       _IID_IElementNamespaceFactory 101b31c0     uuid:mshtml_i.obj
 0002:000331d0       _IID_IElementNamespaceTable 101b31d0     uuid:mshtml_i.obj
 0002:000331e0       _IID_IElementNamespace     101b31e0     uuid:mshtml_i.obj
 0002:000331f0       _CLSID_HTMLInputImage      101b31f0     uuid:mshtml_i.obj
 0002:00033200       _DIID_DispIHTMLInputImage  101b3200     uuid:mshtml_i.obj
 0002:00033210       _CLSID_HTMLOptionButtonElement 101b3210     uuid:mshtml_i.obj
 0002:00033220       _DIID_DispIHTMLOptionButtonElement 101b3220     uuid:mshtml_i.obj
 0002:00033230       _CLSID_HTMLInputFileElement 101b3230     uuid:mshtml_i.obj
 0002:00033240       _DIID_DispIHTMLInputFileElement 101b3240     uuid:mshtml_i.obj
 0002:00033250       _CLSID_HTMLInputTextElement 101b3250     uuid:mshtml_i.obj
 0002:00033260       _DIID_DispIHTMLInputTextElement 101b3260     uuid:mshtml_i.obj
 0002:00033270       _CLSID_HTMLInputButtonElement 101b3270     uuid:mshtml_i.obj
 0002:00033280       _DIID_DispIHTMLInputButtonElement 101b3280     uuid:mshtml_i.obj
 0002:00033290       _CLSID_OldHTMLFormElement  101b3290     uuid:mshtml_i.obj
 0002:000332a0       _CLSID_OldHTMLDocument     101b32a0     uuid:mshtml_i.obj
 0002:000332b0       _CLSID_HTMLAppBehavior     101b32b0     uuid:mshtml_i.obj
 0002:000332c0       _DIID_DispHTMLAppBehavior  101b32c0     uuid:mshtml_i.obj
 0002:000332d0       _IID_IHTMLAppBehavior3     101b32d0     uuid:mshtml_i.obj
 0002:000332e0       _IID_IHTMLAppBehavior2     101b32e0     uuid:mshtml_i.obj
 0002:000332f0       _IID_IHTMLAppBehavior      101b32f0     uuid:mshtml_i.obj
 0002:00033300       _CLSID_HTMLPopup           101b3300     uuid:mshtml_i.obj
 0002:00033310       _DIID_DispHTMLPopup        101b3310     uuid:mshtml_i.obj
 0002:00033320       _IID_IHTMLPopup            101b3320     uuid:mshtml_i.obj
 0002:00033330       _CLSID_HTMLDialog          101b3330     uuid:mshtml_i.obj
 0002:00033340       _CLSID_ThreadDialogProcParam 101b3340     uuid:mshtml_i.obj
 0002:00033350       _IID_IHTMLModelessInit     101b3350     uuid:mshtml_i.obj
 0002:00033360       _IID_IHTMLDialog3          101b3360     uuid:mshtml_i.obj
 0002:00033370       _IID_IHTMLDialog2          101b3370     uuid:mshtml_i.obj
 0002:00033380       _IID_IHTMLDialog           101b3380     uuid:mshtml_i.obj
 0002:00033390       _IID_IEnumPrivacyRecords   101b3390     uuid:mshtml_i.obj
 0002:000333a0       _IID_IHTMLIPrintCollection 101b33a0     uuid:mshtml_i.obj
 0002:000333b0       _IID_IHTMLPainterOverlay   101b33b0     uuid:mshtml_i.obj
 0002:000333c0       _IID_IHTMLPainterEventInfo 101b33c0     uuid:mshtml_i.obj
 0002:000333d0       _IID_IHTMLPaintSite        101b33d0     uuid:mshtml_i.obj
 0002:000333e0       _IID_IHTMLPainter          101b33e0     uuid:mshtml_i.obj
 0002:000333f0       _CLSID_HTMLNamespaceCollection 101b33f0     uuid:mshtml_i.obj
 0002:00033400       _CLSID_HTMLNamespace       101b3400     uuid:mshtml_i.obj
 0002:00033410       _IID_IHTMLNamespaceCollection 101b3410     uuid:mshtml_i.obj
 0002:00033420       _IID_IHTMLNamespace        101b3420     uuid:mshtml_i.obj
 0002:00033430       _DIID_HTMLNamespaceEvents  101b3430     uuid:mshtml_i.obj
 0002:00033440       _CLSID_FontNames           101b3440     uuid:mshtml_i.obj
 0002:00033450       _CLSID_BlockFormats        101b3450     uuid:mshtml_i.obj
 0002:00033460       _CLSID_HtmlDlgSafeHelper   101b3460     uuid:mshtml_i.obj
 0002:00033470       _IID_IHTMLComputedStyle    101b3470     uuid:mshtml_i.obj
 0002:00033480       _IID_IHTMLEditServices2    101b3480     uuid:mshtml_i.obj
 0002:00033490       _IID_IHTMLEditServices     101b3490     uuid:mshtml_i.obj
 0002:000334a0       _IID_IHTMLEditDesigner     101b34a0     uuid:mshtml_i.obj
 0002:000334b0       _IID_ISelectionServices    101b34b0     uuid:mshtml_i.obj
 0002:000334c0       _IID_ISelectionServicesListener 101b34c0     uuid:mshtml_i.obj
 0002:000334d0       _IID_IIMEServices          101b34d0     uuid:mshtml_i.obj
 0002:000334e0       _IID_ISequenceNumber       101b34e0     uuid:mshtml_i.obj
 0002:000334f0       _IID_IHTMLEditHost2        101b34f0     uuid:mshtml_i.obj
 0002:00033500       _IID_IHTMLEditHost         101b3500     uuid:mshtml_i.obj
 0002:00033510       _IID_IXMLGenericParse      101b3510     uuid:mshtml_i.obj
 0002:00033520       _IID_IMarkupTextFrags      101b3520     uuid:mshtml_i.obj
 0002:00033530       _IID_IMarkupPointer2       101b3530     uuid:mshtml_i.obj
 0002:00033540       _IID_IHTMLChangePlayback   101b3540     uuid:mshtml_i.obj
 0002:00033550       _IID_IMarkupServices2      101b3550     uuid:mshtml_i.obj
 0002:00033560       _IID_IMarkupServices       101b3560     uuid:mshtml_i.obj
 0002:00033570       _IID_ISecureUrlHost        101b3570     uuid:mshtml_i.obj
 0002:00033580       _IID_ICSSFilter            101b3580     uuid:mshtml_i.obj
 0002:00033590       _IID_IFontNames            101b3590     uuid:mshtml_i.obj
 0002:000335a0       _IID_IBlockFormats         101b35a0     uuid:mshtml_i.obj
 0002:000335b0       _IID_IHtmlDlgSafeHelper    101b35b0     uuid:mshtml_i.obj
 0002:000335c0       _IID_IDisplayServices      101b35c0     uuid:mshtml_i.obj
 0002:000335d0       _IID_IDisplayPointer       101b35d0     uuid:mshtml_i.obj
 0002:000335e0       _IID_ILineInfo             101b35e0     uuid:mshtml_i.obj
 0002:000335f0       _IID_IHighlightRenderingServices 101b35f0     uuid:mshtml_i.obj
 0002:00033600       _IID_IHighlightSegment     101b3600     uuid:mshtml_i.obj
 0002:00033610       _IID_IElementSegment       101b3610     uuid:mshtml_i.obj
 0002:00033620       _IID_ISegment              101b3620     uuid:mshtml_i.obj
 0002:00033630       _IID_IHTMLCaret            101b3630     uuid:mshtml_i.obj
 0002:00033640       _IID_ISegmentListIterator  101b3640     uuid:mshtml_i.obj
 0002:00033650       _IID_ISegmentList          101b3650     uuid:mshtml_i.obj
 0002:00033660       _IID_IActiveIMMApp         101b3660     uuid:mshtml_i.obj
 0002:00033670       _IID_IHTMLChangeSink       101b3670     uuid:mshtml_i.obj
 0002:00033680       _IID_IHTMLChangeLog        101b3680     uuid:mshtml_i.obj
 0002:00033690       _IID_IMarkupContainer2     101b3690     uuid:mshtml_i.obj
 0002:000336a0       _IID_IMarkupContainer      101b36a0     uuid:mshtml_i.obj
 0002:000336b0       _IID_IMarkupPointer        101b36b0     uuid:mshtml_i.obj
 0002:000336c0       _IID_ICSSFilterSite        101b36c0     uuid:mshtml_i.obj
 0002:000336d0       _CLSID_HTMLStyleFontFace   101b36d0     uuid:mshtml_i.obj
 0002:000336e0       _IID_IHTMLStyleFontFace    101b36e0     uuid:mshtml_i.obj
 0002:000336f0       _CLSID_HTMLStyleElement    101b36f0     uuid:mshtml_i.obj
 0002:00033700       _DIID_DispHTMLStyleElement 101b3700     uuid:mshtml_i.obj
 0002:00033710       _IID_IHTMLStyleElement     101b3710     uuid:mshtml_i.obj
 0002:00033720       _DIID_HTMLStyleElementEvents 101b3720     uuid:mshtml_i.obj
 0002:00033730       _DIID_HTMLStyleElementEvents2 101b3730     uuid:mshtml_i.obj
 0002:00033740       _IID_IHTMLOptionsHolder    101b3740     uuid:mshtml_i.obj
 0002:00033750       _IID_IHTMLFontSizesCollection 101b3750     uuid:mshtml_i.obj
 0002:00033760       _IID_IHTMLFontNamesCollection 101b3760     uuid:mshtml_i.obj
 0002:00033770       _CLSID_HTMLBGsound         101b3770     uuid:mshtml_i.obj
 0002:00033780       _DIID_DispHTMLBGsound      101b3780     uuid:mshtml_i.obj
 0002:00033790       _IID_IHTMLBGsound          101b3790     uuid:mshtml_i.obj
 0002:000337a0       _CLSID_HTMLFrameSetSite    101b37a0     uuid:mshtml_i.obj
 0002:000337b0       _DIID_DispHTMLFrameSetSite 101b37b0     uuid:mshtml_i.obj
 0002:000337c0       _IID_IHTMLFrameSetElement2 101b37c0     uuid:mshtml_i.obj
 0002:000337d0       _IID_IHTMLFrameSetElement  101b37d0     uuid:mshtml_i.obj
 0002:000337e0       _CLSID_HTMLSpanFlow        101b37e0     uuid:mshtml_i.obj
 0002:000337f0       _DIID_DispHTMLSpanFlow     101b37f0     uuid:mshtml_i.obj
 0002:00033800       _IID_IHTMLSpanFlow         101b3800     uuid:mshtml_i.obj
 0002:00033810       _CLSID_HTMLLegendElement   101b3810     uuid:mshtml_i.obj
 0002:00033820       _DIID_DispHTMLLegendElement 101b3820     uuid:mshtml_i.obj
 0002:00033830       _CLSID_HTMLFieldSetElement 101b3830     uuid:mshtml_i.obj
 0002:00033840       _DIID_DispHTMLFieldSetElement 101b3840     uuid:mshtml_i.obj
 0002:00033850       _CLSID_HTMLDivPosition     101b3850     uuid:mshtml_i.obj
 0002:00033860       _DIID_DispHTMLDivPosition  101b3860     uuid:mshtml_i.obj
 0002:00033870       _IID_IHTMLLegendElement2   101b3870     uuid:mshtml_i.obj
 0002:00033880       _IID_IHTMLLegendElement    101b3880     uuid:mshtml_i.obj
 0002:00033890       _IID_IHTMLFieldSetElement2 101b3890     uuid:mshtml_i.obj
 0002:000338a0       _IID_IHTMLFieldSetElement  101b38a0     uuid:mshtml_i.obj
 0002:000338b0       _IID_IHTMLDivPosition      101b38b0     uuid:mshtml_i.obj
 0002:000338c0       _CLSID_HTMLIFrame          101b38c0     uuid:mshtml_i.obj
 0002:000338d0       _DIID_DispHTMLIFrame       101b38d0     uuid:mshtml_i.obj
 0002:000338e0       _IID_IHTMLIFrameElement2   101b38e0     uuid:mshtml_i.obj
 0002:000338f0       _IID_IHTMLIFrameElement    101b38f0     uuid:mshtml_i.obj
 0002:00033900       _CLSID_HTMLFrameElement    101b3900     uuid:mshtml_i.obj
 0002:00033910       _DIID_DispHTMLFrameElement 101b3910     uuid:mshtml_i.obj
 0002:00033920       _IID_IHTMLFrameElement2    101b3920     uuid:mshtml_i.obj
 0002:00033930       _IID_IHTMLFrameElement     101b3930     uuid:mshtml_i.obj
 0002:00033940       _CLSID_HTMLFrameBase       101b3940     uuid:mshtml_i.obj
 0002:00033950       _DIID_DispHTMLFrameBase    101b3950     uuid:mshtml_i.obj
 0002:00033960       _IID_IHTMLFrameBase3       101b3960     uuid:mshtml_i.obj
 0002:00033970       _IID_IHTMLFrameBase2       101b3970     uuid:mshtml_i.obj
 0002:00033980       _DIID_HTMLFrameSiteEvents  101b3980     uuid:mshtml_i.obj
 0002:00033990       _DIID_HTMLFrameSiteEvents2 101b3990     uuid:mshtml_i.obj
 0002:000339a0       _CLSID_HTMLParamElement    101b39a0     uuid:mshtml_i.obj
 0002:000339b0       _DIID_DispHTMLParamElement 101b39b0     uuid:mshtml_i.obj
 0002:000339c0       _CLSID_HTMLObjectElement   101b39c0     uuid:mshtml_i.obj
 0002:000339d0       _DIID_DispHTMLObjectElement 101b39d0     uuid:mshtml_i.obj
 0002:000339e0       _IID_IHTMLParamElement     101b39e0     uuid:mshtml_i.obj
 0002:000339f0       _IID_IHTMLObjectElement3   101b39f0     uuid:mshtml_i.obj
 0002:00033a00       _IID_IHTMLObjectElement2   101b3a00     uuid:mshtml_i.obj
 0002:00033a10       _IID_IHTMLObjectElement    101b3a10     uuid:mshtml_i.obj
 0002:00033a20       _DIID_HTMLObjectElementEvents 101b3a20     uuid:mshtml_i.obj
 0002:00033a30       _DIID_HTMLObjectElementEvents2 101b3a30     uuid:mshtml_i.obj
 0002:00033a40       _CLSID_HTMLNoShowElement   101b3a40     uuid:mshtml_i.obj
 0002:00033a50       _DIID_DispHTMLNoShowElement 101b3a50     uuid:mshtml_i.obj
 0002:00033a60       _IID_IHTMLNoShowElement    101b3a60     uuid:mshtml_i.obj
 0002:00033a70       _CLSID_HTMLScriptElement   101b3a70     uuid:mshtml_i.obj
 0002:00033a80       _DIID_DispHTMLScriptElement 101b3a80     uuid:mshtml_i.obj
 0002:00033a90       _IID_IHTMLScriptElement2   101b3a90     uuid:mshtml_i.obj
 0002:00033aa0       _IID_IHTMLScriptElement    101b3aa0     uuid:mshtml_i.obj
 0002:00033ab0       _DIID_HTMLScriptEvents     101b3ab0     uuid:mshtml_i.obj
 0002:00033ac0       _DIID_HTMLScriptEvents2    101b3ac0     uuid:mshtml_i.obj
 0002:00033ad0       _CLSID_HTMLTableCell       101b3ad0     uuid:mshtml_i.obj
 0002:00033ae0       _DIID_DispHTMLTableCell    101b3ae0     uuid:mshtml_i.obj
 0002:00033af0       _CLSID_HTMLTableRow        101b3af0     uuid:mshtml_i.obj
 0002:00033b00       _DIID_DispHTMLTableRow     101b3b00     uuid:mshtml_i.obj
 0002:00033b10       _CLSID_HTMLTableSection    101b3b10     uuid:mshtml_i.obj
 0002:00033b20       _DIID_DispHTMLTableSection 101b3b20     uuid:mshtml_i.obj
 0002:00033b30       _CLSID_HTMLTableCol        101b3b30     uuid:mshtml_i.obj
 0002:00033b40       _DIID_DispHTMLTableCol     101b3b40     uuid:mshtml_i.obj
 0002:00033b50       _CLSID_HTMLTable           101b3b50     uuid:mshtml_i.obj
 0002:00033b60       _DIID_DispHTMLTable        101b3b60     uuid:mshtml_i.obj
 0002:00033b70       _IID_IHTMLTableCell2       101b3b70     uuid:mshtml_i.obj
 0002:00033b80       _IID_IHTMLTableCell        101b3b80     uuid:mshtml_i.obj
 0002:00033b90       _IID_IHTMLTableRowMetrics  101b3b90     uuid:mshtml_i.obj
 0002:00033ba0       _IID_IHTMLTableRow3        101b3ba0     uuid:mshtml_i.obj
 0002:00033bb0       _IID_IHTMLTableRow2        101b3bb0     uuid:mshtml_i.obj
 0002:00033bc0       _IID_IHTMLTableRow         101b3bc0     uuid:mshtml_i.obj
 0002:00033bd0       _IID_IHTMLTableSection3    101b3bd0     uuid:mshtml_i.obj
 0002:00033be0       _IID_IHTMLTableSection2    101b3be0     uuid:mshtml_i.obj
 0002:00033bf0       _IID_IHTMLTableCol2        101b3bf0     uuid:mshtml_i.obj
 0002:00033c00       _IID_IHTMLTableCol         101b3c00     uuid:mshtml_i.obj
 0002:00033c10       _IID_IHTMLTable3           101b3c10     uuid:mshtml_i.obj
 0002:00033c20       _IID_IHTMLTable2           101b3c20     uuid:mshtml_i.obj
 0002:00033c30       _IID_IHTMLTable            101b3c30     uuid:mshtml_i.obj
 0002:00033c40       _IID_IHTMLTableSection     101b3c40     uuid:mshtml_i.obj
 0002:00033c50       _DIID_HTMLTableEvents      101b3c50     uuid:mshtml_i.obj
 0002:00033c60       _DIID_HTMLTableEvents2     101b3c60     uuid:mshtml_i.obj
 0002:00033c70       _CLSID_HTMLSpanElement     101b3c70     uuid:mshtml_i.obj
 0002:00033c80       _DIID_DispHTMLSpanElement  101b3c80     uuid:mshtml_i.obj
 0002:00033c90       _CLSID_HTMLPhraseElement   101b3c90     uuid:mshtml_i.obj
 0002:00033ca0       _DIID_DispHTMLPhraseElement 101b3ca0     uuid:mshtml_i.obj
 0002:00033cb0       _IID_IHTMLSpanElement      101b3cb0     uuid:mshtml_i.obj
 0002:00033cc0       _IID_IHTMLPhraseElement2   101b3cc0     uuid:mshtml_i.obj
 0002:00033cd0       _IID_IHTMLPhraseElement    101b3cd0     uuid:mshtml_i.obj
 0002:00033ce0       _CLSID_HTMLCommentElement  101b3ce0     uuid:mshtml_i.obj
 0002:00033cf0       _DIID_DispHTMLCommentElement 101b3cf0     uuid:mshtml_i.obj
 0002:00033d00       _IID_IHTMLCommentElement2  101b3d00     uuid:mshtml_i.obj
 0002:00033d10       _IID_IHTMLCommentElement   101b3d10     uuid:mshtml_i.obj
 0002:00033d20       _CLSID_HTMLTableCaption    101b3d20     uuid:mshtml_i.obj
 0002:00033d30       _DIID_DispHTMLTableCaption 101b3d30     uuid:mshtml_i.obj
 0002:00033d40       _IID_IHTMLTableCaption     101b3d40     uuid:mshtml_i.obj
 0002:00033d50       _CLSID_HTMLAreaElement     101b3d50     uuid:mshtml_i.obj
 0002:00033d60       _DIID_DispHTMLAreaElement  101b3d60     uuid:mshtml_i.obj
 0002:00033d70       _IID_IHTMLAreaElement      101b3d70     uuid:mshtml_i.obj
 0002:00033d80       _DIID_HTMLAreaEvents       101b3d80     uuid:mshtml_i.obj
 0002:00033d90       _DIID_HTMLAreaEvents2      101b3d90     uuid:mshtml_i.obj
 0002:00033da0       _CLSID_HTMLMapElement      101b3da0     uuid:mshtml_i.obj
 0002:00033db0       _DIID_DispHTMLMapElement   101b3db0     uuid:mshtml_i.obj
 0002:00033dc0       _CLSID_HTMLAreasCollection 101b3dc0     uuid:mshtml_i.obj
 0002:00033dd0       _DIID_DispHTMLAreasCollection 101b3dd0     uuid:mshtml_i.obj
 0002:00033de0       _IID_IHTMLMapElement       101b3de0     uuid:mshtml_i.obj
 0002:00033df0       _IID_IHTMLAreasCollection3 101b3df0     uuid:mshtml_i.obj
 0002:00033e00       _IID_IHTMLAreasCollection2 101b3e00     uuid:mshtml_i.obj
 0002:00033e10       _IID_IHTMLAreasCollection  101b3e10     uuid:mshtml_i.obj
 0002:00033e20       _DIID_HTMLMapEvents        101b3e20     uuid:mshtml_i.obj
 0002:00033e30       _DIID_HTMLMapEvents2       101b3e30     uuid:mshtml_i.obj
 0002:00033e40       _CLSID_HTMLEmbed           101b3e40     uuid:mshtml_i.obj
 0002:00033e50       _DIID_DispHTMLEmbed        101b3e50     uuid:mshtml_i.obj
 0002:00033e60       _IID_IHTMLEmbedElement     101b3e60     uuid:mshtml_i.obj
 0002:00033e70       _CLSID_Scriptlet           101b3e70     uuid:mshtml_i.obj
 0002:00033e80       _IID_IWBScriptControl      101b3e80     uuid:mshtml_i.obj
 0002:00033e90       _IID_IWebBridge            101b3e90     uuid:mshtml_i.obj
 0002:00033ea0       _DIID_DWebBridgeEvents     101b3ea0     uuid:mshtml_i.obj
 0002:00033eb0       _CLSID_HTMLDocument        101b3eb0     uuid:mshtml_i.obj
 0002:00033ec0       _DIID_DispHTMLDocument     101b3ec0     uuid:mshtml_i.obj
 0002:00033ed0       _IID_IHTMLDocument5        101b3ed0     uuid:mshtml_i.obj
 0002:00033ee0       _IID_IHTMLDocument4        101b3ee0     uuid:mshtml_i.obj
 0002:00033ef0       _IID_IHTMLDocument3        101b3ef0     uuid:mshtml_i.obj
 0002:00033f00       _DIID_HTMLDocumentEvents   101b3f00     uuid:mshtml_i.obj
 0002:00033f10       _DIID_HTMLDocumentEvents2  101b3f10     uuid:mshtml_i.obj
 0002:00033f20       _CLSID_HTMLWindowProxy     101b3f20     uuid:mshtml_i.obj
 0002:00033f30       _DIID_DispHTMLWindowProxy  101b3f30     uuid:mshtml_i.obj
 0002:00033f40       _CLSID_HTMLWindow2         101b3f40     uuid:mshtml_i.obj
 0002:00033f50       _DIID_DispHTMLWindow2      101b3f50     uuid:mshtml_i.obj
