; Listing generated by Microsoft (R) Optimizing Compiler Version 13.10.3077 

	TITLE	.\XMLSign.cpp
	.386P
include listing.inc
if @Version gt 510
.model FLAT
else
_TEXT	SEGMENT PARA USE32 PUBLIC 'CODE'
_TEXT	ENDS
_DATA	SEGMENT DWORD USE32 PUBLIC 'DATA'
_DATA	ENDS
CONST	SEGMENT DWORD USE32 PUBLIC 'CONST'
CONST	ENDS
_BSS	SEGMENT PARA USE32 PUBLIC 'BSS'
_BSS	ENDS
$$SYMBOLS	SEGMENT BYTE USE32 'DEBSYM'
$$SYMBOLS	ENDS
$$TYPES	SEGMENT BYTE USE32 'DEBTYP'
$$TYPES	ENDS
_TLS	SEGMENT DWORD USE32 PUBLIC 'TLS'
_TLS	ENDS
;	COMDAT ??_C@_0BH@IMJCHIMA@CConfig?3?3setConfigFile?$AA@
CONST	SEGMENT DWORD USE32 PUBLIC 'CONST'
CONST	ENDS
;	COMDAT ??_C@_0BM@LOCLFAIJ@c?3?2activex?2xmlsign?2config?4h?$AA@
CONST	SEGMENT DWORD USE32 PUBLIC 'CONST'
CONST	ENDS
;	COMDAT ??_C@_0EJ@DPIMAKHN@C?3?2Program?5Files?2Microsoft?5Visua@
CONST	SEGMENT DWORD USE32 PUBLIC 'CONST'
CONST	ENDS
;	COMDAT ??_C@_0CD@DIDNGAPJ@s?5?$DN?$DN?50?5?$HM?$HM?5?$CIconst?5char?$CK?$CJ?5?$CKthis?5?$CB?$DN@
CONST	SEGMENT DWORD USE32 PUBLIC 'CONST'
CONST	ENDS
;	COMDAT ??_C@_0CG@PAOIECBF@s?5?$DN?$DN?50?5?$HM?$HM?5?$CIconst?5wchar_t?$CK?$CJ?5?$CKthis@
CONST	SEGMENT DWORD USE32 PUBLIC 'CONST'
CONST	ENDS
;	COMDAT ??_C@_0DD@NCNHACCB@s?5?$DN?$DN?50?5?$HM?$HM?5m_Data?5?$DN?$DN?50?5?$HM?$HM?5m_Data?9@
CONST	SEGMENT DWORD USE32 PUBLIC 'CONST'
CONST	ENDS
;	COMDAT ??_C@_0CH@LJMJHPFK@m_Data?5?$CB?$DN?50?5?$CG?$CG?5m_Data?9?$DORefCount?$CI@
CONST	SEGMENT DWORD USE32 PUBLIC 'CONST'
CONST	ENDS
;	COMDAT ??_C@_0FG@GKIPNLEE@?$CI?$CIthis?$CJ?9?$DOvt?$CJ?5?$CB?$DN?5VT_BSTR?5?$HM?$HM?5?$CIBSTR@
CONST	SEGMENT DWORD USE32 PUBLIC 'CONST'
CONST	ENDS
;	COMDAT ??_C@_0EC@EDNDDDBI@?$CI?$CIthis?$CJ?9?$DOvt?$CJ?5?$CB?$DN?5VT_BSTR?5?$HM?$HM?5pSrc?5@
CONST	SEGMENT DWORD USE32 PUBLIC 'CONST'
CONST	ENDS
;	COMDAT ??_C@_0EL@EEEMIENH@?$CI?$CIthis?$CJ?9?$DOvt?$CJ?5?$CB?$DN?5?$CIVT_I1?5?$HM?5VT_BYRE@
CONST	SEGMENT DWORD USE32 PUBLIC 'CONST'
CONST	ENDS
;	COMDAT ??_C@_0EH@IHHPLLAD@?$CI?$CIthis?$CJ?9?$DOvt?$CJ?5?$CB?$DN?5VT_DISPATCH?5?$HM?$HM?5p@
CONST	SEGMENT DWORD USE32 PUBLIC 'CONST'
CONST	ENDS
;	COMDAT ??_C@_0EF@LJOMBHMP@?$CI?$CIthis?$CJ?9?$DOvt?$CJ?5?$CB?$DN?5VT_UNKNOWN?5?$HM?$HM?5pS@
CONST	SEGMENT DWORD USE32 PUBLIC 'CONST'
CONST	ENDS
;	COMDAT ??_C@_0BE@NNIJINN@IDispatch?5error?5?$CD?$CFd?$AA@
CONST	SEGMENT DWORD USE32 PUBLIC 'CONST'
CONST	ENDS
;	COMDAT ??_C@_0BF@IPPGFENJ@Unknown?5error?50x?$CF0lX?$AA@
CONST	SEGMENT DWORD USE32 PUBLIC 'CONST'
CONST	ENDS
;	COMDAT ??_C@_17CGPNFONA@?$AA?7?$EA?$AD?$AA?7?$AA?$AA@
CONST	SEGMENT DWORD USE32 PUBLIC 'CONST'
CONST	ENDS
;	COMDAT ??_C@_19ELGCFCMM@?$AA?$AD?$AA?7?$EA?$AD?$AA?7?$AA?$AA@
CONST	SEGMENT DWORD USE32 PUBLIC 'CONST'
CONST	ENDS
;	COMDAT ??_C@_1BC@CBBHPGMH@?$EA?$AI?$EA?$AD?$EA?$AD?$EA?$AD?$EA?$AD?$AA?7?$AA?7?$AA?7?$AA?$AA@
CONST	SEGMENT DWORD USE32 PUBLIC 'CONST'
CONST	ENDS
;	COMDAT ??_C@_1O@LPGBCEBP@?$AA?$AD?$AA?7?$EA?$AD?$AA?7?$AA?7?$AA?7?$AA?$AA@
CONST	SEGMENT DWORD USE32 PUBLIC 'CONST'
CONST	ENDS
;	COMDAT ??_C@_1O@NEHKDCLA@?$EA?$AI?$EA?$AI?$EA?$AI?$EA?$AD?$EA?$AD?$AA?7?$AA?$AA@
CONST	SEGMENT DWORD USE32 PUBLIC 'CONST'
CONST	ENDS
;	COMDAT ??_C@_15ONFCDLDB@?$EA?$AD?$AA?7?$AA?$AA@
CONST	SEGMENT DWORD USE32 PUBLIC 'CONST'
CONST	ENDS
;	COMDAT ??_C@_19DICFMKI@?$AA?$AD?$AA?$AM?$EA?$AD?$AA?7?$AA?$AA@
CONST	SEGMENT DWORD USE32 PUBLIC 'CONST'
CONST	ENDS
;	COMDAT ??_C@_1M@FFKIHFKI@?$AA?$AD?$AA?$AM?$AA?7?$EA?$AD?$AA?7?$AA?$AA@
CONST	SEGMENT DWORD USE32 PUBLIC 'CONST'
CONST	ENDS
;	COMDAT ??_C@_19NKKCEOAE@?$AA?$AD?$AA?$AD?$EA?$AD?$AA?7?$AA?$AA@
CONST	SEGMENT DWORD USE32 PUBLIC 'CONST'
CONST	ENDS
;	COMDAT ??_C@_1M@KEKDCOCF@?$AA?$AD?$AA?$AD?$AA?7?$EA?$AD?$AA?7?$AA?$AA@
CONST	SEGMENT DWORD USE32 PUBLIC 'CONST'
CONST	ENDS
;	COMDAT ??_C@_17LHDNECBI@?$AA?$AD?$EA?$AD?$AA?7?$AA?$AA@
CONST	SEGMENT DWORD USE32 PUBLIC 'CONST'
CONST	ENDS
;	COMDAT ??_C@_17CANDCMNE@?$EA?$AL?$EA?$AD?$AA?7?$AA?$AA@
CONST	SEGMENT DWORD USE32 PUBLIC 'CONST'
CONST	ENDS
;	COMDAT ??_C@_0FG@EOHGAEB@?3Sun?3Sunday?3Mon?3Monday?3Tue?3Tuesd@
CONST	SEGMENT DWORD USE32 PUBLIC 'CONST'
CONST	ENDS
;	COMDAT ??_C@_0IH@HPGJLCCK@?3Jan?3January?3Feb?3February?3Mar?3Ma@
CONST	SEGMENT DWORD USE32 PUBLIC 'CONST'
CONST	ENDS
;	COMDAT ??_C@_04LOAJBDKD@true?$AA@
CONST	SEGMENT DWORD USE32 PUBLIC 'CONST'
CONST	ENDS
;	COMDAT ??_C@_0EH@NBFKEDIC@C?3?2Program?5Files?2Microsoft?5Visua@
CONST	SEGMENT DWORD USE32 PUBLIC 'CONST'
CONST	ENDS
;	COMDAT ??_C@_01GFHCPBMG@C?$AA@
CONST	SEGMENT DWORD USE32 PUBLIC 'CONST'
CONST	ENDS
;	COMDAT ??_C@_0CD@HFEEKIIE@mbstr?5?$DN?$DN?50?5?$HM?$HM?5result?5?$DM?$DN?5?$CIint?$CJcou@
CONST	SEGMENT DWORD USE32 PUBLIC 'CONST'
CONST	ENDS
;	COMDAT ??_C@_0FB@DNILBHEN@C?3?2Program?5Files?2Microsoft?5Visua@
CONST	SEGMENT DWORD USE32 PUBLIC 'CONST'
CONST	ENDS
;	COMDAT ??_C@_0CD@JADEDFCN@wcstr?5?$DN?$DN?50?5?$HM?$HM?5result?5?$DM?$DN?5?$CIint?$CJcou@
CONST	SEGMENT DWORD USE32 PUBLIC 'CONST'
CONST	ENDS
;	COMDAT ??_C@_0BA@CLMJJCOM@nSize?5?$DO?$DN?5nSizeW?$AA@
CONST	SEGMENT DWORD USE32 PUBLIC 'CONST'
CONST	ENDS
;	COMDAT ??_C@_0BF@DFFCODPF@m_pData?9?$DOnRefs?5?$DN?$DN?5?91?$AA@
CONST	SEGMENT DWORD USE32 PUBLIC 'CONST'
CONST	ENDS
;	COMDAT ??_C@_0BK@KFNMPDFA@m_pData?9?$DOnDataLength?5?$DN?$DN?50?$AA@
CONST	SEGMENT DWORD USE32 PUBLIC 'CONST'
CONST	ENDS
;	COMDAT ??_C@_0BC@JINHKJCC@pData?9?$DOnRefs?5?$DM?$DN?50?$AA@
CONST	SEGMENT DWORD USE32 PUBLIC 'CONST'
CONST	ENDS
;	COMDAT ??_C@_0BB@HNGMIMJM@pData?9?$DOnRefs?5?$DM?50?$AA@
CONST	SEGMENT DWORD USE32 PUBLIC 'CONST'
CONST	ENDS
;	COMDAT ??_C@_0FB@EIPLHBJE@CFixedStringMgr?3?3Allocate?$CI?$CJ?5spil@
CONST	SEGMENT DWORD USE32 PUBLIC 'CONST'
CONST	ENDS
;	COMDAT ??_C@_0FD@PINPFILO@CFixedStringMgr?3?3Reallocate?$CI?$CJ?5sp@
CONST	SEGMENT DWORD USE32 PUBLIC 'CONST'
CONST	ENDS
;	COMDAT ??_C@_0P@MDHCGOCC@m_pMemMgr?5?$DN?$DN?50?$AA@
CONST	SEGMENT DWORD USE32 PUBLIC 'CONST'
CONST	ENDS
;	COMDAT ??_C@_0EP@ENACCIMA@C?3?2Program?5Files?2Microsoft?5Visua@
CONST	SEGMENT DWORD USE32 PUBLIC 'CONST'
CONST	ENDS
;	COMDAT ??_C@_0BK@KICONMKH@pData?9?$DOpStringMgr?5?$DN?$DN?5this?$AA@
CONST	SEGMENT DWORD USE32 PUBLIC 'CONST'
CONST	ENDS
;	COMDAT ??_C@_0CG@HPMMCKHL@?$CI?$CIWORD?$CJ?$CI?$CIDWORD_PTR?$CJ?$CIpsz?$CJ?5?$DO?$DO?516?$CJ?$CJ@
CONST	SEGMENT DWORD USE32 PUBLIC 'CONST'
CONST	ENDS
;	COMDAT ??_C@_0N@BDLMIBLB@pFormat?5?$CB?$DN?50?$AA@
CONST	SEGMENT DWORD USE32 PUBLIC 'CONST'
CONST	ENDS
;	COMDAT ??_C@_0FA@JGFACAOB@C?3?2Program?5Files?2Microsoft?5Visua@
CONST	SEGMENT DWORD USE32 PUBLIC 'CONST'
CONST	ENDS
;	COMDAT ??_C@_05LLAMLEHD@?$CFI64d?$AA@
CONST	SEGMENT DWORD USE32 PUBLIC 'CONST'
CONST	ENDS
;	COMDAT ??_C@_05KCADNOJC@?$CF02ld?$AA@
CONST	SEGMENT DWORD USE32 PUBLIC 'CONST'
CONST	ENDS
;	COMDAT ??_C@_0CB@FKADHJGH@strFormat?4LoadStringA?$CInFormatID?$CJ@
CONST	SEGMENT DWORD USE32 PUBLIC 'CONST'
CONST	ENDS
;	COMDAT ??_C@_0CE@BJCBICOJ@c?3?2activex?2xmlsign?2ShowSelectCer@
CONST	SEGMENT DWORD USE32 PUBLIC 'CONST'
CONST	ENDS
;	COMDAT ??_C@_0CD@LOCFBMPJ@CShowSelectCert?3?3selectCertifica@
CONST	SEGMENT DWORD USE32 PUBLIC 'CONST'
CONST	ENDS
;	COMDAT ??_C@_0BP@BJHHJGLF@c?3?2activex?2xmlsign?2Signature?4h?$AA@
CONST	SEGMENT DWORD USE32 PUBLIC 'CONST'
CONST	ENDS
;	COMDAT ??_C@_0L@KEHCEMNB@CSignature?$AA@
CONST	SEGMENT DWORD USE32 PUBLIC 'CONST'
CONST	ENDS
;	COMDAT ??_C@_0BO@OBIGOAOM@AtlIsValidString?$CI?5pszFormat?5?$CJ?$AA@
CONST	SEGMENT DWORD USE32 PUBLIC 'CONST'
CONST	ENDS
;	COMDAT ??_C@_08LIEICNMC@m_bModal?$AA@
CONST	SEGMENT DWORD USE32 PUBLIC 'CONST'
CONST	ENDS
;	COMDAT ??_C@_0BA@GOIMFHNK@pStringMgr?5?$CB?$DN?50?$AA@
CONST	SEGMENT DWORD USE32 PUBLIC 'CONST'
CONST	ENDS
;	COMDAT ??_C@_0CJ@FJEKGMMD@Warning?3?5implicit?5LoadString?$CI?$CFu?$CJ@
CONST	SEGMENT DWORD USE32 PUBLIC 'CONST'
CONST	ENDS
;	COMDAT ??_C@_0BA@GNIEOBOF@nNewLength?5?$DO?$DN?50?$AA@
CONST	SEGMENT DWORD USE32 PUBLIC 'CONST'
CONST	ENDS
;	COMDAT ??_C@_0EE@PNDBCBIA@CAxDialogImpl?3?3AdviseSinkMap?5cal@
CONST	SEGMENT DWORD USE32 PUBLIC 'CONST'
CONST	ENDS
;	COMDAT ??_C@_0O@HHPDHHJB@AtlAxWinLic71?$AA@
CONST	SEGMENT DWORD USE32 PUBLIC 'CONST'
CONST	ENDS
;	COMDAT ??_C@_0EG@DKHIMJLN@C?3?2Program?5Files?2Microsoft?5Visua@
CONST	SEGMENT DWORD USE32 PUBLIC 'CONST'
CONST	ENDS
;	COMDAT ??_C@_08EPJLHIJG@bad?5cast?$AA@
CONST	SEGMENT DWORD USE32 PUBLIC 'CONST'
CONST	ENDS
;	COMDAT ??_C@_09BNFEDJPE@?$CBm_bModal?$AA@
CONST	SEGMENT DWORD USE32 PUBLIC 'CONST'
CONST	ENDS
text$yc	SEGMENT PARA USE32 PUBLIC 'CODE'
text$yc	ENDS
CRT$XCA	SEGMENT DWORD USE32 PUBLIC 'DATA'
CRT$XCA	ENDS
CRT$XCU	SEGMENT DWORD USE32 PUBLIC 'DATA'
CRT$XCU	ENDS
CRT$XCL	SEGMENT DWORD USE32 PUBLIC 'DATA'
CRT$XCL	ENDS
CRT$XCC	SEGMENT DWORD USE32 PUBLIC 'DATA'
CRT$XCC	ENDS
CRT$XCZ	SEGMENT DWORD USE32 PUBLIC 'DATA'
CRT$XCZ	ENDS
text$yd	SEGMENT PARA USE32 PUBLIC 'CODE'
text$yd	ENDS
ATL$__m	SEGMENT DWORD USE32 PUBLIC ''
ATL$__m	ENDS
ATL$__z	SEGMENT DWORD USE32 PUBLIC ''
ATL$__z	ENDS
ATL$__a	SEGMENT DWORD USE32 PUBLIC ''
ATL$__a	ENDS
xdata$x	SEGMENT DWORD USE32 PUBLIC 'CONST'
xdata$x	ENDS
;	COMDAT ??_GCConfig@@UAEPAXI@Z
_TEXT	SEGMENT PARA USE32 PUBLIC 'CODE'
_TEXT	ENDS
;	COMDAT _acosl
_TEXT	SEGMENT PARA USE32 PUBLIC 'CODE'
_TEXT	ENDS
;	COMDAT _asinl
_TEXT	SEGMENT PARA USE32 PUBLIC 'CODE'
_TEXT	ENDS
;	COMDAT _atanl
_TEXT	SEGMENT PARA USE32 PUBLIC 'CODE'
_TEXT	ENDS
;	COMDAT _atan2l
_TEXT	SEGMENT PARA USE32 PUBLIC 'CODE'
_TEXT	ENDS
;	COMDAT _ceill
_TEXT	SEGMENT PARA USE32 PUBLIC 'CODE'
_TEXT	ENDS
;	COMDAT _cosl
_TEXT	SEGMENT PARA USE32 PUBLIC 'CODE'
_TEXT	ENDS
;	COMDAT _coshl
_TEXT	SEGMENT PARA USE32 PUBLIC 'CODE'
_TEXT	ENDS
;	COMDAT _expl
_TEXT	SEGMENT PARA USE32 PUBLIC 'CODE'
_TEXT	ENDS
;	COMDAT _fabsl
_TEXT	SEGMENT PARA USE32 PUBLIC 'CODE'
_TEXT	ENDS
;	COMDAT _floorl
_TEXT	SEGMENT PARA USE32 PUBLIC 'CODE'
_TEXT	ENDS
;	COMDAT _fmodl
_TEXT	SEGMENT PARA USE32 PUBLIC 'CODE'
_TEXT	ENDS
;	COMDAT _frexpl
_TEXT	SEGMENT PARA USE32 PUBLIC 'CODE'
_TEXT	ENDS
;	COMDAT _ldexpl
_TEXT	SEGMENT PARA USE32 PUBLIC 'CODE'
_TEXT	ENDS
;	COMDAT _logl
_TEXT	SEGMENT PARA USE32 PUBLIC 'CODE'
_TEXT	ENDS
;	COMDAT _log10l
_TEXT	SEGMENT PARA USE32 PUBLIC 'CODE'
_TEXT	ENDS
;	COMDAT _modfl
_TEXT	SEGMENT PARA USE32 PUBLIC 'CODE'
_TEXT	ENDS
;	COMDAT _powl
_TEXT	SEGMENT PARA USE32 PUBLIC 'CODE'
_TEXT	ENDS
;	COMDAT _sinl
_TEXT	SEGMENT PARA USE32 PUBLIC 'CODE'
_TEXT	ENDS
;	COMDAT _sinhl
_TEXT	SEGMENT PARA USE32 PUBLIC 'CODE'
_TEXT	ENDS
;	COMDAT _sqrtl
_TEXT	SEGMENT PARA USE32 PUBLIC 'CODE'
_TEXT	ENDS
;	COMDAT _tanl
_TEXT	SEGMENT PARA USE32 PUBLIC 'CODE'
_TEXT	ENDS
;	COMDAT _tanhl
_TEXT	SEGMENT PARA USE32 PUBLIC 'CODE'
_TEXT	ENDS
;	COMDAT _frexpf
_TEXT	SEGMENT PARA USE32 PUBLIC 'CODE'
_TEXT	ENDS
;	COMDAT _ldexpf
_TEXT	SEGMENT PARA USE32 PUBLIC 'CODE'
_TEXT	ENDS
;	COMDAT _acosf
_TEXT	SEGMENT PARA USE32 PUBLIC 'CODE'
_TEXT	ENDS
;	COMDAT _asinf
_TEXT	SEGMENT PARA USE32 PUBLIC 'CODE'
_TEXT	ENDS
;	COMDAT _atanf
_TEXT	SEGMENT PARA USE32 PUBLIC 'CODE'
_TEXT	ENDS
;	COMDAT _atan2f
_TEXT	SEGMENT PARA USE32 PUBLIC 'CODE'
_TEXT	ENDS
;	COMDAT _ceilf
_TEXT	SEGMENT PARA USE32 PUBLIC 'CODE'
_TEXT	ENDS
;	COMDAT _cosf
_TEXT	SEGMENT PARA USE32 PUBLIC 'CODE'
_TEXT	ENDS
;	COMDAT _coshf
_TEXT	SEGMENT PARA USE32 PUBLIC 'CODE'
_TEXT	ENDS
;	COMDAT _expf
_TEXT	SEGMENT PARA USE32 PUBLIC 'CODE'
_TEXT	ENDS
;	COMDAT _fabsf
_TEXT	SEGMENT PARA USE32 PUBLIC 'CODE'
_TEXT	ENDS
;	COMDAT _floorf
_TEXT	SEGMENT PARA USE32 PUBLIC 'CODE'
_TEXT	ENDS
;	COMDAT _fmodf
_TEXT	SEGMENT PARA USE32 PUBLIC 'CODE'
_TEXT	ENDS
;	COMDAT _logf
_TEXT	SEGMENT PARA USE32 PUBLIC 'CODE'
_TEXT	ENDS
;	COMDAT _log10f
_TEXT	SEGMENT PARA USE32 PUBLIC 'CODE'
_TEXT	ENDS
;	COMDAT _modff
_TEXT	SEGMENT PARA USE32 PUBLIC 'CODE'
_TEXT	ENDS
;	COMDAT _powf
_TEXT	SEGMENT PARA USE32 PUBLIC 'CODE'
_TEXT	ENDS
;	COMDAT _sinf
_TEXT	SEGMENT PARA USE32 PUBLIC 'CODE'
_TEXT	ENDS
;	COMDAT _sinhf
_TEXT	SEGMENT PARA USE32 PUBLIC 'CODE'
_TEXT	ENDS
;	COMDAT _sqrtf
_TEXT	SEGMENT PARA USE32 PUBLIC 'CODE'
_TEXT	ENDS
;	COMDAT _tanf
_TEXT	SEGMENT PARA USE32 PUBLIC 'CODE'
_TEXT	ENDS
;	COMDAT _tanhf
_TEXT	SEGMENT PARA USE32 PUBLIC 'CODE'
_TEXT	ENDS
;	COMDAT ?CheckError@_com_util@@YAXJ@Z
_TEXT	SEGMENT PARA USE32 PUBLIC 'CODE'
_TEXT	ENDS
;	COMDAT ??0_bstr_t@@QAE@ABV0@@Z
_TEXT	SEGMENT PARA USE32 PUBLIC 'CODE'
_TEXT	ENDS
;	COMDAT ??0_bstr_t@@QAE@PBD@Z
_TEXT	SEGMENT PARA USE32 PUBLIC 'CODE'
_TEXT	ENDS
;	COMDAT ??0_bstr_t@@QAE@PBG@Z
_TEXT	SEGMENT PARA USE32 PUBLIC 'CODE'
_TEXT	ENDS
;	COMDAT ??0_bstr_t@@QAE@PAG_N@Z
_TEXT	SEGMENT PARA USE32 PUBLIC 'CODE'
_TEXT	ENDS
;	COMDAT ??1_bstr_t@@QAE@XZ
_TEXT	SEGMENT PARA USE32 PUBLIC 'CODE'
_TEXT	ENDS
;	COMDAT ??4_bstr_t@@QAEAAV0@PBG@Z
_TEXT	SEGMENT PARA USE32 PUBLIC 'CODE'
_TEXT	ENDS
;	COMDAT ??Y_bstr_t@@QAEAAV0@ABV0@@Z
_TEXT	SEGMENT PARA USE32 PUBLIC 'CODE'
_TEXT	ENDS
;	COMDAT ??B_bstr_t@@QBEPBGXZ
_TEXT	SEGMENT PARA USE32 PUBLIC 'CODE'
_TEXT	ENDS
;	COMDAT ??B_bstr_t@@QBEPAGXZ
_TEXT	SEGMENT PARA USE32 PUBLIC 'CODE'
_TEXT	ENDS
;	COMDAT ??B_bstr_t@@QBEPBDXZ
_TEXT	SEGMENT PARA USE32 PUBLIC 'CODE'
_TEXT	ENDS
;	COMDAT ??7_bstr_t@@QBE_NXZ
_TEXT	SEGMENT PARA USE32 PUBLIC 'CODE'
_TEXT	ENDS
;	COMDAT ?length@_bstr_t@@QBEIXZ
_TEXT	SEGMENT PARA USE32 PUBLIC 'CODE'
_TEXT	ENDS
;	COMDAT ?Attach@_bstr_t@@QAEXPAG@Z
_TEXT	SEGMENT PARA USE32 PUBLIC 'CODE'
_TEXT	ENDS
;	COMDAT ?_AddRef@_bstr_t@@AAEXXZ
_TEXT	SEGMENT PARA USE32 PUBLIC 'CODE'
_TEXT	ENDS
;	COMDAT ?_Free@_bstr_t@@AAEXXZ
_TEXT	SEGMENT PARA USE32 PUBLIC 'CODE'
_TEXT	ENDS
;	COMDAT ?_Compare@_bstr_t@@ABEHABV1@@Z
_TEXT	SEGMENT PARA USE32 PUBLIC 'CODE'
_TEXT	ENDS
;	COMDAT ??0Data_t@_bstr_t@@QAE@PBD@Z
_TEXT	SEGMENT PARA USE32 PUBLIC 'CODE'
_TEXT	ENDS
;	COMDAT ??0Data_t@_bstr_t@@QAE@PBG@Z
_TEXT	SEGMENT PARA USE32 PUBLIC 'CODE'
_TEXT	ENDS
;	COMDAT ??0Data_t@_bstr_t@@QAE@PAG_N@Z
_TEXT	SEGMENT PARA USE32 PUBLIC 'CODE'
_TEXT	ENDS
;	COMDAT ??0Data_t@_bstr_t@@QAE@ABV1@0@Z
_TEXT	SEGMENT PARA USE32 PUBLIC 'CODE'
_TEXT	ENDS
;	COMDAT ?AddRef@Data_t@_bstr_t@@QAEKXZ
_TEXT	SEGMENT PARA USE32 PUBLIC 'CODE'
_TEXT	ENDS
;	COMDAT ?Release@Data_t@_bstr_t@@QAEKXZ
_TEXT	SEGMENT PARA USE32 PUBLIC 'CODE'
_TEXT	ENDS
;	COMDAT ?RefCount@Data_t@_bstr_t@@QBEKXZ
_TEXT	SEGMENT PARA USE32 PUBLIC 'CODE'
_TEXT	ENDS
;	COMDAT ?GetWString@Data_t@_bstr_t@@QAEAAPAGXZ
_TEXT	SEGMENT PARA USE32 PUBLIC 'CODE'
_TEXT	ENDS
;	COMDAT ?GetString@Data_t@_bstr_t@@QBEPBDXZ
_TEXT	SEGMENT PARA USE32 PUBLIC 'CODE'
_TEXT	ENDS
;	COMDAT ?Copy@Data_t@_bstr_t@@QBEPAGXZ
_TEXT	SEGMENT PARA USE32 PUBLIC 'CODE'
_TEXT	ENDS
;	COMDAT ?Length@Data_t@_bstr_t@@QBEIXZ
_TEXT	SEGMENT PARA USE32 PUBLIC 'CODE'
_TEXT	ENDS
;	COMDAT ?Compare@Data_t@_bstr_t@@QBEHABV12@@Z
_TEXT	SEGMENT PARA USE32 PUBLIC 'CODE'
_TEXT	ENDS
;	COMDAT ??2Data_t@_bstr_t@@SAPAXI@Z
_TEXT	SEGMENT PARA USE32 PUBLIC 'CODE'
_TEXT	ENDS
;	COMDAT ??1Data_t@_bstr_t@@AAE@XZ
_TEXT	SEGMENT PARA USE32 PUBLIC 'CODE'
_TEXT	ENDS
;	COMDAT ?_Free@Data_t@_bstr_t@@AAEXXZ
_TEXT	SEGMENT PARA USE32 PUBLIC 'CODE'
_TEXT	ENDS
;	COMDAT ??0_variant_t@@QAE@XZ
_TEXT	SEGMENT PARA USE32 PUBLIC 'CODE'
_TEXT	ENDS
;	COMDAT ??0_variant_t@@QAE@AAUtagVARIANT@@_N@Z
_TEXT	SEGMENT PARA USE32 PUBLIC 'CODE'
_TEXT	ENDS
;	COMDAT ??4_variant_t@@QAEAAV0@PBD@Z
_TEXT	SEGMENT PARA USE32 PUBLIC 'CODE'
_TEXT	ENDS
;	COMDAT ??8_variant_t@@QBE_NPBUtagVARIANT@@@Z
_TEXT	SEGMENT PARA USE32 PUBLIC 'CODE'
_TEXT	ENDS
;	COMDAT ?Clear@_variant_t@@QAEXXZ
_TEXT	SEGMENT PARA USE32 PUBLIC 'CODE'
_TEXT	ENDS
;	COMDAT ?ChangeType@_variant_t@@QAEXGPBV1@@Z
_TEXT	SEGMENT PARA USE32 PUBLIC 'CODE'
_TEXT	ENDS
;	COMDAT ??1_variant_t@@QAE@XZ
_TEXT	SEGMENT PARA USE32 PUBLIC 'CODE'
_TEXT	ENDS
;	COMDAT ??0_com_error@@QAE@ABV0@@Z
_TEXT	SEGMENT PARA USE32 PUBLIC 'CODE'
_TEXT	ENDS
;	COMDAT ??1_com_error@@UAE@XZ
_TEXT	SEGMENT PARA USE32 PUBLIC 'CODE'
_TEXT	ENDS
;	COMDAT ?WCode@_com_error@@QBEGXZ
_TEXT	SEGMENT PARA USE32 PUBLIC 'CODE'
_TEXT	ENDS
;	COMDAT ?HRESULTToWCode@_com_error@@SAGJ@Z
_TEXT	SEGMENT PARA USE32 PUBLIC 'CODE'
_TEXT	ENDS
;	COMDAT ??_GData_t@_bstr_t@@AAEPAXI@Z
_TEXT	SEGMENT PARA USE32 PUBLIC 'CODE'
_TEXT	ENDS
;	COMDAT ??_G_com_error@@UAEPAXI@Z
_TEXT	SEGMENT PARA USE32 PUBLIC 'CODE'
_TEXT	ENDS
;	COMDAT ??_GCBufferVariant@@UAEPAXI@Z
_TEXT	SEGMENT PARA USE32 PUBLIC 'CODE'
_TEXT	ENDS
;	COMDAT ??1CBufferVariant@@UAE@XZ
_TEXT	SEGMENT PARA USE32 PUBLIC 'CODE'
_TEXT	ENDS
;	COMDAT ??0CBufferVariant@@QAE@ABUtagVARIANT@@@Z
_TEXT	SEGMENT PARA USE32 PUBLIC 'CODE'
_TEXT	ENDS
;	COMDAT ??BCBufferVariant@@QBEPADXZ
_TEXT	SEGMENT PARA USE32 PUBLIC 'CODE'
_TEXT	ENDS
;	COMDAT ?SetLength@CBufferVariant@@QAEXJ@Z
_TEXT	SEGMENT PARA USE32 PUBLIC 'CODE'
_TEXT	ENDS
;	COMDAT ?MyVariantCopy@CBufferVariant@@QAEXPAUtagVARIANT@@0@Z
_TEXT	SEGMENT PARA USE32 PUBLIC 'CODE'
_TEXT	ENDS
;	COMDAT ?GetLength@CBufferVariant@@QAEJXZ
_TEXT	SEGMENT PARA USE32 PUBLIC 'CODE'
_TEXT	ENDS
;	COMDAT ?BuildByteArrayFromVariant@CBufferVariant@@AAEXPBUtagVARIANT@@@Z
_TEXT	SEGMENT PARA USE32 PUBLIC 'CODE'
_TEXT	ENDS
;	COMDAT ?BuildByteArrayFromData@CBufferVariant@@AAEXPBXJ@Z
_TEXT	SEGMENT PARA USE32 PUBLIC 'CODE'
_TEXT	ENDS
;	COMDAT ?AppendByteArrayFromVariant@CBufferVariant@@AAEXPBUtagVARIANT@@@Z
_TEXT	SEGMENT PARA USE32 PUBLIC 'CODE'
_TEXT	ENDS
;	COMDAT ?AppendByteArrayFromData@CBufferVariant@@AAEXPBXJ@Z
_TEXT	SEGMENT PARA USE32 PUBLIC 'CODE'
_TEXT	ENDS
;	COMDAT ??1bad_exception@std@@UAE@XZ
_TEXT	SEGMENT PARA USE32 PUBLIC 'CODE'
_TEXT	ENDS
;	COMDAT ??_Gbad_exception@std@@UAEPAXI@Z
_TEXT	SEGMENT PARA USE32 PUBLIC 'CODE'
_TEXT	ENDS
;	COMDAT ??1bad_alloc@std@@UAE@XZ
_TEXT	SEGMENT PARA USE32 PUBLIC 'CODE'
_TEXT	ENDS
;	COMDAT ??_Gbad_alloc@std@@UAEPAXI@Z
_TEXT	SEGMENT PARA USE32 PUBLIC 'CODE'
_TEXT	ENDS
;	COMDAT _wmemchr
_TEXT	SEGMENT PARA USE32 PUBLIC 'CODE'
_TEXT	ENDS
;	COMDAT _wmemcmp
_TEXT	SEGMENT PARA USE32 PUBLIC 'CODE'
_TEXT	ENDS
;	COMDAT _wmemcpy
_TEXT	SEGMENT PARA USE32 PUBLIC 'CODE'
_TEXT	ENDS
;	COMDAT _wmemmove
_TEXT	SEGMENT PARA USE32 PUBLIC 'CODE'
_TEXT	ENDS
;	COMDAT _wmemset
_TEXT	SEGMENT PARA USE32 PUBLIC 'CODE'
_TEXT	ENDS
;	COMDAT ?copy@?$char_traits@G@std@@SAPAGPAGPBGI@Z
_TEXT	SEGMENT PARA USE32 PUBLIC 'CODE'
_TEXT	ENDS
;	COMDAT ?to_char_type@?$char_traits@G@std@@SAGABG@Z
_TEXT	SEGMENT PARA USE32 PUBLIC 'CODE'
_TEXT	ENDS
;	COMDAT ?to_int_type@?$char_traits@G@std@@SAGABG@Z
_TEXT	SEGMENT PARA USE32 PUBLIC 'CODE'
_TEXT	ENDS
;	COMDAT ?eq_int_type@?$char_traits@G@std@@SA_NABG0@Z
_TEXT	SEGMENT PARA USE32 PUBLIC 'CODE'
_TEXT	ENDS
;	COMDAT ?eof@?$char_traits@G@std@@SAGXZ
_TEXT	SEGMENT PARA USE32 PUBLIC 'CODE'
_TEXT	ENDS
;	COMDAT ?assign@?$char_traits@D@std@@SAXAADABD@Z
_TEXT	SEGMENT PARA USE32 PUBLIC 'CODE'
_TEXT	ENDS
;	COMDAT ?length@?$char_traits@D@std@@SAIPBD@Z
_TEXT	SEGMENT PARA USE32 PUBLIC 'CODE'
_TEXT	ENDS
;	COMDAT ?copy@?$char_traits@D@std@@SAPADPADPBDI@Z
_TEXT	SEGMENT PARA USE32 PUBLIC 'CODE'
_TEXT	ENDS
;	COMDAT ?move@?$char_traits@D@std@@SAPADPADPBDI@Z
_TEXT	SEGMENT PARA USE32 PUBLIC 'CODE'
_TEXT	ENDS
;	COMDAT ?to_char_type@?$char_traits@D@std@@SADABH@Z
_TEXT	SEGMENT PARA USE32 PUBLIC 'CODE'
_TEXT	ENDS
;	COMDAT ?to_int_type@?$char_traits@D@std@@SAHABD@Z
_TEXT	SEGMENT PARA USE32 PUBLIC 'CODE'
_TEXT	ENDS
;	COMDAT ?eq_int_type@?$char_traits@D@std@@SA_NABH0@Z
_TEXT	SEGMENT PARA USE32 PUBLIC 'CODE'
_TEXT	ENDS
;	COMDAT ?eof@?$char_traits@D@std@@SAHXZ
_TEXT	SEGMENT PARA USE32 PUBLIC 'CODE'
_TEXT	ENDS
;	COMDAT ??0logic_error@std@@QAE@ABV?$basic_string@DU?$char_traits@D@std@@V?$allocator@D@2@@1@@Z
_TEXT	SEGMENT PARA USE32 PUBLIC 'CODE'
_TEXT	ENDS
;	COMDAT ??1logic_error@std@@UAE@XZ
_TEXT	SEGMENT PARA USE32 PUBLIC 'CODE'
_TEXT	ENDS
;	COMDAT ?what@logic_error@std@@UBEPBDXZ
_TEXT	SEGMENT PARA USE32 PUBLIC 'CODE'
_TEXT	ENDS
;	COMDAT ??_Glogic_error@std@@UAEPAXI@Z
_TEXT	SEGMENT PARA USE32 PUBLIC 'CODE'
_TEXT	ENDS
;	COMDAT ??1domain_error@std@@UAE@XZ
_TEXT	SEGMENT PARA USE32 PUBLIC 'CODE'
_TEXT	ENDS
;	COMDAT ??_Gdomain_error@std@@UAEPAXI@Z
_TEXT	SEGMENT PARA USE32 PUBLIC 'CODE'
_TEXT	ENDS
;	COMDAT ??1invalid_argument@std@@UAE@XZ
_TEXT	SEGMENT PARA USE32 PUBLIC 'CODE'
_TEXT	ENDS
;	COMDAT ??_Ginvalid_argument@std@@UAEPAXI@Z
_TEXT	SEGMENT PARA USE32 PUBLIC 'CODE'
_TEXT	ENDS
;	COMDAT ??1length_error@std@@UAE@XZ
_TEXT	SEGMENT PARA USE32 PUBLIC 'CODE'
_TEXT	ENDS
;	COMDAT ??_Glength_error@std@@UAEPAXI@Z
_TEXT	SEGMENT PARA USE32 PUBLIC 'CODE'
_TEXT	ENDS
;	COMDAT ??1out_of_range@std@@UAE@XZ
_TEXT	SEGMENT PARA USE32 PUBLIC 'CODE'
_TEXT	ENDS
;	COMDAT ??_Gout_of_range@std@@UAEPAXI@Z
_TEXT	SEGMENT PARA USE32 PUBLIC 'CODE'
_TEXT	ENDS
;	COMDAT ??0runtime_error@std@@QAE@ABV?$basic_string@DU?$char_traits@D@std@@V?$allocator@D@2@@1@@Z
_TEXT	SEGMENT PARA USE32 PUBLIC 'CODE'
_TEXT	ENDS
;	COMDAT ??1runtime_error@std@@UAE@XZ
_TEXT	SEGMENT PARA USE32 PUBLIC 'CODE'
_TEXT	ENDS
;	COMDAT ?what@runtime_error@std@@UBEPBDXZ
_TEXT	SEGMENT PARA USE32 PUBLIC 'CODE'
_TEXT	ENDS
;	COMDAT ??_Gruntime_error@std@@UAEPAXI@Z
_TEXT	SEGMENT PARA USE32 PUBLIC 'CODE'
_TEXT	ENDS
;	COMDAT ??1overflow_error@std@@UAE@XZ
_TEXT	SEGMENT PARA USE32 PUBLIC 'CODE'
_TEXT	ENDS
;	COMDAT ??_Goverflow_error@std@@UAEPAXI@Z
_TEXT	SEGMENT PARA USE32 PUBLIC 'CODE'
_TEXT	ENDS
;	COMDAT ??1underflow_error@std@@UAE@XZ
_TEXT	SEGMENT PARA USE32 PUBLIC 'CODE'
_TEXT	ENDS
;	COMDAT ??_Gunderflow_error@std@@UAEPAXI@Z
_TEXT	SEGMENT PARA USE32 PUBLIC 'CODE'
_TEXT	ENDS
;	COMDAT ??1range_error@std@@UAE@XZ
_TEXT	SEGMENT PARA USE32 PUBLIC 'CODE'
_TEXT	ENDS
;	COMDAT ??_Grange_error@std@@UAEPAXI@Z
_TEXT	SEGMENT PARA USE32 PUBLIC 'CODE'
_TEXT	ENDS
;	COMDAT ??B_DebugHeapString@std@@QBE?AV?$basic_string@DU?$char_traits@D@std@@V?$allocator@D@2@@1@XZ
_TEXT	SEGMENT PARA USE32 PUBLIC 'CODE'
_TEXT	ENDS
;	COMDAT ??0_Timevec@std@@QAE@PAX@Z
_TEXT	SEGMENT PARA USE32 PUBLIC 'CODE'
_TEXT	ENDS
;	COMDAT ??1_Timevec@std@@QAE@XZ
_TEXT	SEGMENT PARA USE32 PUBLIC 'CODE'
_TEXT	ENDS
;	COMDAT ??4_Timevec@std@@QAEAAV01@ABV01@@Z
_TEXT	SEGMENT PARA USE32 PUBLIC 'CODE'
_TEXT	ENDS
;	COMDAT ?_Getctype@_Locinfo@std@@QBE?AU_Ctypevec@@XZ
_TEXT	SEGMENT PARA USE32 PUBLIC 'CODE'
_TEXT	ENDS
;	COMDAT ?_Getcvt@_Locinfo@std@@QBE?AU_Cvtvec@@XZ
_TEXT	SEGMENT PARA USE32 PUBLIC 'CODE'
_TEXT	ENDS
;	COMDAT ??Bid@locale@std@@QAEIXZ
_TEXT	SEGMENT PARA USE32 PUBLIC 'CODE'
_TEXT	ENDS
;	COMDAT ?_Incref@facet@locale@std@@QAEXXZ
_TEXT	SEGMENT PARA USE32 PUBLIC 'CODE'
_TEXT	ENDS
;	COMDAT ?_Decref@facet@locale@std@@QAEPAV123@XZ
_TEXT	SEGMENT PARA USE32 PUBLIC 'CODE'
_TEXT	ENDS
;	COMDAT ??1facet@locale@std@@UAE@XZ
_TEXT	SEGMENT PARA USE32 PUBLIC 'CODE'
_TEXT	ENDS
;	COMDAT ??0facet@locale@std@@IAE@I@Z
_TEXT	SEGMENT PARA USE32 PUBLIC 'CODE'
_TEXT	ENDS
;	COMDAT ??0locale@std@@QAE@ABV01@@Z
_TEXT	SEGMENT PARA USE32 PUBLIC 'CODE'
_TEXT	ENDS
;	COMDAT ??1locale@std@@QAE@XZ
_TEXT	SEGMENT PARA USE32 PUBLIC 'CODE'
_TEXT	ENDS
;	COMDAT ??_Gfacet@locale@std@@UAEPAXI@Z
_TEXT	SEGMENT PARA USE32 PUBLIC 'CODE'
_TEXT	ENDS
;	COMDAT ??0codecvt_base@std@@QAE@I@Z
_TEXT	SEGMENT PARA USE32 PUBLIC 'CODE'
_TEXT	ENDS
;	COMDAT ??1codecvt_base@std@@UAE@XZ
_TEXT	SEGMENT PARA USE32 PUBLIC 'CODE'
_TEXT	ENDS
;	COMDAT ?do_always_noconv@codecvt_base@std@@MBE_NXZ
_TEXT	SEGMENT PARA USE32 PUBLIC 'CODE'
_TEXT	ENDS
;	COMDAT ?do_max_length@codecvt_base@std@@MBEHXZ
_TEXT	SEGMENT PARA USE32 PUBLIC 'CODE'
_TEXT	ENDS
;	COMDAT ?do_encoding@codecvt_base@std@@MBEHXZ
_TEXT	SEGMENT PARA USE32 PUBLIC 'CODE'
_TEXT	ENDS
;	COMDAT ??_Gcodecvt_base@std@@UAEPAXI@Z
_TEXT	SEGMENT PARA USE32 PUBLIC 'CODE'
_TEXT	ENDS
;	COMDAT ??0?$codecvt@GDH@std@@QAE@I@Z
_TEXT	SEGMENT PARA USE32 PUBLIC 'CODE'
_TEXT	ENDS
;	COMDAT ??1?$codecvt@GDH@std@@MAE@XZ
_TEXT	SEGMENT PARA USE32 PUBLIC 'CODE'
_TEXT	ENDS
;	COMDAT ?_Init@?$codecvt@GDH@std@@IAEXABV_Locinfo@2@@Z
_TEXT	SEGMENT PARA USE32 PUBLIC 'CODE'
_TEXT	ENDS
;	COMDAT ?do_in@?$codecvt@GDH@std@@MBEHAAHPBD1AAPBDPAG3AAPAG@Z
_TEXT	SEGMENT PARA USE32 PUBLIC 'CODE'
_TEXT	ENDS
;	COMDAT ?do_out@?$codecvt@GDH@std@@MBEHAAHPBG1AAPBGPAD3AAPAD@Z
_TEXT	SEGMENT PARA USE32 PUBLIC 'CODE'
_TEXT	ENDS
;	COMDAT ?do_unshift@?$codecvt@GDH@std@@MBEHAAHPAD1AAPAD@Z
_TEXT	SEGMENT PARA USE32 PUBLIC 'CODE'
_TEXT	ENDS
;	COMDAT ?do_length@?$codecvt@GDH@std@@MBEHABHPBD1I@Z
_TEXT	SEGMENT PARA USE32 PUBLIC 'CODE'
_TEXT	ENDS
;	COMDAT ?do_always_noconv@?$codecvt@GDH@std@@MBE_NXZ
_TEXT	SEGMENT PARA USE32 PUBLIC 'CODE'
_TEXT	ENDS
;	COMDAT ?do_max_length@?$codecvt@GDH@std@@MBEHXZ
_TEXT	SEGMENT PARA USE32 PUBLIC 'CODE'
_TEXT	ENDS
;	COMDAT ?do_encoding@?$codecvt@GDH@std@@MBEHXZ
_TEXT	SEGMENT PARA USE32 PUBLIC 'CODE'
_TEXT	ENDS
;	COMDAT ??_G?$codecvt@GDH@std@@MAEPAXI@Z
_TEXT	SEGMENT PARA USE32 PUBLIC 'CODE'
_TEXT	ENDS
;	COMDAT ??0ctype_base@std@@QAE@I@Z
_TEXT	SEGMENT PARA USE32 PUBLIC 'CODE'
_TEXT	ENDS
;	COMDAT ??1ctype_base@std@@UAE@XZ
_TEXT	SEGMENT PARA USE32 PUBLIC 'CODE'
_TEXT	ENDS
;	COMDAT ??_Gctype_base@std@@UAEPAXI@Z
_TEXT	SEGMENT PARA USE32 PUBLIC 'CODE'
_TEXT	ENDS
;	COMDAT ?is@?$ctype@D@std@@QBE_NFD@Z
_TEXT	SEGMENT PARA USE32 PUBLIC 'CODE'
_TEXT	ENDS
;	COMDAT ??0?$ctype@D@std@@QAE@PBF_NI@Z
_TEXT	SEGMENT PARA USE32 PUBLIC 'CODE'
_TEXT	ENDS
;	COMDAT ?_Getcat@?$ctype@D@std@@SAIPAPBVfacet@locale@2@@Z
_TEXT	SEGMENT PARA USE32 PUBLIC 'CODE'
_TEXT	ENDS
;	COMDAT ??1?$ctype@D@std@@MAE@XZ
_TEXT	SEGMENT PARA USE32 PUBLIC 'CODE'
_TEXT	ENDS
;	COMDAT ?_Init@?$ctype@D@std@@IAEXABV_Locinfo@2@@Z
_TEXT	SEGMENT PARA USE32 PUBLIC 'CODE'
_TEXT	ENDS
;	COMDAT ?_Tidy@?$ctype@D@std@@IAEXXZ
_TEXT	SEGMENT PARA USE32 PUBLIC 'CODE'
_TEXT	ENDS
;	COMDAT ?do_tolower@?$ctype@D@std@@MBEDD@Z
_TEXT	SEGMENT PARA USE32 PUBLIC 'CODE'
_TEXT	ENDS
;	COMDAT ?do_tolower@?$ctype@D@std@@MBEPBDPADPBD@Z
_TEXT	SEGMENT PARA USE32 PUBLIC 'CODE'
_TEXT	ENDS
;	COMDAT ?do_toupper@?$ctype@D@std@@MBEDD@Z
_TEXT	SEGMENT PARA USE32 PUBLIC 'CODE'
_TEXT	ENDS
;	COMDAT ?do_toupper@?$ctype@D@std@@MBEPBDPADPBD@Z
_TEXT	SEGMENT PARA USE32 PUBLIC 'CODE'
_TEXT	ENDS
;	COMDAT ?do_widen@?$ctype@D@std@@MBEDD@Z
_TEXT	SEGMENT PARA USE32 PUBLIC 'CODE'
_TEXT	ENDS
;	COMDAT ?do_widen@?$ctype@D@std@@MBEPBDPBD0PAD@Z
_TEXT	SEGMENT PARA USE32 PUBLIC 'CODE'
_TEXT	ENDS
;	COMDAT ?do_narrow@?$ctype@D@std@@MBEDDD@Z
_TEXT	SEGMENT PARA USE32 PUBLIC 'CODE'
_TEXT	ENDS
;	COMDAT ?do_narrow@?$ctype@D@std@@MBEPBDPBD0DPAD@Z
_TEXT	SEGMENT PARA USE32 PUBLIC 'CODE'
_TEXT	ENDS
;	COMDAT ?table@?$ctype@D@std@@IBEPBFXZ
_TEXT	SEGMENT PARA USE32 PUBLIC 'CODE'
_TEXT	ENDS
;	COMDAT ?is@?$ctype@G@std@@QBE_NFG@Z
_TEXT	SEGMENT PARA USE32 PUBLIC 'CODE'
_TEXT	ENDS
;	COMDAT ??0?$ctype@G@std@@QAE@I@Z
_TEXT	SEGMENT PARA USE32 PUBLIC 'CODE'
_TEXT	ENDS
;	COMDAT ?_Getcat@?$ctype@G@std@@SAIPAPBVfacet@locale@2@@Z
_TEXT	SEGMENT PARA USE32 PUBLIC 'CODE'
_TEXT	ENDS
;	COMDAT ??1?$ctype@G@std@@MAE@XZ
_TEXT	SEGMENT PARA USE32 PUBLIC 'CODE'
_TEXT	ENDS
;	COMDAT ?_Init@?$ctype@G@std@@IAEXABV_Locinfo@2@@Z
_TEXT	SEGMENT PARA USE32 PUBLIC 'CODE'
_TEXT	ENDS
;	COMDAT ?do_is@?$ctype@G@std@@MBE_NFG@Z
_TEXT	SEGMENT PARA USE32 PUBLIC 'CODE'
_TEXT	ENDS
;	COMDAT ?do_is@?$ctype@G@std@@MBEPBGPBG0PAF@Z
_TEXT	SEGMENT PARA USE32 PUBLIC 'CODE'
_TEXT	ENDS
;	COMDAT ?do_scan_is@?$ctype@G@std@@MBEPBGFPBG0@Z
_TEXT	SEGMENT PARA USE32 PUBLIC 'CODE'
_TEXT	ENDS
;	COMDAT ?do_scan_not@?$ctype@G@std@@MBEPBGFPBG0@Z
_TEXT	SEGMENT PARA USE32 PUBLIC 'CODE'
_TEXT	ENDS
;	COMDAT ?do_tolower@?$ctype@G@std@@MBEGG@Z
_TEXT	SEGMENT PARA USE32 PUBLIC 'CODE'
_TEXT	ENDS
;	COMDAT ?do_tolower@?$ctype@G@std@@MBEPBGPAGPBG@Z
_TEXT	SEGMENT PARA USE32 PUBLIC 'CODE'
_TEXT	ENDS
;	COMDAT ?do_toupper@?$ctype@G@std@@MBEGG@Z
_TEXT	SEGMENT PARA USE32 PUBLIC 'CODE'
_TEXT	ENDS
;	COMDAT ?do_toupper@?$ctype@G@std@@MBEPBGPAGPBG@Z
_TEXT	SEGMENT PARA USE32 PUBLIC 'CODE'
_TEXT	ENDS
;	COMDAT ?_Dowiden@?$ctype@G@std@@IBEGD@Z
_TEXT	SEGMENT PARA USE32 PUBLIC 'CODE'
_TEXT	ENDS
;	COMDAT ?do_widen@?$ctype@G@std@@MBEGD@Z
_TEXT	SEGMENT PARA USE32 PUBLIC 'CODE'
_TEXT	ENDS
;	COMDAT ?do_widen@?$ctype@G@std@@MBEPBDPBD0PAG@Z
_TEXT	SEGMENT PARA USE32 PUBLIC 'CODE'
_TEXT	ENDS
;	COMDAT ?_Donarrow@?$ctype@G@std@@IBEDGD@Z
_TEXT	SEGMENT PARA USE32 PUBLIC 'CODE'
_TEXT	ENDS
;	COMDAT ?do_narrow@?$ctype@G@std@@MBEDGD@Z
_TEXT	SEGMENT PARA USE32 PUBLIC 'CODE'
_TEXT	ENDS
;	COMDAT ?do_narrow@?$ctype@G@std@@MBEPBGPBG0DPAD@Z
_TEXT	SEGMENT PARA USE32 PUBLIC 'CODE'
_TEXT	ENDS
;	COMDAT ??_G?$ctype@D@std@@MAEPAXI@Z
_TEXT	SEGMENT PARA USE32 PUBLIC 'CODE'
_TEXT	ENDS
;	COMDAT ??_G?$ctype@G@std@@MAEPAXI@Z
_TEXT	SEGMENT PARA USE32 PUBLIC 'CODE'
_TEXT	ENDS
;	COMDAT ??1failure@ios_base@std@@UAE@XZ
_TEXT	SEGMENT PARA USE32 PUBLIC 'CODE'
_TEXT	ENDS
;	COMDAT ?clear@ios_base@std@@QAEXH@Z
_TEXT	SEGMENT PARA USE32 PUBLIC 'CODE'
_TEXT	ENDS
;	COMDAT ?rdstate@ios_base@std@@QBEHXZ
_TEXT	SEGMENT PARA USE32 PUBLIC 'CODE'
_TEXT	ENDS
;	COMDAT ?setstate@ios_base@std@@QAEXH@Z
_TEXT	SEGMENT PARA USE32 PUBLIC 'CODE'
_TEXT	ENDS
;	COMDAT ?good@ios_base@std@@QBE_NXZ
_TEXT	SEGMENT PARA USE32 PUBLIC 'CODE'
_TEXT	ENDS
;	COMDAT ?eof@ios_base@std@@QBE_NXZ
_TEXT	SEGMENT PARA USE32 PUBLIC 'CODE'
_TEXT	ENDS
;	COMDAT ?fail@ios_base@std@@QBE_NXZ
_TEXT	SEGMENT PARA USE32 PUBLIC 'CODE'
_TEXT	ENDS
;	COMDAT ?exceptions@ios_base@std@@QAEXH@Z
_TEXT	SEGMENT PARA USE32 PUBLIC 'CODE'
_TEXT	ENDS
;	COMDAT ?flags@ios_base@std@@QBEHXZ
_TEXT	SEGMENT PARA USE32 PUBLIC 'CODE'
_TEXT	ENDS
;	COMDAT ?setf@ios_base@std@@QAEHH@Z
_TEXT	SEGMENT PARA USE32 PUBLIC 'CODE'
_TEXT	ENDS
;	COMDAT ?setf@ios_base@std@@QAEHHH@Z
_TEXT	SEGMENT PARA USE32 PUBLIC 'CODE'
_TEXT	ENDS
;	COMDAT ?unsetf@ios_base@std@@QAEXH@Z
_TEXT	SEGMENT PARA USE32 PUBLIC 'CODE'
_TEXT	ENDS
;	COMDAT ?width@ios_base@std@@QBEHXZ
_TEXT	SEGMENT PARA USE32 PUBLIC 'CODE'
_TEXT	ENDS
;	COMDAT ?width@ios_base@std@@QAEHH@Z
_TEXT	SEGMENT PARA USE32 PUBLIC 'CODE'
_TEXT	ENDS
;	COMDAT ?getloc@ios_base@std@@QBE?AVlocale@2@XZ
_TEXT	SEGMENT PARA USE32 PUBLIC 'CODE'
_TEXT	ENDS
;	COMDAT ??_Gfailure@ios_base@std@@UAEPAXI@Z
_TEXT	SEGMENT PARA USE32 PUBLIC 'CODE'
_TEXT	ENDS
;	COMDAT ??_Gios_base@std@@UAEPAXI@Z
_TEXT	SEGMENT PARA USE32 PUBLIC 'CODE'
_TEXT	ENDS
;	COMDAT ??1sentry@?$basic_istream@GU?$char_traits@G@std@@@std@@QAE@XZ
_TEXT	SEGMENT PARA USE32 PUBLIC 'CODE'
_TEXT	ENDS
;	COMDAT ??1sentry@?$basic_istream@DU?$char_traits@D@std@@@std@@QAE@XZ
_TEXT	SEGMENT PARA USE32 PUBLIC 'CODE'
_TEXT	ENDS
;	COMDAT ?_AtlInstallStringThunk@ATL@@YAXPAPAXPAX1@Z
_TEXT	SEGMENT PARA USE32 PUBLIC 'CODE'
_TEXT	ENDS
;	COMDAT ?GetEnvironmentVariableWFake@ATL@@YGKPBGPAGK@Z
_TEXT	SEGMENT PARA USE32 PUBLIC 'CODE'
_TEXT	ENDS
;	COMDAT ?GetEnvironmentVariableWThunk@ATL@@YGKPBGPAGK@Z
_TEXT	SEGMENT PARA USE32 PUBLIC 'CODE'
_TEXT	ENDS
;	COMDAT ?CompareStringWFake@ATL@@YGHKKPBGH0H@Z
_TEXT	SEGMENT PARA USE32 PUBLIC 'CODE'
_TEXT	ENDS
;	COMDAT ?CompareStringWThunk@ATL@@YGHKKPBGH0H@Z
_TEXT	SEGMENT PARA USE32 PUBLIC 'CODE'
_TEXT	ENDS
;	COMDAT ?GetStringTypeExWFake@ATL@@YGHKKPBGHPAG@Z
_TEXT	SEGMENT PARA USE32 PUBLIC 'CODE'
_TEXT	ENDS
;	COMDAT ?GetStringTypeExWThunk@ATL@@YGHKKPBGHPAG@Z
_TEXT	SEGMENT PARA USE32 PUBLIC 'CODE'
_TEXT	ENDS
;	COMDAT ?lstrcmpiWFake@ATL@@YGHPBG0@Z
_TEXT	SEGMENT PARA USE32 PUBLIC 'CODE'
_TEXT	ENDS
;	COMDAT ?lstrcmpiWThunk@ATL@@YGHPBG0@Z
_TEXT	SEGMENT PARA USE32 PUBLIC 'CODE'
_TEXT	ENDS
;	COMDAT ?CharLowerWFake@ATL@@YGPAGPAG@Z
_TEXT	SEGMENT PARA USE32 PUBLIC 'CODE'
_TEXT	ENDS
;	COMDAT ?CharLowerWThunk@ATL@@YGPAGPAG@Z
_TEXT	SEGMENT PARA USE32 PUBLIC 'CODE'
_TEXT	ENDS
;	COMDAT ?CharUpperWFake@ATL@@YGPAGPAG@Z
_TEXT	SEGMENT PARA USE32 PUBLIC 'CODE'
_TEXT	ENDS
;	COMDAT ?CharUpperWThunk@ATL@@YGPAGPAG@Z
_TEXT	SEGMENT PARA USE32 PUBLIC 'CODE'
_TEXT	ENDS
;	COMDAT ?_GetEnvironmentVariableW@?$ChTraitsCRT@G@ATL@@CGKPBGPAGK@Z
_TEXT	SEGMENT PARA USE32 PUBLIC 'CODE'
_TEXT	ENDS
;	COMDAT ?StringFindString@?$ChTraitsCRT@G@ATL@@SAPBGPBG0@Z
_TEXT	SEGMENT PARA USE32 PUBLIC 'CODE'
_TEXT	ENDS
;	COMDAT ??1CFixedStringMgr@ATL@@UAE@XZ
_TEXT	SEGMENT PARA USE32 PUBLIC 'CODE'
_TEXT	ENDS
;	COMDAT ?Allocate@CFixedStringMgr@ATL@@UAEPAUCStringData@2@HH@Z
_TEXT	SEGMENT PARA USE32 PUBLIC 'CODE'
_TEXT	ENDS
;	COMDAT ?Free@CFixedStringMgr@ATL@@UAEXPAUCStringData@2@@Z
_TEXT	SEGMENT PARA USE32 PUBLIC 'CODE'
_TEXT	ENDS
;	COMDAT ?Reallocate@CFixedStringMgr@ATL@@UAEPAUCStringData@2@PAU32@HH@Z
_TEXT	SEGMENT PARA USE32 PUBLIC 'CODE'
_TEXT	ENDS
;	COMDAT ?GetNilString@CFixedStringMgr@ATL@@UAEPAUCStringData@2@XZ
_TEXT	SEGMENT PARA USE32 PUBLIC 'CODE'
_TEXT	ENDS
;	COMDAT ?Clone@CFixedStringMgr@ATL@@UAEPAUIAtlStringMgr@2@XZ
_TEXT	SEGMENT PARA USE32 PUBLIC 'CODE'
_TEXT	ENDS
;	COMDAT ??_GCFixedStringMgr@ATL@@UAEPAXI@Z
_TEXT	SEGMENT PARA USE32 PUBLIC 'CODE'
_TEXT	ENDS
;	COMDAT ??1CFixedStringLog@ATL@@UAE@XZ
_TEXT	SEGMENT PARA USE32 PUBLIC 'CODE'
_TEXT	ENDS
;	COMDAT ?OnAllocateSpill@CFixedStringLog@ATL@@UAEXHHPBUCStringData@2@@Z
_TEXT	SEGMENT PARA USE32 PUBLIC 'CODE'
_TEXT	ENDS
;	COMDAT ?OnReallocateSpill@CFixedStringLog@ATL@@UAEXHHPBUCStringData@2@@Z
_TEXT	SEGMENT PARA USE32 PUBLIC 'CODE'
_TEXT	ENDS
;	COMDAT ??_GCFixedStringLog@ATL@@UAEPAXI@Z
_TEXT	SEGMENT PARA USE32 PUBLIC 'CODE'
_TEXT	ENDS
;	COMDAT ??0IFixedStringLog@ATL@@QAE@XZ
_TEXT	SEGMENT PARA USE32 PUBLIC 'CODE'
_TEXT	ENDS
;	COMDAT ??1CAtlStringMgr@ATL@@UAE@XZ
_TEXT	SEGMENT PARA USE32 PUBLIC 'CODE'
_TEXT	ENDS
;	COMDAT ?Allocate@CAtlStringMgr@ATL@@UAEPAUCStringData@2@HH@Z
_TEXT	SEGMENT PARA USE32 PUBLIC 'CODE'
_TEXT	ENDS
;	COMDAT ?Free@CAtlStringMgr@ATL@@UAEXPAUCStringData@2@@Z
_TEXT	SEGMENT PARA USE32 PUBLIC 'CODE'
_TEXT	ENDS
;	COMDAT ?Reallocate@CAtlStringMgr@ATL@@UAEPAUCStringData@2@PAU32@HH@Z
_TEXT	SEGMENT PARA USE32 PUBLIC 'CODE'
_TEXT	ENDS
;	COMDAT ?GetNilString@CAtlStringMgr@ATL@@UAEPAUCStringData@2@XZ
_TEXT	SEGMENT PARA USE32 PUBLIC 'CODE'
_TEXT	ENDS
;	COMDAT ?Clone@CAtlStringMgr@ATL@@UAEPAUIAtlStringMgr@2@XZ
_TEXT	SEGMENT PARA USE32 PUBLIC 'CODE'
_TEXT	ENDS
;	COMDAT ??_GCAtlStringMgr@ATL@@UAEPAXI@Z
_TEXT	SEGMENT PARA USE32 PUBLIC 'CODE'
_TEXT	ENDS
;	COMDAT ?CompareStringW@?$ChTraitsOS@G@ATL@@KGHKKPBGH0H@Z
_TEXT	SEGMENT PARA USE32 PUBLIC 'CODE'
_TEXT	ENDS
;	COMDAT ?GetStringTypeExW@?$ChTraitsOS@G@ATL@@KGHKKPBGHPAG@Z
_TEXT	SEGMENT PARA USE32 PUBLIC 'CODE'
_TEXT	ENDS
;	COMDAT ?lstrcmpiW@?$ChTraitsOS@G@ATL@@KGHPBG0@Z
_TEXT	SEGMENT PARA USE32 PUBLIC 'CODE'
_TEXT	ENDS
;	COMDAT ?CharLowerW@?$ChTraitsOS@G@ATL@@KGPAGPAG@Z
_TEXT	SEGMENT PARA USE32 PUBLIC 'CODE'
_TEXT	ENDS
;	COMDAT ?CharUpperW@?$ChTraitsOS@G@ATL@@KGPAGPAG@Z
_TEXT	SEGMENT PARA USE32 PUBLIC 'CODE'
_TEXT	ENDS
;	COMDAT ?strchr@?$ChTraitsOS@G@ATL@@SAPBGPBGG@Z
_TEXT	SEGMENT PARA USE32 PUBLIC 'CODE'
_TEXT	ENDS
;	COMDAT ?strrchr@?$ChTraitsOS@G@ATL@@SAPBGPBGG@Z
_TEXT	SEGMENT PARA USE32 PUBLIC 'CODE'
_TEXT	ENDS
;	COMDAT ?_strrev@?$ChTraitsOS@G@ATL@@SAPAGPAG@Z
_TEXT	SEGMENT PARA USE32 PUBLIC 'CODE'
_TEXT	ENDS
;	COMDAT ?strstr@?$ChTraitsOS@G@ATL@@SAPBGPBG0@Z
_TEXT	SEGMENT PARA USE32 PUBLIC 'CODE'
_TEXT	ENDS
;	COMDAT ?strspn@?$ChTraitsOS@G@ATL@@SAHPBG0@Z
_TEXT	SEGMENT PARA USE32 PUBLIC 'CODE'
_TEXT	ENDS
;	COMDAT ?strcspn@?$ChTraitsOS@G@ATL@@SAHPBG0@Z
_TEXT	SEGMENT PARA USE32 PUBLIC 'CODE'
_TEXT	ENDS
;	COMDAT ?strpbrk@?$ChTraitsOS@G@ATL@@SAPBGPBG0@Z
_TEXT	SEGMENT PARA USE32 PUBLIC 'CODE'
_TEXT	ENDS
;	COMDAT ?StringFindString@?$ChTraitsOS@G@ATL@@SAPBGPBG0@Z
_TEXT	SEGMENT PARA USE32 PUBLIC 'CODE'
_TEXT	ENDS
;	COMDAT ?Format@CTimeSpan@ATL@@QBE?AV?$CStringT@DV?$StrTraitATL@DV?$ChTraitsCRT@D@ATL@@@ATL@@@2@PBD@Z
_TEXT	SEGMENT PARA USE32 PUBLIC 'CODE'
_TEXT	ENDS
;	COMDAT ?Format@CTime@ATL@@QBE?AV?$CStringT@DV?$StrTraitATL@DV?$ChTraitsCRT@D@ATL@@@ATL@@@2@PBD@Z
_TEXT	SEGMENT PARA USE32 PUBLIC 'CODE'
_TEXT	ENDS
;	COMDAT ?FormatGmt@CTime@ATL@@QBE?AV?$CStringT@DV?$StrTraitATL@DV?$ChTraitsCRT@D@ATL@@@ATL@@@2@PBD@Z
_TEXT	SEGMENT PARA USE32 PUBLIC 'CODE'
_TEXT	ENDS
;	COMDAT ?ProcessWindowMessage@CShowSelectCert@@UAEHPAUHWND__@@IIJAAJK@Z
_TEXT	SEGMENT PARA USE32 PUBLIC 'CODE'
_TEXT	ENDS
;	COMDAT ?OnInitDialog@CShowSelectCert@@QAEJIIJAAH@Z
_TEXT	SEGMENT PARA USE32 PUBLIC 'CODE'
_TEXT	ENDS
;	COMDAT ?OnOK@CShowSelectCert@@QAEJGGPAUHWND__@@AAH@Z
_TEXT	SEGMENT PARA USE32 PUBLIC 'CODE'
_TEXT	ENDS
;	COMDAT ?OnCancel@CShowSelectCert@@QAEJGGPAUHWND__@@AAH@Z
_TEXT	SEGMENT PARA USE32 PUBLIC 'CODE'
_TEXT	ENDS
;	COMDAT ?CreateHeader@CShowSelectCert@@QAEXXZ
_TEXT	SEGMENT PARA USE32 PUBLIC 'CODE'
_TEXT	ENDS
;	COMDAT ?SetCell@CShowSelectCert@@QAEXPAGHH@Z
_TEXT	SEGMENT PARA USE32 PUBLIC 'CODE'
_TEXT	ENDS
;	COMDAT ?OnClickList@CShowSelectCert@@QAEJHPAUtagNMHDR@@AAH@Z
_TEXT	SEGMENT PARA USE32 PUBLIC 'CODE'
_TEXT	ENDS
;	COMDAT ?setSelection@CShowSelectCert@@QAEXXZ
_TEXT	SEGMENT PARA USE32 PUBLIC 'CODE'
_TEXT	ENDS
;	COMDAT ??_GCShowSelectCert@@UAEPAXI@Z
_TEXT	SEGMENT PARA USE32 PUBLIC 'CODE'
_TEXT	ENDS
;	COMDAT ??1?$CAxDialogImpl@VCShowSelectCert@@VCWindow@ATL@@@ATL@@UAE@XZ
_TEXT	SEGMENT PARA USE32 PUBLIC 'CODE'
_TEXT	ENDS
;	COMDAT ?InternalFinalConstructAddRef@CSignature@@QAEXXZ
_TEXT	SEGMENT PARA USE32 PUBLIC 'CODE'
_TEXT	ENDS
;	COMDAT ?InternalFinalConstructRelease@CSignature@@QAEXXZ
_TEXT	SEGMENT PARA USE32 PUBLIC 'CODE'
_TEXT	ENDS
;	COMDAT ?_GetRawUnknown@CSignature@@QAEPAUIUnknown@@XZ
_TEXT	SEGMENT PARA USE32 PUBLIC 'CODE'
_TEXT	ENDS
;	COMDAT ?_InternalQueryInterface@CSignature@@QAEJABU_GUID@@PAPAX@Z
_TEXT	SEGMENT PARA USE32 PUBLIC 'CODE'
_TEXT	ENDS
;	COMDAT ?_GetEntries@CSignature@@SGPBU_ATL_INTMAP_ENTRY@ATL@@XZ
_TEXT	SEGMENT PARA USE32 PUBLIC 'CODE'
_TEXT	ENDS
;	COMDAT ?UpdateRegistry@CSignature@@SGJH@Z
_TEXT	SEGMENT PARA USE32 PUBLIC 'CODE'
_TEXT	ENDS
;	COMDAT ?GetCategoryMap@CSignature@@SAPBU_ATL_CATMAP_ENTRY@ATL@@XZ
_TEXT	SEGMENT PARA USE32 PUBLIC 'CODE'
_TEXT	ENDS
;	COMDAT ?ANSIToUnicode@CSignature@@QAEPAGPBD@Z
_TEXT	SEGMENT PARA USE32 PUBLIC 'CODE'
_TEXT	ENDS
;	COMDAT ?what@SigException@@UBEPBDXZ
_TEXT	SEGMENT PARA USE32 PUBLIC 'CODE'
_TEXT	ENDS
;	COMDAT ??_GSigException@@UAEPAXI@Z
_TEXT	SEGMENT PARA USE32 PUBLIC 'CODE'
_TEXT	ENDS
;	COMDAT ??1SigException@@UAE@XZ
_TEXT	SEGMENT PARA USE32 PUBLIC 'CODE'
_TEXT	ENDS
;	COMDAT _$E4
text$yc	SEGMENT PARA USE32 PUBLIC 'CODE'
text$yc	ENDS
;	COMDAT _$E5
text$yd	SEGMENT PARA USE32 PUBLIC 'CODE'
text$yd	ENDS
;	COMDAT ??B?$CComPtrBase@UITypeInfo2@@@ATL@@QBEPAUITypeInfo2@@XZ
_TEXT	SEGMENT PARA USE32 PUBLIC 'CODE'
_TEXT	ENDS
;	COMDAT ??B?$CSimpleStringT@D$0A@@ATL@@QBEPBDXZ
_TEXT	SEGMENT PARA USE32 PUBLIC 'CODE'
_TEXT	ENDS
;	COMDAT ?Preallocate@?$CSimpleStringT@D$0A@@ATL@@QAEXH@Z
_TEXT	SEGMENT PARA USE32 PUBLIC 'CODE'
_TEXT	ENDS
;	COMDAT ??0?$CComObject@VCAxFrameWindow@ATL@@@ATL@@QAE@PAX@Z
_TEXT	SEGMENT PARA USE32 PUBLIC 'CODE'
_TEXT	ENDS
;	COMDAT ??0?$CComObject@VCAxUIWindow@ATL@@@ATL@@QAE@PAX@Z
_TEXT	SEGMENT PARA USE32 PUBLIC 'CODE'
_TEXT	ENDS
;	COMDAT ?copy@?$_CopyInterface@UIUnknown@@@ATL@@SAJPAPAUIUnknown@@0@Z
_TEXT	SEGMENT PARA USE32 PUBLIC 'CODE'
_TEXT	ENDS
;	COMDAT ?init@?$_CopyInterface@UIUnknown@@@ATL@@SAXPAPAUIUnknown@@@Z
_TEXT	SEGMENT PARA USE32 PUBLIC 'CODE'
_TEXT	ENDS
;	COMDAT ?destroy@?$_CopyInterface@UIUnknown@@@ATL@@SAXPAPAUIUnknown@@@Z
_TEXT	SEGMENT PARA USE32 PUBLIC 'CODE'
_TEXT	ENDS
;	COMDAT ??0?$_com_ptr_t@V?$_com_IIID@UIUnknown@@$1?_GUID_00000000_0000_0000_c000_000000000046@@3U__s_GUID@@B@@@@QAE@PAUIUnknown@@_N@Z
_TEXT	SEGMENT PARA USE32 PUBLIC 'CODE'
_TEXT	ENDS
;	COMDAT ??1?$_com_ptr_t@V?$_com_IIID@UIUnknown@@$1?_GUID_00000000_0000_0000_c000_000000000046@@3U__s_GUID@@B@@@@QAE@XZ
_TEXT	SEGMENT PARA USE32 PUBLIC 'CODE'
_TEXT	ENDS
;	COMDAT ??0?$_com_ptr_t@V?$_com_IIID@UProperty@@$1?_GUID_00000503_0000_0010_8000_00aa006d2ea4@@3U__s_GUID@@B@@@@QAE@PAUProperty@@_N@Z
_TEXT	SEGMENT PARA USE32 PUBLIC 'CODE'
_TEXT	ENDS
;	COMDAT ??1?$_com_ptr_t@V?$_com_IIID@UProperty@@$1?_GUID_00000503_0000_0010_8000_00aa006d2ea4@@3U__s_GUID@@B@@@@QAE@XZ
_TEXT	SEGMENT PARA USE32 PUBLIC 'CODE'
_TEXT	ENDS
;	COMDAT ??0?$_com_ptr_t@V?$_com_IIID@UProperties@@$1?_GUID_00000504_0000_0010_8000_00aa006d2ea4@@3U__s_GUID@@B@@@@QAE@PAUProperties@@_N@Z
_TEXT	SEGMENT PARA USE32 PUBLIC 'CODE'
_TEXT	ENDS
;	COMDAT ??1?$_com_ptr_t@V?$_com_IIID@UProperties@@$1?_GUID_00000504_0000_0010_8000_00aa006d2ea4@@3U__s_GUID@@B@@@@QAE@XZ
_TEXT	SEGMENT PARA USE32 PUBLIC 'CODE'
_TEXT	ENDS
;	COMDAT ??0?$_com_ptr_t@V?$_com_IIID@UError@@$1?_GUID_00000500_0000_0010_8000_00aa006d2ea4@@3U__s_GUID@@B@@@@QAE@PAUError@@_N@Z
_TEXT	SEGMENT PARA USE32 PUBLIC 'CODE'
_TEXT	ENDS
;	COMDAT ??1?$_com_ptr_t@V?$_com_IIID@UError@@$1?_GUID_00000500_0000_0010_8000_00aa006d2ea4@@3U__s_GUID@@B@@@@QAE@XZ
_TEXT	SEGMENT PARA USE32 PUBLIC 'CODE'
_TEXT	ENDS
;	COMDAT ??0?$_com_ptr_t@V?$_com_IIID@UField@@$1?_GUID_00000569_0000_0010_8000_00aa006d2ea4@@3U__s_GUID@@B@@@@QAE@PAUField@@_N@Z
_TEXT	SEGMENT PARA USE32 PUBLIC 'CODE'
_TEXT	ENDS
;	COMDAT ??1?$_com_ptr_t@V?$_com_IIID@UField@@$1?_GUID_00000569_0000_0010_8000_00aa006d2ea4@@3U__s_GUID@@B@@@@QAE@XZ
_TEXT	SEGMENT PARA USE32 PUBLIC 'CODE'
_TEXT	ENDS
;	COMDAT ??0?$_com_ptr_t@V?$_com_IIID@U_Parameter@@$1?_GUID_0000050c_0000_0010_8000_00aa006d2ea4@@3U__s_GUID@@B@@@@QAE@PAU_Parameter@@_N@Z
_TEXT	SEGMENT PARA USE32 PUBLIC 'CODE'
_TEXT	ENDS
;	COMDAT ??1?$_com_ptr_t@V?$_com_IIID@U_Parameter@@$1?_GUID_0000050c_0000_0010_8000_00aa006d2ea4@@3U__s_GUID@@B@@@@QAE@XZ
_TEXT	SEGMENT PARA USE32 PUBLIC 'CODE'
_TEXT	ENDS
;	COMDAT ??0?$_com_ptr_t@V?$_com_IIID@U_Connection@@$1?_GUID_00000550_0000_0010_8000_00aa006d2ea4@@3U__s_GUID@@B@@@@QAE@PAU_Connection@@_N@Z
_TEXT	SEGMENT PARA USE32 PUBLIC 'CODE'
_TEXT	ENDS
;	COMDAT ??1?$_com_ptr_t@V?$_com_IIID@U_Connection@@$1?_GUID_00000550_0000_0010_8000_00aa006d2ea4@@3U__s_GUID@@B@@@@QAE@XZ
_TEXT	SEGMENT PARA USE32 PUBLIC 'CODE'
_TEXT	ENDS
;	COMDAT ??0?$_com_ptr_t@V?$_com_IIID@U_Recordset@@$1?_GUID_00000556_0000_0010_8000_00aa006d2ea4@@3U__s_GUID@@B@@@@QAE@PAU_Recordset@@_N@Z
_TEXT	SEGMENT PARA USE32 PUBLIC 'CODE'
_TEXT	ENDS
;	COMDAT ??1?$_com_ptr_t@V?$_com_IIID@U_Recordset@@$1?_GUID_00000556_0000_0010_8000_00aa006d2ea4@@3U__s_GUID@@B@@@@QAE@XZ
_TEXT	SEGMENT PARA USE32 PUBLIC 'CODE'
_TEXT	ENDS
;	COMDAT ??0?$_com_ptr_t@V?$_com_IIID@UParameters@@$1?_GUID_0000050d_0000_0010_8000_00aa006d2ea4@@3U__s_GUID@@B@@@@QAE@PAUParameters@@_N@Z
_TEXT	SEGMENT PARA USE32 PUBLIC 'CODE'
_TEXT	ENDS
;	COMDAT ??1?$_com_ptr_t@V?$_com_IIID@UParameters@@$1?_GUID_0000050d_0000_0010_8000_00aa006d2ea4@@3U__s_GUID@@B@@@@QAE@XZ
_TEXT	SEGMENT PARA USE32 PUBLIC 'CODE'
_TEXT	ENDS
;	COMDAT ??0?$_com_ptr_t@V?$_com_IIID@UErrors@@$1?_GUID_00000501_0000_0010_8000_00aa006d2ea4@@3U__s_GUID@@B@@@@QAE@PAUErrors@@_N@Z
_TEXT	SEGMENT PARA USE32 PUBLIC 'CODE'
_TEXT	ENDS
;	COMDAT ??1?$_com_ptr_t@V?$_com_IIID@UErrors@@$1?_GUID_00000501_0000_0010_8000_00aa006d2ea4@@3U__s_GUID@@B@@@@QAE@XZ
_TEXT	SEGMENT PARA USE32 PUBLIC 'CODE'
_TEXT	ENDS
;	COMDAT ??0?$_com_ptr_t@V?$_com_IIID@UFields@@$1?_GUID_00000564_0000_0010_8000_00aa006d2ea4@@3U__s_GUID@@B@@@@QAE@PAUFields@@_N@Z
_TEXT	SEGMENT PARA USE32 PUBLIC 'CODE'
_TEXT	ENDS
;	COMDAT ??1?$_com_ptr_t@V?$_com_IIID@UFields@@$1?_GUID_00000564_0000_0010_8000_00aa006d2ea4@@3U__s_GUID@@B@@@@QAE@XZ
_TEXT	SEGMENT PARA USE32 PUBLIC 'CODE'
_TEXT	ENDS
;	COMDAT ??0?$_com_ptr_t@V?$_com_IIID@UIDispatch@@$1?_GUID_00020400_0000_0000_c000_000000000046@@3U__s_GUID@@B@@@@QAE@PAUIDispatch@@_N@Z
_TEXT	SEGMENT PARA USE32 PUBLIC 'CODE'
_TEXT	ENDS
;	COMDAT ??1?$_com_ptr_t@V?$_com_IIID@UIDispatch@@$1?_GUID_00020400_0000_0000_c000_000000000046@@3U__s_GUID@@B@@@@QAE@XZ
_TEXT	SEGMENT PARA USE32 PUBLIC 'CODE'
_TEXT	ENDS
;	COMDAT ??0?$basic_string@DU?$char_traits@D@std@@V?$allocator@D@2@@std@@QAE@ABV01@@Z
_TEXT	SEGMENT PARA USE32 PUBLIC 'CODE'
_TEXT	ENDS
;	COMDAT ??0?$basic_string@DU?$char_traits@D@std@@V?$allocator@D@2@@std@@QAE@PBD@Z
_TEXT	SEGMENT PARA USE32 PUBLIC 'CODE'
_TEXT	ENDS
;	COMDAT ??1?$basic_string@DU?$char_traits@D@std@@V?$allocator@D@2@@std@@QAE@XZ
_TEXT	SEGMENT PARA USE32 PUBLIC 'CODE'
_TEXT	ENDS
;	COMDAT ??4?$basic_string@DU?$char_traits@D@std@@V?$allocator@D@2@@std@@QAEAAV01@PBD@Z
_TEXT	SEGMENT PARA USE32 PUBLIC 'CODE'
_TEXT	ENDS
;	COMDAT ?c_str@?$basic_string@DU?$char_traits@D@std@@V?$allocator@D@2@@std@@QBEPBDXZ
_TEXT	SEGMENT PARA USE32 PUBLIC 'CODE'
_TEXT	ENDS
;	COMDAT ?size@?$basic_string@DU?$char_traits@D@std@@V?$allocator@D@2@@std@@QBEIXZ
_TEXT	SEGMENT PARA USE32 PUBLIC 'CODE'
_TEXT	ENDS
;	COMDAT ??0?$basic_string@DU?$char_traits@D@std@@V?$_DebugHeapAllocator@D@2@@std@@QAE@XZ
_TEXT	SEGMENT PARA USE32 PUBLIC 'CODE'
_TEXT	ENDS
;	COMDAT ??0?$basic_string@DU?$char_traits@D@std@@V?$_DebugHeapAllocator@D@2@@std@@QAE@ABV01@@Z
_TEXT	SEGMENT PARA USE32 PUBLIC 'CODE'
_TEXT	ENDS
;	COMDAT ??0?$basic_string@DU?$char_traits@D@std@@V?$_DebugHeapAllocator@D@2@@std@@QAE@PBD@Z
_TEXT	SEGMENT PARA USE32 PUBLIC 'CODE'
_TEXT	ENDS
;	COMDAT ??1?$basic_string@DU?$char_traits@D@std@@V?$_DebugHeapAllocator@D@2@@std@@QAE@XZ
_TEXT	SEGMENT PARA USE32 PUBLIC 'CODE'
_TEXT	ENDS
;	COMDAT ?c_str@?$basic_string@DU?$char_traits@D@std@@V?$_DebugHeapAllocator@D@2@@std@@QBEPBDXZ
_TEXT	SEGMENT PARA USE32 PUBLIC 'CODE'
_TEXT	ENDS
;	COMDAT ??1?$basic_ostream@GU?$char_traits@G@std@@@std@@UAE@XZ
_TEXT	SEGMENT PARA USE32 PUBLIC 'CODE'
_TEXT	ENDS
;	COMDAT ?put@?$basic_ostream@GU?$char_traits@G@std@@@std@@QAEAAV12@G@Z
_TEXT	SEGMENT PARA USE32 PUBLIC 'CODE'
_TEXT	ENDS
;	COMDAT ?flush@?$basic_ostream@GU?$char_traits@G@std@@@std@@QAEAAV12@XZ
_TEXT	SEGMENT PARA USE32 PUBLIC 'CODE'
_TEXT	ENDS
;	COMDAT ??1?$basic_ios@GU?$char_traits@G@std@@@std@@UAE@XZ
_TEXT	SEGMENT PARA USE32 PUBLIC 'CODE'
_TEXT	ENDS
;	COMDAT ?setstate@?$basic_ios@GU?$char_traits@G@std@@@std@@QAEXH_N@Z
_TEXT	SEGMENT PARA USE32 PUBLIC 'CODE'
_TEXT	ENDS
;	COMDAT ?rdbuf@?$basic_ios@GU?$char_traits@G@std@@@std@@QBEPAV?$basic_streambuf@GU?$char_traits@G@std@@@2@XZ
_TEXT	SEGMENT PARA USE32 PUBLIC 'CODE'
_TEXT	ENDS
;	COMDAT ?fill@?$basic_ios@GU?$char_traits@G@std@@@std@@QBEGXZ
_TEXT	SEGMENT PARA USE32 PUBLIC 'CODE'
_TEXT	ENDS
;	COMDAT ??0sentry@?$basic_ostream@GU?$char_traits@G@std@@@std@@QAE@AAV12@@Z
_TEXT	SEGMENT PARA USE32 PUBLIC 'CODE'
_TEXT	ENDS
;	COMDAT ??1sentry@?$basic_ostream@GU?$char_traits@G@std@@@std@@QAE@XZ
_TEXT	SEGMENT PARA USE32 PUBLIC 'CODE'
_TEXT	ENDS
;	COMDAT ??Bsentry@?$basic_ostream@GU?$char_traits@G@std@@@std@@QBE_NXZ
_TEXT	SEGMENT PARA USE32 PUBLIC 'CODE'
_TEXT	ENDS
;	COMDAT ??1?$basic_streambuf@GU?$char_traits@G@std@@@std@@UAE@XZ
_TEXT	SEGMENT PARA USE32 PUBLIC 'CODE'
_TEXT	ENDS
;	COMDAT ?sbumpc@?$basic_streambuf@GU?$char_traits@G@std@@@std@@QAEGXZ
_TEXT	SEGMENT PARA USE32 PUBLIC 'CODE'
_TEXT	ENDS
;	COMDAT ?sgetc@?$basic_streambuf@GU?$char_traits@G@std@@@std@@QAEGXZ
_TEXT	SEGMENT PARA USE32 PUBLIC 'CODE'
_TEXT	ENDS
;	COMDAT ?snextc@?$basic_streambuf@GU?$char_traits@G@std@@@std@@QAEGXZ
_TEXT	SEGMENT PARA USE32 PUBLIC 'CODE'
_TEXT	ENDS
;	COMDAT ?sputc@?$basic_streambuf@GU?$char_traits@G@std@@@std@@QAEGG@Z
_TEXT	SEGMENT PARA USE32 PUBLIC 'CODE'
_TEXT	ENDS
;	COMDAT ?overflow@?$basic_streambuf@GU?$char_traits@G@std@@@std@@MAEGG@Z
_TEXT	SEGMENT PARA USE32 PUBLIC 'CODE'
_TEXT	ENDS
;	COMDAT ?pbackfail@?$basic_streambuf@GU?$char_traits@G@std@@@std@@MAEGG@Z
_TEXT	SEGMENT PARA USE32 PUBLIC 'CODE'
_TEXT	ENDS
;	COMDAT ?showmanyc@?$basic_streambuf@GU?$char_traits@G@std@@@std@@MAEHXZ
_TEXT	SEGMENT PARA USE32 PUBLIC 'CODE'
_TEXT	ENDS
;	COMDAT ?underflow@?$basic_streambuf@GU?$char_traits@G@std@@@std@@MAEGXZ
_TEXT	SEGMENT PARA USE32 PUBLIC 'CODE'
_TEXT	ENDS
;	COMDAT ?uflow@?$basic_streambuf@GU?$char_traits@G@std@@@std@@MAEGXZ
_TEXT	SEGMENT PARA USE32 PUBLIC 'CODE'
_TEXT	ENDS
;	COMDAT ?xsgetn@?$basic_streambuf@GU?$char_traits@G@std@@@std@@MAEHPAGH@Z
_TEXT	SEGMENT PARA USE32 PUBLIC 'CODE'
_TEXT	ENDS
;	COMDAT ?xsputn@?$basic_streambuf@GU?$char_traits@G@std@@@std@@MAEHPBGH@Z
_TEXT	SEGMENT PARA USE32 PUBLIC 'CODE'
_TEXT	ENDS
;	COMDAT ?seekoff@?$basic_streambuf@GU?$char_traits@G@std@@@std@@MAE?AV?$fpos@H@2@JHH@Z
_TEXT	SEGMENT PARA USE32 PUBLIC 'CODE'
_TEXT	ENDS
;	COMDAT ?seekpos@?$basic_streambuf@GU?$char_traits@G@std@@@std@@MAE?AV?$fpos@H@2@V32@H@Z
_TEXT	SEGMENT PARA USE32 PUBLIC 'CODE'
_TEXT	ENDS
;	COMDAT ?setbuf@?$basic_streambuf@GU?$char_traits@G@std@@@std@@MAEPAV12@PAGH@Z
_TEXT	SEGMENT PARA USE32 PUBLIC 'CODE'
_TEXT	ENDS
;	COMDAT ?sync@?$basic_streambuf@GU?$char_traits@G@std@@@std@@MAEHXZ
_TEXT	SEGMENT PARA USE32 PUBLIC 'CODE'
_TEXT	ENDS
;	COMDAT ?imbue@?$basic_streambuf@GU?$char_traits@G@std@@@std@@MAEXABVlocale@2@@Z
_TEXT	SEGMENT PARA USE32 PUBLIC 'CODE'
_TEXT	ENDS
;	COMDAT ??1?$basic_ostream@DU?$char_traits@D@std@@@std@@UAE@XZ
_TEXT	SEGMENT PARA USE32 PUBLIC 'CODE'
_TEXT	ENDS
;	COMDAT ?put@?$basic_ostream@DU?$char_traits@D@std@@@std@@QAEAAV12@D@Z
_TEXT	SEGMENT PARA USE32 PUBLIC 'CODE'
_TEXT	ENDS
;	COMDAT ?flush@?$basic_ostream@DU?$char_traits@D@std@@@std@@QAEAAV12@XZ
_TEXT	SEGMENT PARA USE32 PUBLIC 'CODE'
_TEXT	ENDS
;	COMDAT ??1?$basic_ios@DU?$char_traits@D@std@@@std@@UAE@XZ
_TEXT	SEGMENT PARA USE32 PUBLIC 'CODE'
_TEXT	ENDS
;	COMDAT ?setstate@?$basic_ios@DU?$char_traits@D@std@@@std@@QAEXH_N@Z
_TEXT	SEGMENT PARA USE32 PUBLIC 'CODE'
_TEXT	ENDS
;	COMDAT ?rdbuf@?$basic_ios@DU?$char_traits@D@std@@@std@@QBEPAV?$basic_streambuf@DU?$char_traits@D@std@@@2@XZ
_TEXT	SEGMENT PARA USE32 PUBLIC 'CODE'
_TEXT	ENDS
;	COMDAT ??1?$basic_istream@GU?$char_traits@G@std@@@std@@UAE@XZ
_TEXT	SEGMENT PARA USE32 PUBLIC 'CODE'
_TEXT	ENDS
;	COMDAT ??0sentry@?$basic_istream@GU?$char_traits@G@std@@@std@@QAE@AAV12@_N@Z
_TEXT	SEGMENT PARA USE32 PUBLIC 'CODE'
_TEXT	ENDS
;	COMDAT ??Bsentry@?$basic_istream@GU?$char_traits@G@std@@@std@@QBE_NXZ
_TEXT	SEGMENT PARA USE32 PUBLIC 'CODE'
_TEXT	ENDS
;	COMDAT ??1_Sentry_base@?$basic_istream@GU?$char_traits@G@std@@@std@@QAE@XZ
_TEXT	SEGMENT PARA USE32 PUBLIC 'CODE'
_TEXT	ENDS
;	COMDAT ??1?$basic_istream@DU?$char_traits@D@std@@@std@@UAE@XZ
_TEXT	SEGMENT PARA USE32 PUBLIC 'CODE'
_TEXT	ENDS
;	COMDAT ??0sentry@?$basic_istream@DU?$char_traits@D@std@@@std@@QAE@AAV12@_N@Z
_TEXT	SEGMENT PARA USE32 PUBLIC 'CODE'
_TEXT	ENDS
;	COMDAT ??Bsentry@?$basic_istream@DU?$char_traits@D@std@@@std@@QBE_NXZ
_TEXT	SEGMENT PARA USE32 PUBLIC 'CODE'
_TEXT	ENDS
;	COMDAT ??1_Sentry_base@?$basic_istream@DU?$char_traits@D@std@@@std@@QAE@XZ
_TEXT	SEGMENT PARA USE32 PUBLIC 'CODE'
_TEXT	ENDS
;	COMDAT ??1?$basic_streambuf@DU?$char_traits@D@std@@@std@@UAE@XZ
_TEXT	SEGMENT PARA USE32 PUBLIC 'CODE'
_TEXT	ENDS
;	COMDAT ?sgetc@?$basic_streambuf@DU?$char_traits@D@std@@@std@@QAEHXZ
_TEXT	SEGMENT PARA USE32 PUBLIC 'CODE'
_TEXT	ENDS
;	COMDAT ?snextc@?$basic_streambuf@DU?$char_traits@D@std@@@std@@QAEHXZ
_TEXT	SEGMENT PARA USE32 PUBLIC 'CODE'
_TEXT	ENDS
;	COMDAT ?overflow@?$basic_streambuf@DU?$char_traits@D@std@@@std@@MAEHH@Z
_TEXT	SEGMENT PARA USE32 PUBLIC 'CODE'
_TEXT	ENDS
;	COMDAT ?pbackfail@?$basic_streambuf@DU?$char_traits@D@std@@@std@@MAEHH@Z
_TEXT	SEGMENT PARA USE32 PUBLIC 'CODE'
_TEXT	ENDS
;	COMDAT ?showmanyc@?$basic_streambuf@DU?$char_traits@D@std@@@std@@MAEHXZ
_TEXT	SEGMENT PARA USE32 PUBLIC 'CODE'
_TEXT	ENDS
;	COMDAT ?underflow@?$basic_streambuf@DU?$char_traits@D@std@@@std@@MAEHXZ
_TEXT	SEGMENT PARA USE32 PUBLIC 'CODE'
_TEXT	ENDS
;	COMDAT ?uflow@?$basic_streambuf@DU?$char_traits@D@std@@@std@@MAEHXZ
_TEXT	SEGMENT PARA USE32 PUBLIC 'CODE'
_TEXT	ENDS
;	COMDAT ?xsgetn@?$basic_streambuf@DU?$char_traits@D@std@@@std@@MAEHPADH@Z
_TEXT	SEGMENT PARA USE32 PUBLIC 'CODE'
_TEXT	ENDS
;	COMDAT ?xsputn@?$basic_streambuf@DU?$char_traits@D@std@@@std@@MAEHPBDH@Z
_TEXT	SEGMENT PARA USE32 PUBLIC 'CODE'
_TEXT	ENDS
;	COMDAT ?seekoff@?$basic_streambuf@DU?$char_traits@D@std@@@std@@MAE?AV?$fpos@H@2@JHH@Z
_TEXT	SEGMENT PARA USE32 PUBLIC 'CODE'
_TEXT	ENDS
;	COMDAT ?seekpos@?$basic_streambuf@DU?$char_traits@D@std@@@std@@MAE?AV?$fpos@H@2@V32@H@Z
_TEXT	SEGMENT PARA USE32 PUBLIC 'CODE'
_TEXT	ENDS
;	COMDAT ?setbuf@?$basic_streambuf@DU?$char_traits@D@std@@@std@@MAEPAV12@PADH@Z
_TEXT	SEGMENT PARA USE32 PUBLIC 'CODE'
_TEXT	ENDS
;	COMDAT ?sync@?$basic_streambuf@DU?$char_traits@D@std@@@std@@MAEHXZ
_TEXT	SEGMENT PARA USE32 PUBLIC 'CODE'
_TEXT	ENDS
;	COMDAT ?imbue@?$basic_streambuf@DU?$char_traits@D@std@@@std@@MAEXABVlocale@2@@Z
_TEXT	SEGMENT PARA USE32 PUBLIC 'CODE'
_TEXT	ENDS
;	COMDAT ??0?$CW2AEX@$0IA@@ATL@@QAE@PBG@Z
_TEXT	SEGMENT PARA USE32 PUBLIC 'CODE'
_TEXT	ENDS
;	COMDAT ??1?$CW2AEX@$0IA@@ATL@@QAE@XZ
_TEXT	SEGMENT PARA USE32 PUBLIC 'CODE'
_TEXT	ENDS
;	COMDAT ??B?$CW2AEX@$0IA@@ATL@@QBEPADXZ
_TEXT	SEGMENT PARA USE32 PUBLIC 'CODE'
_TEXT	ENDS
;	COMDAT ??0?$CStringT@DV?$StrTraitATL@DV?$ChTraitsCRT@D@ATL@@@ATL@@@ATL@@QAE@XZ
_TEXT	SEGMENT PARA USE32 PUBLIC 'CODE'
_TEXT	ENDS
;	COMDAT ??0?$CStringT@DV?$StrTraitATL@DV?$ChTraitsCRT@D@ATL@@@ATL@@@ATL@@QAE@ABV01@@Z
_TEXT	SEGMENT PARA USE32 PUBLIC 'CODE'
_TEXT	ENDS
;	COMDAT ??0?$CStringT@DV?$StrTraitATL@DV?$ChTraitsCRT@D@ATL@@@ATL@@@ATL@@QAE@PBD@Z
_TEXT	SEGMENT PARA USE32 PUBLIC 'CODE'
_TEXT	ENDS
;	COMDAT ??1?$CStringT@DV?$StrTraitATL@DV?$ChTraitsCRT@D@ATL@@@ATL@@@ATL@@QAE@XZ
_TEXT	SEGMENT PARA USE32 PUBLIC 'CODE'
_TEXT	ENDS
;	COMDAT ??Y?$CStringT@DV?$StrTraitATL@DV?$ChTraitsCRT@D@ATL@@@ATL@@@ATL@@QAEAAV01@D@Z
_TEXT	SEGMENT PARA USE32 PUBLIC 'CODE'
_TEXT	ENDS
;	COMDAT ?AppendFormat@?$CStringT@DV?$StrTraitATL@DV?$ChTraitsCRT@D@ATL@@@ATL@@@ATL@@QAAXPBDZZ
_TEXT	SEGMENT PARA USE32 PUBLIC 'CODE'
_TEXT	ENDS
;	COMDAT ?LoadStringA@?$CStringT@DV?$StrTraitATL@DV?$ChTraitsCRT@D@ATL@@@ATL@@@ATL@@QAEHI@Z
_TEXT	SEGMENT PARA USE32 PUBLIC 'CODE'
_TEXT	ENDS
;	COMDAT ??0?$CAxDialogImpl@VCShowSelectCert@@VCWindow@ATL@@@ATL@@QAE@XZ
_TEXT	SEGMENT PARA USE32 PUBLIC 'CODE'
_TEXT	ENDS
;	COMDAT ?GetDialogProc@?$CAxDialogImpl@VCShowSelectCert@@VCWindow@ATL@@@ATL@@UAEP6GHPAUHWND__@@IIJ@ZXZ
_TEXT	SEGMENT PARA USE32 PUBLIC 'CODE'
_TEXT	ENDS
;	COMDAT ?DoModal@?$CAxDialogImpl@VCShowSelectCert@@VCWindow@ATL@@@ATL@@QAEHPAUHWND__@@J@Z
_TEXT	SEGMENT PARA USE32 PUBLIC 'CODE'
_TEXT	ENDS
;	COMDAT ?EndDialog@?$CAxDialogImpl@VCShowSelectCert@@VCWindow@ATL@@@ATL@@QAEHH@Z
_TEXT	SEGMENT PARA USE32 PUBLIC 'CODE'
_TEXT	ENDS
;	COMDAT ?ProcessWindowMessage@?$CAxDialogImpl@VCShowSelectCert@@VCWindow@ATL@@@ATL@@UAEHPAUHWND__@@IIJAAJK@Z
_TEXT	SEGMENT PARA USE32 PUBLIC 'CODE'
_TEXT	ENDS
;	COMDAT ?CreateActiveXControls@?$CAxDialogImpl@VCShowSelectCert@@VCWindow@ATL@@@ATL@@UAEJI@Z
_TEXT	SEGMENT PARA USE32 PUBLIC 'CODE'
_TEXT	ENDS
;	COMDAT ?GetObjectDescription@?$CComCoClass@VCSignature@@$1?CLSID_Signature@@3U_GUID@@B@ATL@@SGPBDXZ
_TEXT	SEGMENT PARA USE32 PUBLIC 'CODE'
_TEXT	ENDS
;	COMDAT ?GetTypeInfoCount@?$IDispatchImpl@UISignature@@$1?IID_ISignature@@3U_GUID@@B$1?LIBID_XMLSIGNLib@@3U3@B$00$0A@VCComTypeInfoHolder@ATL@@@ATL@@UAGJPAI@Z
_TEXT	SEGMENT PARA USE32 PUBLIC 'CODE'
_TEXT	ENDS
;	COMDAT ?GetTypeInfo@?$IDispatchImpl@UISignature@@$1?IID_ISignature@@3U_GUID@@B$1?LIBID_XMLSIGNLib@@3U3@B$00$0A@VCComTypeInfoHolder@ATL@@@ATL@@UAGJIKPAPAUITypeInfo@@@Z
_TEXT	SEGMENT PARA USE32 PUBLIC 'CODE'
_TEXT	ENDS
;	COMDAT ?GetIDsOfNames@?$IDispatchImpl@UISignature@@$1?IID_ISignature@@3U_GUID@@B$1?LIBID_XMLSIGNLib@@3U3@B$00$0A@VCComTypeInfoHolder@ATL@@@ATL@@UAGJABU_GUID@@PAPAGIKPAJ@Z
_TEXT	SEGMENT PARA USE32 PUBLIC 'CODE'
_TEXT	ENDS
;	COMDAT ?Invoke@?$IDispatchImpl@UISignature@@$1?IID_ISignature@@3U_GUID@@B$1?LIBID_XMLSIGNLib@@3U3@B$00$0A@VCComTypeInfoHolder@ATL@@@ATL@@UAGJJABU_GUID@@KGPAUtagDISPPARAMS@@PAUtagVARIANT@@PAUtagEXCEPINFO@@PAI@Z
_TEXT	SEGMENT PARA USE32 PUBLIC 'CODE'
_TEXT	ENDS
;	COMDAT ?CreateInstance@?$CComCreator@V?$CComObjectCached@VCComClassFactory@ATL@@@ATL@@@ATL@@SGJPAXABU_GUID@@PAPAX@Z
_TEXT	SEGMENT PARA USE32 PUBLIC 'CODE'
_TEXT	ENDS
;	COMDAT ?CreateInstance@?$CComCreator2@V?$CComCreator@V?$CComObject@VCSignature@@@ATL@@@ATL@@V?$CComCreator@V?$CComAggObject@VCSignature@@@ATL@@@2@@ATL@@SGJPAXABU_GUID@@PAPAX@Z
_TEXT	SEGMENT PARA USE32 PUBLIC 'CODE'
_TEXT	ENDS
;	COMDAT ??0?$_DebugHeapAllocator@D@std@@QAE@XZ
_TEXT	SEGMENT PARA USE32 PUBLIC 'CODE'
_TEXT	ENDS
;	COMDAT ??0?$_DebugHeapAllocator@D@std@@QAE@ABV01@@Z
_TEXT	SEGMENT PARA USE32 PUBLIC 'CODE'
_TEXT	ENDS
;	COMDAT ??_G?$basic_ostream@GU?$char_traits@G@std@@@std@@UAEPAXI@Z
_TEXT	SEGMENT PARA USE32 PUBLIC 'CODE'
_TEXT	ENDS
;	COMDAT ??_G?$basic_ios@GU?$char_traits@G@std@@@std@@UAEPAXI@Z
_TEXT	SEGMENT PARA USE32 PUBLIC 'CODE'
_TEXT	ENDS
;	COMDAT ??_G?$basic_streambuf@GU?$char_traits@G@std@@@std@@UAEPAXI@Z
_TEXT	SEGMENT PARA USE32 PUBLIC 'CODE'
_TEXT	ENDS
;	COMDAT ??_G?$basic_ostream@DU?$char_traits@D@std@@@std@@UAEPAXI@Z
_TEXT	SEGMENT PARA USE32 PUBLIC 'CODE'
_TEXT	ENDS
;	COMDAT ??_G?$basic_ios@DU?$char_traits@D@std@@@std@@UAEPAXI@Z
_TEXT	SEGMENT PARA USE32 PUBLIC 'CODE'
_TEXT	ENDS
;	COMDAT ??_G?$basic_istream@GU?$char_traits@G@std@@@std@@UAEPAXI@Z
_TEXT	SEGMENT PARA USE32 PUBLIC 'CODE'
_TEXT	ENDS
;	COMDAT ??_G?$basic_istream@DU?$char_traits@D@std@@@std@@UAEPAXI@Z
_TEXT	SEGMENT PARA USE32 PUBLIC 'CODE'
_TEXT	ENDS
;	COMDAT ??_G?$basic_streambuf@DU?$char_traits@D@std@@@std@@UAEPAXI@Z
_TEXT	SEGMENT PARA USE32 PUBLIC 'CODE'
_TEXT	ENDS
;	COMDAT ??_G?$CAxDialogImpl@VCShowSelectCert@@VCWindow@ATL@@@ATL@@UAEPAXI@Z
_TEXT	SEGMENT PARA USE32 PUBLIC 'CODE'
_TEXT	ENDS
;	COMDAT ??0?$CDialogImplBaseT@VCWindow@ATL@@@ATL@@QAE@XZ
_TEXT	SEGMENT PARA USE32 PUBLIC 'CODE'
_TEXT	ENDS
;	COMDAT ??_D?$basic_ostream@GU?$char_traits@G@std@@@std@@QAEXXZ
_TEXT	SEGMENT PARA USE32 PUBLIC 'CODE'
_TEXT	ENDS
;	COMDAT ??_D?$basic_ostream@DU?$char_traits@D@std@@@std@@QAEXXZ
_TEXT	SEGMENT PARA USE32 PUBLIC 'CODE'
_TEXT	ENDS
;	COMDAT ??_D?$basic_istream@GU?$char_traits@G@std@@@std@@QAEXXZ
_TEXT	SEGMENT PARA USE32 PUBLIC 'CODE'
_TEXT	ENDS
;	COMDAT ??_D?$basic_istream@DU?$char_traits@D@std@@@std@@QAEXXZ
_TEXT	SEGMENT PARA USE32 PUBLIC 'CODE'
_TEXT	ENDS
;	COMDAT ??0?$CSimpleStringT@D$0A@@ATL@@QAE@PAUIAtlStringMgr@1@@Z
_TEXT	SEGMENT PARA USE32 PUBLIC 'CODE'
_TEXT	ENDS
;	COMDAT ??0?$CSimpleStringT@D$0A@@ATL@@QAE@ABV01@@Z
_TEXT	SEGMENT PARA USE32 PUBLIC 'CODE'
_TEXT	ENDS
;	COMDAT ??1?$CSimpleStringT@D$0A@@ATL@@QAE@XZ
_TEXT	SEGMENT PARA USE32 PUBLIC 'CODE'
_TEXT	ENDS
;	COMDAT ??Y?$CSimpleStringT@D$0A@@ATL@@QAEAAV01@D@Z
_TEXT	SEGMENT PARA USE32 PUBLIC 'CODE'
_TEXT	ENDS
;	COMDAT ?MapDialogRect@?$CDialogImplBaseT@VCWindow@ATL@@@ATL@@QAEHPAUtagRECT@@@Z
_TEXT	SEGMENT PARA USE32 PUBLIC 'CODE'
_TEXT	ENDS
;	COMDAT ?_Release@?$_com_ptr_t@V?$_com_IIID@UIUnknown@@$1?_GUID_00000000_0000_0000_c000_000000000046@@3U__s_GUID@@B@@@@AAEXXZ
_TEXT	SEGMENT PARA USE32 PUBLIC 'CODE'
_TEXT	ENDS
;	COMDAT ?_AddRef@?$_com_ptr_t@V?$_com_IIID@UIUnknown@@$1?_GUID_00000000_0000_0000_c000_000000000046@@3U__s_GUID@@B@@@@AAEXXZ
_TEXT	SEGMENT PARA USE32 PUBLIC 'CODE'
_TEXT	ENDS
;	COMDAT ?_Release@?$_com_ptr_t@V?$_com_IIID@UProperty@@$1?_GUID_00000503_0000_0010_8000_00aa006d2ea4@@3U__s_GUID@@B@@@@AAEXXZ
_TEXT	SEGMENT PARA USE32 PUBLIC 'CODE'
_TEXT	ENDS
;	COMDAT ?_AddRef@?$_com_ptr_t@V?$_com_IIID@UProperty@@$1?_GUID_00000503_0000_0010_8000_00aa006d2ea4@@3U__s_GUID@@B@@@@AAEXXZ
_TEXT	SEGMENT PARA USE32 PUBLIC 'CODE'
_TEXT	ENDS
;	COMDAT ?_Release@?$_com_ptr_t@V?$_com_IIID@UProperties@@$1?_GUID_00000504_0000_0010_8000_00aa006d2ea4@@3U__s_GUID@@B@@@@AAEXXZ
_TEXT	SEGMENT PARA USE32 PUBLIC 'CODE'
_TEXT	ENDS
;	COMDAT ?_AddRef@?$_com_ptr_t@V?$_com_IIID@UProperties@@$1?_GUID_00000504_0000_0010_8000_00aa006d2ea4@@3U__s_GUID@@B@@@@AAEXXZ
_TEXT	SEGMENT PARA USE32 PUBLIC 'CODE'
_TEXT	ENDS
;	COMDAT ?_Release@?$_com_ptr_t@V?$_com_IIID@UError@@$1?_GUID_00000500_0000_0010_8000_00aa006d2ea4@@3U__s_GUID@@B@@@@AAEXXZ
_TEXT	SEGMENT PARA USE32 PUBLIC 'CODE'
_TEXT	ENDS
;	COMDAT ?_AddRef@?$_com_ptr_t@V?$_com_IIID@UError@@$1?_GUID_00000500_0000_0010_8000_00aa006d2ea4@@3U__s_GUID@@B@@@@AAEXXZ
_TEXT	SEGMENT PARA USE32 PUBLIC 'CODE'
_TEXT	ENDS
;	COMDAT ?_Release@?$_com_ptr_t@V?$_com_IIID@UField@@$1?_GUID_00000569_0000_0010_8000_00aa006d2ea4@@3U__s_GUID@@B@@@@AAEXXZ
_TEXT	SEGMENT PARA USE32 PUBLIC 'CODE'
_TEXT	ENDS
;	COMDAT ?_AddRef@?$_com_ptr_t@V?$_com_IIID@UField@@$1?_GUID_00000569_0000_0010_8000_00aa006d2ea4@@3U__s_GUID@@B@@@@AAEXXZ
_TEXT	SEGMENT PARA USE32 PUBLIC 'CODE'
_TEXT	ENDS
;	COMDAT ?_Release@?$_com_ptr_t@V?$_com_IIID@U_Parameter@@$1?_GUID_0000050c_0000_0010_8000_00aa006d2ea4@@3U__s_GUID@@B@@@@AAEXXZ
_TEXT	SEGMENT PARA USE32 PUBLIC 'CODE'
_TEXT	ENDS
;	COMDAT ?_AddRef@?$_com_ptr_t@V?$_com_IIID@U_Parameter@@$1?_GUID_0000050c_0000_0010_8000_00aa006d2ea4@@3U__s_GUID@@B@@@@AAEXXZ
_TEXT	SEGMENT PARA USE32 PUBLIC 'CODE'
_TEXT	ENDS
;	COMDAT ?_Release@?$_com_ptr_t@V?$_com_IIID@U_Connection@@$1?_GUID_00000550_0000_0010_8000_00aa006d2ea4@@3U__s_GUID@@B@@@@AAEXXZ
_TEXT	SEGMENT PARA USE32 PUBLIC 'CODE'
_TEXT	ENDS
;	COMDAT ?_AddRef@?$_com_ptr_t@V?$_com_IIID@U_Connection@@$1?_GUID_00000550_0000_0010_8000_00aa006d2ea4@@3U__s_GUID@@B@@@@AAEXXZ
_TEXT	SEGMENT PARA USE32 PUBLIC 'CODE'
_TEXT	ENDS
;	COMDAT ?_Release@?$_com_ptr_t@V?$_com_IIID@U_Recordset@@$1?_GUID_00000556_0000_0010_8000_00aa006d2ea4@@3U__s_GUID@@B@@@@AAEXXZ
_TEXT	SEGMENT PARA USE32 PUBLIC 'CODE'
_TEXT	ENDS
;	COMDAT ?_AddRef@?$_com_ptr_t@V?$_com_IIID@U_Recordset@@$1?_GUID_00000556_0000_0010_8000_00aa006d2ea4@@3U__s_GUID@@B@@@@AAEXXZ
_TEXT	SEGMENT PARA USE32 PUBLIC 'CODE'
_TEXT	ENDS
;	COMDAT ?_Release@?$_com_ptr_t@V?$_com_IIID@UParameters@@$1?_GUID_0000050d_0000_0010_8000_00aa006d2ea4@@3U__s_GUID@@B@@@@AAEXXZ
_TEXT	SEGMENT PARA USE32 PUBLIC 'CODE'
_TEXT	ENDS
;	COMDAT ?_AddRef@?$_com_ptr_t@V?$_com_IIID@UParameters@@$1?_GUID_0000050d_0000_0010_8000_00aa006d2ea4@@3U__s_GUID@@B@@@@AAEXXZ
_TEXT	SEGMENT PARA USE32 PUBLIC 'CODE'
_TEXT	ENDS
;	COMDAT ?_Release@?$_com_ptr_t@V?$_com_IIID@UErrors@@$1?_GUID_00000501_0000_0010_8000_00aa006d2ea4@@3U__s_GUID@@B@@@@AAEXXZ
_TEXT	SEGMENT PARA USE32 PUBLIC 'CODE'
_TEXT	ENDS
;	COMDAT ?_AddRef@?$_com_ptr_t@V?$_com_IIID@UErrors@@$1?_GUID_00000501_0000_0010_8000_00aa006d2ea4@@3U__s_GUID@@B@@@@AAEXXZ
_TEXT	SEGMENT PARA USE32 PUBLIC 'CODE'
_TEXT	ENDS
;	COMDAT ?_Release@?$_com_ptr_t@V?$_com_IIID@UFields@@$1?_GUID_00000564_0000_0010_8000_00aa006d2ea4@@3U__s_GUID@@B@@@@AAEXXZ
_TEXT	SEGMENT PARA USE32 PUBLIC 'CODE'
_TEXT	ENDS
;	COMDAT ?_AddRef@?$_com_ptr_t@V?$_com_IIID@UFields@@$1?_GUID_00000564_0000_0010_8000_00aa006d2ea4@@3U__s_GUID@@B@@@@AAEXXZ
_TEXT	SEGMENT PARA USE32 PUBLIC 'CODE'
_TEXT	ENDS
;	COMDAT ?_Release@?$_com_ptr_t@V?$_com_IIID@UIDispatch@@$1?_GUID_00020400_0000_0000_c000_000000000046@@3U__s_GUID@@B@@@@AAEXXZ
_TEXT	SEGMENT PARA USE32 PUBLIC 'CODE'
_TEXT	ENDS
;	COMDAT ?_AddRef@?$_com_ptr_t@V?$_com_IIID@UIDispatch@@$1?_GUID_00020400_0000_0000_c000_000000000046@@3U__s_GUID@@B@@@@AAEXXZ
_TEXT	SEGMENT PARA USE32 PUBLIC 'CODE'
_TEXT	ENDS
;	COMDAT ?assign@?$basic_string@DU?$char_traits@D@std@@V?$allocator@D@2@@std@@QAEAAV12@ABV12@II@Z
_TEXT	SEGMENT PARA USE32 PUBLIC 'CODE'
_TEXT	ENDS
;	COMDAT ?assign@?$basic_string@DU?$char_traits@D@std@@V?$allocator@D@2@@std@@QAEAAV12@PBD@Z
_TEXT	SEGMENT PARA USE32 PUBLIC 'CODE'
_TEXT	ENDS
;	COMDAT ?_Tidy@?$basic_string@DU?$char_traits@D@std@@V?$allocator@D@2@@std@@IAEX_NI@Z
_TEXT	SEGMENT PARA USE32 PUBLIC 'CODE'
_TEXT	ENDS
;	COMDAT ?_Myptr@?$basic_string@DU?$char_traits@D@std@@V?$allocator@D@2@@std@@QBEPBDXZ
_TEXT	SEGMENT PARA USE32 PUBLIC 'CODE'
_TEXT	ENDS
;	COMDAT ??0?$_String_val@DV?$allocator@D@std@@@std@@IAE@V?$allocator@D@1@@Z
_TEXT	SEGMENT PARA USE32 PUBLIC 'CODE'
_TEXT	ENDS
;	COMDAT ??0?$allocator@D@std@@QAE@XZ
_TEXT	SEGMENT PARA USE32 PUBLIC 'CODE'
_TEXT	ENDS
;	COMDAT ??0?$allocator@D@std@@QAE@ABV01@@Z
_TEXT	SEGMENT PARA USE32 PUBLIC 'CODE'
_TEXT	ENDS
;	COMDAT ?assign@?$basic_string@DU?$char_traits@D@std@@V?$_DebugHeapAllocator@D@2@@std@@QAEAAV12@ABV12@II@Z
_TEXT	SEGMENT PARA USE32 PUBLIC 'CODE'
_TEXT	ENDS
;	COMDAT ?assign@?$basic_string@DU?$char_traits@D@std@@V?$_DebugHeapAllocator@D@2@@std@@QAEAAV12@PBD@Z
_TEXT	SEGMENT PARA USE32 PUBLIC 'CODE'
_TEXT	ENDS
;	COMDAT ?_Tidy@?$basic_string@DU?$char_traits@D@std@@V?$_DebugHeapAllocator@D@2@@std@@IAEX_NI@Z
_TEXT	SEGMENT PARA USE32 PUBLIC 'CODE'
_TEXT	ENDS
;	COMDAT ?_Myptr@?$basic_string@DU?$char_traits@D@std@@V?$_DebugHeapAllocator@D@2@@std@@QBEPBDXZ
_TEXT	SEGMENT PARA USE32 PUBLIC 'CODE'
_TEXT	ENDS
;	COMDAT ??0?$_String_val@DV?$_DebugHeapAllocator@D@std@@@std@@IAE@V?$_DebugHeapAllocator@D@1@@Z
_TEXT	SEGMENT PARA USE32 PUBLIC 'CODE'
_TEXT	ENDS
;	COMDAT ?_Osfx@?$basic_ostream@GU?$char_traits@G@std@@@std@@QAEXXZ
_TEXT	SEGMENT PARA USE32 PUBLIC 'CODE'
_TEXT	ENDS
;	COMDAT ?clear@?$basic_ios@GU?$char_traits@G@std@@@std@@QAEXH_N@Z
_TEXT	SEGMENT PARA USE32 PUBLIC 'CODE'
_TEXT	ENDS
;	COMDAT ?tie@?$basic_ios@GU?$char_traits@G@std@@@std@@QBEPAV?$basic_ostream@GU?$char_traits@G@std@@@2@XZ
_TEXT	SEGMENT PARA USE32 PUBLIC 'CODE'
_TEXT	ENDS
;	COMDAT ??0_Sentry_base@?$basic_ostream@GU?$char_traits@G@std@@@std@@QAE@AAV12@@Z
_TEXT	SEGMENT PARA USE32 PUBLIC 'CODE'
_TEXT	ENDS
;	COMDAT ??1_Sentry_base@?$basic_ostream@GU?$char_traits@G@std@@@std@@QAE@XZ
_TEXT	SEGMENT PARA USE32 PUBLIC 'CODE'
_TEXT	ENDS
;	COMDAT ?pubsync@?$basic_streambuf@GU?$char_traits@G@std@@@std@@QAEHXZ
_TEXT	SEGMENT PARA USE32 PUBLIC 'CODE'
_TEXT	ENDS
;	COMDAT ?_Unlock@?$basic_streambuf@GU?$char_traits@G@std@@@std@@QAEXXZ
_TEXT	SEGMENT PARA USE32 PUBLIC 'CODE'
_TEXT	ENDS
;	COMDAT ?gptr@?$basic_streambuf@GU?$char_traits@G@std@@@std@@IBEPAGXZ
_TEXT	SEGMENT PARA USE32 PUBLIC 'CODE'
_TEXT	ENDS
;	COMDAT ?pptr@?$basic_streambuf@GU?$char_traits@G@std@@@std@@IBEPAGXZ
_TEXT	SEGMENT PARA USE32 PUBLIC 'CODE'
_TEXT	ENDS
;	COMDAT ?egptr@?$basic_streambuf@GU?$char_traits@G@std@@@std@@IBEPAGXZ
_TEXT	SEGMENT PARA USE32 PUBLIC 'CODE'
_TEXT	ENDS
;	COMDAT ?gbump@?$basic_streambuf@GU?$char_traits@G@std@@@std@@IAEXH@Z
_TEXT	SEGMENT PARA USE32 PUBLIC 'CODE'
_TEXT	ENDS
;	COMDAT ?epptr@?$basic_streambuf@GU?$char_traits@G@std@@@std@@IBEPAGXZ
_TEXT	SEGMENT PARA USE32 PUBLIC 'CODE'
_TEXT	ENDS
;	COMDAT ?_Gninc@?$basic_streambuf@GU?$char_traits@G@std@@@std@@IAEPAGXZ
_TEXT	SEGMENT PARA USE32 PUBLIC 'CODE'
_TEXT	ENDS
;	COMDAT ?pbump@?$basic_streambuf@GU?$char_traits@G@std@@@std@@IAEXH@Z
_TEXT	SEGMENT PARA USE32 PUBLIC 'CODE'
_TEXT	ENDS
;	COMDAT ?_Pninc@?$basic_streambuf@GU?$char_traits@G@std@@@std@@IAEPAGXZ
_TEXT	SEGMENT PARA USE32 PUBLIC 'CODE'
_TEXT	ENDS
;	COMDAT ?clear@?$basic_ios@DU?$char_traits@D@std@@@std@@QAEXH_N@Z
_TEXT	SEGMENT PARA USE32 PUBLIC 'CODE'
_TEXT	ENDS
;	COMDAT ?_Ipfx@?$basic_istream@GU?$char_traits@G@std@@@std@@QAE_N_N@Z
_TEXT	SEGMENT PARA USE32 PUBLIC 'CODE'
_TEXT	ENDS
;	COMDAT ??0_Sentry_base@?$basic_istream@GU?$char_traits@G@std@@@std@@QAE@AAV12@@Z
_TEXT	SEGMENT PARA USE32 PUBLIC 'CODE'
_TEXT	ENDS
;	COMDAT ?_Ipfx@?$basic_istream@DU?$char_traits@D@std@@@std@@QAE_N_N@Z
_TEXT	SEGMENT PARA USE32 PUBLIC 'CODE'
_TEXT	ENDS
;	COMDAT ??0_Sentry_base@?$basic_istream@DU?$char_traits@D@std@@@std@@QAE@AAV12@@Z
_TEXT	SEGMENT PARA USE32 PUBLIC 'CODE'
_TEXT	ENDS
;	COMDAT ?pubsync@?$basic_streambuf@DU?$char_traits@D@std@@@std@@QAEHXZ
_TEXT	SEGMENT PARA USE32 PUBLIC 'CODE'
_TEXT	ENDS
;	COMDAT ?sbumpc@?$basic_streambuf@DU?$char_traits@D@std@@@std@@QAEHXZ
_TEXT	SEGMENT PARA USE32 PUBLIC 'CODE'
_TEXT	ENDS
;	COMDAT ?sputc@?$basic_streambuf@DU?$char_traits@D@std@@@std@@QAEHD@Z
_TEXT	SEGMENT PARA USE32 PUBLIC 'CODE'
_TEXT	ENDS
;	COMDAT ?_Unlock@?$basic_streambuf@DU?$char_traits@D@std@@@std@@QAEXXZ
_TEXT	SEGMENT PARA USE32 PUBLIC 'CODE'
_TEXT	ENDS
;	COMDAT ?gptr@?$basic_streambuf@DU?$char_traits@D@std@@@std@@IBEPADXZ
_TEXT	SEGMENT PARA USE32 PUBLIC 'CODE'
_TEXT	ENDS
;	COMDAT ?pptr@?$basic_streambuf@DU?$char_traits@D@std@@@std@@IBEPADXZ
_TEXT	SEGMENT PARA USE32 PUBLIC 'CODE'
_TEXT	ENDS
;	COMDAT ?egptr@?$basic_streambuf@DU?$char_traits@D@std@@@std@@IBEPADXZ
_TEXT	SEGMENT PARA USE32 PUBLIC 'CODE'
_TEXT	ENDS
;	COMDAT ?gbump@?$basic_streambuf@DU?$char_traits@D@std@@@std@@IAEXH@Z
_TEXT	SEGMENT PARA USE32 PUBLIC 'CODE'
_TEXT	ENDS
;	COMDAT ?epptr@?$basic_streambuf@DU?$char_traits@D@std@@@std@@IBEPADXZ
_TEXT	SEGMENT PARA USE32 PUBLIC 'CODE'
_TEXT	ENDS
;	COMDAT ?_Gninc@?$basic_streambuf@DU?$char_traits@D@std@@@std@@IAEPADXZ
_TEXT	SEGMENT PARA USE32 PUBLIC 'CODE'
_TEXT	ENDS
;	COMDAT ?pbump@?$basic_streambuf@DU?$char_traits@D@std@@@std@@IAEXH@Z
_TEXT	SEGMENT PARA USE32 PUBLIC 'CODE'
_TEXT	ENDS
;	COMDAT ?Init@?$CW2AEX@$0IA@@ATL@@AAEXPBGI@Z
_TEXT	SEGMENT PARA USE32 PUBLIC 'CODE'
_TEXT	ENDS
;	COMDAT ??4?$CStringT@DV?$StrTraitATL@DV?$ChTraitsCRT@D@ATL@@@ATL@@@ATL@@QAEAAV01@PBD@Z
_TEXT	SEGMENT PARA USE32 PUBLIC 'CODE'
_TEXT	ENDS
;	COMDAT ?AppendFormatV@?$CStringT@DV?$StrTraitATL@DV?$ChTraitsCRT@D@ATL@@@ATL@@@ATL@@QAEXPBDPAD@Z
_TEXT	SEGMENT PARA USE32 PUBLIC 'CODE'
_TEXT	ENDS
;	COMDAT ?LoadStringA@?$CStringT@DV?$StrTraitATL@DV?$ChTraitsCRT@D@ATL@@@ATL@@@ATL@@QAEHPAUHINSTANCE__@@I@Z
_TEXT	SEGMENT PARA USE32 PUBLIC 'CODE'
_TEXT	ENDS
;	COMDAT ?CheckImplicitLoad@?$CStringT@DV?$StrTraitATL@DV?$ChTraitsCRT@D@ATL@@@ATL@@@ATL@@AAE_NPBX@Z
_TEXT	SEGMENT PARA USE32 PUBLIC 'CODE'
_TEXT	ENDS
;	COMDAT ?FindStringResourceInstance@?$StrTraitATL@DV?$ChTraitsCRT@D@ATL@@@ATL@@SAPAUHINSTANCE__@@I@Z
_TEXT	SEGMENT PARA USE32 PUBLIC 'CODE'
_TEXT	ENDS
;	COMDAT ?GetDefaultManager@?$StrTraitATL@DV?$ChTraitsCRT@D@ATL@@@ATL@@SAPAUIAtlStringMgr@2@XZ
_TEXT	SEGMENT PARA USE32 PUBLIC 'CODE'
_TEXT	ENDS
;	COMDAT ?OnInitDialog@?$CAxDialogImpl@VCShowSelectCert@@VCWindow@ATL@@@ATL@@QAEJIIJAAH@Z
_TEXT	SEGMENT PARA USE32 PUBLIC 'CODE'
_TEXT	ENDS
;	COMDAT ?OnDestroy@?$CAxDialogImpl@VCShowSelectCert@@VCWindow@ATL@@@ATL@@QAEJIIJAAH@Z
_TEXT	SEGMENT PARA USE32 PUBLIC 'CODE'
_TEXT	ENDS
;	COMDAT ??0?$fpos@H@std@@QAE@J@Z
_TEXT	SEGMENT PARA USE32 PUBLIC 'CODE'
_TEXT	ENDS
;	COMDAT ??0sentry@?$basic_ostream@DU?$char_traits@D@std@@@std@@QAE@AAV12@@Z
_TEXT	SEGMENT PARA USE32 PUBLIC 'CODE'
_TEXT	ENDS
;	COMDAT ??1sentry@?$basic_ostream@DU?$char_traits@D@std@@@std@@QAE@XZ
_TEXT	SEGMENT PARA USE32 PUBLIC 'CODE'
_TEXT	ENDS
;	COMDAT ??Bsentry@?$basic_ostream@DU?$char_traits@D@std@@@std@@QBE_NXZ
_TEXT	SEGMENT PARA USE32 PUBLIC 'CODE'
_TEXT	ENDS
;	COMDAT ??0?$CAxWindow2T@VCWindow@ATL@@@ATL@@QAE@PAUHWND__@@@Z
_TEXT	SEGMENT PARA USE32 PUBLIC 'CODE'
_TEXT	ENDS
;	COMDAT ?Create@?$CAxWindow2T@VCWindow@ATL@@@ATL@@QAEPAUHWND__@@PAU3@V_U_RECT@2@PBDKKV_U_MENUorID@2@PAX@Z
_TEXT	SEGMENT PARA USE32 PUBLIC 'CODE'
_TEXT	ENDS
;	COMDAT ?CreateControlLic@?$CAxWindow2T@VCWindow@ATL@@@ATL@@QAEJPBGPAUIStream@@PAPAUIUnknown@@PAG@Z
_TEXT	SEGMENT PARA USE32 PUBLIC 'CODE'
_TEXT	ENDS
;	COMDAT ??0?$CComObjectCached@VCComClassFactory@ATL@@@ATL@@QAE@PAX@Z
_TEXT	SEGMENT PARA USE32 PUBLIC 'CODE'
_TEXT	ENDS
;	COMDAT ??1?$CComObjectCached@VCComClassFactory@ATL@@@ATL@@UAE@XZ
_TEXT	SEGMENT PARA USE32 PUBLIC 'CODE'
_TEXT	ENDS
;	COMDAT ?AddRef@?$CComObjectCached@VCComClassFactory@ATL@@@ATL@@UAGKXZ
_TEXT	SEGMENT PARA USE32 PUBLIC 'CODE'
_TEXT	ENDS
;	COMDAT ?Release@?$CComObjectCached@VCComClassFactory@ATL@@@ATL@@UAGKXZ
_TEXT	SEGMENT PARA USE32 PUBLIC 'CODE'
_TEXT	ENDS
;	COMDAT ?QueryInterface@?$CComObjectCached@VCComClassFactory@ATL@@@ATL@@UAGJABU_GUID@@PAPAX@Z
_TEXT	SEGMENT PARA USE32 PUBLIC 'CODE'
_TEXT	ENDS
;	COMDAT ?CreateInstance@?$CComCreator@V?$CComObject@VCSignature@@@ATL@@@ATL@@SGJPAXABU_GUID@@PAPAX@Z
_TEXT	SEGMENT PARA USE32 PUBLIC 'CODE'
_TEXT	ENDS
;	COMDAT ?CreateInstance@?$CComCreator@V?$CComAggObject@VCSignature@@@ATL@@@ATL@@SGJPAXABU_GUID@@PAPAX@Z
_TEXT	SEGMENT PARA USE32 PUBLIC 'CODE'
_TEXT	ENDS
;	COMDAT ??_G?$CComObjectCached@VCComClassFactory@ATL@@@ATL@@UAEPAXI@Z
_TEXT	SEGMENT PARA USE32 PUBLIC 'CODE'
_TEXT	ENDS
;	COMDAT ??0CComClassFactory@ATL@@QAE@XZ
_TEXT	SEGMENT PARA USE32 PUBLIC 'CODE'
_TEXT	ENDS
;	COMDAT ??0IClassFactory@@QAE@XZ
_TEXT	SEGMENT PARA USE32 PUBLIC 'CODE'
_TEXT	ENDS
;	COMDAT ??0?$CComObjectRootEx@VCComMultiThreadModel@ATL@@@ATL@@QAE@XZ
_TEXT	SEGMENT PARA USE32 PUBLIC 'CODE'
_TEXT	ENDS
;	COMDAT ?InternalAddRef@?$CComObjectRootEx@VCComMultiThreadModel@ATL@@@ATL@@QAEKXZ
_TEXT	SEGMENT PARA USE32 PUBLIC 'CODE'
_TEXT	ENDS
;	COMDAT ?InternalRelease@?$CComObjectRootEx@VCComMultiThreadModel@ATL@@@ATL@@QAEKXZ
_TEXT	SEGMENT PARA USE32 PUBLIC 'CODE'
_TEXT	ENDS
;	COMDAT ??4?$CSimpleStringT@D$0A@@ATL@@QAEAAV01@PBD@Z
_TEXT	SEGMENT PARA USE32 PUBLIC 'CODE'
_TEXT	ENDS
;	COMDAT ?AppendChar@?$CSimpleStringT@D$0A@@ATL@@QAEXD@Z
_TEXT	SEGMENT PARA USE32 PUBLIC 'CODE'
_TEXT	ENDS
;	COMDAT ?GetLength@?$CSimpleStringT@D$0A@@ATL@@QBEHXZ
_TEXT	SEGMENT PARA USE32 PUBLIC 'CODE'
_TEXT	ENDS
;	COMDAT ?ReleaseBufferSetLength@?$CSimpleStringT@D$0A@@ATL@@QAEXH@Z
_TEXT	SEGMENT PARA USE32 PUBLIC 'CODE'
_TEXT	ENDS
;	COMDAT ?CloneData@?$CSimpleStringT@D$0A@@ATL@@CAPAUCStringData@2@PAU32@@Z
_TEXT	SEGMENT PARA USE32 PUBLIC 'CODE'
_TEXT	ENDS
;	COMDAT ?ExecuteDlgInit@?$CDialogImplBaseT@VCWindow@ATL@@@ATL@@QAEHH@Z
_TEXT	SEGMENT PARA USE32 PUBLIC 'CODE'
_TEXT	ENDS
;	COMDAT ?assign@?$basic_string@DU?$char_traits@D@std@@V?$allocator@D@2@@std@@QAEAAV12@PBDI@Z
_TEXT	SEGMENT PARA USE32 PUBLIC 'CODE'
_TEXT	ENDS
;	COMDAT ?erase@?$basic_string@DU?$char_traits@D@std@@V?$allocator@D@2@@std@@QAEAAV12@II@Z
_TEXT	SEGMENT PARA USE32 PUBLIC 'CODE'
_TEXT	ENDS
;	COMDAT ?_Eos@?$basic_string@DU?$char_traits@D@std@@V?$allocator@D@2@@std@@IAEXI@Z
_TEXT	SEGMENT PARA USE32 PUBLIC 'CODE'
_TEXT	ENDS
;	COMDAT ?_Grow@?$basic_string@DU?$char_traits@D@std@@V?$allocator@D@2@@std@@IAE_NI_N@Z
_TEXT	SEGMENT PARA USE32 PUBLIC 'CODE'
_TEXT	ENDS
;	COMDAT ?_Myptr@?$basic_string@DU?$char_traits@D@std@@V?$allocator@D@2@@std@@QAEPADXZ
_TEXT	SEGMENT PARA USE32 PUBLIC 'CODE'
_TEXT	ENDS
;	COMDAT ?deallocate@?$allocator@D@std@@QAEXPADI@Z
_TEXT	SEGMENT PARA USE32 PUBLIC 'CODE'
_TEXT	ENDS
;	COMDAT ?assign@?$basic_string@DU?$char_traits@D@std@@V?$_DebugHeapAllocator@D@2@@std@@QAEAAV12@PBDI@Z
_TEXT	SEGMENT PARA USE32 PUBLIC 'CODE'
_TEXT	ENDS
;	COMDAT ?erase@?$basic_string@DU?$char_traits@D@std@@V?$_DebugHeapAllocator@D@2@@std@@QAEAAV12@II@Z
_TEXT	SEGMENT PARA USE32 PUBLIC 'CODE'
_TEXT	ENDS
;	COMDAT ?size@?$basic_string@DU?$char_traits@D@std@@V?$_DebugHeapAllocator@D@2@@std@@QBEIXZ
_TEXT	SEGMENT PARA USE32 PUBLIC 'CODE'
_TEXT	ENDS
;	COMDAT ?_Eos@?$basic_string@DU?$char_traits@D@std@@V?$_DebugHeapAllocator@D@2@@std@@IAEXI@Z
_TEXT	SEGMENT PARA USE32 PUBLIC 'CODE'
_TEXT	ENDS
;	COMDAT ?_Grow@?$basic_string@DU?$char_traits@D@std@@V?$_DebugHeapAllocator@D@2@@std@@IAE_NI_N@Z
_TEXT	SEGMENT PARA USE32 PUBLIC 'CODE'
_TEXT	ENDS
;	COMDAT ?_Myptr@?$basic_string@DU?$char_traits@D@std@@V?$_DebugHeapAllocator@D@2@@std@@QAEPADXZ
_TEXT	SEGMENT PARA USE32 PUBLIC 'CODE'
_TEXT	ENDS
;	COMDAT ?deallocate@?$_DebugHeapAllocator@D@std@@QAEXPADI@Z
_TEXT	SEGMENT PARA USE32 PUBLIC 'CODE'
_TEXT	ENDS
;	COMDAT ?_Lock@?$basic_streambuf@GU?$char_traits@G@std@@@std@@QAEXXZ
_TEXT	SEGMENT PARA USE32 PUBLIC 'CODE'
_TEXT	ENDS
;	COMDAT ?_Osfx@?$basic_ostream@DU?$char_traits@D@std@@@std@@QAEXXZ
_TEXT	SEGMENT PARA USE32 PUBLIC 'CODE'
_TEXT	ENDS
;	COMDAT ?tie@?$basic_ios@DU?$char_traits@D@std@@@std@@QBEPAV?$basic_ostream@DU?$char_traits@D@std@@@2@XZ
_TEXT	SEGMENT PARA USE32 PUBLIC 'CODE'
_TEXT	ENDS
;	COMDAT ?_Lock@?$basic_streambuf@DU?$char_traits@D@std@@@std@@QAEXXZ
_TEXT	SEGMENT PARA USE32 PUBLIC 'CODE'
_TEXT	ENDS
;	COMDAT ?_Pninc@?$basic_streambuf@DU?$char_traits@D@std@@@std@@IAEPADXZ
_TEXT	SEGMENT PARA USE32 PUBLIC 'CODE'
_TEXT	ENDS
;	COMDAT ?GetFormattedLength@?$ChTraitsCRT@D@ATL@@SAHPBDPAD@Z
_TEXT	SEGMENT PARA USE32 PUBLIC 'CODE'
_TEXT	ENDS
;	COMDAT ?Format@?$ChTraitsCRT@D@ATL@@SAHPADPBD0@Z
_TEXT	SEGMENT PARA USE32 PUBLIC 'CODE'
_TEXT	ENDS
;	COMDAT ?GetBaseTypeLength@?$ChTraitsCRT@D@ATL@@SAHPBGH@Z
_TEXT	SEGMENT PARA USE32 PUBLIC 'CODE'
_TEXT	ENDS
;	COMDAT ?ConvertToBaseType@?$ChTraitsCRT@D@ATL@@SAXPADHPBGH@Z
_TEXT	SEGMENT PARA USE32 PUBLIC 'CODE'
_TEXT	ENDS
;	COMDAT ?AdviseSinkMap@?$CAxDialogImpl@VCShowSelectCert@@VCWindow@ATL@@@ATL@@QAEJ_N@Z
_TEXT	SEGMENT PARA USE32 PUBLIC 'CODE'
_TEXT	ENDS
;	COMDAT ??0_Sentry_base@?$basic_ostream@DU?$char_traits@D@std@@@std@@QAE@AAV12@@Z
_TEXT	SEGMENT PARA USE32 PUBLIC 'CODE'
_TEXT	ENDS
;	COMDAT ??1_Sentry_base@?$basic_ostream@DU?$char_traits@D@std@@@std@@QAE@XZ
_TEXT	SEGMENT PARA USE32 PUBLIC 'CODE'
_TEXT	ENDS
;	COMDAT ?GetWndClassName@?$CAxWindow2T@VCWindow@ATL@@@ATL@@SAPBDXZ
_TEXT	SEGMENT PARA USE32 PUBLIC 'CODE'
_TEXT	ENDS
;	COMDAT ?CreateControlLicEx@?$CAxWindow2T@VCWindow@ATL@@@ATL@@QAEJPBGPAUIStream@@PAPAUIUnknown@@2ABU_GUID@@PAU4@PAG@Z
_TEXT	SEGMENT PARA USE32 PUBLIC 'CODE'
_TEXT	ENDS
;	COMDAT ??0?$CAxWindowT@VCWindow@ATL@@@ATL@@QAE@PAUHWND__@@@Z
_TEXT	SEGMENT PARA USE32 PUBLIC 'CODE'
_TEXT	ENDS
;	COMDAT ??0?$CComObject@VCSignature@@@ATL@@QAE@PAX@Z
_TEXT	SEGMENT PARA USE32 PUBLIC 'CODE'
_TEXT	ENDS
;	COMDAT ??1?$CComObject@VCSignature@@@ATL@@UAE@XZ
_TEXT	SEGMENT PARA USE32 PUBLIC 'CODE'
_TEXT	ENDS
;	COMDAT ?AddRef@?$CComObject@VCSignature@@@ATL@@UAGKXZ
_TEXT	SEGMENT PARA USE32 PUBLIC 'CODE'
_TEXT	ENDS
;	COMDAT ?Release@?$CComObject@VCSignature@@@ATL@@UAGKXZ
_TEXT	SEGMENT PARA USE32 PUBLIC 'CODE'
_TEXT	ENDS
;	COMDAT ?QueryInterface@?$CComObject@VCSignature@@@ATL@@UAGJABU_GUID@@PAPAX@Z
_TEXT	SEGMENT PARA USE32 PUBLIC 'CODE'
_TEXT	ENDS
;	COMDAT ??0?$CComAggObject@VCSignature@@@ATL@@QAE@PAX@Z
_TEXT	SEGMENT PARA USE32 PUBLIC 'CODE'
_TEXT	ENDS
;	COMDAT ?FinalConstruct@?$CComAggObject@VCSignature@@@ATL@@QAEJXZ
_TEXT	SEGMENT PARA USE32 PUBLIC 'CODE'
_TEXT	ENDS
;	COMDAT ??1?$CComAggObject@VCSignature@@@ATL@@UAE@XZ
_TEXT	SEGMENT PARA USE32 PUBLIC 'CODE'
_TEXT	ENDS
;	COMDAT ?AddRef@?$CComAggObject@VCSignature@@@ATL@@UAGKXZ
_TEXT	SEGMENT PARA USE32 PUBLIC 'CODE'
_TEXT	ENDS
;	COMDAT ?Release@?$CComAggObject@VCSignature@@@ATL@@UAGKXZ
_TEXT	SEGMENT PARA USE32 PUBLIC 'CODE'
_TEXT	ENDS
;	COMDAT ?QueryInterface@?$CComAggObject@VCSignature@@@ATL@@UAGJABU_GUID@@PAPAX@Z
_TEXT	SEGMENT PARA USE32 PUBLIC 'CODE'
_TEXT	ENDS
;	COMDAT ?AddRef@?$CComContainedObject@VCSignature@@@ATL@@UAGKXZ
_TEXT	SEGMENT PARA USE32 PUBLIC 'CODE'
_TEXT	ENDS
;	COMDAT ?Release@?$CComContainedObject@VCSignature@@@ATL@@UAGKXZ
_TEXT	SEGMENT PARA USE32 PUBLIC 'CODE'
_TEXT	ENDS
;	COMDAT ?QueryInterface@?$CComContainedObject@VCSignature@@@ATL@@UAGJABU_GUID@@PAPAX@Z
_TEXT	SEGMENT PARA USE32 PUBLIC 'CODE'
_TEXT	ENDS
;	COMDAT ??1?$CComPtr@UIAxWinHostWindowLic@@@ATL@@QAE@XZ
_TEXT	SEGMENT PARA USE32 PUBLIC 'CODE'
_TEXT	ENDS
;	COMDAT ??_G?$CComObject@VCSignature@@@ATL@@UAEPAXI@Z
_TEXT	SEGMENT PARA USE32 PUBLIC 'CODE'
_TEXT	ENDS
;	COMDAT ??_G?$CComAggObject@VCSignature@@@ATL@@UAEPAXI@Z
_TEXT	SEGMENT PARA USE32 PUBLIC 'CODE'
_TEXT	ENDS
;	COMDAT ??1?$CComContainedObject@VCSignature@@@ATL@@QAE@XZ
_TEXT	SEGMENT PARA USE32 PUBLIC 'CODE'
_TEXT	ENDS
;	COMDAT ?Detach@?$CComPtrBase@UIUnknown@@@ATL@@QAEPAUIUnknown@@XZ
_TEXT	SEGMENT PARA USE32 PUBLIC 'CODE'
_TEXT	ENDS
;	COMDAT ?SetString@?$CSimpleStringT@D$0A@@ATL@@QAEXPBD@Z
_TEXT	SEGMENT PARA USE32 PUBLIC 'CODE'
_TEXT	ENDS
;	COMDAT ?max_size@?$basic_string@DU?$char_traits@D@std@@V?$allocator@D@2@@std@@QBEIXZ
_TEXT	SEGMENT PARA USE32 PUBLIC 'CODE'
_TEXT	ENDS
;	COMDAT ?_Copy@?$basic_string@DU?$char_traits@D@std@@V?$allocator@D@2@@std@@IAEXII@Z
_TEXT	SEGMENT PARA USE32 PUBLIC 'CODE'
_TEXT	ENDS
;	COMDAT ?_Inside@?$basic_string@DU?$char_traits@D@std@@V?$allocator@D@2@@std@@IAE_NPBD@Z
_TEXT	SEGMENT PARA USE32 PUBLIC 'CODE'
_TEXT	ENDS
;	COMDAT ?max_size@?$basic_string@DU?$char_traits@D@std@@V?$_DebugHeapAllocator@D@2@@std@@QBEIXZ
_TEXT	SEGMENT PARA USE32 PUBLIC 'CODE'
_TEXT	ENDS
;	COMDAT ?_Copy@?$basic_string@DU?$char_traits@D@std@@V?$_DebugHeapAllocator@D@2@@std@@IAEXII@Z
_TEXT	SEGMENT PARA USE32 PUBLIC 'CODE'
_TEXT	ENDS
;	COMDAT ?_Inside@?$basic_string@DU?$char_traits@D@std@@V?$_DebugHeapAllocator@D@2@@std@@IAE_NPBD@Z
_TEXT	SEGMENT PARA USE32 PUBLIC 'CODE'
_TEXT	ENDS
;	COMDAT ?FinalRelease@?$CComAggObject@VCSignature@@@ATL@@QAEXXZ
_TEXT	SEGMENT PARA USE32 PUBLIC 'CODE'
_TEXT	ENDS
;	COMDAT ??0?$CComContainedObject@VCSignature@@@ATL@@QAE@PAX@Z
_TEXT	SEGMENT PARA USE32 PUBLIC 'CODE'
_TEXT	ENDS
;	COMDAT ??0?$CComPtr@UIAxWinHostWindowLic@@@ATL@@QAE@XZ
_TEXT	SEGMENT PARA USE32 PUBLIC 'CODE'
_TEXT	ENDS
;	COMDAT ??1?$CComPtrBase@UIAxWinHostWindowLic@@@ATL@@QAE@XZ
_TEXT	SEGMENT PARA USE32 PUBLIC 'CODE'
_TEXT	ENDS
;	COMDAT ??I?$CComPtrBase@UIAxWinHostWindowLic@@@ATL@@QAEPAPAUIAxWinHostWindowLic@@XZ
_TEXT	SEGMENT PARA USE32 PUBLIC 'CODE'
_TEXT	ENDS
;	COMDAT ??C?$CComPtrBase@UIAxWinHostWindowLic@@@ATL@@QBEPAV?$_NoAddRefReleaseOnCComPtr@UIAxWinHostWindowLic@@@1@XZ
_TEXT	SEGMENT PARA USE32 PUBLIC 'CODE'
_TEXT	ENDS
;	COMDAT ?SetString@?$CSimpleStringT@D$0A@@ATL@@QAEXPBDH@Z
_TEXT	SEGMENT PARA USE32 PUBLIC 'CODE'
_TEXT	ENDS
;	COMDAT ?allocate@?$allocator@D@std@@QAEPADI@Z
_TEXT	SEGMENT PARA USE32 PUBLIC 'CODE'
_TEXT	ENDS
;	COMDAT ?max_size@?$allocator@D@std@@QBEIXZ
_TEXT	SEGMENT PARA USE32 PUBLIC 'CODE'
_TEXT	ENDS
;	COMDAT ?allocate@?$_DebugHeapAllocator@D@std@@QAEPADI@Z
_TEXT	SEGMENT PARA USE32 PUBLIC 'CODE'
_TEXT	ENDS
;	COMDAT ??0?$CComPtrBase@UIAxWinHostWindowLic@@@ATL@@IAE@XZ
_TEXT	SEGMENT PARA USE32 PUBLIC 'CODE'
_TEXT	ENDS
;	COMDAT ?GetString@?$CSimpleStringT@D$0A@@ATL@@QBEPBDXZ
_TEXT	SEGMENT PARA USE32 PUBLIC 'CODE'
_TEXT	ENDS
;	COMDAT ?CopyCharsOverlapped@?$CSimpleStringT@D$0A@@ATL@@SAXPADPBDH@Z
_TEXT	SEGMENT PARA USE32 PUBLIC 'CODE'
_TEXT	ENDS
;	COMDAT ?Unlock@?$CComCritSecLock@VCComCriticalSection@ATL@@@ATL@@QAEXXZ
_TEXT	SEGMENT PARA USE32 PUBLIC 'CODE'
_TEXT	ENDS
;	COMDAT ?StartDialogProc@?$CDialogImplBaseT@VCWindow@ATL@@@ATL@@SGHPAUHWND__@@IIJ@Z
_TEXT	SEGMENT PARA USE32 PUBLIC 'CODE'
_TEXT	ENDS
;	COMDAT ?CreateInstance@?$CComObject@V?$CComEnum@UIEnumUnknown@@$1?_GUID_00000100_0000_0000_c000_000000000046@@3U__s_GUID@@BPAUIUnknown@@V?$_CopyInterface@UIUnknown@@@ATL@@VCComSingleThreadModel@6@@ATL@@@ATL@@SGJPAPAV12@@Z
_TEXT	SEGMENT PARA USE32 PUBLIC 'CODE'
_TEXT	ENDS
;	COMDAT ??$_Pow_int@N@@YANNH@Z
_TEXT	SEGMENT PARA USE32 PUBLIC 'CODE'
_TEXT	ENDS
;	COMDAT ??$_Pow_int@H@@YAHHH@Z
_TEXT	SEGMENT PARA USE32 PUBLIC 'CODE'
_TEXT	ENDS
;	COMDAT ??$_Pow_int@M@@YAMMH@Z
_TEXT	SEGMENT PARA USE32 PUBLIC 'CODE'
_TEXT	ENDS
;	COMDAT ??$_Pow_int@O@@YAOOH@Z
_TEXT	SEGMENT PARA USE32 PUBLIC 'CODE'
_TEXT	ENDS
;	COMDAT ??$_DebugHeapDelete@Vfacet@locale@std@@@std@@YAXPAVfacet@locale@0@@Z
_TEXT	SEGMENT PARA USE32 PUBLIC 'CODE'
_TEXT	ENDS
;	COMDAT ??$use_facet@V?$ctype@D@std@@@std@@YAABV?$ctype@D@0@ABVlocale@0@@Z
_TEXT	SEGMENT PARA USE32 PUBLIC 'CODE'
_TEXT	ENDS
;	COMDAT ??$use_facet@V?$ctype@G@std@@@std@@YAABV?$ctype@G@0@ABVlocale@0@@Z
_TEXT	SEGMENT PARA USE32 PUBLIC 'CODE'
_TEXT	ENDS
;	COMDAT ??$AtlAlignUp@H@ATL@@YGHHK@Z
_TEXT	SEGMENT PARA USE32 PUBLIC 'CODE'
_TEXT	ENDS
;	COMDAT ?DialogProc@?$CAxDialogImpl@VCShowSelectCert@@VCWindow@ATL@@@ATL@@SGHPAUHWND__@@IIJ@Z
_TEXT	SEGMENT PARA USE32 PUBLIC 'CODE'
_TEXT	ENDS
;	COMDAT ??$_DebugHeapDelete@Vlocale@std@@@std@@YAXPAVlocale@0@@Z
_TEXT	SEGMENT PARA USE32 PUBLIC 'CODE'
_TEXT	ENDS
;	COMDAT ??$_DebugHeapDelete@X@std@@YAXPAX@Z
_TEXT	SEGMENT PARA USE32 PUBLIC 'CODE'
_TEXT	ENDS
;	COMDAT ??$QueryHost@UIAxWinHostWindowLic@@@?$CAxWindowT@VCWindow@ATL@@@ATL@@QAEJPAPAUIAxWinHostWindowLic@@@Z
_TEXT	SEGMENT PARA USE32 PUBLIC 'CODE'
_TEXT	ENDS
;	COMDAT ??$QueryInterface@UIUnknown@@@?$CComPtrBase@UIAxWinHostWindowLic@@@ATL@@QBEJPAPAUIUnknown@@@Z
_TEXT	SEGMENT PARA USE32 PUBLIC 'CODE'
_TEXT	ENDS
;	COMDAT ??$_Allocate@D@std@@YAPADIPAD@Z
_TEXT	SEGMENT PARA USE32 PUBLIC 'CODE'
_TEXT	ENDS
;	COMDAT ??_Glocale@std@@QAEPAXI@Z
_TEXT	SEGMENT PARA USE32 PUBLIC 'CODE'
_TEXT	ENDS
;	COMDAT ?GetIDD@?$CAxDialogImpl@VCShowSelectCert@@VCWindow@ATL@@@ATL@@QAEHXZ
_TEXT	SEGMENT PARA USE32 PUBLIC 'CODE'
_TEXT	ENDS
;	COMDAT ?DestroyWindow@?$CAxDialogImpl@VCShowSelectCert@@VCWindow@ATL@@@ATL@@QAEHXZ
_TEXT	SEGMENT PARA USE32 PUBLIC 'CODE'
_TEXT	ENDS
;	COMDAT ?QueryHost@?$CAxWindowT@VCWindow@ATL@@@ATL@@QAEJABU_GUID@@PAPAX@Z
_TEXT	SEGMENT PARA USE32 PUBLIC 'CODE'
_TEXT	ENDS
;	COMDAT ?QueryInterface@?$CComObject@VCSignature@@@ATL@@W3AGJABU_GUID@@PAPAX@Z
_TEXT	SEGMENT PARA USE32 PUBLIC 'CODE'
_TEXT	ENDS
;	COMDAT ?AddRef@?$CComObject@VCSignature@@@ATL@@W3AGKXZ
_TEXT	SEGMENT PARA USE32 PUBLIC 'CODE'
_TEXT	ENDS
;	COMDAT ?Release@?$CComObject@VCSignature@@@ATL@@W3AGKXZ
_TEXT	SEGMENT PARA USE32 PUBLIC 'CODE'
_TEXT	ENDS
;	COMDAT ?QueryInterface@?$CComObject@VCSignature@@@ATL@@W7AGJABU_GUID@@PAPAX@Z
_TEXT	SEGMENT PARA USE32 PUBLIC 'CODE'
_TEXT	ENDS
;	COMDAT ?AddRef@?$CComObject@VCSignature@@@ATL@@W7AGKXZ
_TEXT	SEGMENT PARA USE32 PUBLIC 'CODE'
_TEXT	ENDS
;	COMDAT ?Release@?$CComObject@VCSignature@@@ATL@@W7AGKXZ
_TEXT	SEGMENT PARA USE32 PUBLIC 'CODE'
_TEXT	ENDS
;	COMDAT ?QueryInterface@?$CComContainedObject@VCSignature@@@ATL@@W3AGJABU_GUID@@PAPAX@Z
_TEXT	SEGMENT PARA USE32 PUBLIC 'CODE'
_TEXT	ENDS
;	COMDAT ?AddRef@?$CComContainedObject@VCSignature@@@ATL@@W3AGKXZ
_TEXT	SEGMENT PARA USE32 PUBLIC 'CODE'
_TEXT	ENDS
;	COMDAT ?Release@?$CComContainedObject@VCSignature@@@ATL@@W3AGKXZ
_TEXT	SEGMENT PARA USE32 PUBLIC 'CODE'
_TEXT	ENDS
;	COMDAT ?QueryInterface@?$CComContainedObject@VCSignature@@@ATL@@W7AGJABU_GUID@@PAPAX@Z
_TEXT	SEGMENT PARA USE32 PUBLIC 'CODE'
_TEXT	ENDS
;	COMDAT ?AddRef@?$CComContainedObject@VCSignature@@@ATL@@W7AGKXZ
_TEXT	SEGMENT PARA USE32 PUBLIC 'CODE'
_TEXT	ENDS
;	COMDAT ?Release@?$CComContainedObject@VCSignature@@@ATL@@W7AGKXZ
_TEXT	SEGMENT PARA USE32 PUBLIC 'CODE'
_TEXT	ENDS
;	COMDAT ?LockServer@CComClassFactory@ATL@@UAGJH@Z
_TEXT	SEGMENT PARA USE32 PUBLIC 'CODE'
_TEXT	ENDS
;	COMDAT ?CreateInstance@CComClassFactory@ATL@@UAGJPAUIUnknown@@ABU_GUID@@PAPAX@Z
_TEXT	SEGMENT PARA USE32 PUBLIC 'CODE'
_TEXT	ENDS
;	COMDAT ??_C@_0BJ@HNHMIKBN@m_pfnCreateInstance?5?$CB?$DN?50?$AA@
CONST	SEGMENT DWORD USE32 PUBLIC 'CONST'
CONST	ENDS
;	COMDAT ??_C@_0FH@OCMNPHBO@CComClassFactory?3?5asked?5for?5non?5@
CONST	SEGMENT DWORD USE32 PUBLIC 'CONST'
CONST	ENDS
;	COMDAT ?OnFinalMessage@?$CDialogImplBaseT@VCWindow@ATL@@@ATL@@UAEXPAUHWND__@@@Z
_TEXT	SEGMENT PARA USE32 PUBLIC 'CODE'
_TEXT	ENDS
;	COMDAT ??C?$CComPtrBase@UIUnknown@@@ATL@@QBEPAV?$_NoAddRefReleaseOnCComPtr@UIUnknown@@@1@XZ
_TEXT	SEGMENT PARA USE32 PUBLIC 'CODE'
_TEXT	ENDS
;	COMDAT ??_C@_0L@PGEBGEDK@ppUnk?5?$CB?$DN?50?$AA@
CONST	SEGMENT DWORD USE32 PUBLIC 'CONST'
CONST	ENDS
;	COMDAT __GUID_00000000_0000_0000_c000_000000000046
CONST	SEGMENT DWORD USE32 PUBLIC 'CONST'
CONST	ENDS
;	COMDAT ??_C@_07MEKCDCMA@pp?5?$CB?$DN?50?$AA@
CONST	SEGMENT DWORD USE32 PUBLIC 'CONST'
CONST	ENDS
;	COMDAT __GUID_3935bda8_4ed9_495c_8650_e01fc1e38a4b
CONST	SEGMENT DWORD USE32 PUBLIC 'CONST'
CONST	ENDS
;	COMDAT ?DialogProc@?$CDialogImplBaseT@VCWindow@ATL@@@ATL@@SGHPAUHWND__@@IIJ@Z
_TEXT	SEGMENT PARA USE32 PUBLIC 'CODE'
_TEXT	ENDS
;	COMDAT ??0_ATL_MSG@ATL@@QAE@PAUHWND__@@IIJH@Z
_TEXT	SEGMENT PARA USE32 PUBLIC 'CODE'
_TEXT	ENDS
;	COMDAT ?_Psave@?$_Facetptr@V?$ctype@G@std@@@std@@2PBVfacet@locale@2@B
_DATA	SEGMENT DWORD USE32 PUBLIC 'DATA'
_DATA	ENDS
;	COMDAT __CTA2?AVbad_cast@@
xdata$x	SEGMENT DWORD USE32 PUBLIC 'CONST'
xdata$x	ENDS
;	COMDAT __CT??_R0?AVexception@@@8??0exception@@QAE@ABV0@@Z12
xdata$x	SEGMENT DWORD USE32 PUBLIC 'CONST'
xdata$x	ENDS
;	COMDAT __CT??_R0?AVbad_cast@@@8??0bad_cast@@QAE@ABV0@@Z12
xdata$x	SEGMENT DWORD USE32 PUBLIC 'CONST'
xdata$x	ENDS
;	COMDAT ??_R0?AVexception@@@8
_DATA	SEGMENT DWORD USE32 PUBLIC 'DATA'
_DATA	ENDS
;	COMDAT ??_R0?AVbad_cast@@@8
_DATA	SEGMENT DWORD USE32 PUBLIC 'DATA'
_DATA	ENDS
;	COMDAT __TI2?AVbad_cast@@
xdata$x	SEGMENT DWORD USE32 PUBLIC 'CONST'
xdata$x	ENDS
;	COMDAT ?_Psave@?$_Facetptr@V?$ctype@D@std@@@std@@2PBVfacet@locale@2@B
_DATA	SEGMENT DWORD USE32 PUBLIC 'DATA'
_DATA	ENDS
;	COMDAT ??0?$CComObject@V?$CComEnum@UIEnumUnknown@@$1?_GUID_00000100_0000_0000_c000_000000000046@@3U__s_GUID@@BPAUIUnknown@@V?$_CopyInterface@UIUnknown@@@ATL@@VCComSingleThreadModel@6@@ATL@@@ATL@@QAE@PAX@Z
_TEXT	SEGMENT PARA USE32 PUBLIC 'CODE'
_TEXT	ENDS
;	COMDAT ??0?$CComEnum@UIEnumUnknown@@$1?_GUID_00000100_0000_0000_c000_000000000046@@3U__s_GUID@@BPAUIUnknown@@V?$_CopyInterface@UIUnknown@@@ATL@@VCComSingleThreadModel@6@@ATL@@QAE@XZ
_TEXT	SEGMENT PARA USE32 PUBLIC 'CODE'
_TEXT	ENDS
;	COMDAT ??0?$CComEnumImpl@UIEnumUnknown@@$1?_GUID_00000100_0000_0000_c000_000000000046@@3U__s_GUID@@BPAUIUnknown@@V?$_CopyInterface@UIUnknown@@@ATL@@@ATL@@QAE@XZ
_TEXT	SEGMENT PARA USE32 PUBLIC 'CODE'
_TEXT	ENDS
;	COMDAT ??0IEnumUnknown@@QAE@XZ
_TEXT	SEGMENT PARA USE32 PUBLIC 'CODE'
_TEXT	ENDS
;	COMDAT ??1?$CComEnumImpl@UIEnumUnknown@@$1?_GUID_00000100_0000_0000_c000_000000000046@@3U__s_GUID@@BPAUIUnknown@@V?$_CopyInterface@UIUnknown@@@ATL@@@ATL@@UAE@XZ
_TEXT	SEGMENT PARA USE32 PUBLIC 'CODE'
_TEXT	ENDS
;	COMDAT ??1?$CComEnum@UIEnumUnknown@@$1?_GUID_00000100_0000_0000_c000_000000000046@@3U__s_GUID@@BPAUIUnknown@@V?$_CopyInterface@UIUnknown@@@ATL@@VCComSingleThreadModel@6@@ATL@@UAE@XZ
_TEXT	SEGMENT PARA USE32 PUBLIC 'CODE'
_TEXT	ENDS
;	COMDAT ??_7?$CComObject@V?$CComEnum@UIEnumUnknown@@$1?_GUID_00000100_0000_0000_c000_000000000046@@3U__s_GUID@@BPAUIUnknown@@V?$_CopyInterface@UIUnknown@@@ATL@@VCComSingleThreadModel@6@@ATL@@@ATL@@6B@
CONST	SEGMENT DWORD USE32 PUBLIC 'CONST'
CONST	ENDS
;	COMDAT ?QueryInterface@?$CComObject@V?$CComEnum@UIEnumUnknown@@$1?_GUID_00000100_0000_0000_c000_000000000046@@3U__s_GUID@@BPAUIUnknown@@V?$_CopyInterface@UIUnknown@@@ATL@@VCComSingleThreadModel@6@@ATL@@@ATL@@UAGJABU_GUID@@PAPAX@Z
_TEXT	SEGMENT PARA USE32 PUBLIC 'CODE'
_TEXT	ENDS
;	COMDAT ?_InternalQueryInterface@?$CComEnum@UIEnumUnknown@@$1?_GUID_00000100_0000_0000_c000_000000000046@@3U__s_GUID@@BPAUIUnknown@@V?$_CopyInterface@UIUnknown@@@ATL@@VCComSingleThreadModel@6@@ATL@@QAEJABU_GUID@@PAPAX@Z
_TEXT	SEGMENT PARA USE32 PUBLIC 'CODE'
_TEXT	ENDS
;	COMDAT ?_GetEntries@?$CComEnum@UIEnumUnknown@@$1?_GUID_00000100_0000_0000_c000_000000000046@@3U__s_GUID@@BPAUIUnknown@@V?$_CopyInterface@UIUnknown@@@ATL@@VCComSingleThreadModel@6@@ATL@@SGPBU_ATL_INTMAP_ENTRY@2@XZ
_TEXT	SEGMENT PARA USE32 PUBLIC 'CODE'
_TEXT	ENDS
;	COMDAT ??_C@_09BEHAHIFA@_CComEnum?$AA@
CONST	SEGMENT DWORD USE32 PUBLIC 'CONST'
CONST	ENDS
;	COMDAT __GUID_00000100_0000_0000_c000_000000000046
CONST	SEGMENT DWORD USE32 PUBLIC 'CONST'
CONST	ENDS
;	COMDAT ?_entries@?1??_GetEntries@?$CComEnum@UIEnumUnknown@@$1?_GUID_00000100_0000_0000_c000_000000000046@@3U__s_GUID@@BPAUIUnknown@@V?$_CopyInterface@UIUnknown@@@ATL@@VCComSingleThreadModel@6@@ATL@@SGPBU_ATL_INTMAP_ENTRY@3@XZ@4QBU43@B
CONST	SEGMENT DWORD USE32 PUBLIC 'CONST'
CONST	ENDS
;	COMDAT ?AddRef@?$CComObject@V?$CComEnum@UIEnumUnknown@@$1?_GUID_00000100_0000_0000_c000_000000000046@@3U__s_GUID@@BPAUIUnknown@@V?$_CopyInterface@UIUnknown@@@ATL@@VCComSingleThreadModel@6@@ATL@@@ATL@@UAGKXZ
_TEXT	SEGMENT PARA USE32 PUBLIC 'CODE'
_TEXT	ENDS
;	COMDAT ?Release@?$CComObject@V?$CComEnum@UIEnumUnknown@@$1?_GUID_00000100_0000_0000_c000_000000000046@@3U__s_GUID@@BPAUIUnknown@@V?$_CopyInterface@UIUnknown@@@ATL@@VCComSingleThreadModel@6@@ATL@@@ATL@@UAGKXZ
_TEXT	SEGMENT PARA USE32 PUBLIC 'CODE'
_TEXT	ENDS
;	COMDAT ?Next@?$CComEnumImpl@UIEnumUnknown@@$1?_GUID_00000100_0000_0000_c000_000000000046@@3U__s_GUID@@BPAUIUnknown@@V?$_CopyInterface@UIUnknown@@@ATL@@@ATL@@UAGJKPAPAUIUnknown@@PAK@Z
_TEXT	SEGMENT PARA USE32 PUBLIC 'CODE'
_TEXT	ENDS
;	COMDAT ?Skip@?$CComEnumImpl@UIEnumUnknown@@$1?_GUID_00000100_0000_0000_c000_000000000046@@3U__s_GUID@@BPAUIUnknown@@V?$_CopyInterface@UIUnknown@@@ATL@@@ATL@@UAGJK@Z
_TEXT	SEGMENT PARA USE32 PUBLIC 'CODE'
_TEXT	ENDS
;	COMDAT ?Reset@?$CComEnumImpl@UIEnumUnknown@@$1?_GUID_00000100_0000_0000_c000_000000000046@@3U__s_GUID@@BPAUIUnknown@@V?$_CopyInterface@UIUnknown@@@ATL@@@ATL@@UAGJXZ
_TEXT	SEGMENT PARA USE32 PUBLIC 'CODE'
_TEXT	ENDS
;	COMDAT ?Clone@?$CComEnumImpl@UIEnumUnknown@@$1?_GUID_00000100_0000_0000_c000_000000000046@@3U__s_GUID@@BPAUIUnknown@@V?$_CopyInterface@UIUnknown@@@ATL@@@ATL@@UAGJPAPAUIEnumUnknown@@@Z
_TEXT	SEGMENT PARA USE32 PUBLIC 'CODE'
_TEXT	ENDS
;	COMDAT ?Init@?$CComEnumImpl@UIEnumUnknown@@$1?_GUID_00000100_0000_0000_c000_000000000046@@3U__s_GUID@@BPAUIUnknown@@V?$_CopyInterface@UIUnknown@@@ATL@@@ATL@@QAEJPAPAUIUnknown@@0PAU3@W4CComEnumFlags@2@@Z
_TEXT	SEGMENT PARA USE32 PUBLIC 'CODE'
_TEXT	ENDS
;	COMDAT ??4?$CComPtr@UIUnknown@@@ATL@@QAEPAUIUnknown@@PAU2@@Z
_TEXT	SEGMENT PARA USE32 PUBLIC 'CODE'
_TEXT	ENDS
;	COMDAT ??B?$CComPtrBase@UIUnknown@@@ATL@@QBEPAUIUnknown@@XZ
_TEXT	SEGMENT PARA USE32 PUBLIC 'CODE'
_TEXT	ENDS
;	COMDAT ??0?$CComPtr@UIUnknown@@@ATL@@QAE@PAUIUnknown@@@Z
_TEXT	SEGMENT PARA USE32 PUBLIC 'CODE'
_TEXT	ENDS
;	COMDAT ??0?$CComPtrBase@UIUnknown@@@ATL@@IAE@PAUIUnknown@@@Z
_TEXT	SEGMENT PARA USE32 PUBLIC 'CODE'
_TEXT	ENDS
;	COMDAT ??1?$CComPtrBase@UIUnknown@@@ATL@@QAE@XZ
_TEXT	SEGMENT PARA USE32 PUBLIC 'CODE'
_TEXT	ENDS
;	COMDAT ??_G?$CComObject@V?$CComEnum@UIEnumUnknown@@$1?_GUID_00000100_0000_0000_c000_000000000046@@3U__s_GUID@@BPAUIUnknown@@V?$_CopyInterface@UIUnknown@@@ATL@@VCComSingleThreadModel@6@@ATL@@@ATL@@UAEPAXI@Z
_TEXT	SEGMENT PARA USE32 PUBLIC 'CODE'
_TEXT	ENDS
;	COMDAT ??1?$CComObject@V?$CComEnum@UIEnumUnknown@@$1?_GUID_00000100_0000_0000_c000_000000000046@@3U__s_GUID@@BPAUIUnknown@@V?$_CopyInterface@UIUnknown@@@ATL@@VCComSingleThreadModel@6@@ATL@@@ATL@@UAE@XZ
_TEXT	SEGMENT PARA USE32 PUBLIC 'CODE'
_TEXT	ENDS
;	COMDAT ?SetWindowLongPtrA@@YAJPAUHWND__@@HJ@Z
_TEXT	SEGMENT PARA USE32 PUBLIC 'CODE'
_TEXT	ENDS
;	COMDAT ?GetWNDPROC@CWndProcThunk@ATL@@QAEP6GJPAUHWND__@@IIJ@ZXZ
_TEXT	SEGMENT PARA USE32 PUBLIC 'CODE'
_TEXT	ENDS
;	COMDAT ?GetCodeAddress@CDynamicStdCallThunk@ATL@@QAEPAXXZ
_TEXT	SEGMENT PARA USE32 PUBLIC 'CODE'
_TEXT	ENDS
;	COMDAT ??_C@_06CIAHICCP@pThunk?$AA@
CONST	SEGMENT DWORD USE32 PUBLIC 'CONST'
CONST	ENDS
;	COMDAT ?GetCodeAddress@_stdcallthunk@ATL@@QAEPAXXZ
_TEXT	SEGMENT PARA USE32 PUBLIC 'CODE'
_TEXT	ENDS
;	COMDAT ?Init@CWndProcThunk@ATL@@QAEXP6GJPAUHWND__@@IIJ@ZPAX@Z
_TEXT	SEGMENT PARA USE32 PUBLIC 'CODE'
_TEXT	ENDS
;	COMDAT ?Init@CDynamicStdCallThunk@ATL@@QAEXKPAX@Z
_TEXT	SEGMENT PARA USE32 PUBLIC 'CODE'
_TEXT	ENDS
;	COMDAT ?Init@_stdcallthunk@ATL@@QAEXKPAX@Z
_TEXT	SEGMENT PARA USE32 PUBLIC 'CODE'
_TEXT	ENDS
;	COMDAT ?ExtractCreateWndData@CAtlWinModule@ATL@@QAEPAXXZ
_TEXT	SEGMENT PARA USE32 PUBLIC 'CODE'
_TEXT	ENDS
;	COMDAT ??_C@_0FA@KBNNCCJL@C?3?2Program?5Files?2Microsoft?5Visua@
CONST	SEGMENT DWORD USE32 PUBLIC 'CONST'
CONST	ENDS
;	COMDAT ??_C@_09HIEJFN@m_bLocked?$AA@
CONST	SEGMENT DWORD USE32 PUBLIC 'CONST'
CONST	ENDS
;	COMDAT ?Empty@?$CSimpleStringT@D$0A@@ATL@@QAEXXZ
_TEXT	SEGMENT PARA USE32 PUBLIC 'CODE'
_TEXT	ENDS
;	COMDAT ??_C@_04CLHEGAEG@p?$CB?$DN0?$AA@
CONST	SEGMENT DWORD USE32 PUBLIC 'CONST'
CONST	ENDS
;	COMDAT ??_C@_0FC@KBOEFHBO@C?3?2Program?5Files?2Microsoft?5Visua@
CONST	SEGMENT DWORD USE32 PUBLIC 'CONST'
CONST	ENDS
;	COMDAT ??_C@_04DBLLIIGB@p?$DN?$DN0?$AA@
CONST	SEGMENT DWORD USE32 PUBLIC 'CONST'
CONST	ENDS
;	COMDAT ??_7?$CComContainedObject@VCSignature@@@ATL@@6BIObjectWithSite@@@
CONST	SEGMENT DWORD USE32 PUBLIC 'CONST'
CONST	ENDS
;	COMDAT ??_7?$CComContainedObject@VCSignature@@@ATL@@6BIOleCommandTarget@@@
CONST	SEGMENT DWORD USE32 PUBLIC 'CONST'
CONST	ENDS
;	COMDAT ??_7?$CComContainedObject@VCSignature@@@ATL@@6B?$IDispatchImpl@UISignature@@$1?IID_ISignature@@3U_GUID@@B$1?LIBID_XMLSIGNLib@@3U3@B$00$0A@VCComTypeInfoHolder@ATL@@@1@@
CONST	SEGMENT DWORD USE32 PUBLIC 'CONST'
CONST	ENDS
;	COMDAT ?StringLength@?$CSimpleStringT@D$0A@@ATL@@SAHPBD@Z
_TEXT	SEGMENT PARA USE32 PUBLIC 'CODE'
_TEXT	ENDS
;	COMDAT ?OuterQueryInterface@CComObjectRootBase@ATL@@QAEJABU_GUID@@PAPAX@Z
_TEXT	SEGMENT PARA USE32 PUBLIC 'CODE'
_TEXT	ENDS
;	COMDAT ?OuterRelease@CComObjectRootBase@ATL@@QAEKXZ
_TEXT	SEGMENT PARA USE32 PUBLIC 'CODE'
_TEXT	ENDS
;	COMDAT ?OuterAddRef@CComObjectRootBase@ATL@@QAEKXZ
_TEXT	SEGMENT PARA USE32 PUBLIC 'CODE'
_TEXT	ENDS
;	COMDAT ?InlineIsEqualUnknown@ATL@@YGHABU_GUID@@@Z
_TEXT	SEGMENT PARA USE32 PUBLIC 'CODE'
_TEXT	ENDS
;	COMDAT ??_C@_0P@BMHEGBAP@ppvObject?5?$CB?$DN?50?$AA@
CONST	SEGMENT DWORD USE32 PUBLIC 'CONST'
CONST	ENDS
;	COMDAT ??_7?$CComAggObject@VCSignature@@@ATL@@6B@
CONST	SEGMENT DWORD USE32 PUBLIC 'CONST'
CONST	ENDS
;	COMDAT ??0?$CComObjectRootEx@VCComSingleThreadModel@ATL@@@ATL@@QAE@XZ
_TEXT	SEGMENT PARA USE32 PUBLIC 'CODE'
_TEXT	ENDS
;	COMDAT ??_7?$CComObject@VCSignature@@@ATL@@6BIObjectWithSite@@@
CONST	SEGMENT DWORD USE32 PUBLIC 'CONST'
CONST	ENDS
;	COMDAT ??_7?$CComObject@VCSignature@@@ATL@@6BIOleCommandTarget@@@
CONST	SEGMENT DWORD USE32 PUBLIC 'CONST'
CONST	ENDS
;	COMDAT ??_7?$CComObject@VCSignature@@@ATL@@6B?$IDispatchImpl@UISignature@@$1?IID_ISignature@@3U_GUID@@B$1?LIBID_XMLSIGNLib@@3U3@B$00$0A@VCComTypeInfoHolder@ATL@@@1@@
CONST	SEGMENT DWORD USE32 PUBLIC 'CONST'
CONST	ENDS
;	COMDAT ??0CWindow@ATL@@QAE@PAUHWND__@@@Z
_TEXT	SEGMENT PARA USE32 PUBLIC 'CODE'
_TEXT	ENDS
;	COMDAT ??_C@_0BF@CCFFBNDL@?$CI?$CIHRESULT?$CJ?$CIhr?$CJ?5?$DO?$DN?50?$CJ?$AA@
CONST	SEGMENT DWORD USE32 PUBLIC 'CONST'
CONST	ENDS
;	COMDAT ??I?$CComPtrBase@UIUnknown@@@ATL@@QAEPAPAUIUnknown@@XZ
_TEXT	SEGMENT PARA USE32 PUBLIC 'CODE'
_TEXT	ENDS
;	COMDAT ??1?$CComPtr@UIUnknown@@@ATL@@QAE@XZ
_TEXT	SEGMENT PARA USE32 PUBLIC 'CODE'
_TEXT	ENDS
;	COMDAT ??0?$CComPtr@UIUnknown@@@ATL@@QAE@XZ
_TEXT	SEGMENT PARA USE32 PUBLIC 'CODE'
_TEXT	ENDS
;	COMDAT ??0?$CComPtrBase@UIUnknown@@@ATL@@IAE@XZ
_TEXT	SEGMENT PARA USE32 PUBLIC 'CODE'
_TEXT	ENDS
;	COMDAT ?A2T@@YAPADPAD@Z
_TEXT	SEGMENT PARA USE32 PUBLIC 'CODE'
_TEXT	ENDS
;	COMDAT ?SendDlgItemMessageA@CWindow@ATL@@QAEJHIIJ@Z
_TEXT	SEGMENT PARA USE32 PUBLIC 'CODE'
_TEXT	ENDS
;	COMDAT ?CopyChars@?$CSimpleStringT@D$0A@@ATL@@SAXPADPBDH@Z
_TEXT	SEGMENT PARA USE32 PUBLIC 'CODE'
_TEXT	ENDS
;	COMDAT ?ThrowMemoryException@?$CSimpleStringT@D$0A@@ATL@@KAXXZ
_TEXT	SEGMENT PARA USE32 PUBLIC 'CODE'
_TEXT	ENDS
;	COMDAT ?IsLocked@CStringData@ATL@@QBE_NXZ
_TEXT	SEGMENT PARA USE32 PUBLIC 'CODE'
_TEXT	ENDS
;	COMDAT ?SetLength@?$CSimpleStringT@D$0A@@ATL@@AAEXH@Z
_TEXT	SEGMENT PARA USE32 PUBLIC 'CODE'
_TEXT	ENDS
;	COMDAT ??_C@_0N@ILOMLJGA@nLength?5?$DO?$DN?50?$AA@
CONST	SEGMENT DWORD USE32 PUBLIC 'CONST'
CONST	ENDS
;	COMDAT ??_C@_0CD@EEFFJEGJ@nLength?5?$DM?$DN?5GetData?$CI?$CJ?9?$DOnAllocLeng@
CONST	SEGMENT DWORD USE32 PUBLIC 'CONST'
CONST	ENDS
;	COMDAT ??_C@_0EC@FOHBGNDM@0?5?$CG?$CG?5?$CCRelease?5called?5on?5a?5pointe@
CONST	SEGMENT DWORD USE32 PUBLIC 'CONST'
CONST	ENDS
;	COMDAT ?Decrement@CComMultiThreadModel@ATL@@SGKPAJ@Z
_TEXT	SEGMENT PARA USE32 PUBLIC 'CODE'
_TEXT	ENDS
;	COMDAT ?Increment@CComMultiThreadModel@ATL@@SGKPAJ@Z
_TEXT	SEGMENT PARA USE32 PUBLIC 'CODE'
_TEXT	ENDS
;	COMDAT ??_C@_0P@IDNKKMJE@m_dwRef?5?$CB?$DN?5?91L?$AA@
CONST	SEGMENT DWORD USE32 PUBLIC 'CONST'
CONST	ENDS
;	COMDAT ??0CComObjectRootBase@ATL@@QAE@XZ
_TEXT	SEGMENT PARA USE32 PUBLIC 'CODE'
_TEXT	ENDS
;	COMDAT ??0IUnknown@@QAE@XZ
_TEXT	SEGMENT PARA USE32 PUBLIC 'CODE'
_TEXT	ENDS
;	COMDAT ??_7CComClassFactory@ATL@@6B@
CONST	SEGMENT DWORD USE32 PUBLIC 'CONST'
CONST	ENDS
;	COMDAT ??_GCComClassFactory@ATL@@UAEPAXI@Z
_TEXT	SEGMENT PARA USE32 PUBLIC 'CODE'
_TEXT	ENDS
;	COMDAT ??1?$CComObjectRootEx@VCComMultiThreadModel@ATL@@@ATL@@QAE@XZ
_TEXT	SEGMENT PARA USE32 PUBLIC 'CODE'
_TEXT	ENDS
;	COMDAT ?SetVoid@CComObjectRootBase@ATL@@QAEXPAX@Z
_TEXT	SEGMENT PARA USE32 PUBLIC 'CODE'
_TEXT	ENDS
;	COMDAT ?_InternalQueryInterface@CComClassFactory@ATL@@QAEJABU_GUID@@PAPAX@Z
_TEXT	SEGMENT PARA USE32 PUBLIC 'CODE'
_TEXT	ENDS
;	COMDAT ?_GetEntries@CComClassFactory@ATL@@SGPBU_ATL_INTMAP_ENTRY@2@XZ
_TEXT	SEGMENT PARA USE32 PUBLIC 'CODE'
_TEXT	ENDS
;	COMDAT ??_C@_0BB@PADCHBLN@CComClassFactory?$AA@
CONST	SEGMENT DWORD USE32 PUBLIC 'CONST'
CONST	ENDS
;	COMDAT __GUID_00000001_0000_0000_c000_000000000046
CONST	SEGMENT DWORD USE32 PUBLIC 'CONST'
CONST	ENDS
;	COMDAT ?_entries@?1??_GetEntries@CComClassFactory@ATL@@SGPBU_ATL_INTMAP_ENTRY@3@XZ@4QBU43@B
CONST	SEGMENT DWORD USE32 PUBLIC 'CONST'
CONST	ENDS
;	COMDAT ?Unlock@CComCriticalSection@ATL@@QAEJXZ
_TEXT	SEGMENT PARA USE32 PUBLIC 'CODE'
_TEXT	ENDS
;	COMDAT ?Lock@CComCriticalSection@ATL@@QAEJXZ
_TEXT	SEGMENT PARA USE32 PUBLIC 'CODE'
_TEXT	ENDS
;	COMDAT ?FinalRelease@CComObjectRootBase@ATL@@QAEXXZ
_TEXT	SEGMENT PARA USE32 PUBLIC 'CODE'
_TEXT	ENDS
;	COMDAT ??1CComAutoCriticalSection@ATL@@QAE@XZ
_TEXT	SEGMENT PARA USE32 PUBLIC 'CODE'
_TEXT	ENDS
;	COMDAT ?Term@CComCriticalSection@ATL@@QAEJXZ
_TEXT	SEGMENT PARA USE32 PUBLIC 'CODE'
_TEXT	ENDS
;	COMDAT ??0CComAutoCriticalSection@ATL@@QAE@XZ
_TEXT	SEGMENT PARA USE32 PUBLIC 'CODE'
_TEXT	ENDS
;	COMDAT ??0CComCriticalSection@ATL@@QAE@XZ
_TEXT	SEGMENT PARA USE32 PUBLIC 'CODE'
_TEXT	ENDS
;	COMDAT ?Init@CComCriticalSection@ATL@@QAEJXZ
_TEXT	SEGMENT PARA USE32 PUBLIC 'CODE'
_TEXT	ENDS
;	COMDAT ??_7?$CComObjectCached@VCComClassFactory@ATL@@@ATL@@6B@
CONST	SEGMENT DWORD USE32 PUBLIC 'CONST'
CONST	ENDS
;	COMDAT ??1CComClassFactory@ATL@@UAE@XZ
_TEXT	SEGMENT PARA USE32 PUBLIC 'CODE'
_TEXT	ENDS
;	COMDAT ?Create@CWindow@ATL@@QAEPAUHWND__@@PBDPAU3@V_U_RECT@2@0KKV_U_MENUorID@2@PAX@Z
_TEXT	SEGMENT PARA USE32 PUBLIC 'CODE'
_TEXT	ENDS
;	COMDAT ?rcDefault@CWindow@ATL@@2UtagRECT@@A
_DATA	SEGMENT DWORD USE32 PUBLIC 'DATA'
_DATA	ENDS
;	COMDAT ?GetModuleInstance@CAtlBaseModule@ATL@@QAEPAUHINSTANCE__@@XZ
_TEXT	SEGMENT PARA USE32 PUBLIC 'CODE'
_TEXT	ENDS
;	COMDAT ?_Stz@?$fpos@H@std@@0HA
_BSS	SEGMENT PARA USE32 PUBLIC 'BSS'
_BSS	ENDS
;	COMDAT ?AtlFindStringResourceInstance@ATL@@YAPAUHINSTANCE__@@IG@Z
_TEXT	SEGMENT PARA USE32 PUBLIC 'CODE'
_TEXT	ENDS
;	COMDAT ?AtlGetStringResourceImage@ATL@@YAPBUATLSTRINGRESOURCEIMAGE@1@PAUHINSTANCE__@@IG@Z
_TEXT	SEGMENT PARA USE32 PUBLIC 'CODE'
_TEXT	ENDS
;	COMDAT ?_AtlGetStringResourceImage@ATL@@YAPBUATLSTRINGRESOURCEIMAGE@1@PAUHINSTANCE__@@PAUHRSRC__@@I@Z
_TEXT	SEGMENT PARA USE32 PUBLIC 'CODE'
_TEXT	ENDS
;	COMDAT ?AtlGetStringResourceImage@ATL@@YAPBUATLSTRINGRESOURCEIMAGE@1@PAUHINSTANCE__@@I@Z
_TEXT	SEGMENT PARA USE32 PUBLIC 'CODE'
_TEXT	ENDS
;	COMDAT ?GetBuffer@?$CSimpleStringT@D$0A@@ATL@@QAEPADH@Z
_TEXT	SEGMENT PARA USE32 PUBLIC 'CODE'
_TEXT	ENDS
;	COMDAT ?AtlThrowLastWin32@ATL@@YGXXZ
_TEXT	SEGMENT PARA USE32 PUBLIC 'CODE'
_TEXT	ENDS
;	COMDAT ?Release@CStringData@ATL@@QAEXXZ
_TEXT	SEGMENT PARA USE32 PUBLIC 'CODE'
_TEXT	ENDS
;	COMDAT ??_C@_0L@OIIMFBNE@nRefs?5?$CB?$DN?50?$AA@
CONST	SEGMENT DWORD USE32 PUBLIC 'CONST'
CONST	ENDS
;	COMDAT ?GetData@?$CSimpleStringT@D$0A@@ATL@@ABEPAUCStringData@2@XZ
_TEXT	SEGMENT PARA USE32 PUBLIC 'CODE'
_TEXT	ENDS
;	COMDAT ?Attach@?$CSimpleStringT@D$0A@@ATL@@AAEXPAUCStringData@2@@Z
_TEXT	SEGMENT PARA USE32 PUBLIC 'CODE'
_TEXT	ENDS
;	COMDAT ??_C@_0FD@MKDEOELP@C?3?2Program?5Files?2Microsoft?5Visua@
CONST	SEGMENT DWORD USE32 PUBLIC 'CONST'
CONST	ENDS
;	COMDAT ??1?$CWindowImplRoot@VCWindow@ATL@@@ATL@@UAE@XZ
_TEXT	SEGMENT PARA USE32 PUBLIC 'CODE'
_TEXT	ENDS
;	COMDAT ??1CWndProcThunk@ATL@@QAE@XZ
_TEXT	SEGMENT PARA USE32 PUBLIC 'CODE'
_TEXT	ENDS
;	COMDAT ??1CDynamicStdCallThunk@ATL@@QAE@XZ
_TEXT	SEGMENT PARA USE32 PUBLIC 'CODE'
_TEXT	ENDS
;	COMDAT ??_C@_0DE@JJEOCICO@ERROR?5?9?5Object?5deleted?5before?5wi@
CONST	SEGMENT DWORD USE32 PUBLIC 'CONST'
CONST	ENDS
;	COMDAT ??0?$CWindowImplRoot@VCWindow@ATL@@@ATL@@QAE@XZ
_TEXT	SEGMENT PARA USE32 PUBLIC 'CODE'
_TEXT	ENDS
;	COMDAT ??0CMessageMap@ATL@@QAE@XZ
_TEXT	SEGMENT PARA USE32 PUBLIC 'CODE'
_TEXT	ENDS
;	COMDAT ??0CWndProcThunk@ATL@@QAE@XZ
_TEXT	SEGMENT PARA USE32 PUBLIC 'CODE'
_TEXT	ENDS
;	COMDAT ??0CDynamicStdCallThunk@ATL@@QAE@XZ
_TEXT	SEGMENT PARA USE32 PUBLIC 'CODE'
_TEXT	ENDS
;	COMDAT ?InternalFinalConstructRelease@CComObjectRootBase@ATL@@QAEXXZ
_TEXT	SEGMENT PARA USE32 PUBLIC 'CODE'
_TEXT	ENDS
;	COMDAT ??_C@_0N@JELNCKOF@m_dwRef?5?$DN?$DN?50?$AA@
CONST	SEGMENT DWORD USE32 PUBLIC 'CONST'
CONST	ENDS
;	COMDAT ?_AtlFinalConstruct@CComObjectRootBase@ATL@@QAEJXZ
_TEXT	SEGMENT PARA USE32 PUBLIC 'CODE'
_TEXT	ENDS
;	COMDAT ?FinalConstruct@CComObjectRootBase@ATL@@QAEJXZ
_TEXT	SEGMENT PARA USE32 PUBLIC 'CODE'
_TEXT	ENDS
;	COMDAT ?InternalFinalConstructAddRef@CComObjectRootBase@ATL@@QAEXXZ
_TEXT	SEGMENT PARA USE32 PUBLIC 'CODE'
_TEXT	ENDS
;	COMDAT ?SetVoid@CComClassFactory@ATL@@QAEXPAX@Z
_TEXT	SEGMENT PARA USE32 PUBLIC 'CODE'
_TEXT	ENDS
;	COMDAT ??_C@_0EP@FBJOMLAB@C?3?2Program?5Files?2Microsoft?5Visua@
CONST	SEGMENT DWORD USE32 PUBLIC 'CONST'
CONST	ENDS
;	COMDAT ??_C@_08NEPKAPOI@ppv?5?$CB?$DN?50?$AA@
CONST	SEGMENT DWORD USE32 PUBLIC 'CONST'
CONST	ENDS
;	COMDAT ?Invoke@CComTypeInfoHolder@ATL@@QAEJPAUIDispatch@@JABU_GUID@@KGPAUtagDISPPARAMS@@PAUtagVARIANT@@PAUtagEXCEPINFO@@PAI@Z
_TEXT	SEGMENT PARA USE32 PUBLIC 'CODE'
_TEXT	ENDS
;	COMDAT ?EnsureTI@CComTypeInfoHolder@ATL@@QAEJK@Z
_TEXT	SEGMENT PARA USE32 PUBLIC 'CODE'
_TEXT	ENDS
;	COMDAT ?GetTI@CComTypeInfoHolder@ATL@@QAEJK@Z
_TEXT	SEGMENT PARA USE32 PUBLIC 'CODE'
_TEXT	ENDS
;	COMDAT ??_C@_0BO@GHLKPFE@m_plibid?5?$CB?$DN?50?5?$CG?$CG?5m_pguid?5?$CB?$DN?50?$AA@
CONST	SEGMENT DWORD USE32 PUBLIC 'CONST'
CONST	ENDS
;	COMDAT ??_C@_0DG@CJCBGKEH@Did?5you?5forget?5to?5pass?5the?5LIBID@
CONST	SEGMENT DWORD USE32 PUBLIC 'CONST'
CONST	ENDS
;	COMDAT ??_C@_0GE@MNEAPMLF@?$CBInlineIsEqualGUID?$CI?$CKm_plibid?0?5GU@
CONST	SEGMENT DWORD USE32 PUBLIC 'CONST'
CONST	ENDS
;	COMDAT ??0?$CComCritSecLock@VCComCriticalSection@ATL@@@ATL@@QAE@AAVCComCriticalSection@1@_N@Z
_TEXT	SEGMENT PARA USE32 PUBLIC 'CODE'
_TEXT	ENDS
;	COMDAT ??1?$CComCritSecLock@VCComCriticalSection@ATL@@@ATL@@QAE@XZ
_TEXT	SEGMENT PARA USE32 PUBLIC 'CODE'
_TEXT	ENDS
;	COMDAT ?Lock@?$CComCritSecLock@VCComCriticalSection@ATL@@@ATL@@QAEJXZ
_TEXT	SEGMENT PARA USE32 PUBLIC 'CODE'
_TEXT	ENDS
;	COMDAT ??_C@_0L@MPGHMANA@?$CBm_bLocked?$AA@
CONST	SEGMENT DWORD USE32 PUBLIC 'CONST'
CONST	ENDS
;	COMDAT ??_C@_0EG@JLAFHAGH@ERROR?5?3?5Unable?5to?5lock?5critical?5@
CONST	SEGMENT DWORD USE32 PUBLIC 'CONST'
CONST	ENDS
;	COMDAT ?m_libid@CAtlModule@ATL@@2U_GUID@@A
_DATA	SEGMENT DWORD USE32 PUBLIC 'DATA'
_DATA	ENDS
;	COMDAT ??0?$CComPtr@UITypeLib@@@ATL@@QAE@XZ
_TEXT	SEGMENT PARA USE32 PUBLIC 'CODE'
_TEXT	ENDS
;	COMDAT ??0?$CComPtrBase@UITypeLib@@@ATL@@IAE@XZ
_TEXT	SEGMENT PARA USE32 PUBLIC 'CODE'
_TEXT	ENDS
;	COMDAT ??1?$CComPtrBase@UITypeLib@@@ATL@@QAE@XZ
_TEXT	SEGMENT PARA USE32 PUBLIC 'CODE'
_TEXT	ENDS
;	COMDAT ??1?$CComPtr@UITypeLib@@@ATL@@QAE@XZ
_TEXT	SEGMENT PARA USE32 PUBLIC 'CODE'
_TEXT	ENDS
;	COMDAT ??I?$CComPtrBase@UITypeLib@@@ATL@@QAEPAPAUITypeLib@@XZ
_TEXT	SEGMENT PARA USE32 PUBLIC 'CODE'
_TEXT	ENDS
;	COMDAT _InlineIsEqualGUID
_TEXT	SEGMENT PARA USE32 PUBLIC 'CODE'
_TEXT	ENDS
;	COMDAT ??_C@_0GE@IPBGNBKO@Warning?5?3?5CComTypeInfoHolder?3?3Ge@
CONST	SEGMENT DWORD USE32 PUBLIC 'CONST'
CONST	ENDS
;	COMDAT ??_C@_0DN@OOAEELGE@?7See?5IDispatchImpl?5overview?5help@
CONST	SEGMENT DWORD USE32 PUBLIC 'CONST'
CONST	ENDS
;	COMDAT ??C?$CComPtrBase@UITypeLib@@@ATL@@QBEPAV?$_NoAddRefReleaseOnCComPtr@UITypeLib@@@1@XZ
_TEXT	SEGMENT PARA USE32 PUBLIC 'CODE'
_TEXT	ENDS
;	COMDAT ??_C@_0DG@JANIJOBP@ERROR?5?3?5Unable?5to?5load?5Typelibra@
CONST	SEGMENT DWORD USE32 PUBLIC 'CONST'
CONST	ENDS
;	COMDAT ??_C@_0DE@PFCDKHBK@?7Verify?5TypelibID?5and?5major?5vers@
CONST	SEGMENT DWORD USE32 PUBLIC 'CONST'
CONST	ENDS
;	COMDAT ??_C@_0FB@GGFNIACC@?7IDispatchImpl?0?5CStockPropImpl?0?5@
CONST	SEGMENT DWORD USE32 PUBLIC 'CONST'
CONST	ENDS
;	COMDAT ??0?$CComPtr@UITypeInfo@@@ATL@@QAE@XZ
_TEXT	SEGMENT PARA USE32 PUBLIC 'CODE'
_TEXT	ENDS
;	COMDAT ??0?$CComPtrBase@UITypeInfo@@@ATL@@IAE@XZ
_TEXT	SEGMENT PARA USE32 PUBLIC 'CODE'
_TEXT	ENDS
;	COMDAT ??1?$CComPtrBase@UITypeInfo@@@ATL@@QAE@XZ
_TEXT	SEGMENT PARA USE32 PUBLIC 'CODE'
_TEXT	ENDS
;	COMDAT ??I?$CComPtrBase@UITypeInfo@@@ATL@@QAEPAPAUITypeInfo@@XZ
_TEXT	SEGMENT PARA USE32 PUBLIC 'CODE'
_TEXT	ENDS
;	COMDAT ??0?$CComPtr@UITypeInfo@@@ATL@@QAE@ABV01@@Z
_TEXT	SEGMENT PARA USE32 PUBLIC 'CODE'
_TEXT	ENDS
;	COMDAT ??0?$CComPtrBase@UITypeInfo@@@ATL@@IAE@PAUITypeInfo@@@Z
_TEXT	SEGMENT PARA USE32 PUBLIC 'CODE'
_TEXT	ENDS
;	COMDAT ??1?$CComPtr@UITypeInfo@@@ATL@@QAE@XZ
_TEXT	SEGMENT PARA USE32 PUBLIC 'CODE'
_TEXT	ENDS
;	COMDAT ??0?$CComPtr@UITypeInfo2@@@ATL@@QAE@XZ
_TEXT	SEGMENT PARA USE32 PUBLIC 'CODE'
_TEXT	ENDS
;	COMDAT ??0?$CComPtrBase@UITypeInfo2@@@ATL@@IAE@XZ
_TEXT	SEGMENT PARA USE32 PUBLIC 'CODE'
_TEXT	ENDS
;	COMDAT ??1?$CComPtrBase@UITypeInfo2@@@ATL@@QAE@XZ
_TEXT	SEGMENT PARA USE32 PUBLIC 'CODE'
_TEXT	ENDS
;	COMDAT ??1?$CComPtr@UITypeInfo2@@@ATL@@QAE@XZ
_TEXT	SEGMENT PARA USE32 PUBLIC 'CODE'
_TEXT	ENDS
;	COMDAT ??$QueryInterface@UITypeInfo2@@@IUnknown@@QAGJPAPAUITypeInfo2@@@Z
_TEXT	SEGMENT PARA USE32 PUBLIC 'CODE'
_TEXT	ENDS
;	COMDAT __GUID_00020412_0000_0000_c000_000000000046
CONST	SEGMENT DWORD USE32 PUBLIC 'CONST'
CONST	ENDS
;	COMDAT ??C?$CComPtrBase@UITypeInfo@@@ATL@@QBEPAV?$_NoAddRefReleaseOnCComPtr@UITypeInfo@@@1@XZ
_TEXT	SEGMENT PARA USE32 PUBLIC 'CODE'
_TEXT	ENDS
;	COMDAT ??I?$CComPtrBase@UITypeInfo2@@@ATL@@QAEPAPAUITypeInfo2@@XZ
_TEXT	SEGMENT PARA USE32 PUBLIC 'CODE'
_TEXT	ENDS
;	COMDAT ??$?4UITypeInfo2@@@?$CComPtr@UITypeInfo@@@ATL@@QAEPAUITypeInfo@@ABV?$CComPtr@UITypeInfo2@@@1@@Z
_TEXT	SEGMENT PARA USE32 PUBLIC 'CODE'
_TEXT	ENDS
;	COMDAT __GUID_00020401_0000_0000_c000_000000000046
CONST	SEGMENT DWORD USE32 PUBLIC 'CONST'
CONST	ENDS
;	COMDAT ?Detach@?$CComPtrBase@UITypeInfo@@@ATL@@QAEPAUITypeInfo@@XZ
_TEXT	SEGMENT PARA USE32 PUBLIC 'CODE'
_TEXT	ENDS
;	COMDAT ?AddTermFunc@CAtlModule@ATL@@QAEJP6GXK@ZK@Z
_TEXT	SEGMENT PARA USE32 PUBLIC 'CODE'
_TEXT	ENDS
;	COMDAT ?Cleanup@CComTypeInfoHolder@ATL@@SGXK@Z
_TEXT	SEGMENT PARA USE32 PUBLIC 'CODE'
_TEXT	ENDS
;	COMDAT ??_C@_07PJPEDDJP@dw?5?$CB?$DN?50?$AA@
CONST	SEGMENT DWORD USE32 PUBLIC 'CONST'
CONST	ENDS
;	COMDAT ??_Estringdispid@CComTypeInfoHolder@ATL@@QAEPAXI@Z
_TEXT	SEGMENT PARA USE32 PUBLIC 'CODE'
_TEXT	ENDS
;	COMDAT ??1stringdispid@CComTypeInfoHolder@ATL@@QAE@XZ
_TEXT	SEGMENT PARA USE32 PUBLIC 'CODE'
_TEXT	ENDS
;	COMDAT ?LoadNameCache@CComTypeInfoHolder@ATL@@QAEJPAUITypeInfo@@@Z
_TEXT	SEGMENT PARA USE32 PUBLIC 'CODE'
_TEXT	ENDS
;	COMDAT ??0stringdispid@CComTypeInfoHolder@ATL@@QAE@XZ
_TEXT	SEGMENT PARA USE32 PUBLIC 'CODE'
_TEXT	ENDS
;	COMDAT ??ICComBSTR@ATL@@QAEPAPAGXZ
_TEXT	SEGMENT PARA USE32 PUBLIC 'CODE'
_TEXT	ENDS
;	COMDAT ?Attach@CComBSTR@ATL@@QAEXPAG@Z
_TEXT	SEGMENT PARA USE32 PUBLIC 'CODE'
_TEXT	ENDS
;	COMDAT ?Detach@CComBSTR@ATL@@QAEPAGXZ
_TEXT	SEGMENT PARA USE32 PUBLIC 'CODE'
_TEXT	ENDS
;	COMDAT ?GetIDsOfNames@CComTypeInfoHolder@ATL@@QAEJABU_GUID@@PAPAGIKPAJ@Z
_TEXT	SEGMENT PARA USE32 PUBLIC 'CODE'
_TEXT	ENDS
;	COMDAT ?ocslen@@YAHPBG@Z
_TEXT	SEGMENT PARA USE32 PUBLIC 'CODE'
_TEXT	ENDS
;	COMDAT ?_tih@?$IDispatchImpl@UISignature@@$1?IID_ISignature@@3U_GUID@@B$1?LIBID_XMLSIGNLib@@3U3@B$00$0A@VCComTypeInfoHolder@ATL@@@ATL@@1VCComTypeInfoHolder@2@A
_DATA	SEGMENT DWORD USE32 PUBLIC 'DATA'
_DATA	ENDS
;	COMDAT ?GetTypeInfo@CComTypeInfoHolder@ATL@@QAEJIKPAPAUITypeInfo@@@Z
_TEXT	SEGMENT PARA USE32 PUBLIC 'CODE'
_TEXT	ENDS
;	COMDAT ?GetTI@CComTypeInfoHolder@ATL@@QAEJKPAPAUITypeInfo@@@Z
_TEXT	SEGMENT PARA USE32 PUBLIC 'CODE'
_TEXT	ENDS
;	COMDAT ??_C@_0M@NNHBFKBG@ppInfo?5?$CB?$DN?50?$AA@
CONST	SEGMENT DWORD USE32 PUBLIC 'CONST'
CONST	ENDS
;	COMDAT ?FindNextDlgItem@_DialogSplitHelper@ATL@@SAPAUDLGITEMTEMPLATE@@PAU3@H@Z
_TEXT	SEGMENT PARA USE32 PUBLIC 'CODE'
_TEXT	ENDS
;	COMDAT ?AtlHresultFromLastError@ATL@@YAJXZ
_TEXT	SEGMENT PARA USE32 PUBLIC 'CODE'
_TEXT	ENDS
;	COMDAT ?SetWindowPos@CWindow@ATL@@QAEHPAUHWND__@@HHHHI@Z
_TEXT	SEGMENT PARA USE32 PUBLIC 'CODE'
_TEXT	ENDS
;	COMDAT ?SetWindowContextHelpId@CWindow@ATL@@QAEHK@Z
_TEXT	SEGMENT PARA USE32 PUBLIC 'CODE'
_TEXT	ENDS
;	COMDAT ??0_U_RECT@ATL@@QAE@PAUtagRECT@@@Z
_TEXT	SEGMENT PARA USE32 PUBLIC 'CODE'
_TEXT	ENDS
;	COMDAT ??0_U_MENUorID@ATL@@QAE@I@Z
_TEXT	SEGMENT PARA USE32 PUBLIC 'CODE'
_TEXT	ENDS
;	COMDAT ??B?$CComPtrBase@UIStream@@@ATL@@QBEPAUIStream@@XZ
_TEXT	SEGMENT PARA USE32 PUBLIC 'CODE'
_TEXT	ENDS
;	COMDAT ?ParseInitData@_DialogSplitHelper@ATL@@SAJPAUIStream@@PAPAG@Z
_TEXT	SEGMENT PARA USE32 PUBLIC 'CODE'
_TEXT	ENDS
;	COMDAT ??0CComBSTR@ATL@@QAE@H@Z
_TEXT	SEGMENT PARA USE32 PUBLIC 'CODE'
_TEXT	ENDS
;	COMDAT ?Length@CComBSTR@ATL@@QBEIXZ
_TEXT	SEGMENT PARA USE32 PUBLIC 'CODE'
_TEXT	ENDS
;	COMDAT ??I?$CComPtrBase@UIStream@@@ATL@@QAEPAPAUIStream@@XZ
_TEXT	SEGMENT PARA USE32 PUBLIC 'CODE'
_TEXT	ENDS
;	COMDAT ??1?$CComPtr@UIStream@@@ATL@@QAE@XZ
_TEXT	SEGMENT PARA USE32 PUBLIC 'CODE'
_TEXT	ENDS
;	COMDAT ??1?$CComPtrBase@UIStream@@@ATL@@QAE@XZ
_TEXT	SEGMENT PARA USE32 PUBLIC 'CODE'
_TEXT	ENDS
;	COMDAT ??0?$CComPtr@UIStream@@@ATL@@QAE@XZ
_TEXT	SEGMENT PARA USE32 PUBLIC 'CODE'
_TEXT	ENDS
;	COMDAT ??0?$CComPtrBase@UIStream@@@ATL@@IAE@XZ
_TEXT	SEGMENT PARA USE32 PUBLIC 'CODE'
_TEXT	ENDS
;	COMDAT ?FindCreateData@_DialogSplitHelper@ATL@@SAKKPAEPAPAE@Z
_TEXT	SEGMENT PARA USE32 PUBLIC 'CODE'
_TEXT	ENDS
;	COMDAT ??_C@_0L@KAJDHFFC@dwLen?5?$DN?$DN?50?$AA@
CONST	SEGMENT DWORD USE32 PUBLIC 'CONST'
CONST	ENDS
;	COMDAT ?IsActiveXControl@_DialogSplitHelper@ATL@@SA_NPAUDLGITEMTEMPLATE@@H@Z
_TEXT	SEGMENT PARA USE32 PUBLIC 'CODE'
_TEXT	ENDS
;	COMDAT ?GetWindow@CWindow@ATL@@QBE?AV12@I@Z
_TEXT	SEGMENT PARA USE32 PUBLIC 'CODE'
_TEXT	ENDS
;	COMDAT ?FindFirstDlgItem@_DialogSplitHelper@ATL@@SAPAUDLGITEMTEMPLATE@@PBUDLGTEMPLATE@@@Z
_TEXT	SEGMENT PARA USE32 PUBLIC 'CODE'
_TEXT	ENDS
;	COMDAT ?DlgTemplateItemCount@_DialogSplitHelper@ATL@@SAAAGPAUDLGTEMPLATE@@@Z
_TEXT	SEGMENT PARA USE32 PUBLIC 'CODE'
_TEXT	ENDS
;	COMDAT ?IsDialogEx@_DialogSplitHelper@ATL@@SAHPBUDLGTEMPLATE@@@Z
_TEXT	SEGMENT PARA USE32 PUBLIC 'CODE'
_TEXT	ENDS
;	COMDAT ??_C@_0BD@OAFOKPBM@?3?3IsWindow?$CIm_hWnd?$CJ?$AA@
CONST	SEGMENT DWORD USE32 PUBLIC 'CONST'
CONST	ENDS
;	COMDAT ?GetResourceInstance@CAtlBaseModule@ATL@@QAEPAUHINSTANCE__@@XZ
_TEXT	SEGMENT PARA USE32 PUBLIC 'CODE'
_TEXT	ENDS
;	COMDAT ?_AtlWinModule@ATL@@3VCAtlWinModule@1@A
_BSS	SEGMENT PARA USE32 PUBLIC 'BSS'
_BSS	ENDS
;	COMDAT _$E1
text$yc	SEGMENT PARA USE32 PUBLIC 'CODE'
text$yc	ENDS
;	COMDAT ??0CAtlWinModule@ATL@@QAE@XZ
_TEXT	SEGMENT PARA USE32 PUBLIC 'CODE'
_TEXT	ENDS
;	COMDAT ??0_ATL_WIN_MODULE70@ATL@@QAE@XZ
_TEXT	SEGMENT PARA USE32 PUBLIC 'CODE'
_TEXT	ENDS
;	COMDAT ??0?$CSimpleArray@GV?$CSimpleArrayEqualHelper@G@ATL@@@ATL@@QAE@XZ
_TEXT	SEGMENT PARA USE32 PUBLIC 'CODE'
_TEXT	ENDS
;	COMDAT ??1?$CSimpleArray@GV?$CSimpleArrayEqualHelper@G@ATL@@@ATL@@QAE@XZ
_TEXT	SEGMENT PARA USE32 PUBLIC 'CODE'
_TEXT	ENDS
;	COMDAT ?RemoveAll@?$CSimpleArray@GV?$CSimpleArrayEqualHelper@G@ATL@@@ATL@@QAEXXZ
_TEXT	SEGMENT PARA USE32 PUBLIC 'CODE'
_TEXT	ENDS
;	COMDAT ??1_ATL_WIN_MODULE70@ATL@@QAE@XZ
_TEXT	SEGMENT PARA USE32 PUBLIC 'CODE'
_TEXT	ENDS
;	COMDAT ?m_bInitFailed@CAtlBaseModule@ATL@@2_NA
_DATA	SEGMENT DWORD USE32 PUBLIC 'DATA'
_DATA	ENDS
;	COMDAT _$E2
text$yd	SEGMENT PARA USE32 PUBLIC 'CODE'
text$yd	ENDS
;	COMDAT ??1CAtlWinModule@ATL@@QAE@XZ
_TEXT	SEGMENT PARA USE32 PUBLIC 'CODE'
_TEXT	ENDS
;	COMDAT ?Term@CAtlWinModule@ATL@@QAEXXZ
_TEXT	SEGMENT PARA USE32 PUBLIC 'CODE'
_TEXT	ENDS
;	COMDAT CRT$XCU
CRT$XCU	SEGMENT DWORD USE32 PUBLIC 'DATA'
CRT$XCU	ENDS
;	COMDAT ?AddCreateWndData@CAtlWinModule@ATL@@QAEXPAU_AtlCreateWndData@2@PAX@Z
_TEXT	SEGMENT PARA USE32 PUBLIC 'CODE'
_TEXT	ENDS
;	COMDAT ??_C@_0EP@FECMNBMC@C?3?2Program?5Files?2Microsoft?5Visua@
CONST	SEGMENT DWORD USE32 PUBLIC 'CONST'
CONST	ENDS
;	COMDAT ??_C@_0M@MFNOGLO@m_hWnd?5?$DN?$DN?50?$AA@
CONST	SEGMENT DWORD USE32 PUBLIC 'CONST'
CONST	ENDS
;	COMDAT ?AtlIsValidString@ATL@@YAHPBDI@Z
_TEXT	SEGMENT PARA USE32 PUBLIC 'CODE'
_TEXT	ENDS
;	COMDAT ??_7?$basic_streambuf@DU?$char_traits@D@std@@@std@@6B@
CONST	SEGMENT DWORD USE32 PUBLIC 'CONST'
CONST	ENDS
;	COMDAT ??_7?$basic_istream@DU?$char_traits@D@std@@@std@@6B@
CONST	SEGMENT DWORD USE32 PUBLIC 'CONST'
CONST	ENDS
;	COMDAT ??_7?$basic_istream@GU?$char_traits@G@std@@@std@@6B@
CONST	SEGMENT DWORD USE32 PUBLIC 'CONST'
CONST	ENDS
;	COMDAT ??_7?$basic_ios@DU?$char_traits@D@std@@@std@@6B@
CONST	SEGMENT DWORD USE32 PUBLIC 'CONST'
CONST	ENDS
;	COMDAT ??_7?$basic_ostream@DU?$char_traits@D@std@@@std@@6B@
CONST	SEGMENT DWORD USE32 PUBLIC 'CONST'
CONST	ENDS
;	COMDAT ??_7?$basic_streambuf@GU?$char_traits@G@std@@@std@@6B@
CONST	SEGMENT DWORD USE32 PUBLIC 'CONST'
CONST	ENDS
;	COMDAT ??_7?$basic_ios@GU?$char_traits@G@std@@@std@@6B@
CONST	SEGMENT DWORD USE32 PUBLIC 'CONST'
CONST	ENDS
;	COMDAT ??_7?$basic_ostream@GU?$char_traits@G@std@@@std@@6B@
CONST	SEGMENT DWORD USE32 PUBLIC 'CONST'
CONST	ENDS
;	COMDAT ?npos@?$basic_string@DU?$char_traits@D@std@@V?$_DebugHeapAllocator@D@2@@std@@2IB
CONST	SEGMENT DWORD USE32 PUBLIC 'CONST'
CONST	ENDS
;	COMDAT ?npos@?$basic_string@DU?$char_traits@D@std@@V?$allocator@D@2@@std@@2IB
CONST	SEGMENT DWORD USE32 PUBLIC 'CONST'
CONST	ENDS
;	COMDAT ??_7?$CComObject@VCAxUIWindow@ATL@@@ATL@@6BIOleInPlaceUIWindow@@@
CONST	SEGMENT DWORD USE32 PUBLIC 'CONST'
CONST	ENDS
;	COMDAT ?QueryInterface@?$CComObject@VCAxUIWindow@ATL@@@ATL@@UAGJABU_GUID@@PAPAX@Z
_TEXT	SEGMENT PARA USE32 PUBLIC 'CODE'
_TEXT	ENDS
;	COMDAT ?_InternalQueryInterface@CAxUIWindow@ATL@@QAEJABU_GUID@@PAPAX@Z
_TEXT	SEGMENT PARA USE32 PUBLIC 'CODE'
_TEXT	ENDS
;	COMDAT ?_GetEntries@CAxUIWindow@ATL@@SGPBU_ATL_INTMAP_ENTRY@2@XZ
_TEXT	SEGMENT PARA USE32 PUBLIC 'CODE'
_TEXT	ENDS
;	COMDAT ??_C@_0M@EHKCMBND@CAxUIWindow?$AA@
CONST	SEGMENT DWORD USE32 PUBLIC 'CONST'
CONST	ENDS
;	COMDAT __GUID_00000115_0000_0000_c000_000000000046
CONST	SEGMENT DWORD USE32 PUBLIC 'CONST'
CONST	ENDS
;	COMDAT __GUID_00000114_0000_0000_c000_000000000046
CONST	SEGMENT DWORD USE32 PUBLIC 'CONST'
CONST	ENDS
;	COMDAT ?_entries@?1??_GetEntries@CAxUIWindow@ATL@@SGPBU_ATL_INTMAP_ENTRY@3@XZ@4QBU43@B
CONST	SEGMENT DWORD USE32 PUBLIC 'CONST'
CONST	ENDS
;	COMDAT ?AddRef@?$CComObject@VCAxUIWindow@ATL@@@ATL@@UAGKXZ
_TEXT	SEGMENT PARA USE32 PUBLIC 'CODE'
_TEXT	ENDS
;	COMDAT ?Release@?$CComObject@VCAxUIWindow@ATL@@@ATL@@UAGKXZ
_TEXT	SEGMENT PARA USE32 PUBLIC 'CODE'
_TEXT	ENDS
;	COMDAT ?GetWindow@CAxUIWindow@ATL@@UAGJPAPAUHWND__@@@Z
_TEXT	SEGMENT PARA USE32 PUBLIC 'CODE'
_TEXT	ENDS
;	COMDAT ?Create@?$CWindowImpl@VCAxUIWindow@ATL@@VCWindow@2@V?$CWinTraits@$0FGAAAAAA@$0A@@2@@ATL@@QAEPAUHWND__@@PAU3@V_U_RECT@2@PBDKKV_U_MENUorID@2@PAX@Z
_TEXT	SEGMENT PARA USE32 PUBLIC 'CODE'
_TEXT	ENDS
;	COMDAT ?GetWndClassName@CWindow@ATL@@SAPBDXZ
_TEXT	SEGMENT PARA USE32 PUBLIC 'CODE'
_TEXT	ENDS
;	COMDAT ?Register@_ATL_WNDCLASSINFOA@ATL@@QAEGPAP6GJPAUHWND__@@IIJ@Z@Z
_TEXT	SEGMENT PARA USE32 PUBLIC 'CODE'
_TEXT	ENDS
;	COMDAT ?GetWndClassInfo@?$CWindowImpl@VCAxUIWindow@ATL@@VCWindow@2@V?$CWinTraits@$0FGAAAAAA@$0A@@2@@ATL@@SAAAU_ATL_WNDCLASSINFOA@2@XZ
_TEXT	SEGMENT PARA USE32 PUBLIC 'CODE'
_TEXT	ENDS
;	COMDAT ?StartWindowProc@?$CWindowImplBaseT@VCWindow@ATL@@V?$CWinTraits@$0FGAAAAAA@$0A@@2@@ATL@@SGJPAUHWND__@@IIJ@Z
_TEXT	SEGMENT PARA USE32 PUBLIC 'CODE'
_TEXT	ENDS
;	COMDAT ?wc@?1??GetWndClassInfo@?$CWindowImpl@VCAxUIWindow@ATL@@VCWindow@2@V?$CWinTraits@$0FGAAAAAA@$0A@@2@@ATL@@SAAAU_ATL_WNDCLASSINFOA@3@XZ@4U43@A
_DATA	SEGMENT DWORD USE32 PUBLIC 'DATA'
_DATA	ENDS
;	COMDAT ?GetWndStyle@?$CWindowImplBaseT@VCWindow@ATL@@V?$CWinTraits@$0FGAAAAAA@$0A@@2@@ATL@@SAKK@Z
_TEXT	SEGMENT PARA USE32 PUBLIC 'CODE'
_TEXT	ENDS
;	COMDAT ?GetWndStyle@?$CWinTraits@$0FGAAAAAA@$0A@@ATL@@SAKK@Z
_TEXT	SEGMENT PARA USE32 PUBLIC 'CODE'
_TEXT	ENDS
;	COMDAT ?GetWndExStyle@?$CWindowImplBaseT@VCWindow@ATL@@V?$CWinTraits@$0FGAAAAAA@$0A@@2@@ATL@@SAKK@Z
_TEXT	SEGMENT PARA USE32 PUBLIC 'CODE'
_TEXT	ENDS
;	COMDAT ?GetWndExStyle@?$CWinTraits@$0FGAAAAAA@$0A@@ATL@@SAKK@Z
_TEXT	SEGMENT PARA USE32 PUBLIC 'CODE'
_TEXT	ENDS
;	COMDAT ?GetWndCaption@?$CWindowImpl@VCAxUIWindow@ATL@@VCWindow@2@V?$CWinTraits@$0FGAAAAAA@$0A@@2@@ATL@@SAPBDXZ
_TEXT	SEGMENT PARA USE32 PUBLIC 'CODE'
_TEXT	ENDS
;	COMDAT ?Create@?$CWindowImplBaseT@VCWindow@ATL@@V?$CWinTraits@$0FGAAAAAA@$0A@@2@@ATL@@QAEPAUHWND__@@PAU3@V_U_RECT@2@PBDKKV_U_MENUorID@2@GPAX@Z
_TEXT	SEGMENT PARA USE32 PUBLIC 'CODE'
_TEXT	ENDS
;	COMDAT ??_C@_0BA@FJBCDDKK@AXWIN?5UI?5Window?$AA@
CONST	SEGMENT DWORD USE32 PUBLIC 'CONST'
CONST	ENDS
;	COMDAT ?ContextSensitiveHelp@CAxUIWindow@ATL@@UAGJH@Z
_TEXT	SEGMENT PARA USE32 PUBLIC 'CODE'
_TEXT	ENDS
;	COMDAT ?GetBorder@CAxUIWindow@ATL@@UAGJPAUtagRECT@@@Z
_TEXT	SEGMENT PARA USE32 PUBLIC 'CODE'
_TEXT	ENDS
;	COMDAT ?RequestBorderSpace@CAxUIWindow@ATL@@UAGJPBUtagRECT@@@Z
_TEXT	SEGMENT PARA USE32 PUBLIC 'CODE'
_TEXT	ENDS
;	COMDAT ?SetBorderSpace@CAxUIWindow@ATL@@UAGJPBUtagRECT@@@Z
_TEXT	SEGMENT PARA USE32 PUBLIC 'CODE'
_TEXT	ENDS
;	COMDAT ?SetActiveObject@CAxUIWindow@ATL@@UAGJPAUIOleInPlaceActiveObject@@PBG@Z
_TEXT	SEGMENT PARA USE32 PUBLIC 'CODE'
_TEXT	ENDS
;	COMDAT ??4?$CComPtr@UIOleInPlaceActiveObject@@@ATL@@QAEPAUIOleInPlaceActiveObject@@PAU2@@Z
_TEXT	SEGMENT PARA USE32 PUBLIC 'CODE'
_TEXT	ENDS
;	COMDAT ??_7?$CComObject@VCAxUIWindow@ATL@@@ATL@@6B?$CWindowImpl@VCAxUIWindow@ATL@@VCWindow@2@V?$CWinTraits@$0FGAAAAAA@$0A@@2@@1@@
CONST	SEGMENT DWORD USE32 PUBLIC 'CONST'
CONST	ENDS
;	COMDAT ?ProcessWindowMessage@CAxUIWindow@ATL@@UAEHPAUHWND__@@IIJAAJK@Z
_TEXT	SEGMENT PARA USE32 PUBLIC 'CODE'
_TEXT	ENDS
;	COMDAT ??_G?$CComObject@VCAxUIWindow@ATL@@@ATL@@UAEPAXI@Z
_TEXT	SEGMENT PARA USE32 PUBLIC 'CODE'
_TEXT	ENDS
;	COMDAT ??1?$CComObject@VCAxUIWindow@ATL@@@ATL@@UAE@XZ
_TEXT	SEGMENT PARA USE32 PUBLIC 'CODE'
_TEXT	ENDS
;	COMDAT ?FinalRelease@CAxUIWindow@ATL@@QAEXXZ
_TEXT	SEGMENT PARA USE32 PUBLIC 'CODE'
_TEXT	ENDS
;	COMDAT ?Release@?$CComPtrBase@UIOleInPlaceActiveObject@@@ATL@@QAEXXZ
_TEXT	SEGMENT PARA USE32 PUBLIC 'CODE'
_TEXT	ENDS
;	COMDAT ?DestroyWindow@?$CWindowImplBaseT@VCWindow@ATL@@V?$CWinTraits@$0FGAAAAAA@$0A@@2@@ATL@@QAEHXZ
_TEXT	SEGMENT PARA USE32 PUBLIC 'CODE'
_TEXT	ENDS
;	COMDAT ?GetWindowProc@?$CWindowImplBaseT@VCWindow@ATL@@V?$CWinTraits@$0FGAAAAAA@$0A@@2@@ATL@@UAEP6GJPAUHWND__@@IIJ@ZXZ
_TEXT	SEGMENT PARA USE32 PUBLIC 'CODE'
_TEXT	ENDS
;	COMDAT ?WindowProc@?$CWindowImplBaseT@VCWindow@ATL@@V?$CWinTraits@$0FGAAAAAA@$0A@@2@@ATL@@SGJPAUHWND__@@IIJ@Z
_TEXT	SEGMENT PARA USE32 PUBLIC 'CODE'
_TEXT	ENDS
;	COMDAT ?DefWindowProcA@?$CWindowImplBaseT@VCWindow@ATL@@V?$CWinTraits@$0FGAAAAAA@$0A@@2@@ATL@@QAEJIIJ@Z
_TEXT	SEGMENT PARA USE32 PUBLIC 'CODE'
_TEXT	ENDS
;	COMDAT ?GetWindowLongPtrA@@YAJPAUHWND__@@H@Z
_TEXT	SEGMENT PARA USE32 PUBLIC 'CODE'
_TEXT	ENDS
;	COMDAT ?OnFinalMessage@?$CWindowImplBaseT@VCWindow@ATL@@V?$CWinTraits@$0FGAAAAAA@$0A@@2@@ATL@@UAEXPAUHWND__@@@Z
_TEXT	SEGMENT PARA USE32 PUBLIC 'CODE'
_TEXT	ENDS
;	COMDAT ??1CAxUIWindow@ATL@@UAE@XZ
_TEXT	SEGMENT PARA USE32 PUBLIC 'CODE'
_TEXT	ENDS
;	COMDAT ??1?$CWindowImpl@VCAxUIWindow@ATL@@VCWindow@2@V?$CWinTraits@$0FGAAAAAA@$0A@@2@@ATL@@UAE@XZ
_TEXT	SEGMENT PARA USE32 PUBLIC 'CODE'
_TEXT	ENDS
;	COMDAT ??1?$CWindowImplBaseT@VCWindow@ATL@@V?$CWinTraits@$0FGAAAAAA@$0A@@2@@ATL@@UAE@XZ
_TEXT	SEGMENT PARA USE32 PUBLIC 'CODE'
_TEXT	ENDS
;	COMDAT ??1?$CComPtr@UIOleInPlaceActiveObject@@@ATL@@QAE@XZ
_TEXT	SEGMENT PARA USE32 PUBLIC 'CODE'
_TEXT	ENDS
;	COMDAT ??1?$CComPtrBase@UIOleInPlaceActiveObject@@@ATL@@QAE@XZ
_TEXT	SEGMENT PARA USE32 PUBLIC 'CODE'
_TEXT	ENDS
;	COMDAT ??0CAxUIWindow@ATL@@QAE@XZ
_TEXT	SEGMENT PARA USE32 PUBLIC 'CODE'
_TEXT	ENDS
;	COMDAT ??0?$CWindowImpl@VCAxUIWindow@ATL@@VCWindow@2@V?$CWinTraits@$0FGAAAAAA@$0A@@2@@ATL@@QAE@XZ
_TEXT	SEGMENT PARA USE32 PUBLIC 'CODE'
_TEXT	ENDS
;	COMDAT ??0?$CWindowImplBaseT@VCWindow@ATL@@V?$CWinTraits@$0FGAAAAAA@$0A@@2@@ATL@@QAE@XZ
_TEXT	SEGMENT PARA USE32 PUBLIC 'CODE'
_TEXT	ENDS
;	COMDAT ??0IOleInPlaceUIWindow@@QAE@XZ
_TEXT	SEGMENT PARA USE32 PUBLIC 'CODE'
_TEXT	ENDS
;	COMDAT ??0IOleWindow@@QAE@XZ
_TEXT	SEGMENT PARA USE32 PUBLIC 'CODE'
_TEXT	ENDS
;	COMDAT ??0?$CComPtr@UIOleInPlaceActiveObject@@@ATL@@QAE@XZ
_TEXT	SEGMENT PARA USE32 PUBLIC 'CODE'
_TEXT	ENDS
;	COMDAT ??0?$CComPtrBase@UIOleInPlaceActiveObject@@@ATL@@IAE@XZ
_TEXT	SEGMENT PARA USE32 PUBLIC 'CODE'
_TEXT	ENDS
;	COMDAT ?_pAtlModule@ATL@@3PAVCAtlModule@1@A
_DATA	SEGMENT DWORD USE32 PUBLIC 'DATA'
_DATA	ENDS
;	COMDAT ??_7?$CComObject@VCAxFrameWindow@ATL@@@ATL@@6BIOleInPlaceFrame@@@
CONST	SEGMENT DWORD USE32 PUBLIC 'CONST'
CONST	ENDS
;	COMDAT ?QueryInterface@?$CComObject@VCAxFrameWindow@ATL@@@ATL@@UAGJABU_GUID@@PAPAX@Z
_TEXT	SEGMENT PARA USE32 PUBLIC 'CODE'
_TEXT	ENDS
;	COMDAT ?_InternalQueryInterface@CAxFrameWindow@ATL@@QAEJABU_GUID@@PAPAX@Z
_TEXT	SEGMENT PARA USE32 PUBLIC 'CODE'
_TEXT	ENDS
;	COMDAT ?_GetEntries@CAxFrameWindow@ATL@@SGPBU_ATL_INTMAP_ENTRY@2@XZ
_TEXT	SEGMENT PARA USE32 PUBLIC 'CODE'
_TEXT	ENDS
;	COMDAT ??_C@_0P@MFMDEJMN@CAxFrameWindow?$AA@
CONST	SEGMENT DWORD USE32 PUBLIC 'CONST'
CONST	ENDS
;	COMDAT __GUID_00000116_0000_0000_c000_000000000046
CONST	SEGMENT DWORD USE32 PUBLIC 'CONST'
CONST	ENDS
;	COMDAT ?_entries@?1??_GetEntries@CAxFrameWindow@ATL@@SGPBU_ATL_INTMAP_ENTRY@3@XZ@4QBU43@B
CONST	SEGMENT DWORD USE32 PUBLIC 'CONST'
CONST	ENDS
;	COMDAT ?AddRef@?$CComObject@VCAxFrameWindow@ATL@@@ATL@@UAGKXZ
_TEXT	SEGMENT PARA USE32 PUBLIC 'CODE'
_TEXT	ENDS
;	COMDAT ?Release@?$CComObject@VCAxFrameWindow@ATL@@@ATL@@UAGKXZ
_TEXT	SEGMENT PARA USE32 PUBLIC 'CODE'
_TEXT	ENDS
;	COMDAT ?GetWindow@CAxFrameWindow@ATL@@UAGJPAPAUHWND__@@@Z
_TEXT	SEGMENT PARA USE32 PUBLIC 'CODE'
_TEXT	ENDS
;	COMDAT ??_C@_0L@JIHHHPOK@phwnd?5?$CB?$DN?50?$AA@
CONST	SEGMENT DWORD USE32 PUBLIC 'CONST'
CONST	ENDS
;	COMDAT ??_C@_0FA@NHACCMFP@C?3?2Program?5Files?2Microsoft?5Visua@
CONST	SEGMENT DWORD USE32 PUBLIC 'CONST'
CONST	ENDS
;	COMDAT ?Create@?$CWindowImpl@VCAxFrameWindow@ATL@@VCWindow@2@V?$CWinTraits@$0FGAAAAAA@$0A@@2@@ATL@@QAEPAUHWND__@@PAU3@V_U_RECT@2@PBDKKV_U_MENUorID@2@PAX@Z
_TEXT	SEGMENT PARA USE32 PUBLIC 'CODE'
_TEXT	ENDS
;	COMDAT ?GetWndClassInfo@?$CWindowImpl@VCAxFrameWindow@ATL@@VCWindow@2@V?$CWinTraits@$0FGAAAAAA@$0A@@2@@ATL@@SAAAU_ATL_WNDCLASSINFOA@2@XZ
_TEXT	SEGMENT PARA USE32 PUBLIC 'CODE'
_TEXT	ENDS
;	COMDAT ?wc@?1??GetWndClassInfo@?$CWindowImpl@VCAxFrameWindow@ATL@@VCWindow@2@V?$CWinTraits@$0FGAAAAAA@$0A@@2@@ATL@@SAAAU_ATL_WNDCLASSINFOA@3@XZ@4U43@A
_DATA	SEGMENT DWORD USE32 PUBLIC 'DATA'
_DATA	ENDS
;	COMDAT ?GetWndCaption@?$CWindowImpl@VCAxFrameWindow@ATL@@VCWindow@2@V?$CWinTraits@$0FGAAAAAA@$0A@@2@@ATL@@SAPBDXZ
_TEXT	SEGMENT PARA USE32 PUBLIC 'CODE'
_TEXT	ENDS
;	COMDAT ??_C@_0BD@LIOMMJMF@AXWIN?5Frame?5Window?$AA@
CONST	SEGMENT DWORD USE32 PUBLIC 'CONST'
CONST	ENDS
;	COMDAT ?ContextSensitiveHelp@CAxFrameWindow@ATL@@UAGJH@Z
_TEXT	SEGMENT PARA USE32 PUBLIC 'CODE'
_TEXT	ENDS
;	COMDAT ?GetBorder@CAxFrameWindow@ATL@@UAGJPAUtagRECT@@@Z
_TEXT	SEGMENT PARA USE32 PUBLIC 'CODE'
_TEXT	ENDS
;	COMDAT ?RequestBorderSpace@CAxFrameWindow@ATL@@UAGJPBUtagRECT@@@Z
_TEXT	SEGMENT PARA USE32 PUBLIC 'CODE'
_TEXT	ENDS
;	COMDAT ?SetBorderSpace@CAxFrameWindow@ATL@@UAGJPBUtagRECT@@@Z
_TEXT	SEGMENT PARA USE32 PUBLIC 'CODE'
_TEXT	ENDS
;	COMDAT ?SetActiveObject@CAxFrameWindow@ATL@@UAGJPAUIOleInPlaceActiveObject@@PBG@Z
_TEXT	SEGMENT PARA USE32 PUBLIC 'CODE'
_TEXT	ENDS
;	COMDAT ?InsertMenus@CAxFrameWindow@ATL@@UAGJPAUHMENU__@@PAUtagOleMenuGroupWidths@@@Z
_TEXT	SEGMENT PARA USE32 PUBLIC 'CODE'
_TEXT	ENDS
;	COMDAT ?SetMenu@CAxFrameWindow@ATL@@UAGJPAUHMENU__@@PAXPAUHWND__@@@Z
_TEXT	SEGMENT PARA USE32 PUBLIC 'CODE'
_TEXT	ENDS
;	COMDAT ?RemoveMenus@CAxFrameWindow@ATL@@UAGJPAUHMENU__@@@Z
_TEXT	SEGMENT PARA USE32 PUBLIC 'CODE'
_TEXT	ENDS
;	COMDAT ?SetStatusText@CAxFrameWindow@ATL@@UAGJPBG@Z
_TEXT	SEGMENT PARA USE32 PUBLIC 'CODE'
_TEXT	ENDS
;	COMDAT ?EnableModeless@CAxFrameWindow@ATL@@UAGJH@Z
_TEXT	SEGMENT PARA USE32 PUBLIC 'CODE'
_TEXT	ENDS
;	COMDAT ?TranslateAcceleratorA@CAxFrameWindow@ATL@@UAGJPAUtagMSG@@G@Z
_TEXT	SEGMENT PARA USE32 PUBLIC 'CODE'
_TEXT	ENDS
;	COMDAT ??_7?$CComObject@VCAxFrameWindow@ATL@@@ATL@@6B?$CWindowImpl@VCAxFrameWindow@ATL@@VCWindow@2@V?$CWinTraits@$0FGAAAAAA@$0A@@2@@1@@
CONST	SEGMENT DWORD USE32 PUBLIC 'CONST'
CONST	ENDS
;	COMDAT ?ProcessWindowMessage@CAxFrameWindow@ATL@@UAEHPAUHWND__@@IIJAAJK@Z
_TEXT	SEGMENT PARA USE32 PUBLIC 'CODE'
_TEXT	ENDS
;	COMDAT ??_G?$CComObject@VCAxFrameWindow@ATL@@@ATL@@UAEPAXI@Z
_TEXT	SEGMENT PARA USE32 PUBLIC 'CODE'
_TEXT	ENDS
;	COMDAT ??1?$CComObject@VCAxFrameWindow@ATL@@@ATL@@UAE@XZ
_TEXT	SEGMENT PARA USE32 PUBLIC 'CODE'
_TEXT	ENDS
;	COMDAT ?FinalRelease@CAxFrameWindow@ATL@@QAEXXZ
_TEXT	SEGMENT PARA USE32 PUBLIC 'CODE'
_TEXT	ENDS
;	COMDAT ??1CAxFrameWindow@ATL@@UAE@XZ
_TEXT	SEGMENT PARA USE32 PUBLIC 'CODE'
_TEXT	ENDS
;	COMDAT ??1?$CWindowImpl@VCAxFrameWindow@ATL@@VCWindow@2@V?$CWinTraits@$0FGAAAAAA@$0A@@2@@ATL@@UAE@XZ
_TEXT	SEGMENT PARA USE32 PUBLIC 'CODE'
_TEXT	ENDS
;	COMDAT ??0CAxFrameWindow@ATL@@QAE@XZ
_TEXT	SEGMENT PARA USE32 PUBLIC 'CODE'
_TEXT	ENDS
;	COMDAT ??0?$CWindowImpl@VCAxFrameWindow@ATL@@VCWindow@2@V?$CWinTraits@$0FGAAAAAA@$0A@@2@@ATL@@QAE@XZ
_TEXT	SEGMENT PARA USE32 PUBLIC 'CODE'
_TEXT	ENDS
;	COMDAT ??0IOleInPlaceFrame@@QAE@XZ
_TEXT	SEGMENT PARA USE32 PUBLIC 'CODE'
_TEXT	ENDS
;	COMDAT ?PrepareWrite@?$CSimpleStringT@D$0A@@ATL@@AAEPADH@Z
_TEXT	SEGMENT PARA USE32 PUBLIC 'CODE'
_TEXT	ENDS
;	COMDAT ?PrepareWrite2@?$CSimpleStringT@D$0A@@ATL@@AAEXH@Z
_TEXT	SEGMENT PARA USE32 PUBLIC 'CODE'
_TEXT	ENDS
;	COMDAT ?IsShared@CStringData@ATL@@QBE_NXZ
_TEXT	SEGMENT PARA USE32 PUBLIC 'CODE'
_TEXT	ENDS
;	COMDAT ?Fork@?$CSimpleStringT@D$0A@@ATL@@AAEXH@Z
_TEXT	SEGMENT PARA USE32 PUBLIC 'CODE'
_TEXT	ENDS
;	COMDAT ?Reallocate@?$CSimpleStringT@D$0A@@ATL@@AAEXH@Z
_TEXT	SEGMENT PARA USE32 PUBLIC 'CODE'
_TEXT	ENDS
;	COMDAT ??_C@_0CB@GFHAPKDK@pOldData?9?$DOnAllocLength?5?$DM?5nLength@
CONST	SEGMENT DWORD USE32 PUBLIC 'CONST'
CONST	ENDS
;	COMDAT ?UnregisterServer@CComModule@ATL@@QAEJHPBU_GUID@@@Z
_TEXT	SEGMENT PARA USE32 PUBLIC 'CODE'
_TEXT	ENDS
;	COMDAT _IsEqualGUID
_TEXT	SEGMENT PARA USE32 PUBLIC 'CODE'
_TEXT	ENDS
;	COMDAT ?UnregisterServer@?$CAtlModuleT@VCComModule@ATL@@@ATL@@QAEJHPBU_GUID@@@Z
_TEXT	SEGMENT PARA USE32 PUBLIC 'CODE'
_TEXT	ENDS
;	COMDAT ?_pPerfUnRegFunc@ATL@@3P6AJXZA
_DATA	SEGMENT DWORD USE32 PUBLIC 'DATA'
_DATA	ENDS
;	COMDAT ?UnregisterServer@CAtlComModule@ATL@@QAEJHPBU_GUID@@@Z
_TEXT	SEGMENT PARA USE32 PUBLIC 'CODE'
_TEXT	ENDS
;	COMDAT ?RegisterServer@CComModule@ATL@@QAEJHPBU_GUID@@@Z
_TEXT	SEGMENT PARA USE32 PUBLIC 'CODE'
_TEXT	ENDS
;	COMDAT ?RegisterServer@?$CAtlModuleT@VCComModule@ATL@@@ATL@@QAEJHPBU_GUID@@@Z
_TEXT	SEGMENT PARA USE32 PUBLIC 'CODE'
_TEXT	ENDS
;	COMDAT ?RegisterServer@CAtlComModule@ATL@@QAEJHPBU_GUID@@@Z
_TEXT	SEGMENT PARA USE32 PUBLIC 'CODE'
_TEXT	ENDS
;	COMDAT ?_pPerfRegFunc@ATL@@3P6AJPAUHINSTANCE__@@@ZA
_DATA	SEGMENT DWORD USE32 PUBLIC 'DATA'
_DATA	ENDS
;	COMDAT ?GetClassObject@CComModule@ATL@@QAEJABU_GUID@@0PAPAX@Z
_TEXT	SEGMENT PARA USE32 PUBLIC 'CODE'
_TEXT	ENDS
;	COMDAT ??_C@_0EH@BABLPHCB@ERROR?5?3?5Unable?5to?5lock?5critical?5@
CONST	SEGMENT DWORD USE32 PUBLIC 'CONST'
CONST	ENDS
;	COMDAT ?GetLockCount@CAtlModule@ATL@@UAEJXZ
_TEXT	SEGMENT PARA USE32 PUBLIC 'CODE'
_TEXT	ENDS
;	COMDAT ?Term@CComModule@ATL@@QAEXXZ
_TEXT	SEGMENT PARA USE32 PUBLIC 'CODE'
_TEXT	ENDS
;	COMDAT ?Term@CAtlModule@ATL@@QAEXXZ
_TEXT	SEGMENT PARA USE32 PUBLIC 'CODE'
_TEXT	ENDS
;	COMDAT ?Init@CComModule@ATL@@QAEJPAU_ATL_OBJMAP_ENTRY30@2@PAUHINSTANCE__@@PBU_GUID@@@Z
_TEXT	SEGMENT PARA USE32 PUBLIC 'CODE'
_TEXT	ENDS
;	COMDAT ?ObjectMain@CComObjectRootBase@ATL@@SGX_N@Z
_TEXT	SEGMENT PARA USE32 PUBLIC 'CODE'
_TEXT	ENDS
;	COMDAT ??1CComModule@ATL@@UAE@XZ
_TEXT	SEGMENT PARA USE32 PUBLIC 'CODE'
_TEXT	ENDS
;	COMDAT ??1?$CAtlModuleT@VCComModule@ATL@@@ATL@@UAE@XZ
_TEXT	SEGMENT PARA USE32 PUBLIC 'CODE'
_TEXT	ENDS
;	COMDAT ??1CAtlModule@ATL@@UAE@XZ
_TEXT	SEGMENT PARA USE32 PUBLIC 'CODE'
_TEXT	ENDS
;	COMDAT ??0CComModule@ATL@@QAE@XZ
_TEXT	SEGMENT PARA USE32 PUBLIC 'CODE'
_TEXT	ENDS
;	COMDAT ??0?$CAtlModuleT@VCComModule@ATL@@@ATL@@QAE@XZ
_TEXT	SEGMENT PARA USE32 PUBLIC 'CODE'
_TEXT	ENDS
;	COMDAT ??0CAtlModule@ATL@@QAE@XZ
_TEXT	SEGMENT PARA USE32 PUBLIC 'CODE'
_TEXT	ENDS
;	COMDAT ??0_ATL_MODULE70@ATL@@QAE@XZ
_TEXT	SEGMENT PARA USE32 PUBLIC 'CODE'
_TEXT	ENDS
;	COMDAT ??_C@_0BB@JLCMIEMB@_pAtlModule?5?$DN?$DN?50?$AA@
CONST	SEGMENT DWORD USE32 PUBLIC 'CONST'
CONST	ENDS
;	COMDAT ??_C@_0DN@JALIHHGH@ERROR?5?3?5Unable?5to?5initialize?5cri@
CONST	SEGMENT DWORD USE32 PUBLIC 'CONST'
CONST	ENDS
;	COMDAT ?InitLibId@?$CAtlModuleT@VCComModule@ATL@@@ATL@@SAXXZ
_TEXT	SEGMENT PARA USE32 PUBLIC 'CODE'
_TEXT	ENDS
;	COMDAT ??_7CComModule@ATL@@6B@
CONST	SEGMENT DWORD USE32 PUBLIC 'CONST'
CONST	ENDS
;	COMDAT ??_GCComModule@ATL@@UAEPAXI@Z
_TEXT	SEGMENT PARA USE32 PUBLIC 'CODE'
_TEXT	ENDS
;	COMDAT ?Lock@CAtlModule@ATL@@UAEJXZ
_TEXT	SEGMENT PARA USE32 PUBLIC 'CODE'
_TEXT	ENDS
;	COMDAT ?Unlock@CAtlModule@ATL@@UAEJXZ
_TEXT	SEGMENT PARA USE32 PUBLIC 'CODE'
_TEXT	ENDS
;	COMDAT ?GetGITPtr@CAtlModule@ATL@@UAEJPAPAUIGlobalInterfaceTable@@@Z
_TEXT	SEGMENT PARA USE32 PUBLIC 'CODE'
_TEXT	ENDS
;	COMDAT ??_C@_0L@NJOPLADJ@ppGIT?5?$CB?$DN?50?$AA@
CONST	SEGMENT DWORD USE32 PUBLIC 'CONST'
CONST	ENDS
;	COMDAT __GUID_00000146_0000_0000_c000_000000000046
CONST	SEGMENT DWORD USE32 PUBLIC 'CONST'
CONST	ENDS
;	COMDAT _CLSID_StdGlobalInterfaceTable
CONST	SEGMENT DWORD USE32 PUBLIC 'CONST'
CONST	ENDS
;	COMDAT ??_C@_0M@GKCENBEN@m_pGIT?5?$CB?$DN?50?$AA@
CONST	SEGMENT DWORD USE32 PUBLIC 'CONST'
CONST	ENDS
;	COMDAT ?AddCommonRGSReplacements@?$CAtlModuleT@VCComModule@ATL@@@ATL@@UAEJPAUIRegistrarBase@@@Z
_TEXT	SEGMENT PARA USE32 PUBLIC 'CODE'
_TEXT	ENDS
;	COMDAT ?GetAppId@?$CAtlModuleT@VCComModule@ATL@@@ATL@@SAPBGXZ
_TEXT	SEGMENT PARA USE32 PUBLIC 'CODE'
_TEXT	ENDS
;	COMDAT ??_C@_11LOCGONAA@?$AA?$AA@
CONST	SEGMENT DWORD USE32 PUBLIC 'CONST'
CONST	ENDS
;	COMDAT ??_C@_1M@PPPPCDEP@?$AAA?$AAP?$AAP?$AAI?$AAD?$AA?$AA@
CONST	SEGMENT DWORD USE32 PUBLIC 'CONST'
CONST	ENDS
;	COMDAT ?UpdateRegistryFromResourceD@CComModule@ATL@@UAGJPBDHPAU_ATL_REGMAP_ENTRY@2@@Z
_TEXT	SEGMENT PARA USE32 PUBLIC 'CODE'
_TEXT	ENDS
;	COMDAT ?UpdateRegistryFromResourceD@CAtlModule@ATL@@QAGJPBDHPAU_ATL_REGMAP_ENTRY@2@@Z
_TEXT	SEGMENT PARA USE32 PUBLIC 'CODE'
_TEXT	ENDS
;	COMDAT ?UpdateRegistryFromResourceDHelper@CAtlModule@ATL@@QAGJPBGHPAU_ATL_REGMAP_ENTRY@2@@Z
_TEXT	SEGMENT PARA USE32 PUBLIC 'CODE'
_TEXT	ENDS
;	COMDAT ??0?$CComPtr@UIRegistrar@@@ATL@@QAE@XZ
_TEXT	SEGMENT PARA USE32 PUBLIC 'CODE'
_TEXT	ENDS
;	COMDAT ??0?$CComPtrBase@UIRegistrar@@@ATL@@IAE@XZ
_TEXT	SEGMENT PARA USE32 PUBLIC 'CODE'
_TEXT	ENDS
;	COMDAT ??1?$CComPtrBase@UIRegistrar@@@ATL@@QAE@XZ
_TEXT	SEGMENT PARA USE32 PUBLIC 'CODE'
_TEXT	ENDS
;	COMDAT ??1?$CComPtr@UIRegistrar@@@ATL@@QAE@XZ
_TEXT	SEGMENT PARA USE32 PUBLIC 'CODE'
_TEXT	ENDS
;	COMDAT ??I?$CComPtrBase@UIRegistrar@@@ATL@@QAEPAPAUIRegistrar@@XZ
_TEXT	SEGMENT PARA USE32 PUBLIC 'CODE'
_TEXT	ENDS
;	COMDAT ??_C@_0BJ@MKNPNODP@0?5?$CB?$DN?5pMapEntries?9?$DOszData?$AA@
CONST	SEGMENT DWORD USE32 PUBLIC 'CONST'
CONST	ENDS
;	COMDAT ??C?$CComPtrBase@UIRegistrar@@@ATL@@QBEPAV?$_NoAddRefReleaseOnCComPtr@UIRegistrar@@@1@XZ
_TEXT	SEGMENT PARA USE32 PUBLIC 'CODE'
_TEXT	ENDS
;	COMDAT ??B?$CComPtrBase@UIRegistrar@@@ATL@@QBEPAUIRegistrar@@XZ
_TEXT	SEGMENT PARA USE32 PUBLIC 'CODE'
_TEXT	ENDS
;	COMDAT ?UpdateRegistryFromResourceS@CComModule@ATL@@UAGJIHPAU_ATL_REGMAP_ENTRY@2@@Z
_TEXT	SEGMENT PARA USE32 PUBLIC 'CODE'
_TEXT	ENDS
;	COMDAT ?UpdateRegistryFromResourceS@CComModule@ATL@@UAGJPBDHPAU_ATL_REGMAP_ENTRY@2@@Z
_TEXT	SEGMENT PARA USE32 PUBLIC 'CODE'
_TEXT	ENDS
;	COMDAT ??_C@_0O@PGKIMHP@_pModule?5?$DN?$DN?50?$AA@
CONST	SEGMENT DWORD USE32 PUBLIC 'CONST'
CONST	ENDS
;	COMDAT ?_pModule@ATL@@3PAVCComModule@1@A
_DATA	SEGMENT DWORD USE32 PUBLIC 'DATA'
_DATA	ENDS
;	COMDAT ??_7SigException@@6B@
CONST	SEGMENT DWORD USE32 PUBLIC 'CONST'
CONST	ENDS
;	COMDAT ??4CComVariant@ATL@@QAEAAV01@ABV01@@Z
_TEXT	SEGMENT PARA USE32 PUBLIC 'CODE'
_TEXT	ENDS
;	COMDAT ?InternalCopy@CComVariant@ATL@@QAEXPBUtagVARIANT@@@Z
_TEXT	SEGMENT PARA USE32 PUBLIC 'CODE'
_TEXT	ENDS
;	COMDAT ?Copy@CComVariant@ATL@@QAEJPBUtagVARIANT@@@Z
_TEXT	SEGMENT PARA USE32 PUBLIC 'CODE'
_TEXT	ENDS
;	COMDAT ??1CComVariant@ATL@@QAE@XZ
_TEXT	SEGMENT PARA USE32 PUBLIC 'CODE'
_TEXT	ENDS
;	COMDAT ?Clear@CComVariant@ATL@@QAEJXZ
_TEXT	SEGMENT PARA USE32 PUBLIC 'CODE'
_TEXT	ENDS
;	COMDAT ??0CComVariant@ATL@@QAE@ABUtagVARIANT@@@Z
_TEXT	SEGMENT PARA USE32 PUBLIC 'CODE'
_TEXT	ENDS
;	COMDAT ?pMap@?1??GetCategoryMap@CSignature@@SAPBU_ATL_CATMAP_ENTRY@ATL@@XZ@4QBU34@B
CONST	SEGMENT DWORD USE32 PUBLIC 'CONST'
CONST	ENDS
;	COMDAT ?UpdateRegistryFromResourceD@CComModule@ATL@@UAGJIHPAU_ATL_REGMAP_ENTRY@2@@Z
_TEXT	SEGMENT PARA USE32 PUBLIC 'CODE'
_TEXT	ENDS
;	COMDAT ?UpdateRegistryFromResourceD@CAtlModule@ATL@@QAGJIHPAU_ATL_REGMAP_ENTRY@2@@Z
_TEXT	SEGMENT PARA USE32 PUBLIC 'CODE'
_TEXT	ENDS
;	COMDAT ?_entries@?1??_GetEntries@CSignature@@SGPBU_ATL_INTMAP_ENTRY@ATL@@XZ@4QBU34@B
CONST	SEGMENT DWORD USE32 PUBLIC 'CONST'
CONST	ENDS
;	COMDAT __GUID_fc4801a3_2ba9_11cf_a229_00aa003d7352
CONST	SEGMENT DWORD USE32 PUBLIC 'CONST'
CONST	ENDS
;	COMDAT __GUID_b722bccb_4e68_101b_a2bc_00aa00404770
CONST	SEGMENT DWORD USE32 PUBLIC 'CONST'
CONST	ENDS
;	COMDAT __GUID_00020400_0000_0000_c000_000000000046
CONST	SEGMENT DWORD USE32 PUBLIC 'CONST'
CONST	ENDS
;	COMDAT __GUID_62ec64dc_b26d_46ce_9e33_24289bcf5f63
CONST	SEGMENT DWORD USE32 PUBLIC 'CONST'
CONST	ENDS
;	COMDAT ?InternalQueryInterface@CComObjectRootBase@ATL@@SGJPAXPBU_ATL_INTMAP_ENTRY@2@ABU_GUID@@PAPAX@Z
_TEXT	SEGMENT PARA USE32 PUBLIC 'CODE'
_TEXT	ENDS
;	COMDAT ??_C@_0L@DBHNDLKF@pThis?5?$CB?$DN?50?$AA@
CONST	SEGMENT DWORD USE32 PUBLIC 'CONST'
CONST	ENDS
;	COMDAT ??_C@_0DC@BBKMJDPM@pEntries?9?$DOpFunc?5?$DN?$DN?5?$CI?$CIATL?3?3_ATL_C@
CONST	SEGMENT DWORD USE32 PUBLIC 'CONST'
CONST	ENDS
;	COMDAT ??_C@_0DJ@HNJMKNAP@_GetEntries?$CI?$CJ?$FL0?$FN?4pFunc?5?$DN?$DN?5?$CI?$CIATL?3@
CONST	SEGMENT DWORD USE32 PUBLIC 'CONST'
CONST	ENDS
;	COMDAT ?Unlock@?$CComObjectRootEx@VCComSingleThreadModel@ATL@@@ATL@@QAEXXZ
_TEXT	SEGMENT PARA USE32 PUBLIC 'CODE'
_TEXT	ENDS
;	COMDAT ?_Cache@CComObjectRootBase@ATL@@SGJPAXABU_GUID@@PAPAXK@Z
_TEXT	SEGMENT PARA USE32 PUBLIC 'CODE'
_TEXT	ENDS
;	COMDAT ?Lock@?$CComObjectRootEx@VCComSingleThreadModel@ATL@@@ATL@@QAEXXZ
_TEXT	SEGMENT PARA USE32 PUBLIC 'CODE'
_TEXT	ENDS
;	COMDAT ?InternalRelease@?$CComObjectRootEx@VCComSingleThreadModel@ATL@@@ATL@@QAEKXZ
_TEXT	SEGMENT PARA USE32 PUBLIC 'CODE'
_TEXT	ENDS
;	COMDAT ?Decrement@CComSingleThreadModel@ATL@@SGKPAJ@Z
_TEXT	SEGMENT PARA USE32 PUBLIC 'CODE'
_TEXT	ENDS
;	COMDAT ?InternalAddRef@?$CComObjectRootEx@VCComSingleThreadModel@ATL@@@ATL@@QAEKXZ
_TEXT	SEGMENT PARA USE32 PUBLIC 'CODE'
_TEXT	ENDS
;	COMDAT ?Increment@CComSingleThreadModel@ATL@@SGKPAJ@Z
_TEXT	SEGMENT PARA USE32 PUBLIC 'CODE'
_TEXT	ENDS
;	COMDAT __GUID_c8be4864_227a_4a1b_84ee_473681bd4872
CONST	SEGMENT DWORD USE32 PUBLIC 'CONST'
CONST	ENDS
;	COMDAT __GUID_0d61aa35_48d5_47f5_8249_f685f75250fd
CONST	SEGMENT DWORD USE32 PUBLIC 'CONST'
CONST	ENDS
;	COMDAT ??1?$CDialogImplBaseT@VCWindow@ATL@@@ATL@@UAE@XZ
_TEXT	SEGMENT PARA USE32 PUBLIC 'CODE'
_TEXT	ENDS
;	COMDAT ??BCWindow@ATL@@QBEPAUHWND__@@XZ
_TEXT	SEGMENT PARA USE32 PUBLIC 'CODE'
_TEXT	ENDS
;	COMDAT ?MessageBoxA@CWindow@ATL@@QAEHPBD0I@Z
_TEXT	SEGMENT PARA USE32 PUBLIC 'CODE'
_TEXT	ENDS
;	COMDAT ?SendMessageA@CWindow@ATL@@QAEJIIJ@Z
_TEXT	SEGMENT PARA USE32 PUBLIC 'CODE'
_TEXT	ENDS
;	COMDAT ?GetDlgItem@CWindow@ATL@@QBE?AV12@H@Z
_TEXT	SEGMENT PARA USE32 PUBLIC 'CODE'
_TEXT	ENDS
;	COMDAT ?CenterWindow@CWindow@ATL@@QAEHPAUHWND__@@@Z
_TEXT	SEGMENT PARA USE32 PUBLIC 'CODE'
_TEXT	ENDS
;	COMDAT ?GetStyle@CWindow@ATL@@QBEKXZ
_TEXT	SEGMENT PARA USE32 PUBLIC 'CODE'
_TEXT	ENDS
;	COMDAT ??_C@_0BH@ENLIMLGL@?3?3IsWindow?$CIhWndParent?$CJ?$AA@
CONST	SEGMENT DWORD USE32 PUBLIC 'CONST'
CONST	ENDS
;	COMDAT ??_C@_0BH@LBNLFONB@?3?3IsWindow?$CIhWndCenter?$CJ?$AA@
CONST	SEGMENT DWORD USE32 PUBLIC 'CONST'
CONST	ENDS
;	COMDAT ?A2WBSTR@@YAPAGPBDH@Z
_TEXT	SEGMENT PARA USE32 PUBLIC 'CODE'
_TEXT	ENDS
;	COMDAT ??_C@_0BJ@OGJFCAD@nResult?5?$DN?$DN?5nConvertedLen?$AA@
CONST	SEGMENT DWORD USE32 PUBLIC 'CONST'
CONST	ENDS
;	COMDAT ??_C@_0FA@OHHMODBN@C?3?2Program?5Files?2Microsoft?5Visua@
CONST	SEGMENT DWORD USE32 PUBLIC 'CONST'
CONST	ENDS
;	COMDAT ??BCComBSTR@ATL@@QBEPAGXZ
_TEXT	SEGMENT PARA USE32 PUBLIC 'CODE'
_TEXT	ENDS
;	COMDAT ?LoadStringA@CComBSTR@ATL@@QAE_NI@Z
_TEXT	SEGMENT PARA USE32 PUBLIC 'CODE'
_TEXT	ENDS
;	COMDAT ?LoadStringResource@CComBSTR@ATL@@SA_NIAAPAG@Z
_TEXT	SEGMENT PARA USE32 PUBLIC 'CODE'
_TEXT	ENDS
;	COMDAT ??_C@_0O@LPAFDJOF@bstrText?5?$DN?$DN?50?$AA@
CONST	SEGMENT DWORD USE32 PUBLIC 'CONST'
CONST	ENDS
;	COMDAT ?AtlGetStringResourceImage@ATL@@YAPBUATLSTRINGRESOURCEIMAGE@1@I@Z
_TEXT	SEGMENT PARA USE32 PUBLIC 'CODE'
_TEXT	ENDS
;	COMDAT ??1CComBSTR@ATL@@QAE@XZ
_TEXT	SEGMENT PARA USE32 PUBLIC 'CODE'
_TEXT	ENDS
;	COMDAT ??0CComBSTR@ATL@@QAE@XZ
_TEXT	SEGMENT PARA USE32 PUBLIC 'CODE'
_TEXT	ENDS
;	COMDAT ??_C@_0BN@BNLFFEBD@Invalid?5message?5map?5ID?5?$CI?$CFi?$CJ?6?$AA@
CONST	SEGMENT DWORD USE32 PUBLIC 'CONST'
CONST	ENDS
;	COMDAT ?EnableWindow@CWindow@ATL@@QAEHH@Z
_TEXT	SEGMENT PARA USE32 PUBLIC 'CODE'
_TEXT	ENDS
;	COMDAT ??_7CShowSelectCert@@6B@
CONST	SEGMENT DWORD USE32 PUBLIC 'CONST'
CONST	ENDS
;	COMDAT ?licenseTimeout@CLicense@@0HB
CONST	SEGMENT DWORD USE32 PUBLIC 'CONST'
CONST	ENDS
;	COMDAT ??_C@_01GBGANLPD@0?$AA@
CONST	SEGMENT DWORD USE32 PUBLIC 'CONST'
CONST	ENDS
;	COMDAT ?szInvalidDateTimeSpan@ATL@@3QBDB
CONST	SEGMENT DWORD USE32 PUBLIC 'CONST'
CONST	ENDS
;	COMDAT ?szInvalidDateTime@ATL@@3QBDB
CONST	SEGMENT DWORD USE32 PUBLIC 'CONST'
CONST	ENDS
;	COMDAT ?Week@CFileTime@ATL@@2_KB
CONST	SEGMENT DWORD USE32 PUBLIC 'CONST'
CONST	ENDS
;	COMDAT ?Day@CFileTime@ATL@@2_KB
CONST	SEGMENT DWORD USE32 PUBLIC 'CONST'
CONST	ENDS
;	COMDAT ?Hour@CFileTime@ATL@@2_KB
CONST	SEGMENT DWORD USE32 PUBLIC 'CONST'
CONST	ENDS
;	COMDAT ?Minute@CFileTime@ATL@@2_KB
CONST	SEGMENT DWORD USE32 PUBLIC 'CONST'
CONST	ENDS
;	COMDAT ?Second@CFileTime@ATL@@2_KB
CONST	SEGMENT DWORD USE32 PUBLIC 'CONST'
CONST	ENDS
;	COMDAT ?Millisecond@CFileTime@ATL@@2_KB
CONST	SEGMENT DWORD USE32 PUBLIC 'CONST'
CONST	ENDS
;	COMDAT ?c_bIsMFCDLLTraits@?$_MFCDLLTraitsCheck@GV?$StrTraitATL@GV?$ChTraitsCRT@G@ATL@@@ATL@@@_CSTRING_IMPL_@ATL@@2_NB
CONST	SEGMENT DWORD USE32 PUBLIC 'CONST'
CONST	ENDS
;	COMDAT ?c_bIsMFCDLLTraits@?$_MFCDLLTraitsCheck@DV?$StrTraitATL@DV?$ChTraitsCRT@D@ATL@@@ATL@@@_CSTRING_IMPL_@ATL@@2_NB
CONST	SEGMENT DWORD USE32 PUBLIC 'CONST'
CONST	ENDS
;	COMDAT ??_C@_09BBJEMDLA@nRet?5?$CB?$DN?50?$AA@
CONST	SEGMENT DWORD USE32 PUBLIC 'CONST'
CONST	ENDS
;	COMDAT ?AddRef@CStringData@ATL@@QAEXXZ
_TEXT	SEGMENT PARA USE32 PUBLIC 'CODE'
_TEXT	ENDS
;	COMDAT ??_C@_09EEBKLCFA@nRefs?5?$DO?50?$AA@
CONST	SEGMENT DWORD USE32 PUBLIC 'CONST'
CONST	ENDS
;	COMDAT ?SetManager@CNilStringData@ATL@@QAEXPAUIAtlStringMgr@2@@Z
_TEXT	SEGMENT PARA USE32 PUBLIC 'CODE'
_TEXT	ENDS
;	COMDAT ??_C@_0BA@MLJMCNFJ@pStringMgr?5?$DN?$DN?50?$AA@
CONST	SEGMENT DWORD USE32 PUBLIC 'CONST'
CONST	ENDS
;	COMDAT ??0CNilStringData@ATL@@QAE@XZ
_TEXT	SEGMENT PARA USE32 PUBLIC 'CODE'
_TEXT	ENDS
;	COMDAT ??_7CAtlStringMgr@ATL@@6B@
CONST	SEGMENT DWORD USE32 PUBLIC 'CONST'
CONST	ENDS
;	COMDAT ??_7IFixedStringLog@ATL@@6B@
CONST	SEGMENT DWORD USE32 PUBLIC 'CONST'
CONST	ENDS
;	COMDAT ??BCTraceCategory@ATL@@QBEKXZ
_TEXT	SEGMENT PARA USE32 PUBLIC 'CODE'
_TEXT	ENDS
;	COMDAT ??0CTraceFileAndLineInfo@ATL@@QAE@PBDH@Z
_TEXT	SEGMENT PARA USE32 PUBLIC 'CODE'
_TEXT	ENDS
;	COMDAT ??RCTraceFileAndLineInfo@ATL@@QBAXKIPBDZZ
_TEXT	SEGMENT PARA USE32 PUBLIC 'CODE'
_TEXT	ENDS
;	COMDAT ?TraceV@CTrace@ATL@@QBAXPBDHKI0PAD@Z
_TEXT	SEGMENT PARA USE32 PUBLIC 'CODE'
_TEXT	ENDS
;	COMDAT ??_7CFixedStringLog@ATL@@6B@
CONST	SEGMENT DWORD USE32 PUBLIC 'CONST'
CONST	ENDS
;	COMDAT ?s_pLog@CFixedStringMgr@ATL@@2PAVIFixedStringLog@2@A
_DATA	SEGMENT DWORD USE32 PUBLIC 'DATA'
_DATA	ENDS
;	COMDAT ?data@CStringData@ATL@@QAEPAXXZ
_TEXT	SEGMENT PARA USE32 PUBLIC 'CODE'
_TEXT	ENDS
;	COMDAT ??_7CFixedStringMgr@ATL@@6B@
CONST	SEGMENT DWORD USE32 PUBLIC 'CONST'
CONST	ENDS
;	COMDAT ?AtlA2WHelper@@YGPAGPAGPBDHI@Z
_TEXT	SEGMENT PARA USE32 PUBLIC 'CODE'
_TEXT	ENDS
;	COMDAT ??_C@_08DMHHBMMN@lpa?5?$CB?$DN?50?$AA@
CONST	SEGMENT DWORD USE32 PUBLIC 'CONST'
CONST	ENDS
;	COMDAT ??_C@_08DIHJLFDJ@lpw?5?$CB?$DN?50?$AA@
CONST	SEGMENT DWORD USE32 PUBLIC 'CONST'
CONST	ENDS
;	COMDAT ?AtlThrow@ATL@@YGXJ@Z
_TEXT	SEGMENT PARA USE32 PUBLIC 'CODE'
_TEXT	ENDS
;	COMDAT ??_C@_0FC@CFIFHLCH@C?3?2Program?5Files?2Microsoft?5Visua@
CONST	SEGMENT DWORD USE32 PUBLIC 'CONST'
CONST	ENDS
;	COMDAT ??_C@_0BF@IAAKIJDJ@AtlThrow?3?5hr?5?$DN?50x?$CFx?6?$AA@
CONST	SEGMENT DWORD USE32 PUBLIC 'CONST'
CONST	ENDS
;	COMDAT ??0CAtlException@ATL@@QAE@J@Z
_TEXT	SEGMENT PARA USE32 PUBLIC 'CODE'
_TEXT	ENDS
;	COMDAT __TI1?AVCAtlException@ATL@@
xdata$x	SEGMENT DWORD USE32 PUBLIC 'CONST'
xdata$x	ENDS
;	COMDAT __CTA1?AVCAtlException@ATL@@
xdata$x	SEGMENT DWORD USE32 PUBLIC 'CONST'
xdata$x	ENDS
;	COMDAT __CT??_R0?AVCAtlException@ATL@@@84
xdata$x	SEGMENT DWORD USE32 PUBLIC 'CONST'
xdata$x	ENDS
;	COMDAT ??_R0?AVCAtlException@ATL@@@8
_DATA	SEGMENT DWORD USE32 PUBLIC 'DATA'
_DATA	ENDS
;	COMDAT ?Allocate@?$CAtlSafeAllocBufferManager@VCCRTAllocator@ATL@@@_ATL_SAFE_ALLOCA_IMPL@ATL@@QAEPAXK@Z
_TEXT	SEGMENT PARA USE32 PUBLIC 'CODE'
_TEXT	ENDS
;	COMDAT ?Allocate@CCRTAllocator@ATL@@SAPAXI@Z
_TEXT	SEGMENT PARA USE32 PUBLIC 'CODE'
_TEXT	ENDS
;	COMDAT ?GetData@CAtlSafeAllocBufferNode@?$CAtlSafeAllocBufferManager@VCCRTAllocator@ATL@@@_ATL_SAFE_ALLOCA_IMPL@ATL@@QAEPAXXZ
_TEXT	SEGMENT PARA USE32 PUBLIC 'CODE'
_TEXT	ENDS
;	COMDAT ?_AtlVerifyStackAvailable@_ATL_SAFE_ALLOCA_IMPL@ATL@@YA_NK@Z
_TEXT	SEGMENT PARA USE32 PUBLIC 'CODE'
_TEXT	ENDS
;	COMDAT ?AtlW2AHelper@@YGPADPADPBGHI@Z
_TEXT	SEGMENT PARA USE32 PUBLIC 'CODE'
_TEXT	ENDS
;	COMDAT ??1?$CAtlSafeAllocBufferManager@VCCRTAllocator@ATL@@@_ATL_SAFE_ALLOCA_IMPL@ATL@@QAE@XZ
_TEXT	SEGMENT PARA USE32 PUBLIC 'CODE'
_TEXT	ENDS
;	COMDAT ?Free@CCRTAllocator@ATL@@SAXPAX@Z
_TEXT	SEGMENT PARA USE32 PUBLIC 'CODE'
_TEXT	ENDS
;	COMDAT ??0?$CAtlSafeAllocBufferManager@VCCRTAllocator@ATL@@@_ATL_SAFE_ALLOCA_IMPL@ATL@@QAE@XZ
_TEXT	SEGMENT PARA USE32 PUBLIC 'CODE'
_TEXT	ENDS
;	COMDAT ?_strthunks@ATL@@3U_AtlStringThunks@1@A
_DATA	SEGMENT DWORD USE32 PUBLIC 'DATA'
_DATA	ENDS
;	COMDAT ??B?$CTempBuffer@D$0IA@VCCRTAllocator@ATL@@@ATL@@QBEPADXZ
_TEXT	SEGMENT PARA USE32 PUBLIC 'CODE'
_TEXT	ENDS
;	COMDAT ?Allocate@?$CTempBuffer@D$0IA@VCCRTAllocator@ATL@@@ATL@@QAEPADI@Z
_TEXT	SEGMENT PARA USE32 PUBLIC 'CODE'
_TEXT	ENDS
;	COMDAT ?AllocateBytes@?$CTempBuffer@D$0IA@VCCRTAllocator@ATL@@@ATL@@QAEPADI@Z
_TEXT	SEGMENT PARA USE32 PUBLIC 'CODE'
_TEXT	ENDS
;	COMDAT ??_C@_08GPODJFIN@m_p?5?$DN?$DN?50?$AA@
CONST	SEGMENT DWORD USE32 PUBLIC 'CONST'
CONST	ENDS
;	COMDAT ??_C@_0FB@IAFJMJBP@C?3?2Program?5Files?2Microsoft?5Visua@
CONST	SEGMENT DWORD USE32 PUBLIC 'CONST'
CONST	ENDS
;	COMDAT ?AllocateHeap@?$CTempBuffer@D$0IA@VCCRTAllocator@ATL@@@ATL@@AAEXI@Z
_TEXT	SEGMENT PARA USE32 PUBLIC 'CODE'
_TEXT	ENDS
;	COMDAT ??1?$CTempBuffer@D$0IA@VCCRTAllocator@ATL@@@ATL@@QAE@XZ
_TEXT	SEGMENT PARA USE32 PUBLIC 'CODE'
_TEXT	ENDS
;	COMDAT ?FreeHeap@?$CTempBuffer@D$0IA@VCCRTAllocator@ATL@@@ATL@@AAEXXZ
_TEXT	SEGMENT PARA USE32 PUBLIC 'CODE'
_TEXT	ENDS
;	COMDAT ??0?$CTempBuffer@D$0IA@VCCRTAllocator@ATL@@@ATL@@QAE@XZ
_TEXT	SEGMENT PARA USE32 PUBLIC 'CODE'
_TEXT	ENDS
;	COMDAT ?InterlockedExchangePointer@@YGPAXPAPAXPAX@Z
_TEXT	SEGMENT PARA USE32 PUBLIC 'CODE'
_TEXT	ENDS
;	COMDAT ?s_bWin9x@?1??_AtlInstallStringThunk@ATL@@YAXPAPAXPAX1@Z@4_NA
_BSS	SEGMENT PARA USE32 PUBLIC 'BSS'
_BSS	ENDS
;	COMDAT ??_B?1??_AtlInstallStringThunk@ATL@@YAXPAPAXPAX1@Z@51
_BSS	SEGMENT PARA USE32 PUBLIC 'BSS'
_BSS	ENDS
;	COMDAT ?_AtlGetConversionACP@ATL@@YGIXZ
_TEXT	SEGMENT PARA USE32 PUBLIC 'CODE'
_TEXT	ENDS
;	COMDAT ?g_pfnGetThreadACP@ATL@@3P6GIXZA
_DATA	SEGMENT DWORD USE32 PUBLIC 'DATA'
_DATA	ENDS
;	COMDAT ?_AtlGetThreadACPThunk@ATL@@YGIXZ
_TEXT	SEGMENT PARA USE32 PUBLIC 'CODE'
_TEXT	ENDS
;	COMDAT ?_AtlGetThreadACPReal@ATL@@YGIXZ
_TEXT	SEGMENT PARA USE32 PUBLIC 'CODE'
_TEXT	ENDS
;	COMDAT ?_AtlGetThreadACPFake@ATL@@YGIXZ
_TEXT	SEGMENT PARA USE32 PUBLIC 'CODE'
_TEXT	ENDS
;	COMDAT ??_7ios_base@std@@6B@
CONST	SEGMENT DWORD USE32 PUBLIC 'CONST'
CONST	ENDS
;	COMDAT ??_7failure@ios_base@std@@6B@
CONST	SEGMENT DWORD USE32 PUBLIC 'CONST'
CONST	ENDS
;	COMDAT ?end@?$_Iosb@H@std@@2W4_Seekdir@12@B
CONST	SEGMENT DWORD USE32 PUBLIC 'CONST'
CONST	ENDS
;	COMDAT ?cur@?$_Iosb@H@std@@2W4_Seekdir@12@B
CONST	SEGMENT DWORD USE32 PUBLIC 'CONST'
CONST	ENDS
;	COMDAT ?beg@?$_Iosb@H@std@@2W4_Seekdir@12@B
CONST	SEGMENT DWORD USE32 PUBLIC 'CONST'
CONST	ENDS
;	COMDAT ?binary@?$_Iosb@H@std@@2W4_Openmode@12@B
CONST	SEGMENT DWORD USE32 PUBLIC 'CONST'
CONST	ENDS
;	COMDAT ?_Noreplace@?$_Iosb@H@std@@2W4_Openmode@12@B
CONST	SEGMENT DWORD USE32 PUBLIC 'CONST'
CONST	ENDS
;	COMDAT ?_Nocreate@?$_Iosb@H@std@@2W4_Openmode@12@B
CONST	SEGMENT DWORD USE32 PUBLIC 'CONST'
CONST	ENDS
;	COMDAT ?trunc@?$_Iosb@H@std@@2W4_Openmode@12@B
CONST	SEGMENT DWORD USE32 PUBLIC 'CONST'
CONST	ENDS
;	COMDAT ?app@?$_Iosb@H@std@@2W4_Openmode@12@B
CONST	SEGMENT DWORD USE32 PUBLIC 'CONST'
CONST	ENDS
;	COMDAT ?ate@?$_Iosb@H@std@@2W4_Openmode@12@B
CONST	SEGMENT DWORD USE32 PUBLIC 'CONST'
CONST	ENDS
;	COMDAT ?out@?$_Iosb@H@std@@2W4_Openmode@12@B
CONST	SEGMENT DWORD USE32 PUBLIC 'CONST'
CONST	ENDS
;	COMDAT ?in@?$_Iosb@H@std@@2W4_Openmode@12@B
CONST	SEGMENT DWORD USE32 PUBLIC 'CONST'
CONST	ENDS
;	COMDAT ?_Hardfail@?$_Iosb@H@std@@2W4_Iostate@12@B
CONST	SEGMENT DWORD USE32 PUBLIC 'CONST'
CONST	ENDS
;	COMDAT ?badbit@?$_Iosb@H@std@@2W4_Iostate@12@B
CONST	SEGMENT DWORD USE32 PUBLIC 'CONST'
CONST	ENDS
;	COMDAT ?failbit@?$_Iosb@H@std@@2W4_Iostate@12@B
CONST	SEGMENT DWORD USE32 PUBLIC 'CONST'
CONST	ENDS
;	COMDAT ?eofbit@?$_Iosb@H@std@@2W4_Iostate@12@B
CONST	SEGMENT DWORD USE32 PUBLIC 'CONST'
CONST	ENDS
;	COMDAT ?goodbit@?$_Iosb@H@std@@2W4_Iostate@12@B
CONST	SEGMENT DWORD USE32 PUBLIC 'CONST'
CONST	ENDS
;	COMDAT ?floatfield@?$_Iosb@H@std@@2W4_Fmtflags@12@B
CONST	SEGMENT DWORD USE32 PUBLIC 'CONST'
CONST	ENDS
;	COMDAT ?basefield@?$_Iosb@H@std@@2W4_Fmtflags@12@B
CONST	SEGMENT DWORD USE32 PUBLIC 'CONST'
CONST	ENDS
;	COMDAT ?adjustfield@?$_Iosb@H@std@@2W4_Fmtflags@12@B
CONST	SEGMENT DWORD USE32 PUBLIC 'CONST'
CONST	ENDS
;	COMDAT ?_Stdio@?$_Iosb@H@std@@2W4_Fmtflags@12@B
CONST	SEGMENT DWORD USE32 PUBLIC 'CONST'
CONST	ENDS
;	COMDAT ?boolalpha@?$_Iosb@H@std@@2W4_Fmtflags@12@B
CONST	SEGMENT DWORD USE32 PUBLIC 'CONST'
CONST	ENDS
;	COMDAT ?fixed@?$_Iosb@H@std@@2W4_Fmtflags@12@B
CONST	SEGMENT DWORD USE32 PUBLIC 'CONST'
CONST	ENDS
;	COMDAT ?scientific@?$_Iosb@H@std@@2W4_Fmtflags@12@B
CONST	SEGMENT DWORD USE32 PUBLIC 'CONST'
CONST	ENDS
;	COMDAT ?hex@?$_Iosb@H@std@@2W4_Fmtflags@12@B
CONST	SEGMENT DWORD USE32 PUBLIC 'CONST'
CONST	ENDS
;	COMDAT ?oct@?$_Iosb@H@std@@2W4_Fmtflags@12@B
CONST	SEGMENT DWORD USE32 PUBLIC 'CONST'
CONST	ENDS
;	COMDAT ?dec@?$_Iosb@H@std@@2W4_Fmtflags@12@B
CONST	SEGMENT DWORD USE32 PUBLIC 'CONST'
CONST	ENDS
;	COMDAT ?internal@?$_Iosb@H@std@@2W4_Fmtflags@12@B
CONST	SEGMENT DWORD USE32 PUBLIC 'CONST'
CONST	ENDS
;	COMDAT ?right@?$_Iosb@H@std@@2W4_Fmtflags@12@B
CONST	SEGMENT DWORD USE32 PUBLIC 'CONST'
CONST	ENDS
;	COMDAT ?left@?$_Iosb@H@std@@2W4_Fmtflags@12@B
CONST	SEGMENT DWORD USE32 PUBLIC 'CONST'
CONST	ENDS
;	COMDAT ?showpos@?$_Iosb@H@std@@2W4_Fmtflags@12@B
CONST	SEGMENT DWORD USE32 PUBLIC 'CONST'
CONST	ENDS
;	COMDAT ?showpoint@?$_Iosb@H@std@@2W4_Fmtflags@12@B
CONST	SEGMENT DWORD USE32 PUBLIC 'CONST'
CONST	ENDS
;	COMDAT ?showbase@?$_Iosb@H@std@@2W4_Fmtflags@12@B
CONST	SEGMENT DWORD USE32 PUBLIC 'CONST'
CONST	ENDS
;	COMDAT ?uppercase@?$_Iosb@H@std@@2W4_Fmtflags@12@B
CONST	SEGMENT DWORD USE32 PUBLIC 'CONST'
CONST	ENDS
;	COMDAT ?unitbuf@?$_Iosb@H@std@@2W4_Fmtflags@12@B
CONST	SEGMENT DWORD USE32 PUBLIC 'CONST'
CONST	ENDS
;	COMDAT ?skipws@?$_Iosb@H@std@@2W4_Fmtflags@12@B
CONST	SEGMENT DWORD USE32 PUBLIC 'CONST'
CONST	ENDS
;	COMDAT ??_7?$ctype@G@std@@6B@
CONST	SEGMENT DWORD USE32 PUBLIC 'CONST'
CONST	ENDS
;	COMDAT ??_7?$ctype@D@std@@6B@
CONST	SEGMENT DWORD USE32 PUBLIC 'CONST'
CONST	ENDS
;	COMDAT ??_7ctype_base@std@@6B@
CONST	SEGMENT DWORD USE32 PUBLIC 'CONST'
CONST	ENDS
;	COMDAT ??_7?$codecvt@GDH@std@@6B@
CONST	SEGMENT DWORD USE32 PUBLIC 'CONST'
CONST	ENDS
;	COMDAT ??_7codecvt_base@std@@6B@
CONST	SEGMENT DWORD USE32 PUBLIC 'CONST'
CONST	ENDS
;	COMDAT ??_7facet@locale@std@@6B@
CONST	SEGMENT DWORD USE32 PUBLIC 'CONST'
CONST	ENDS
;	COMDAT ?none@?$_Locbase@H@std@@2HB
CONST	SEGMENT DWORD USE32 PUBLIC 'CONST'
CONST	ENDS
;	COMDAT ?all@?$_Locbase@H@std@@2HB
CONST	SEGMENT DWORD USE32 PUBLIC 'CONST'
CONST	ENDS
;	COMDAT ?messages@?$_Locbase@H@std@@2HB
CONST	SEGMENT DWORD USE32 PUBLIC 'CONST'
CONST	ENDS
;	COMDAT ?time@?$_Locbase@H@std@@2HB
CONST	SEGMENT DWORD USE32 PUBLIC 'CONST'
CONST	ENDS
;	COMDAT ?numeric@?$_Locbase@H@std@@2HB
CONST	SEGMENT DWORD USE32 PUBLIC 'CONST'
CONST	ENDS
;	COMDAT ?monetary@?$_Locbase@H@std@@2HB
CONST	SEGMENT DWORD USE32 PUBLIC 'CONST'
CONST	ENDS
;	COMDAT ?ctype@?$_Locbase@H@std@@2HB
CONST	SEGMENT DWORD USE32 PUBLIC 'CONST'
CONST	ENDS
;	COMDAT ?collate@?$_Locbase@H@std@@2HB
CONST	SEGMENT DWORD USE32 PUBLIC 'CONST'
CONST	ENDS
;	COMDAT ??_C@_05LAPONLG@false?$AA@
CONST	SEGMENT DWORD USE32 PUBLIC 'CONST'
CONST	ENDS
;	COMDAT ??_7range_error@std@@6B@
CONST	SEGMENT DWORD USE32 PUBLIC 'CONST'
CONST	ENDS
;	COMDAT ??_7underflow_error@std@@6B@
CONST	SEGMENT DWORD USE32 PUBLIC 'CONST'
CONST	ENDS
;	COMDAT ??_7overflow_error@std@@6B@
CONST	SEGMENT DWORD USE32 PUBLIC 'CONST'
CONST	ENDS
;	COMDAT ??_7runtime_error@std@@6B@
CONST	SEGMENT DWORD USE32 PUBLIC 'CONST'
CONST	ENDS
;	COMDAT ??_7out_of_range@std@@6B@
CONST	SEGMENT DWORD USE32 PUBLIC 'CONST'
CONST	ENDS
;	COMDAT ??_7length_error@std@@6B@
CONST	SEGMENT DWORD USE32 PUBLIC 'CONST'
CONST	ENDS
;	COMDAT ??_7invalid_argument@std@@6B@
CONST	SEGMENT DWORD USE32 PUBLIC 'CONST'
CONST	ENDS
;	COMDAT ??_7domain_error@std@@6B@
CONST	SEGMENT DWORD USE32 PUBLIC 'CONST'
CONST	ENDS
;	COMDAT ??_7logic_error@std@@6B@
CONST	SEGMENT DWORD USE32 PUBLIC 'CONST'
CONST	ENDS
;	COMDAT ??_7bad_alloc@std@@6B@
CONST	SEGMENT DWORD USE32 PUBLIC 'CONST'
CONST	ENDS
;	COMDAT ??_7bad_exception@std@@6B@
CONST	SEGMENT DWORD USE32 PUBLIC 'CONST'
CONST	ENDS
;	COMDAT ??_7CBufferVariant@@6B@
CONST	SEGMENT DWORD USE32 PUBLIC 'CONST'
CONST	ENDS
;	COMDAT __GUID_00000562_0000_0010_8000_00aa006d2ea4
CONST	SEGMENT DWORD USE32 PUBLIC 'CONST'
CONST	ENDS
;	COMDAT __GUID_00000403_0000_0010_8000_00aa006d2ea4
CONST	SEGMENT DWORD USE32 PUBLIC 'CONST'
CONST	ENDS
;	COMDAT __GUID_00000402_0000_0010_8000_00aa006d2ea4
CONST	SEGMENT DWORD USE32 PUBLIC 'CONST'
CONST	ENDS
;	COMDAT __GUID_00000556_0000_0010_8000_00aa006d2ea4
CONST	SEGMENT DWORD USE32 PUBLIC 'CONST'
CONST	ENDS
;	COMDAT __GUID_00000555_0000_0010_8000_00aa006d2ea4
CONST	SEGMENT DWORD USE32 PUBLIC 'CONST'
CONST	ENDS
;	COMDAT __GUID_0000054f_0000_0010_8000_00aa006d2ea4
CONST	SEGMENT DWORD USE32 PUBLIC 'CONST'
CONST	ENDS
;	COMDAT __GUID_0000050e_0000_0010_8000_00aa006d2ea4
CONST	SEGMENT DWORD USE32 PUBLIC 'CONST'
CONST	ENDS
;	COMDAT __GUID_00000550_0000_0010_8000_00aa006d2ea4
CONST	SEGMENT DWORD USE32 PUBLIC 'CONST'
CONST	ENDS
;	COMDAT __GUID_00000515_0000_0010_8000_00aa006d2ea4
CONST	SEGMENT DWORD USE32 PUBLIC 'CONST'
CONST	ENDS
;	COMDAT __GUID_b08400bd_f9d1_4d02_b856_71d5dba123e9
CONST	SEGMENT DWORD USE32 PUBLIC 'CONST'
CONST	ENDS
;	COMDAT __GUID_0000054e_0000_0010_8000_00aa006d2ea4
CONST	SEGMENT DWORD USE32 PUBLIC 'CONST'
CONST	ENDS
;	COMDAT __GUID_00000508_0000_0010_8000_00aa006d2ea4
CONST	SEGMENT DWORD USE32 PUBLIC 'CONST'
CONST	ENDS
;	COMDAT __GUID_00000505_0000_0010_8000_00aa006d2ea4
CONST	SEGMENT DWORD USE32 PUBLIC 'CONST'
CONST	ENDS
;	COMDAT __GUID_00000283_0000_0010_8000_00aa006d2ea4
CONST	SEGMENT DWORD USE32 PUBLIC 'CONST'
CONST	ENDS
;	COMDAT __GUID_00000517_0000_0010_8000_00aa006d2ea4
CONST	SEGMENT DWORD USE32 PUBLIC 'CONST'
CONST	ENDS
;	COMDAT __GUID_00000568_0000_0010_8000_00aa006d2ea4
CONST	SEGMENT DWORD USE32 PUBLIC 'CONST'
CONST	ENDS
;	COMDAT __GUID_00000567_0000_0010_8000_00aa006d2ea4
CONST	SEGMENT DWORD USE32 PUBLIC 'CONST'
CONST	ENDS
;	COMDAT __GUID_00000565_0000_0010_8000_00aa006d2ea4
CONST	SEGMENT DWORD USE32 PUBLIC 'CONST'
CONST	ENDS
;	COMDAT __GUID_00000516_0000_0010_8000_00aa006d2ea4
CONST	SEGMENT DWORD USE32 PUBLIC 'CONST'
CONST	ENDS
;	COMDAT __GUID_0000050d_0000_0010_8000_00aa006d2ea4
CONST	SEGMENT DWORD USE32 PUBLIC 'CONST'
CONST	ENDS
;	COMDAT __GUID_0000050c_0000_0010_8000_00aa006d2ea4
CONST	SEGMENT DWORD USE32 PUBLIC 'CONST'
CONST	ENDS
;	COMDAT __GUID_00000564_0000_0010_8000_00aa006d2ea4
CONST	SEGMENT DWORD USE32 PUBLIC 'CONST'
CONST	ENDS
;	COMDAT __GUID_0000054d_0000_0010_8000_00aa006d2ea4
CONST	SEGMENT DWORD USE32 PUBLIC 'CONST'
CONST	ENDS
;	COMDAT __GUID_00000506_0000_0010_8000_00aa006d2ea4
CONST	SEGMENT DWORD USE32 PUBLIC 'CONST'
CONST	ENDS
;	COMDAT __GUID_00000569_0000_0010_8000_00aa006d2ea4
CONST	SEGMENT DWORD USE32 PUBLIC 'CONST'
CONST	ENDS
;	COMDAT __GUID_0000054c_0000_0010_8000_00aa006d2ea4
CONST	SEGMENT DWORD USE32 PUBLIC 'CONST'
CONST	ENDS
;	COMDAT __GUID_00000501_0000_0010_8000_00aa006d2ea4
CONST	SEGMENT DWORD USE32 PUBLIC 'CONST'
CONST	ENDS
;	COMDAT __GUID_00000500_0000_0010_8000_00aa006d2ea4
CONST	SEGMENT DWORD USE32 PUBLIC 'CONST'
CONST	ENDS
;	COMDAT __GUID_00000534_0000_0010_8000_00aa006d2ea4
CONST	SEGMENT DWORD USE32 PUBLIC 'CONST'
CONST	ENDS
;	COMDAT __GUID_00000504_0000_0010_8000_00aa006d2ea4
CONST	SEGMENT DWORD USE32 PUBLIC 'CONST'
CONST	ENDS
;	COMDAT __GUID_00000503_0000_0010_8000_00aa006d2ea4
CONST	SEGMENT DWORD USE32 PUBLIC 'CONST'
CONST	ENDS
;	COMDAT __GUID_00000513_0000_0010_8000_00aa006d2ea4
CONST	SEGMENT DWORD USE32 PUBLIC 'CONST'
CONST	ENDS
;	COMDAT __GUID_00000512_0000_0010_8000_00aa006d2ea4
CONST	SEGMENT DWORD USE32 PUBLIC 'CONST'
CONST	ENDS
;	COMDAT __GUID_00000000_0000_0000_0000_000000000000
CONST	SEGMENT DWORD USE32 PUBLIC 'CONST'
CONST	ENDS
;	COMDAT ??_7_com_error@@6B@
CONST	SEGMENT DWORD USE32 PUBLIC 'CONST'
CONST	ENDS
;	COMDAT ??_7CConfig@@6B@
CONST	SEGMENT DWORD USE32 PUBLIC 'CONST'
CONST	ENDS
;	COMDAT _IID_IObjectSafety
CONST	SEGMENT DWORD USE32 PUBLIC 'CONST'
CONST	ENDS
sxdata	SEGMENT DWORD USE32 'SXDATA'
sxdata	ENDS
FLAT	GROUP _DATA, CONST, _BSS, CRT$XCU
	ASSUME	CS: FLAT, DS: FLAT, SS: FLAT
endif

INCLUDELIB LIBCMTD
INCLUDELIB OLDNAMES

PUBLIC	?g_pfnGetThreadACP@ATL@@3P6GIXZA		; ATL::g_pfnGetThreadACP
PUBLIC	?_AtlGetThreadACPThunk@ATL@@YGIXZ		; ATL::_AtlGetThreadACPThunk
PUBLIC	?s_pLog@CFixedStringMgr@ATL@@2PAVIFixedStringLog@2@A ; ATL::CFixedStringMgr::s_pLog
PUBLIC	?_pAtlModule@ATL@@3PAVCAtlModule@1@A		; ATL::_pAtlModule
PUBLIC	?m_libid@CAtlModule@ATL@@2U_GUID@@A		; ATL::CAtlModule::m_libid
PUBLIC	?c_bIsMFCDLLTraits@?$_MFCDLLTraitsCheck@GV?$StrTraitATL@GV?$ChTraitsCRT@G@ATL@@@ATL@@@_CSTRING_IMPL_@ATL@@2_NB ; ATL::_CSTRING_IMPL_::_MFCDLLTraitsCheck<unsigned short,ATL::StrTraitATL<unsigned short,ATL::ChTraitsCRT<unsigned short> > >::c_bIsMFCDLLTraits
PUBLIC	?ObjectMain@CComObjectRootBase@ATL@@SGX_N@Z	; ATL::CComObjectRootBase::ObjectMain
PUBLIC	?_strthunks@ATL@@3U_AtlStringThunks@1@A		; ATL::_strthunks
PUBLIC	?GetObjectDescription@?$CComCoClass@VCSignature@@$1?CLSID_Signature@@3U_GUID@@B@ATL@@SGPBDXZ ; ATL::CComCoClass<CSignature,&CLSID_Signature>::GetObjectDescription
PUBLIC	?GetEnvironmentVariableWThunk@ATL@@YGKPBGPAGK@Z	; ATL::GetEnvironmentVariableWThunk
PUBLIC	_IID_ISignature
PUBLIC	?licenseTimeout@CLicense@@0HB			; CLicense::licenseTimeout
PUBLIC	_CLSID_StdGlobalInterfaceTable
PUBLIC	?CompareStringWThunk@ATL@@YGHKKPBGH0H@Z		; ATL::CompareStringWThunk
PUBLIC	?szModulePath@@3PAGA				; szModulePath
PUBLIC	_hInst
PUBLIC	?GetStringTypeExWThunk@ATL@@YGHKKPBGHPAG@Z	; ATL::GetStringTypeExWThunk
PUBLIC	?CreateInstance@?$CComCreator@V?$CComObjectCached@VCComClassFactory@ATL@@@ATL@@@ATL@@SGJPAXABU_GUID@@PAPAX@Z ; ATL::CComCreator<ATL::CComObjectCached<ATL::CComClassFactory> >::CreateInstance
PUBLIC	?lstrcmpiWThunk@ATL@@YGHPBG0@Z			; ATL::lstrcmpiWThunk
PUBLIC	?CreateInstance@?$CComCreator2@V?$CComCreator@V?$CComObject@VCSignature@@@ATL@@@ATL@@V?$CComCreator@V?$CComAggObject@VCSignature@@@ATL@@@2@@ATL@@SGJPAXABU_GUID@@PAPAX@Z ; ATL::CComCreator2<ATL::CComCreator<ATL::CComObject<CSignature> >,ATL::CComCreator<ATL::CComAggObject<CSignature> > >::CreateInstance
PUBLIC	?CharLowerWThunk@ATL@@YGPAGPAG@Z		; ATL::CharLowerWThunk
PUBLIC	?CharUpperWThunk@ATL@@YGPAGPAG@Z		; ATL::CharUpperWThunk
PUBLIC	?_pPerfRegFunc@ATL@@3P6AJPAUHINSTANCE__@@@ZA	; ATL::_pPerfRegFunc
PUBLIC	?_pPerfUnRegFunc@ATL@@3P6AJXZA			; ATL::_pPerfUnRegFunc
PUBLIC	?collate@?$_Locbase@H@std@@2HB			; std::_Locbase<int>::collate
PUBLIC	?ctype@?$_Locbase@H@std@@2HB			; std::_Locbase<int>::ctype
PUBLIC	?monetary@?$_Locbase@H@std@@2HB			; std::_Locbase<int>::monetary
PUBLIC	?numeric@?$_Locbase@H@std@@2HB			; std::_Locbase<int>::numeric
PUBLIC	?time@?$_Locbase@H@std@@2HB			; std::_Locbase<int>::time
PUBLIC	?messages@?$_Locbase@H@std@@2HB			; std::_Locbase<int>::messages
PUBLIC	?all@?$_Locbase@H@std@@2HB			; std::_Locbase<int>::all
PUBLIC	?none@?$_Locbase@H@std@@2HB			; std::_Locbase<int>::none
PUBLIC	?_pModule@ATL@@3PAVCComModule@1@A		; ATL::_pModule
PUBLIC	?rcDefault@CWindow@ATL@@2UtagRECT@@A		; ATL::CWindow::rcDefault
PUBLIC	?m_bInitFailed@CAtlBaseModule@ATL@@2_NA		; ATL::CAtlBaseModule::m_bInitFailed
PUBLIC	?UpdateRegistry@CSignature@@SGJH@Z		; CSignature::UpdateRegistry
PUBLIC	?c_bIsMFCDLLTraits@?$_MFCDLLTraitsCheck@DV?$StrTraitATL@DV?$ChTraitsCRT@D@ATL@@@ATL@@@_CSTRING_IMPL_@ATL@@2_NB ; ATL::_CSTRING_IMPL_::_MFCDLLTraitsCheck<char,ATL::StrTraitATL<char,ATL::ChTraitsCRT<char> > >::c_bIsMFCDLLTraits
PUBLIC	?GetCategoryMap@CSignature@@SAPBU_ATL_CATMAP_ENTRY@ATL@@XZ ; CSignature::GetCategoryMap
PUBLIC	_LIBID_XMLSIGNLib
PUBLIC	_CLSID_Signature
PUBLIC	?skipws@?$_Iosb@H@std@@2W4_Fmtflags@12@B	; std::_Iosb<int>::skipws
PUBLIC	?unitbuf@?$_Iosb@H@std@@2W4_Fmtflags@12@B	; std::_Iosb<int>::unitbuf
PUBLIC	?uppercase@?$_Iosb@H@std@@2W4_Fmtflags@12@B	; std::_Iosb<int>::uppercase
PUBLIC	?showbase@?$_Iosb@H@std@@2W4_Fmtflags@12@B	; std::_Iosb<int>::showbase
PUBLIC	?showpoint@?$_Iosb@H@std@@2W4_Fmtflags@12@B	; std::_Iosb<int>::showpoint
PUBLIC	?showpos@?$_Iosb@H@std@@2W4_Fmtflags@12@B	; std::_Iosb<int>::showpos
PUBLIC	?left@?$_Iosb@H@std@@2W4_Fmtflags@12@B		; std::_Iosb<int>::left
PUBLIC	?right@?$_Iosb@H@std@@2W4_Fmtflags@12@B		; std::_Iosb<int>::right
PUBLIC	?internal@?$_Iosb@H@std@@2W4_Fmtflags@12@B	; std::_Iosb<int>::internal
PUBLIC	?dec@?$_Iosb@H@std@@2W4_Fmtflags@12@B		; std::_Iosb<int>::dec
PUBLIC	?oct@?$_Iosb@H@std@@2W4_Fmtflags@12@B		; std::_Iosb<int>::oct
PUBLIC	?hex@?$_Iosb@H@std@@2W4_Fmtflags@12@B		; std::_Iosb<int>::hex
PUBLIC	?scientific@?$_Iosb@H@std@@2W4_Fmtflags@12@B	; std::_Iosb<int>::scientific
PUBLIC	_IID_IObjectSafety
PUBLIC	?fixed@?$_Iosb@H@std@@2W4_Fmtflags@12@B		; std::_Iosb<int>::fixed
PUBLIC	?boolalpha@?$_Iosb@H@std@@2W4_Fmtflags@12@B	; std::_Iosb<int>::boolalpha
PUBLIC	?_Stdio@?$_Iosb@H@std@@2W4_Fmtflags@12@B	; std::_Iosb<int>::_Stdio
PUBLIC	?adjustfield@?$_Iosb@H@std@@2W4_Fmtflags@12@B	; std::_Iosb<int>::adjustfield
PUBLIC	?basefield@?$_Iosb@H@std@@2W4_Fmtflags@12@B	; std::_Iosb<int>::basefield
PUBLIC	?floatfield@?$_Iosb@H@std@@2W4_Fmtflags@12@B	; std::_Iosb<int>::floatfield
PUBLIC	?goodbit@?$_Iosb@H@std@@2W4_Iostate@12@B	; std::_Iosb<int>::goodbit
PUBLIC	?eofbit@?$_Iosb@H@std@@2W4_Iostate@12@B		; std::_Iosb<int>::eofbit
PUBLIC	?failbit@?$_Iosb@H@std@@2W4_Iostate@12@B	; std::_Iosb<int>::failbit
PUBLIC	?badbit@?$_Iosb@H@std@@2W4_Iostate@12@B		; std::_Iosb<int>::badbit
PUBLIC	?_Hardfail@?$_Iosb@H@std@@2W4_Iostate@12@B	; std::_Iosb<int>::_Hardfail
PUBLIC	?in@?$_Iosb@H@std@@2W4_Openmode@12@B		; std::_Iosb<int>::in
PUBLIC	?out@?$_Iosb@H@std@@2W4_Openmode@12@B		; std::_Iosb<int>::out
PUBLIC	?ate@?$_Iosb@H@std@@2W4_Openmode@12@B		; std::_Iosb<int>::ate
PUBLIC	?app@?$_Iosb@H@std@@2W4_Openmode@12@B		; std::_Iosb<int>::app
PUBLIC	?trunc@?$_Iosb@H@std@@2W4_Openmode@12@B		; std::_Iosb<int>::trunc
PUBLIC	?_Nocreate@?$_Iosb@H@std@@2W4_Openmode@12@B	; std::_Iosb<int>::_Nocreate
PUBLIC	?_Noreplace@?$_Iosb@H@std@@2W4_Openmode@12@B	; std::_Iosb<int>::_Noreplace
PUBLIC	?binary@?$_Iosb@H@std@@2W4_Openmode@12@B	; std::_Iosb<int>::binary
PUBLIC	?beg@?$_Iosb@H@std@@2W4_Seekdir@12@B		; std::_Iosb<int>::beg
PUBLIC	?cur@?$_Iosb@H@std@@2W4_Seekdir@12@B		; std::_Iosb<int>::cur
PUBLIC	?end@?$_Iosb@H@std@@2W4_Seekdir@12@B		; std::_Iosb<int>::end
PUBLIC	?Millisecond@CFileTime@ATL@@2_KB		; ATL::CFileTime::Millisecond
PUBLIC	?Second@CFileTime@ATL@@2_KB			; ATL::CFileTime::Second
PUBLIC	?Minute@CFileTime@ATL@@2_KB			; ATL::CFileTime::Minute
PUBLIC	?Hour@CFileTime@ATL@@2_KB			; ATL::CFileTime::Hour
PUBLIC	?Day@CFileTime@ATL@@2_KB			; ATL::CFileTime::Day
PUBLIC	?Week@CFileTime@ATL@@2_KB			; ATL::CFileTime::Week
PUBLIC	?szInvalidDateTime@ATL@@3QBDB			; ATL::szInvalidDateTime
PUBLIC	?szInvalidDateTimeSpan@ATL@@3QBDB		; ATL::szInvalidDateTimeSpan
;	COMDAT ?s_pLog@CFixedStringMgr@ATL@@2PAVIFixedStringLog@2@A
_BSS	SEGMENT
?s_pLog@CFixedStringMgr@ATL@@2PAVIFixedStringLog@2@A DD 01H DUP (?) ; ATL::CFixedStringMgr::s_pLog
_BSS	ENDS
;	COMDAT ?_pAtlModule@ATL@@3PAVCAtlModule@1@A
_BSS	SEGMENT
?_pAtlModule@ATL@@3PAVCAtlModule@1@A DD 01H DUP (?)	; ATL::_pAtlModule
_BSS	ENDS
;	COMDAT ?m_libid@CAtlModule@ATL@@2U_GUID@@A
_BSS	SEGMENT
?m_libid@CAtlModule@ATL@@2U_GUID@@A DB 010H DUP (?)	; ATL::CAtlModule::m_libid
_BSS	ENDS
_BSS	SEGMENT
?szModulePath@@3PAGA DW 0104H DUP (?)			; szModulePath
_hInst	DD	01H DUP (?)
_BSS	ENDS
;	COMDAT ?_pPerfRegFunc@ATL@@3P6AJPAUHINSTANCE__@@@ZA
_BSS	SEGMENT
?_pPerfRegFunc@ATL@@3P6AJPAUHINSTANCE__@@@ZA DD 01H DUP (?) ; ATL::_pPerfRegFunc
_BSS	ENDS
;	COMDAT ?_pPerfUnRegFunc@ATL@@3P6AJXZA
_BSS	SEGMENT
?_pPerfUnRegFunc@ATL@@3P6AJXZA DD 01H DUP (?)		; ATL::_pPerfUnRegFunc
_BSS	ENDS
;	COMDAT ?_pModule@ATL@@3PAVCComModule@1@A
_BSS	SEGMENT
?_pModule@ATL@@3PAVCComModule@1@A DD 01H DUP (?)	; ATL::_pModule
_BSS	ENDS
;	COMDAT ?m_bInitFailed@CAtlBaseModule@ATL@@2_NA
_BSS	SEGMENT
?m_bInitFailed@CAtlBaseModule@ATL@@2_NA DB 01H DUP (?)	; ATL::CAtlBaseModule::m_bInitFailed
_BSS	ENDS
CONST	SEGMENT
_IID_ISignature DD 062ec64dcH
	DW	0b26dH
	DW	046ceH
	DB	09eH
	DB	033H
	DB	024H
	DB	028H
	DB	09bH
	DB	0cfH
	DB	05fH
	DB	063H
_LIBID_XMLSIGNLib DD 07cad46b3H
	DW	047cbH
	DW	045b6H
	DB	0bbH
	DB	083H
	DB	01bH
	DB	022H
	DB	0aeH
	DB	0cH
	DB	0b3H
	DB	0bcH
_CLSID_Signature DD 0d300c133H
	DW	0a6f6H
	DW	04fb4H
	DB	0a7H
	DB	034H
	DB	048H
	DB	065H
	DB	0fbH
	DB	0f5H
	DB	0a3H
	DB	0b1H
CONST	ENDS
;	COMDAT _IID_IObjectSafety
CONST	SEGMENT
_IID_IObjectSafety DD 0cb5bdc81H
	DW	093c1H
	DW	011cfH
	DB	08fH
	DB	020H
	DB	00H
	DB	080H
	DB	05fH
	DB	02cH
	DB	0d0H
	DB	064H
CONST	ENDS
;	COMDAT ?collate@?$_Locbase@H@std@@2HB
CONST	SEGMENT
?collate@?$_Locbase@H@std@@2HB DD 01H			; std::_Locbase<int>::collate
CONST	ENDS
;	COMDAT ?ctype@?$_Locbase@H@std@@2HB
CONST	SEGMENT
?ctype@?$_Locbase@H@std@@2HB DD 02H			; std::_Locbase<int>::ctype
CONST	ENDS
;	COMDAT ?monetary@?$_Locbase@H@std@@2HB
CONST	SEGMENT
?monetary@?$_Locbase@H@std@@2HB DD 04H			; std::_Locbase<int>::monetary
CONST	ENDS
;	COMDAT ?numeric@?$_Locbase@H@std@@2HB
CONST	SEGMENT
?numeric@?$_Locbase@H@std@@2HB DD 08H			; std::_Locbase<int>::numeric
CONST	ENDS
;	COMDAT ?time@?$_Locbase@H@std@@2HB
CONST	SEGMENT
?time@?$_Locbase@H@std@@2HB DD 010H			; std::_Locbase<int>::time
CONST	ENDS
;	COMDAT ?messages@?$_Locbase@H@std@@2HB
CONST	SEGMENT
?messages@?$_Locbase@H@std@@2HB DD 020H			; std::_Locbase<int>::messages
CONST	ENDS
;	COMDAT ?all@?$_Locbase@H@std@@2HB
CONST	SEGMENT
?all@?$_Locbase@H@std@@2HB DD 03fH			; std::_Locbase<int>::all
CONST	ENDS
;	COMDAT ?none@?$_Locbase@H@std@@2HB
CONST	SEGMENT
?none@?$_Locbase@H@std@@2HB DD 00H			; std::_Locbase<int>::none
CONST	ENDS
;	COMDAT ?skipws@?$_Iosb@H@std@@2W4_Fmtflags@12@B
CONST	SEGMENT
?skipws@?$_Iosb@H@std@@2W4_Fmtflags@12@B DD 01H		; std::_Iosb<int>::skipws
CONST	ENDS
;	COMDAT ?unitbuf@?$_Iosb@H@std@@2W4_Fmtflags@12@B
CONST	SEGMENT
?unitbuf@?$_Iosb@H@std@@2W4_Fmtflags@12@B DD 02H	; std::_Iosb<int>::unitbuf
CONST	ENDS
;	COMDAT ?uppercase@?$_Iosb@H@std@@2W4_Fmtflags@12@B
CONST	SEGMENT
?uppercase@?$_Iosb@H@std@@2W4_Fmtflags@12@B DD 04H	; std::_Iosb<int>::uppercase
CONST	ENDS
;	COMDAT ?showbase@?$_Iosb@H@std@@2W4_Fmtflags@12@B
CONST	SEGMENT
?showbase@?$_Iosb@H@std@@2W4_Fmtflags@12@B DD 08H	; std::_Iosb<int>::showbase
CONST	ENDS
;	COMDAT ?showpoint@?$_Iosb@H@std@@2W4_Fmtflags@12@B
CONST	SEGMENT
?showpoint@?$_Iosb@H@std@@2W4_Fmtflags@12@B DD 010H	; std::_Iosb<int>::showpoint
CONST	ENDS
;	COMDAT ?showpos@?$_Iosb@H@std@@2W4_Fmtflags@12@B
CONST	SEGMENT
?showpos@?$_Iosb@H@std@@2W4_Fmtflags@12@B DD 020H	; std::_Iosb<int>::showpos
CONST	ENDS
;	COMDAT ?left@?$_Iosb@H@std@@2W4_Fmtflags@12@B
CONST	SEGMENT
?left@?$_Iosb@H@std@@2W4_Fmtflags@12@B DD 040H		; std::_Iosb<int>::left
CONST	ENDS
;	COMDAT ?right@?$_Iosb@H@std@@2W4_Fmtflags@12@B
CONST	SEGMENT
?right@?$_Iosb@H@std@@2W4_Fmtflags@12@B DD 080H		; std::_Iosb<int>::right
CONST	ENDS
;	COMDAT ?internal@?$_Iosb@H@std@@2W4_Fmtflags@12@B
CONST	SEGMENT
?internal@?$_Iosb@H@std@@2W4_Fmtflags@12@B DD 0100H	; std::_Iosb<int>::internal
CONST	ENDS
;	COMDAT ?dec@?$_Iosb@H@std@@2W4_Fmtflags@12@B
CONST	SEGMENT
?dec@?$_Iosb@H@std@@2W4_Fmtflags@12@B DD 0200H		; std::_Iosb<int>::dec
CONST	ENDS
;	COMDAT ?oct@?$_Iosb@H@std@@2W4_Fmtflags@12@B
CONST	SEGMENT
?oct@?$_Iosb@H@std@@2W4_Fmtflags@12@B DD 0400H		; std::_Iosb<int>::oct
CONST	ENDS
;	COMDAT ?hex@?$_Iosb@H@std@@2W4_Fmtflags@12@B
CONST	SEGMENT
?hex@?$_Iosb@H@std@@2W4_Fmtflags@12@B DD 0800H		; std::_Iosb<int>::hex
CONST	ENDS
;	COMDAT ?scientific@?$_Iosb@H@std@@2W4_Fmtflags@12@B
CONST	SEGMENT
?scientific@?$_Iosb@H@std@@2W4_Fmtflags@12@B DD 01000H	; std::_Iosb<int>::scientific
CONST	ENDS
;	COMDAT ?fixed@?$_Iosb@H@std@@2W4_Fmtflags@12@B
CONST	SEGMENT
?fixed@?$_Iosb@H@std@@2W4_Fmtflags@12@B DD 02000H	; std::_Iosb<int>::fixed
CONST	ENDS
;	COMDAT ?boolalpha@?$_Iosb@H@std@@2W4_Fmtflags@12@B
CONST	SEGMENT
?boolalpha@?$_Iosb@H@std@@2W4_Fmtflags@12@B DD 04000H	; std::_Iosb<int>::boolalpha
CONST	ENDS
;	COMDAT ?_Stdio@?$_Iosb@H@std@@2W4_Fmtflags@12@B
CONST	SEGMENT
?_Stdio@?$_Iosb@H@std@@2W4_Fmtflags@12@B DD 08000H	; std::_Iosb<int>::_Stdio
CONST	ENDS
;	COMDAT ?adjustfield@?$_Iosb@H@std@@2W4_Fmtflags@12@B
CONST	SEGMENT
?adjustfield@?$_Iosb@H@std@@2W4_Fmtflags@12@B DD 01c0H	; std::_Iosb<int>::adjustfield
CONST	ENDS
;	COMDAT ?basefield@?$_Iosb@H@std@@2W4_Fmtflags@12@B
CONST	SEGMENT
?basefield@?$_Iosb@H@std@@2W4_Fmtflags@12@B DD 0e00H	; std::_Iosb<int>::basefield
CONST	ENDS
;	COMDAT ?floatfield@?$_Iosb@H@std@@2W4_Fmtflags@12@B
CONST	SEGMENT
?floatfield@?$_Iosb@H@std@@2W4_Fmtflags@12@B DD 03000H	; std::_Iosb<int>::floatfield
CONST	ENDS
;	COMDAT ?goodbit@?$_Iosb@H@std@@2W4_Iostate@12@B
CONST	SEGMENT
?goodbit@?$_Iosb@H@std@@2W4_Iostate@12@B DD 00H		; std::_Iosb<int>::goodbit
CONST	ENDS
;	COMDAT ?eofbit@?$_Iosb@H@std@@2W4_Iostate@12@B
CONST	SEGMENT
?eofbit@?$_Iosb@H@std@@2W4_Iostate@12@B DD 01H		; std::_Iosb<int>::eofbit
CONST	ENDS
;	COMDAT ?failbit@?$_Iosb@H@std@@2W4_Iostate@12@B
CONST	SEGMENT
?failbit@?$_Iosb@H@std@@2W4_Iostate@12@B DD 02H		; std::_Iosb<int>::failbit
CONST	ENDS
;	COMDAT ?badbit@?$_Iosb@H@std@@2W4_Iostate@12@B
CONST	SEGMENT
?badbit@?$_Iosb@H@std@@2W4_Iostate@12@B DD 04H		; std::_Iosb<int>::badbit
CONST	ENDS
;	COMDAT ?_Hardfail@?$_Iosb@H@std@@2W4_Iostate@12@B
CONST	SEGMENT
?_Hardfail@?$_Iosb@H@std@@2W4_Iostate@12@B DD 010H	; std::_Iosb<int>::_Hardfail
CONST	ENDS
;	COMDAT ?in@?$_Iosb@H@std@@2W4_Openmode@12@B
CONST	SEGMENT
?in@?$_Iosb@H@std@@2W4_Openmode@12@B DD 01H		; std::_Iosb<int>::in
CONST	ENDS
;	COMDAT ?out@?$_Iosb@H@std@@2W4_Openmode@12@B
CONST	SEGMENT
?out@?$_Iosb@H@std@@2W4_Openmode@12@B DD 02H		; std::_Iosb<int>::out
CONST	ENDS
;	COMDAT ?ate@?$_Iosb@H@std@@2W4_Openmode@12@B
CONST	SEGMENT
?ate@?$_Iosb@H@std@@2W4_Openmode@12@B DD 04H		; std::_Iosb<int>::ate
CONST	ENDS
;	COMDAT ?app@?$_Iosb@H@std@@2W4_Openmode@12@B
CONST	SEGMENT
?app@?$_Iosb@H@std@@2W4_Openmode@12@B DD 08H		; std::_Iosb<int>::app
CONST	ENDS
;	COMDAT ?trunc@?$_Iosb@H@std@@2W4_Openmode@12@B
CONST	SEGMENT
?trunc@?$_Iosb@H@std@@2W4_Openmode@12@B DD 010H		; std::_Iosb<int>::trunc
CONST	ENDS
;	COMDAT ?_Nocreate@?$_Iosb@H@std@@2W4_Openmode@12@B
CONST	SEGMENT
?_Nocreate@?$_Iosb@H@std@@2W4_Openmode@12@B DD 040H	; std::_Iosb<int>::_Nocreate
CONST	ENDS
;	COMDAT ?_Noreplace@?$_Iosb@H@std@@2W4_Openmode@12@B
CONST	SEGMENT
?_Noreplace@?$_Iosb@H@std@@2W4_Openmode@12@B DD 080H	; std::_Iosb<int>::_Noreplace
CONST	ENDS
;	COMDAT ?binary@?$_Iosb@H@std@@2W4_Openmode@12@B
CONST	SEGMENT
?binary@?$_Iosb@H@std@@2W4_Openmode@12@B DD 020H	; std::_Iosb<int>::binary
CONST	ENDS
;	COMDAT ?beg@?$_Iosb@H@std@@2W4_Seekdir@12@B
CONST	SEGMENT
?beg@?$_Iosb@H@std@@2W4_Seekdir@12@B DD 00H		; std::_Iosb<int>::beg
CONST	ENDS
;	COMDAT ?cur@?$_Iosb@H@std@@2W4_Seekdir@12@B
CONST	SEGMENT
?cur@?$_Iosb@H@std@@2W4_Seekdir@12@B DD 01H		; std::_Iosb<int>::cur
CONST	ENDS
;	COMDAT ?end@?$_Iosb@H@std@@2W4_Seekdir@12@B
CONST	SEGMENT
?end@?$_Iosb@H@std@@2W4_Seekdir@12@B DD 02H		; std::_Iosb<int>::end
CONST	ENDS
;	COMDAT ?_strthunks@ATL@@3U_AtlStringThunks@1@A
_DATA	SEGMENT
?_strthunks@ATL@@3U_AtlStringThunks@1@A DD FLAT:?CompareStringWThunk@ATL@@YGHKKPBGH0H@Z ; ATL::_strthunks
	DD	FLAT:?GetStringTypeExWThunk@ATL@@YGHKKPBGHPAG@Z
	DD	FLAT:?lstrcmpiWThunk@ATL@@YGHPBG0@Z
	DD	FLAT:?CharLowerWThunk@ATL@@YGPAGPAG@Z
	DD	FLAT:?CharUpperWThunk@ATL@@YGPAGPAG@Z
	DD	FLAT:?GetEnvironmentVariableWThunk@ATL@@YGKPBGPAGK@Z
_DATA	ENDS
;	COMDAT ?c_bIsMFCDLLTraits@?$_MFCDLLTraitsCheck@DV?$StrTraitATL@DV?$ChTraitsCRT@D@ATL@@@ATL@@@_CSTRING_IMPL_@ATL@@2_NB
CONST	SEGMENT
?c_bIsMFCDLLTraits@?$_MFCDLLTraitsCheck@DV?$StrTraitATL@DV?$ChTraitsCRT@D@ATL@@@ATL@@@_CSTRING_IMPL_@ATL@@2_NB DB 00H ; ATL::_CSTRING_IMPL_::_MFCDLLTraitsCheck<char,ATL::StrTraitATL<char,ATL::ChTraitsCRT<char> > >::c_bIsMFCDLLTraits
CONST	ENDS
;	COMDAT ?c_bIsMFCDLLTraits@?$_MFCDLLTraitsCheck@GV?$StrTraitATL@GV?$ChTraitsCRT@G@ATL@@@ATL@@@_CSTRING_IMPL_@ATL@@2_NB
CONST	SEGMENT
?c_bIsMFCDLLTraits@?$_MFCDLLTraitsCheck@GV?$StrTraitATL@GV?$ChTraitsCRT@G@ATL@@@ATL@@@_CSTRING_IMPL_@ATL@@2_NB DB 00H ; ATL::_CSTRING_IMPL_::_MFCDLLTraitsCheck<unsigned short,ATL::StrTraitATL<unsigned short,ATL::ChTraitsCRT<unsigned short> > >::c_bIsMFCDLLTraits
CONST	ENDS
;	COMDAT ?Millisecond@CFileTime@ATL@@2_KB
CONST	SEGMENT
?Millisecond@CFileTime@ATL@@2_KB DQ 0000000000002710H	; ATL::CFileTime::Millisecond
CONST	ENDS
;	COMDAT ?Second@CFileTime@ATL@@2_KB
CONST	SEGMENT
?Second@CFileTime@ATL@@2_KB DQ 0000000000989680H	; ATL::CFileTime::Second
CONST	ENDS
;	COMDAT ?Minute@CFileTime@ATL@@2_KB
CONST	SEGMENT
?Minute@CFileTime@ATL@@2_KB DQ 0000000023c34600H	; ATL::CFileTime::Minute
CONST	ENDS
;	COMDAT ?Hour@CFileTime@ATL@@2_KB
CONST	SEGMENT
?Hour@CFileTime@ATL@@2_KB DQ 0000000861c46800H		; ATL::CFileTime::Hour
CONST	ENDS
;	COMDAT ?Day@CFileTime@ATL@@2_KB
CONST	SEGMENT
?Day@CFileTime@ATL@@2_KB DQ 000000c92a69c000H		; ATL::CFileTime::Day
CONST	ENDS
;	COMDAT ?Week@CFileTime@ATL@@2_KB
CONST	SEGMENT
?Week@CFileTime@ATL@@2_KB DQ 0000058028e44000H		; ATL::CFileTime::Week
CONST	ENDS
CONST	SEGMENT
$SG198533 DB	'Invalid DateTime', 00H
CONST	ENDS
;	COMDAT ?szInvalidDateTime@ATL@@3QBDB
CONST	SEGMENT
?szInvalidDateTime@ATL@@3QBDB DD FLAT:$SG198533		; ATL::szInvalidDateTime
CONST	ENDS
CONST	SEGMENT
	ORG $+3
$SG198535 DB	'Invalid DateTimeSpan', 00H
CONST	ENDS
;	COMDAT ?szInvalidDateTimeSpan@ATL@@3QBDB
CONST	SEGMENT
?szInvalidDateTimeSpan@ATL@@3QBDB DD FLAT:$SG198535	; ATL::szInvalidDateTimeSpan
CONST	ENDS
;	COMDAT ?licenseTimeout@CLicense@@0HB
CONST	SEGMENT
?licenseTimeout@CLicense@@0HB DD 01eH			; CLicense::licenseTimeout
CONST	ENDS
_DATA	SEGMENT
_ObjectMap DD	FLAT:_CLSID_Signature
	DD	FLAT:?UpdateRegistry@CSignature@@SGJH@Z
	DD	FLAT:?CreateInstance@?$CComCreator@V?$CComObjectCached@VCComClassFactory@ATL@@@ATL@@@ATL@@SGJPAXABU_GUID@@PAPAX@Z
	DD	FLAT:?CreateInstance@?$CComCreator2@V?$CComCreator@V?$CComObject@VCSignature@@@ATL@@@ATL@@V?$CComCreator@V?$CComAggObject@VCSignature@@@ATL@@@2@@ATL@@SGJPAXABU_GUID@@PAPAX@Z
	DD	00H
	DD	00H
	DD	FLAT:?GetObjectDescription@?$CComCoClass@VCSignature@@$1?CLSID_Signature@@3U_GUID@@B@ATL@@SGPBDXZ
	DD	FLAT:?GetCategoryMap@CSignature@@SAPBU_ATL_CATMAP_ENTRY@ATL@@XZ
	DD	FLAT:?ObjectMain@CComObjectRootBase@ATL@@SGX_N@Z
	DD	00H
	DD	00H
	DD	00H
	DD	00H
	DD	00H
	DD	00H
	DD	00H
	DD	00H
	ORG $+4
_DATA	ENDS
CONST	SEGMENT
	ORG $+3
$SG204038 DB	'pThis != 0', 00H
	ORG $+1
$SG204039 DB	'C:\Program Files\Microsoft Visual Studio .NET 2003\Vc7\a'
	DB	'tlmfc\include\atlwin.h', 00H
	ORG $+1
$SG204049 DB	'C:\Program Files\Microsoft Visual Studio .NET 2003\Vc7\a'
	DB	'tlmfc\include\atlwin.h', 00H
	ORG $+1
$SG204050 DB	'Subclassing through a hook discarded.', 0aH, 00H
	ORG $+1
$SG204056 DB	'pp != 0', 00H
$SG204057 DB	'C:\Program Files\Microsoft Visual Studio .NET 2003\Vc7\a'
	DB	'tlmfc\include\atlcom.h', 00H
CONST	ENDS
;	COMDAT ?g_pfnGetThreadACP@ATL@@3P6GIXZA
_DATA	SEGMENT
?g_pfnGetThreadACP@ATL@@3P6GIXZA DD FLAT:?_AtlGetThreadACPThunk@ATL@@YGIXZ ; ATL::g_pfnGetThreadACP
_DATA	ENDS
;	COMDAT _CLSID_StdGlobalInterfaceTable
CONST	SEGMENT
_CLSID_StdGlobalInterfaceTable DD 0323H
	DW	00H
	DW	00H
	DB	0c0H
	DB	00H
	DB	00H
	DB	00H
	DB	00H
	DB	00H
	DB	00H
	DB	046H
CONST	ENDS
;	COMDAT ?rcDefault@CWindow@ATL@@2UtagRECT@@A
_DATA	SEGMENT
?rcDefault@CWindow@ATL@@2UtagRECT@@A DD 080000000H	; ATL::CWindow::rcDefault
	DD	080000000H
	DD	00H
	DD	00H
_DATA	ENDS
CONST	SEGMENT
	ORG $+1
$SG160708 DB	'pThis->m_pCurrentMsg == &msg', 00H
	ORG $+3
$SG160709 DB	'C:\Program Files\Microsoft Visual Studio .NET 2003\Vc7\a'
	DB	'tlmfc\include\atlwin.h', 00H
	ORG $+1
$SG160733 DB	'pThis != 0', 00H
	ORG $+5
$SG160734 DB	'C:\Program Files\Microsoft Visual Studio .NET 2003\Vc7\a'
	DB	'tlmfc\include\atlwin.h', 00H
	ORG $+1
$SG160741 DB	'C:\Program Files\Microsoft Visual Studio .NET 2003\Vc7\a'
	DB	'tlmfc\include\atlwin.h', 00H
	ORG $+1
$SG160742 DB	'Subclassing through a hook discarded.', 0aH, 00H
	ORG $+1
$SG160758 DB	'pThis->m_pCurrentMsg == &msg', 00H
	ORG $+3
$SG160759 DB	'C:\Program Files\Microsoft Visual Studio .NET 2003\Vc7\a'
	DB	'tlmfc\include\atlwin.h', 00H
	ORG $+1
$SG160782 DB	'm_hWnd == 0', 00H
	ORG $+4
$SG160783 DB	'C:\Program Files\Microsoft Visual Studio .NET 2003\Vc7\a'
	DB	'tlmfc\include\atlwin.h', 00H
	ORG $+1
$SG160794 DB	'm_hWnd == hWnd', 00H
	ORG $+1
$SG160795 DB	'C:\Program Files\Microsoft Visual Studio .NET 2003\Vc7\a'
	DB	'tlmfc\include\atlwin.h', 00H
	ORG $+1
$SG161005 DB	'm_begin == 0', 00H
	ORG $+3
$SG161006 DB	'C:\Program Files\Microsoft Visual Studio .NET 2003\Vc7\a'
	DB	'tlmfc\include\atlcom.h', 00H
CONST	ENDS
PUBLIC	?InterlockedExchangePointer@@YGPAXPAPAXPAX@Z	; InterlockedExchangePointer
PUBLIC	?_AtlGetThreadACPFake@ATL@@YGIXZ		; ATL::_AtlGetThreadACPFake
PUBLIC	?_AtlGetThreadACPReal@ATL@@YGIXZ		; ATL::_AtlGetThreadACPReal
EXTRN	__imp__GetVersionExA@4:NEAR
EXTRN	__RTC_InitBase:NEAR
EXTRN	__RTC_Shutdown:NEAR
EXTRN	__RTC_CheckEsp:NEAR
EXTRN	___security_cookie:DWORD
EXTRN	@_RTC_CheckStackVars@8:NEAR
EXTRN	@__security_check_cookie@4:NEAR
;	COMDAT rtc$IMZ
; File c:\program files\microsoft visual studio .net 2003\vc7\atlmfc\include\atlconv.h
rtc$IMZ	SEGMENT
__RTC_InitBase.rtc$IMZ DD FLAT:__RTC_InitBase
rtc$IMZ	ENDS
;	COMDAT rtc$TMZ
rtc$TMZ	SEGMENT
__RTC_Shutdown.rtc$TMZ DD FLAT:__RTC_Shutdown
; Function compile flags: /Odt /RTCsu
rtc$TMZ	ENDS
;	COMDAT ?_AtlGetThreadACPThunk@ATL@@YGIXZ
_TEXT	SEGMENT
_pfnGetThreadACP$ = -164				; size = 4
_ver$ = -156						; size = 148
__$ArrayPad$ = -4					; size = 4
__$ReturnAddr$ = 4					; size = 4
?_AtlGetThreadACPThunk@ATL@@YGIXZ PROC NEAR		; ATL::_AtlGetThreadACPThunk, COMDAT

; 134  : {

	push	ebp
	mov	ebp, esp
	sub	esp, 164				; 000000a4H
	push	esi
	push	edi
	lea	edi, DWORD PTR [ebp-164]
	mov	ecx, 41					; 00000029H
	mov	eax, -858993460				; ccccccccH
	rep stosd
	mov	eax, DWORD PTR ___security_cookie
	mov	DWORD PTR __$ArrayPad$[ebp], eax

; 135  : 	OSVERSIONINFO ver;
; 136  : 	ATLGETTHREADACP pfnGetThreadACP;
; 137  : 
; 138  : 	ver.dwOSVersionInfoSize = sizeof( ver );

	mov	DWORD PTR _ver$[ebp], 148		; 00000094H

; 139  : 	::GetVersionEx( &ver );

	mov	esi, esp
	lea	eax, DWORD PTR _ver$[ebp]
	push	eax
	call	DWORD PTR __imp__GetVersionExA@4
	cmp	esi, esp
	call	__RTC_CheckEsp

; 140  : 	if( (ver.dwPlatformId == VER_PLATFORM_WIN32_NT) && (ver.dwMajorVersion >= 5) )

	cmp	DWORD PTR _ver$[ebp+16], 2
	jne	SHORT $L75782
	cmp	DWORD PTR _ver$[ebp+4], 5
	jb	SHORT $L75782

; 141  : 	{
; 142  : 		// On Win2K, CP_THREAD_ACP is supported
; 143  : 		pfnGetThreadACP = _AtlGetThreadACPReal;

	mov	DWORD PTR _pfnGetThreadACP$[ebp], OFFSET FLAT:?_AtlGetThreadACPReal@ATL@@YGIXZ ; ATL::_AtlGetThreadACPReal

; 144  : 	}
; 145  : 	else

	jmp	SHORT $L75783
$L75782:

; 146  : 	{
; 147  : 		pfnGetThreadACP = _AtlGetThreadACPFake;

	mov	DWORD PTR _pfnGetThreadACP$[ebp], OFFSET FLAT:?_AtlGetThreadACPFake@ATL@@YGIXZ ; ATL::_AtlGetThreadACPFake
$L75783:

; 148  : 	}
; 149  : 	InterlockedExchangePointer( reinterpret_cast< void** >(&g_pfnGetThreadACP), pfnGetThreadACP );

	mov	ecx, DWORD PTR _pfnGetThreadACP$[ebp]
	push	ecx
	push	OFFSET FLAT:?g_pfnGetThreadACP@ATL@@3P6GIXZA ; ATL::g_pfnGetThreadACP
	call	?InterlockedExchangePointer@@YGPAXPAPAXPAX@Z ; InterlockedExchangePointer

; 150  : 
; 151  : 	return( g_pfnGetThreadACP() );

	mov	esi, esp
	call	DWORD PTR ?g_pfnGetThreadACP@ATL@@3P6GIXZA ; ATL::g_pfnGetThreadACP
	cmp	esi, esp
	call	__RTC_CheckEsp

; 152  : }

	push	edx
	mov	ecx, ebp
	push	eax
	lea	edx, DWORD PTR $L205743
	call	@_RTC_CheckStackVars@8
	pop	eax
	pop	edx
	mov	ecx, DWORD PTR __$ArrayPad$[ebp]
	call	@__security_check_cookie@4
	pop	edi
	pop	esi
	add	esp, 164				; 000000a4H
	cmp	ebp, esp
	call	__RTC_CheckEsp
	mov	esp, ebp
	pop	ebp
	ret	0
$L205743:
	DD	1
	DD	$L205742
$L205742:
	DD	-156					; ffffff64H
	DD	148					; 00000094H
	DD	$L205739
$L205739:
	DB	118					; 00000076H
	DB	101					; 00000065H
	DB	114					; 00000072H
	DB	0
?_AtlGetThreadACPThunk@ATL@@YGIXZ ENDP			; ATL::_AtlGetThreadACPThunk
_TEXT	ENDS
EXTRN	__imp__InterlockedExchange@8:NEAR
; Function compile flags: /Odt /RTCsu
;	COMDAT ?InterlockedExchangePointer@@YGPAXPAPAXPAX@Z
_TEXT	SEGMENT
_pp$ = 8						; size = 4
_pNew$ = 12						; size = 4
?InterlockedExchangePointer@@YGPAXPAPAXPAX@Z PROC NEAR	; InterlockedExchangePointer, COMDAT

; 91   : {

	push	ebp
	mov	ebp, esp
	push	esi

; 92   : 	return( reinterpret_cast<void*>(static_cast<LONG_PTR>(::InterlockedExchange(reinterpret_cast<LONG*>(pp), static_cast<LONG>(reinterpret_cast<LONG_PTR>(pNew))))) );

	mov	esi, esp
	mov	eax, DWORD PTR _pNew$[ebp]
	push	eax
	mov	ecx, DWORD PTR _pp$[ebp]
	push	ecx
	call	DWORD PTR __imp__InterlockedExchange@8
	cmp	esi, esp
	call	__RTC_CheckEsp

; 93   : }

	pop	esi
	cmp	ebp, esp
	call	__RTC_CheckEsp
	pop	ebp
	ret	8
?InterlockedExchangePointer@@YGPAXPAPAXPAX@Z ENDP	; InterlockedExchangePointer
_TEXT	ENDS
EXTRN	__imp__GetACP@0:NEAR
EXTRN	__imp__GetLocaleInfoA@16:NEAR
EXTRN	__imp__GetThreadLocale@0:NEAR
; Function compile flags: /Odt /RTCsu
;	COMDAT ?_AtlGetThreadACPFake@ATL@@YGIXZ
_TEXT	SEGMENT
_pch$75770 = -32					; size = 4
_szACP$ = -24						; size = 7
_lcidThread$ = -12					; size = 4
_nACP$ = -8						; size = 4
__$ArrayPad$ = -4					; size = 4
__$ReturnAddr$ = 4					; size = 4
?_AtlGetThreadACPFake@ATL@@YGIXZ PROC NEAR		; ATL::_AtlGetThreadACPFake, COMDAT

; 101  : {

	push	ebp
	mov	ebp, esp
	sub	esp, 32					; 00000020H
	push	esi
	mov	eax, -858993460				; ccccccccH
	mov	DWORD PTR [ebp-32], eax
	mov	DWORD PTR [ebp-28], eax
	mov	DWORD PTR [ebp-24], eax
	mov	DWORD PTR [ebp-20], eax
	mov	DWORD PTR [ebp-16], eax
	mov	DWORD PTR [ebp-12], eax
	mov	DWORD PTR [ebp-8], eax
	mov	DWORD PTR [ebp-4], eax
	mov	eax, DWORD PTR ___security_cookie
	mov	DWORD PTR __$ArrayPad$[ebp], eax

; 102  : 	UINT nACP = 0;

	mov	DWORD PTR _nACP$[ebp], 0

; 103  : 
; 104  : 	LCID lcidThread = ::GetThreadLocale();

	mov	esi, esp
	call	DWORD PTR __imp__GetThreadLocale@0
	cmp	esi, esp
	call	__RTC_CheckEsp
	mov	DWORD PTR _lcidThread$[ebp], eax

; 105  : 
; 106  : 	char szACP[7];
; 107  : 	// GetLocaleInfoA will fail for a Unicode-only LCID, but those are only supported on 
; 108  : 	// Windows 2000.  Since Windows 2000 supports CP_THREAD_ACP, this code path is never
; 109  : 	// executed on Windows 2000.
; 110  : 	if (::GetLocaleInfoA(lcidThread, LOCALE_IDEFAULTANSICODEPAGE, szACP, 7) != 0)

	mov	esi, esp
	push	7
	lea	eax, DWORD PTR _szACP$[ebp]
	push	eax
	push	4100					; 00001004H
	mov	ecx, DWORD PTR _lcidThread$[ebp]
	push	ecx
	call	DWORD PTR __imp__GetLocaleInfoA@16
	cmp	esi, esp
	call	__RTC_CheckEsp
	test	eax, eax
	je	SHORT $L75769

; 111  : 	{
; 112  : 		char* pch = szACP;

	lea	edx, DWORD PTR _szACP$[ebp]
	mov	DWORD PTR _pch$75770[ebp], edx
$L75772:

; 113  : 		while (*pch != '\0')

	mov	eax, DWORD PTR _pch$75770[ebp]
	movsx	ecx, BYTE PTR [eax]
	test	ecx, ecx
	je	SHORT $L75769

; 114  : 		{
; 115  : 			nACP *= 10;

	mov	edx, DWORD PTR _nACP$[ebp]
	imul	edx, 10					; 0000000aH
	mov	DWORD PTR _nACP$[ebp], edx

; 116  : 			nACP += *pch++ - '0';

	mov	eax, DWORD PTR _pch$75770[ebp]
	movsx	ecx, BYTE PTR [eax]
	mov	edx, DWORD PTR _nACP$[ebp]
	lea	eax, DWORD PTR [edx+ecx-48]
	mov	DWORD PTR _nACP$[ebp], eax
	mov	ecx, DWORD PTR _pch$75770[ebp]
	add	ecx, 1
	mov	DWORD PTR _pch$75770[ebp], ecx

; 117  : 		}

	jmp	SHORT $L75772
$L75769:

; 118  : 	}
; 119  : 	// Use the Default ANSI Code Page if we were unable to get the thread ACP or if one does not exist.
; 120  : 	if (nACP == 0)

	cmp	DWORD PTR _nACP$[ebp], 0
	jne	SHORT $L75774

; 121  : 		nACP = ::GetACP();

	mov	esi, esp
	call	DWORD PTR __imp__GetACP@0
	cmp	esi, esp
	call	__RTC_CheckEsp
	mov	DWORD PTR _nACP$[ebp], eax
$L75774:

; 122  : 
; 123  : 	return nACP;

	mov	eax, DWORD PTR _nACP$[ebp]

; 124  : }

	push	edx
	mov	ecx, ebp
	push	eax
	lea	edx, DWORD PTR $L205756
	call	@_RTC_CheckStackVars@8
	pop	eax
	pop	edx
	mov	ecx, DWORD PTR __$ArrayPad$[ebp]
	call	@__security_check_cookie@4
	pop	esi
	add	esp, 32					; 00000020H
	cmp	ebp, esp
	call	__RTC_CheckEsp
	mov	esp, ebp
	pop	ebp
	ret	0
$L205756:
	DD	1
	DD	$L205755
$L205755:
	DD	-24					; ffffffe8H
	DD	7
	DD	$L205753
$L205753:
	DB	115					; 00000073H
	DB	122					; 0000007aH
	DB	65					; 00000041H
	DB	67					; 00000043H
	DB	80					; 00000050H
	DB	0
?_AtlGetThreadACPFake@ATL@@YGIXZ ENDP			; ATL::_AtlGetThreadACPFake
; Function compile flags: /Odt /RTCsu
_TEXT	ENDS
;	COMDAT ?_AtlGetThreadACPReal@ATL@@YGIXZ
_TEXT	SEGMENT
?_AtlGetThreadACPReal@ATL@@YGIXZ PROC NEAR		; ATL::_AtlGetThreadACPReal, COMDAT

; 127  : {

	push	ebp
	mov	ebp, esp

; 128  : 	return( CP_THREAD_ACP );

	mov	eax, 3

; 129  : }

	pop	ebp
	ret	0
?_AtlGetThreadACPReal@ATL@@YGIXZ ENDP			; ATL::_AtlGetThreadACPReal
; Function compile flags: /Odt /RTCsu
; File c:\program files\microsoft visual studio .net 2003\vc7\atlmfc\include\atlcom.h
_TEXT	ENDS
;	COMDAT ?ObjectMain@CComObjectRootBase@ATL@@SGX_N@Z
_TEXT	SEGMENT
___formal$ = 8						; size = 1
?ObjectMain@CComObjectRootBase@ATL@@SGX_N@Z PROC NEAR	; ATL::CComObjectRootBase::ObjectMain, COMDAT

; 2155 : 	static void WINAPI ObjectMain(bool /* bStarting */) {}

	push	ebp
	mov	ebp, esp
	pop	ebp
	ret	4
?ObjectMain@CComObjectRootBase@ATL@@SGX_N@Z ENDP	; ATL::CComObjectRootBase::ObjectMain
_TEXT	ENDS
PUBLIC	??1stringdispid@CComTypeInfoHolder@ATL@@QAE@XZ	; ATL::CComTypeInfoHolder::stringdispid::~stringdispid
PUBLIC	??_Estringdispid@CComTypeInfoHolder@ATL@@QAEPAXI@Z ; ATL::CComTypeInfoHolder::stringdispid::`vector deleting destructor'
EXTRN	??_M@YGXPAXIHP6EX0@Z@Z:NEAR			; `eh vector destructor iterator'
EXTRN	??3@YAXPAX@Z:NEAR				; operator delete
EXTRN	??_V@YAXPAX@Z:NEAR				; operator delete[]
; Function compile flags: /Odt /RTCsu
;	COMDAT ??_Estringdispid@CComTypeInfoHolder@ATL@@QAEPAXI@Z
_TEXT	SEGMENT
_this$ = -4						; size = 4
___flags$ = 8						; size = 4
??_Estringdispid@CComTypeInfoHolder@ATL@@QAEPAXI@Z PROC NEAR ; ATL::CComTypeInfoHolder::stringdispid::`vector deleting destructor', COMDAT
; _this$ = ecx
	push	ebp
	mov	ebp, esp
	push	ecx
	mov	DWORD PTR [ebp-4], -858993460		; ccccccccH
	mov	DWORD PTR _this$[ebp], ecx
	mov	eax, DWORD PTR ___flags$[ebp]
	and	eax, 2
	je	SHORT $L92193
	push	OFFSET FLAT:??1stringdispid@CComTypeInfoHolder@ATL@@QAE@XZ
	mov	ecx, DWORD PTR _this$[ebp]
	mov	edx, DWORD PTR [ecx-4]
	push	edx
	push	12					; 0000000cH
	mov	eax, DWORD PTR _this$[ebp]
	push	eax
	call	??_M@YGXPAXIHP6EX0@Z@Z
	mov	ecx, DWORD PTR ___flags$[ebp]
	and	ecx, 1
	je	SHORT $L92194
	mov	edx, DWORD PTR _this$[ebp]
	sub	edx, 4
	push	edx
	call	??_V@YAXPAX@Z				; operator delete[]
	add	esp, 4
$L92194:
	mov	eax, DWORD PTR _this$[ebp]
	sub	eax, 4
	jmp	SHORT $L92192
$L92193:
	mov	ecx, DWORD PTR _this$[ebp]
	call	??1stringdispid@CComTypeInfoHolder@ATL@@QAE@XZ
	mov	eax, DWORD PTR ___flags$[ebp]
	and	eax, 1
	je	SHORT $L92196
	mov	ecx, DWORD PTR _this$[ebp]
	push	ecx
	call	??3@YAXPAX@Z				; operator delete
	add	esp, 4
$L92196:
	mov	eax, DWORD PTR _this$[ebp]
$L92192:
	add	esp, 4
	cmp	ebp, esp
	call	__RTC_CheckEsp
	mov	esp, ebp
	pop	ebp
	ret	4
??_Estringdispid@CComTypeInfoHolder@ATL@@QAEPAXI@Z ENDP	; ATL::CComTypeInfoHolder::stringdispid::`vector deleting destructor'
_TEXT	ENDS
PUBLIC	??1CComBSTR@ATL@@QAE@XZ				; ATL::CComBSTR::~CComBSTR
; Function compile flags: /Odt /RTCsu
;	COMDAT ??1stringdispid@CComTypeInfoHolder@ATL@@QAE@XZ
_TEXT	SEGMENT
_this$ = -4						; size = 4
??1stringdispid@CComTypeInfoHolder@ATL@@QAE@XZ PROC NEAR ; ATL::CComTypeInfoHolder::stringdispid::~stringdispid, COMDAT
; _this$ = ecx
	push	ebp
	mov	ebp, esp
	push	ecx
	mov	DWORD PTR [ebp-4], -858993460		; ccccccccH
	mov	DWORD PTR _this$[ebp], ecx
	mov	ecx, DWORD PTR _this$[ebp]
	call	??1CComBSTR@ATL@@QAE@XZ			; ATL::CComBSTR::~CComBSTR
	add	esp, 4
	cmp	ebp, esp
	call	__RTC_CheckEsp
	mov	esp, ebp
	pop	ebp
	ret	0
??1stringdispid@CComTypeInfoHolder@ATL@@QAE@XZ ENDP	; ATL::CComTypeInfoHolder::stringdispid::~stringdispid
_TEXT	ENDS
EXTRN	__imp__SysFreeString@4:NEAR
; Function compile flags: /Odt /RTCsu
; File c:\program files\microsoft visual studio .net 2003\vc7\atlmfc\include\atlcomcli.h
;	COMDAT ??1CComBSTR@ATL@@QAE@XZ
_TEXT	SEGMENT
_this$ = -4						; size = 4
??1CComBSTR@ATL@@QAE@XZ PROC NEAR			; ATL::CComBSTR::~CComBSTR, COMDAT
; _this$ = ecx

; 628  : 	{

	push	ebp
	mov	ebp, esp
	push	ecx
	push	esi
	mov	DWORD PTR [ebp-4], -858993460		; ccccccccH
	mov	DWORD PTR _this$[ebp], ecx

; 629  : 		::SysFreeString(m_str);

	mov	esi, esp
	mov	eax, DWORD PTR _this$[ebp]
	mov	ecx, DWORD PTR [eax]
	push	ecx
	call	DWORD PTR __imp__SysFreeString@4
	cmp	esi, esp
	call	__RTC_CheckEsp

; 630  : 	}

	pop	esi
	add	esp, 4
	cmp	ebp, esp
	call	__RTC_CheckEsp
	mov	esp, ebp
	pop	ebp
	ret	0
??1CComBSTR@ATL@@QAE@XZ ENDP				; ATL::CComBSTR::~CComBSTR
_TEXT	ENDS
PUBLIC	?_AtlInstallStringThunk@ATL@@YAXPAPAXPAX1@Z	; ATL::_AtlInstallStringThunk
PUBLIC	?GetEnvironmentVariableWFake@ATL@@YGKPBGPAGK@Z	; ATL::GetEnvironmentVariableWFake
EXTRN	__imp__GetEnvironmentVariableW@12:NEAR
; Function compile flags: /Odt /RTCsu
; File c:\program files\microsoft visual studio .net 2003\vc7\atlmfc\include\cstringt.h
;	COMDAT ?GetEnvironmentVariableWThunk@ATL@@YGKPBGPAGK@Z
_TEXT	SEGMENT
_pszName$ = 8						; size = 4
_pszBuffer$ = 12					; size = 4
_nSize$ = 16						; size = 4
?GetEnvironmentVariableWThunk@ATL@@YGKPBGPAGK@Z PROC NEAR ; ATL::GetEnvironmentVariableWThunk, COMDAT

; 183  : {

	push	ebp
	mov	ebp, esp
	push	esi

; 184  : 	_AtlInstallStringThunk(reinterpret_cast<void**>(&_strthunks.pfnGetEnvironmentVariableW), 
; 185  : 		GetEnvironmentVariableWFake, ::GetEnvironmentVariableW);

	mov	eax, DWORD PTR __imp__GetEnvironmentVariableW@12
	push	eax
	push	OFFSET FLAT:?GetEnvironmentVariableWFake@ATL@@YGKPBGPAGK@Z ; ATL::GetEnvironmentVariableWFake
	push	OFFSET FLAT:?_strthunks@ATL@@3U_AtlStringThunks@1@A+20
	call	?_AtlInstallStringThunk@ATL@@YAXPAPAXPAX1@Z ; ATL::_AtlInstallStringThunk
	add	esp, 12					; 0000000cH

; 186  : 
; 187  : 	return _strthunks.pfnGetEnvironmentVariableW(pszName, pszBuffer, nSize);

	mov	esi, esp
	mov	ecx, DWORD PTR _nSize$[ebp]
	push	ecx
	mov	edx, DWORD PTR _pszBuffer$[ebp]
	push	edx
	mov	eax, DWORD PTR _pszName$[ebp]
	push	eax
	call	DWORD PTR ?_strthunks@ATL@@3U_AtlStringThunks@1@A+20
	cmp	esi, esp
	call	__RTC_CheckEsp

; 188  : }

	pop	esi
	cmp	ebp, esp
	call	__RTC_CheckEsp
	pop	ebp
	ret	12					; 0000000cH
?GetEnvironmentVariableWThunk@ATL@@YGKPBGPAGK@Z ENDP	; ATL::GetEnvironmentVariableWThunk
_TEXT	ENDS
PUBLIC	?s_bWin9x@?1??_AtlInstallStringThunk@ATL@@YAXPAPAXPAX1@Z@4_NA ; `ATL::_AtlInstallStringThunk'::`2'::s_bWin9x
PUBLIC	??_B?1??_AtlInstallStringThunk@ATL@@YAXPAPAXPAX1@Z@51 ; `ATL::_AtlInstallStringThunk'::`2'::`local static guard'
EXTRN	__imp__GetVersion@0:NEAR
;	COMDAT ?s_bWin9x@?1??_AtlInstallStringThunk@ATL@@YAXPAPAXPAX1@Z@4_NA
_BSS	SEGMENT
?s_bWin9x@?1??_AtlInstallStringThunk@ATL@@YAXPAPAXPAX1@Z@4_NA DB 01H DUP (?) ; `ATL::_AtlInstallStringThunk'::`2'::s_bWin9x
_BSS	ENDS
;	COMDAT ??_B?1??_AtlInstallStringThunk@ATL@@YAXPAPAXPAX1@Z@51
_BSS	SEGMENT
??_B?1??_AtlInstallStringThunk@ATL@@YAXPAPAXPAX1@Z@51 DD 01H DUP (?) ; `ATL::_AtlInstallStringThunk'::`2'::`local static guard'
; Function compile flags: /Odt /RTCsu
_BSS	ENDS
;	COMDAT ?_AtlInstallStringThunk@ATL@@YAXPAPAXPAX1@Z
_TEXT	SEGMENT
_pfn$ = -4						; size = 4
_ppThunk$ = 8						; size = 4
_pfnWin9x$ = 12						; size = 4
_pfnNT$ = 16						; size = 4
?_AtlInstallStringThunk@ATL@@YAXPAPAXPAX1@Z PROC NEAR	; ATL::_AtlInstallStringThunk, COMDAT

; 115  : {

	push	ebp
	mov	ebp, esp
	push	ecx
	push	esi
	mov	DWORD PTR [ebp-4], -858993460		; ccccccccH

; 116  : #pragma warning (push)
; 117  : #pragma warning (disable : 4640)	// construction of local static object is not thread-safe
; 118  : 
; 119  : 	static bool s_bWin9x = (::GetVersion()&0x80000000) != 0;

	mov	eax, DWORD PTR ??_B?1??_AtlInstallStringThunk@ATL@@YAXPAPAXPAX1@Z@51
	and	eax, 1
	jne	SHORT $L195813
	mov	ecx, DWORD PTR ??_B?1??_AtlInstallStringThunk@ATL@@YAXPAPAXPAX1@Z@51
	or	ecx, 1
	mov	DWORD PTR ??_B?1??_AtlInstallStringThunk@ATL@@YAXPAPAXPAX1@Z@51, ecx
	mov	esi, esp
	call	DWORD PTR __imp__GetVersion@0
	cmp	esi, esp
	call	__RTC_CheckEsp
	and	eax, -2147483648			; 80000000H
	neg	eax
	sbb	eax, eax
	neg	eax
	mov	BYTE PTR ?s_bWin9x@?1??_AtlInstallStringThunk@ATL@@YAXPAPAXPAX1@Z@4_NA, al ; `ATL::_AtlInstallStringThunk'::`2'::s_bWin9x
$L195813:

; 120  : 	
; 121  : #pragma warning (pop)
; 122  : 
; 123  : 	void* pfn;
; 124  : 	if (s_bWin9x)

	movzx	edx, BYTE PTR ?s_bWin9x@?1??_AtlInstallStringThunk@ATL@@YAXPAPAXPAX1@Z@4_NA ; `ATL::_AtlInstallStringThunk'::`2'::s_bWin9x
	test	edx, edx
	je	SHORT $L195815

; 125  : 		pfn = pfnWin9x;

	mov	eax, DWORD PTR _pfnWin9x$[ebp]
	mov	DWORD PTR _pfn$[ebp], eax

; 126  : 	else

	jmp	SHORT $L195816
$L195815:

; 127  : 	{
; 128  : #ifdef _CSTRING_ALWAYS_THUNK
; 129  : 		pfn = pfnWin9x;
; 130  : 		(void)pfnNT;
; 131  : #else
; 132  : 		pfn = pfnNT;

	mov	ecx, DWORD PTR _pfnNT$[ebp]
	mov	DWORD PTR _pfn$[ebp], ecx
$L195816:

; 133  : #endif
; 134  : 	}
; 135  : 	InterlockedExchangePointer(ppThunk, pfn);

	mov	edx, DWORD PTR _pfn$[ebp]
	push	edx
	mov	eax, DWORD PTR _ppThunk$[ebp]
	push	eax
	call	?InterlockedExchangePointer@@YGPAXPAPAXPAX@Z ; InterlockedExchangePointer

; 136  : }

	pop	esi
	add	esp, 4
	cmp	ebp, esp
	call	__RTC_CheckEsp
	mov	esp, ebp
	pop	ebp
	ret	0
?_AtlInstallStringThunk@ATL@@YAXPAPAXPAX1@Z ENDP	; ATL::_AtlInstallStringThunk
_TEXT	ENDS
PUBLIC	?_AtlGetConversionACP@ATL@@YGIXZ		; ATL::_AtlGetConversionACP
PUBLIC	??_C@_0FB@DNILBHEN@C?3?2Program?5Files?2Microsoft?5Visua@ ; `string'
PUBLIC	??0?$CW2AEX@$0IA@@ATL@@QAE@PBG@Z		; ATL::CW2AEX<128>::CW2AEX<128>
PUBLIC	??1?$CW2AEX@$0IA@@ATL@@QAE@XZ			; ATL::CW2AEX<128>::~CW2AEX<128>
PUBLIC	??B?$CW2AEX@$0IA@@ATL@@QBEPADXZ			; ATL::CW2AEX<128>::operator char *
PUBLIC	??_C@_0BA@CLMJJCOM@nSize?5?$DO?$DN?5nSizeW?$AA@	; `string'
PUBLIC	??0?$CTempBuffer@D$0IA@VCCRTAllocator@ATL@@@ATL@@QAE@XZ ; ATL::CTempBuffer<char,128,ATL::CCRTAllocator>::CTempBuffer<char,128,ATL::CCRTAllocator>
PUBLIC	??1?$CTempBuffer@D$0IA@VCCRTAllocator@ATL@@@ATL@@QAE@XZ ; ATL::CTempBuffer<char,128,ATL::CCRTAllocator>::~CTempBuffer<char,128,ATL::CCRTAllocator>
PUBLIC	??B?$CTempBuffer@D$0IA@VCCRTAllocator@ATL@@@ATL@@QBEPADXZ ; ATL::CTempBuffer<char,128,ATL::CCRTAllocator>::operator char *
PUBLIC	?Allocate@?$CTempBuffer@D$0IA@VCCRTAllocator@ATL@@@ATL@@QAEPADI@Z ; ATL::CTempBuffer<char,128,ATL::CCRTAllocator>::Allocate
EXTRN	__imp__MultiByteToWideChar@24:NEAR
EXTRN	__imp__GetEnvironmentVariableA@12:NEAR
EXTRN	__CrtDbgReport:NEAR
EXTRN	__except_list:DWORD
EXTRN	___CxxFrameHandler:NEAR
;	COMDAT xdata$x
xdata$x	SEGMENT
$T205791 DD	0ffffffffH
	DD	FLAT:$L205778
	DD	00H
	DD	FLAT:$L205779
$T205783 DD	019930520H
	DD	02H
	DD	FLAT:$T205791
	DD	2 DUP(00H)
	DD	2 DUP(00H)
xdata$x	ENDS
;	COMDAT ??_C@_0BA@CLMJJCOM@nSize?5?$DO?$DN?5nSizeW?$AA@
CONST	SEGMENT
??_C@_0BA@CLMJJCOM@nSize?5?$DO?$DN?5nSizeW?$AA@ DB 'nSize >= nSizeW', 00H ; `string'
CONST	ENDS
;	COMDAT ??_C@_0FB@DNILBHEN@C?3?2Program?5Files?2Microsoft?5Visua@
CONST	SEGMENT
??_C@_0FB@DNILBHEN@C?3?2Program?5Files?2Microsoft?5Visua@ DB 'C:\Program '
	DB	'Files\Microsoft Visual Studio .NET 2003\Vc7\atlmfc\include\cs'
	DB	'tringt.h', 00H				; `string'
; Function compile flags: /Odt /RTCsu
CONST	ENDS
;	COMDAT ?GetEnvironmentVariableWFake@ATL@@YGKPBGPAGK@Z
_TEXT	SEGMENT
$T205777 = -316						; size = 4
$T205775 = -312						; size = 4
$T205774 = -308						; size = 4
_pszNameA$ = -300					; size = 132
_pszBufferA$ = -160					; size = 132
_nSizeW$ = -24						; size = 4
_nSizeA$ = -20						; size = 4
__$ArrayPad$ = -16					; size = 4
__$EHRec$ = -12						; size = 12
__$ReturnAddr$ = 4					; size = 4
_pszName$ = 8						; size = 4
_pszBuffer$ = 12					; size = 4
_nSize$ = 16						; size = 4
?GetEnvironmentVariableWFake@ATL@@YGKPBGPAGK@Z PROC NEAR ; ATL::GetEnvironmentVariableWFake, COMDAT

; 159  : {

	push	ebp
	mov	ebp, esp
	push	-1
	push	__ehhandler$?GetEnvironmentVariableWFake@ATL@@YGKPBGPAGK@Z
	mov	eax, DWORD PTR fs:__except_list
	push	eax
	mov	DWORD PTR fs:__except_list, esp
	sub	esp, 304				; 00000130H
	push	esi
	push	edi
	lea	edi, DWORD PTR [ebp-316]
	mov	ecx, 76					; 0000004cH
	mov	eax, -858993460				; ccccccccH
	rep stosd
	mov	eax, DWORD PTR ___security_cookie
	mov	DWORD PTR __$ArrayPad$[ebp], eax

; 160  : 	ULONG nSizeA;
; 161  : 	ULONG nSizeW;
; 162  : 	CTempBuffer<char> pszBufferA;

	lea	ecx, DWORD PTR _pszBufferA$[ebp]
	call	??0?$CTempBuffer@D$0IA@VCCRTAllocator@ATL@@@ATL@@QAE@XZ ; ATL::CTempBuffer<char,128,ATL::CCRTAllocator>::CTempBuffer<char,128,ATL::CCRTAllocator>
	mov	DWORD PTR __$EHRec$[ebp+8], 0

; 163  : 	CW2A pszNameA(pszName);

	mov	eax, DWORD PTR _pszName$[ebp]
	push	eax
	lea	ecx, DWORD PTR _pszNameA$[ebp]
	call	??0?$CW2AEX@$0IA@@ATL@@QAE@PBG@Z	; ATL::CW2AEX<128>::CW2AEX<128>
	mov	BYTE PTR __$EHRec$[ebp+8], 1

; 164  : 
; 165  : 	nSizeA = ::GetEnvironmentVariableA(pszNameA, NULL, 0);

	mov	esi, esp
	push	0
	push	0
	lea	ecx, DWORD PTR _pszNameA$[ebp]
	call	??B?$CW2AEX@$0IA@@ATL@@QBEPADXZ		; ATL::CW2AEX<128>::operator char *
	push	eax
	call	DWORD PTR __imp__GetEnvironmentVariableA@12
	cmp	esi, esp
	call	__RTC_CheckEsp
	mov	DWORD PTR _nSizeA$[ebp], eax

; 166  : 	if (nSizeA == 0)

	cmp	DWORD PTR _nSizeA$[ebp], 0
	jne	SHORT $L195887

; 167  : 		return 0;

	mov	DWORD PTR $T205774[ebp], 0
	mov	BYTE PTR __$EHRec$[ebp+8], 0
	lea	ecx, DWORD PTR _pszNameA$[ebp]
	call	??1?$CW2AEX@$0IA@@ATL@@QAE@XZ		; ATL::CW2AEX<128>::~CW2AEX<128>
	mov	DWORD PTR __$EHRec$[ebp+8], -1
	lea	ecx, DWORD PTR _pszBufferA$[ebp]
	call	??1?$CTempBuffer@D$0IA@VCCRTAllocator@ATL@@@ATL@@QAE@XZ ; ATL::CTempBuffer<char,128,ATL::CCRTAllocator>::~CTempBuffer<char,128,ATL::CCRTAllocator>
	mov	eax, DWORD PTR $T205774[ebp]
	jmp	$L195859
$L195887:

; 168  : 
; 169  : 	pszBufferA.Allocate(nSizeA*2);

	mov	ecx, DWORD PTR _nSizeA$[ebp]
	shl	ecx, 1
	push	ecx
	lea	ecx, DWORD PTR _pszBufferA$[ebp]
	call	?Allocate@?$CTempBuffer@D$0IA@VCCRTAllocator@ATL@@@ATL@@QAEPADI@Z ; ATL::CTempBuffer<char,128,ATL::CCRTAllocator>::Allocate

; 170  : 	::GetEnvironmentVariableA(pszNameA, pszBufferA, nSizeA);

	mov	esi, esp
	mov	edx, DWORD PTR _nSizeA$[ebp]
	push	edx
	lea	ecx, DWORD PTR _pszBufferA$[ebp]
	call	??B?$CTempBuffer@D$0IA@VCCRTAllocator@ATL@@@ATL@@QBEPADXZ ; ATL::CTempBuffer<char,128,ATL::CCRTAllocator>::operator char *
	push	eax
	lea	ecx, DWORD PTR _pszNameA$[ebp]
	call	??B?$CW2AEX@$0IA@@ATL@@QBEPADXZ		; ATL::CW2AEX<128>::operator char *
	push	eax
	call	DWORD PTR __imp__GetEnvironmentVariableA@12
	cmp	esi, esp
	call	__RTC_CheckEsp

; 171  : 
; 172  : 	nSizeW = ::MultiByteToWideChar(_AtlGetConversionACP(), 0, pszBufferA, -1, NULL, 0);

	mov	esi, esp
	push	0
	push	0
	push	-1
	lea	ecx, DWORD PTR _pszBufferA$[ebp]
	call	??B?$CTempBuffer@D$0IA@VCCRTAllocator@ATL@@@ATL@@QBEPADXZ ; ATL::CTempBuffer<char,128,ATL::CCRTAllocator>::operator char *
	push	eax
	push	0
	call	?_AtlGetConversionACP@ATL@@YGIXZ	; ATL::_AtlGetConversionACP
	push	eax
	call	DWORD PTR __imp__MultiByteToWideChar@24
	cmp	esi, esp
	call	__RTC_CheckEsp
	mov	DWORD PTR _nSizeW$[ebp], eax

; 173  : 	if (nSize == 0)

	cmp	DWORD PTR _nSize$[ebp], 0
	jne	SHORT $L195889

; 174  : 		return nSizeW;

	mov	eax, DWORD PTR _nSizeW$[ebp]
	mov	DWORD PTR $T205775[ebp], eax
	mov	BYTE PTR __$EHRec$[ebp+8], 0
	lea	ecx, DWORD PTR _pszNameA$[ebp]
	call	??1?$CW2AEX@$0IA@@ATL@@QAE@XZ		; ATL::CW2AEX<128>::~CW2AEX<128>
	mov	DWORD PTR __$EHRec$[ebp+8], -1
	lea	ecx, DWORD PTR _pszBufferA$[ebp]
	call	??1?$CTempBuffer@D$0IA@VCCRTAllocator@ATL@@@ATL@@QAE@XZ ; ATL::CTempBuffer<char,128,ATL::CCRTAllocator>::~CTempBuffer<char,128,ATL::CCRTAllocator>
	mov	eax, DWORD PTR $T205775[ebp]
	jmp	$L195859
$L195889:

; 175  : 	ATLASSERT(nSize >= nSizeW);

	mov	ecx, DWORD PTR _nSize$[ebp]
	cmp	ecx, DWORD PTR _nSizeW$[ebp]
	jae	SHORT $L205776
	push	OFFSET FLAT:??_C@_0BA@CLMJJCOM@nSize?5?$DO?$DN?5nSizeW?$AA@
	push	0
	push	175					; 000000afH
	push	OFFSET FLAT:??_C@_0FB@DNILBHEN@C?3?2Program?5Files?2Microsoft?5Visua@
	push	2
	call	__CrtDbgReport
	add	esp, 20					; 00000014H
	cmp	eax, 1
	jne	SHORT $L205776
	int	3
$L205776:

; 176  : 	::MultiByteToWideChar(_AtlGetConversionACP(), 0, pszBufferA, -1, pszBuffer, nSizeW);

	mov	esi, esp
	mov	eax, DWORD PTR _nSizeW$[ebp]
	push	eax
	mov	ecx, DWORD PTR _pszBuffer$[ebp]
	push	ecx
	push	-1
	lea	ecx, DWORD PTR _pszBufferA$[ebp]
	call	??B?$CTempBuffer@D$0IA@VCCRTAllocator@ATL@@@ATL@@QBEPADXZ ; ATL::CTempBuffer<char,128,ATL::CCRTAllocator>::operator char *
	push	eax
	push	0
	call	?_AtlGetConversionACP@ATL@@YGIXZ	; ATL::_AtlGetConversionACP
	push	eax
	call	DWORD PTR __imp__MultiByteToWideChar@24
	cmp	esi, esp
	call	__RTC_CheckEsp

; 177  : 
; 178  : 	return nSizeW;

	mov	edx, DWORD PTR _nSizeW$[ebp]
	mov	DWORD PTR $T205777[ebp], edx
	mov	BYTE PTR __$EHRec$[ebp+8], 0
	lea	ecx, DWORD PTR _pszNameA$[ebp]
	call	??1?$CW2AEX@$0IA@@ATL@@QAE@XZ		; ATL::CW2AEX<128>::~CW2AEX<128>
	mov	DWORD PTR __$EHRec$[ebp+8], -1
	lea	ecx, DWORD PTR _pszBufferA$[ebp]
	call	??1?$CTempBuffer@D$0IA@VCCRTAllocator@ATL@@@ATL@@QAE@XZ ; ATL::CTempBuffer<char,128,ATL::CCRTAllocator>::~CTempBuffer<char,128,ATL::CCRTAllocator>
	mov	eax, DWORD PTR $T205777[ebp]
$L195859:

; 179  : }

	push	edx
	mov	ecx, ebp
	push	eax
	lea	edx, DWORD PTR $L205790
	call	@_RTC_CheckStackVars@8
	pop	eax
	pop	edx
	mov	ecx, DWORD PTR __$EHRec$[ebp]
	mov	DWORD PTR fs:__except_list, ecx
	mov	ecx, DWORD PTR __$ArrayPad$[ebp]
	call	@__security_check_cookie@4
	pop	edi
	pop	esi
	add	esp, 316				; 0000013cH
	cmp	ebp, esp
	call	__RTC_CheckEsp
	mov	esp, ebp
	pop	ebp
	ret	12					; 0000000cH
$L205790:
	DD	2
	DD	$L205789
$L205789:
	DD	-160					; ffffff60H
	DD	132					; 00000084H
	DD	$L205784
	DD	-300					; fffffed4H
	DD	132					; 00000084H
	DD	$L205785
$L205785:
	DB	112					; 00000070H
	DB	115					; 00000073H
	DB	122					; 0000007aH
	DB	78					; 0000004eH
	DB	97					; 00000061H
	DB	109					; 0000006dH
	DB	101					; 00000065H
	DB	65					; 00000041H
	DB	0
$L205784:
	DB	112					; 00000070H
	DB	115					; 00000073H
	DB	122					; 0000007aH
	DB	66					; 00000042H
	DB	117					; 00000075H
	DB	102					; 00000066H
	DB	102					; 00000066H
	DB	101					; 00000065H
	DB	114					; 00000072H
	DB	65					; 00000041H
	DB	0
_TEXT	ENDS
;	COMDAT text$x
text$x	SEGMENT
$L205778:
	lea	ecx, DWORD PTR _pszBufferA$[ebp]
	jmp	??1?$CTempBuffer@D$0IA@VCCRTAllocator@ATL@@@ATL@@QAE@XZ ; ATL::CTempBuffer<char,128,ATL::CCRTAllocator>::~CTempBuffer<char,128,ATL::CCRTAllocator>
$L205779:
	lea	ecx, DWORD PTR _pszNameA$[ebp]
	jmp	??1?$CW2AEX@$0IA@@ATL@@QAE@XZ		; ATL::CW2AEX<128>::~CW2AEX<128>
__ehhandler$?GetEnvironmentVariableWFake@ATL@@YGKPBGPAGK@Z:
	mov	eax, OFFSET FLAT:$T205783
	jmp	___CxxFrameHandler
text$x	ENDS
?GetEnvironmentVariableWFake@ATL@@YGKPBGPAGK@Z ENDP	; ATL::GetEnvironmentVariableWFake
; Function compile flags: /Odt /RTCsu
; File c:\program files\microsoft visual studio .net 2003\vc7\atlmfc\include\atlconv.h
;	COMDAT ?_AtlGetConversionACP@ATL@@YGIXZ
_TEXT	SEGMENT
?_AtlGetConversionACP@ATL@@YGIXZ PROC NEAR		; ATL::_AtlGetConversionACP, COMDAT

; 157  : {

	push	ebp
	mov	ebp, esp
	push	esi

; 158  : 	return( g_pfnGetThreadACP() );

	mov	esi, esp
	call	DWORD PTR ?g_pfnGetThreadACP@ATL@@3P6GIXZA ; ATL::g_pfnGetThreadACP
	cmp	esi, esp
	call	__RTC_CheckEsp

; 159  : }

	pop	esi
	cmp	ebp, esp
	call	__RTC_CheckEsp
	pop	ebp
	ret	0
?_AtlGetConversionACP@ATL@@YGIXZ ENDP			; ATL::_AtlGetConversionACP
_TEXT	ENDS
PUBLIC	?CompareStringWFake@ATL@@YGHKKPBGH0H@Z		; ATL::CompareStringWFake
EXTRN	__imp__CompareStringW@24:NEAR
; Function compile flags: /Odt /RTCsu
; File c:\program files\microsoft visual studio .net 2003\vc7\atlmfc\include\cstringt.h
;	COMDAT ?CompareStringWThunk@ATL@@YGHKKPBGH0H@Z
_TEXT	SEGMENT
_lcid$ = 8						; size = 4
_dwFlags$ = 12						; size = 4
_pszString1$ = 16					; size = 4
_nLength1$ = 20						; size = 4
_pszString2$ = 24					; size = 4
_nLength2$ = 28						; size = 4
?CompareStringWThunk@ATL@@YGHKKPBGH0H@Z PROC NEAR	; ATL::CompareStringWThunk, COMDAT

; 216  : {

	push	ebp
	mov	ebp, esp
	push	esi

; 217  : 	_AtlInstallStringThunk(reinterpret_cast<void**>(&_strthunks.pfnCompareStringW), CompareStringWFake, ::CompareStringW);

	mov	eax, DWORD PTR __imp__CompareStringW@24
	push	eax
	push	OFFSET FLAT:?CompareStringWFake@ATL@@YGHKKPBGH0H@Z ; ATL::CompareStringWFake
	push	OFFSET FLAT:?_strthunks@ATL@@3U_AtlStringThunks@1@A ; ATL::_strthunks
	call	?_AtlInstallStringThunk@ATL@@YAXPAPAXPAX1@Z ; ATL::_AtlInstallStringThunk
	add	esp, 12					; 0000000cH

; 218  : 
; 219  : 	return _strthunks.pfnCompareStringW(lcid, dwFlags, pszString1, nLength1, pszString2, nLength2);

	mov	esi, esp
	mov	ecx, DWORD PTR _nLength2$[ebp]
	push	ecx
	mov	edx, DWORD PTR _pszString2$[ebp]
	push	edx
	mov	eax, DWORD PTR _nLength1$[ebp]
	push	eax
	mov	ecx, DWORD PTR _pszString1$[ebp]
	push	ecx
	mov	edx, DWORD PTR _dwFlags$[ebp]
	push	edx
	mov	eax, DWORD PTR _lcid$[ebp]
	push	eax
	call	DWORD PTR ?_strthunks@ATL@@3U_AtlStringThunks@1@A
	cmp	esi, esp
	call	__RTC_CheckEsp

; 220  : }

	pop	esi
	cmp	ebp, esp
	call	__RTC_CheckEsp
	pop	ebp
	ret	24					; 00000018H
?CompareStringWThunk@ATL@@YGHKKPBGH0H@Z ENDP		; ATL::CompareStringWThunk
_TEXT	ENDS
PUBLIC	?AtlW2AHelper@@YGPADPADPBGHI@Z			; AtlW2AHelper
PUBLIC	?AtlThrow@ATL@@YGXJ@Z				; ATL::AtlThrow
PUBLIC	??0?$CAtlSafeAllocBufferManager@VCCRTAllocator@ATL@@@_ATL_SAFE_ALLOCA_IMPL@ATL@@QAE@XZ ; ATL::_ATL_SAFE_ALLOCA_IMPL::CAtlSafeAllocBufferManager<ATL::CCRTAllocator>::CAtlSafeAllocBufferManager<ATL::CCRTAllocator>
PUBLIC	?Allocate@?$CAtlSafeAllocBufferManager@VCCRTAllocator@ATL@@@_ATL_SAFE_ALLOCA_IMPL@ATL@@QAEPAXK@Z ; ATL::_ATL_SAFE_ALLOCA_IMPL::CAtlSafeAllocBufferManager<ATL::CCRTAllocator>::Allocate
PUBLIC	??1?$CAtlSafeAllocBufferManager@VCCRTAllocator@ATL@@@_ATL_SAFE_ALLOCA_IMPL@ATL@@QAE@XZ ; ATL::_ATL_SAFE_ALLOCA_IMPL::CAtlSafeAllocBufferManager<ATL::CCRTAllocator>::~CAtlSafeAllocBufferManager<ATL::CCRTAllocator>
PUBLIC	?_AtlVerifyStackAvailable@_ATL_SAFE_ALLOCA_IMPL@ATL@@YA_NK@Z ; ATL::_ATL_SAFE_ALLOCA_IMPL::_AtlVerifyStackAvailable
EXTRN	__imp__lstrlenW@4:NEAR
EXTRN	__imp__CompareStringA@24:NEAR
EXTRN	__alloca_probe:NEAR
;	COMDAT xdata$x
xdata$x	SEGMENT
$T205818 DD	0ffffffffH
	DD	FLAT:$L205810
$T205812 DD	019930520H
	DD	01H
	DD	FLAT:$T205818
	DD	2 DUP(00H)
	DD	2 DUP(00H)
; Function compile flags: /Odt /RTCsu
xdata$x	ENDS
;	COMDAT ?CompareStringWFake@ATL@@YGHKKPBGH0H@Z
_TEXT	SEGMENT
tv147 = -76						; size = 4
tv142 = -72						; size = 4
tv149 = -68						; size = 4
tv89 = -64						; size = 4
tv84 = -60						; size = 4
tv91 = -56						; size = 4
$T205809 = -52						; size = 4
_pszAString2$ = -48					; size = 4
_pszAString1$ = -44					; size = 4
__AtlSafeAllocaManager$ = -36				; size = 4
__lpa_ex$ = -28						; size = 4
__lpw_ex$ = -24						; size = 4
__acp_ex$ = -20						; size = 4
__convert_ex$ = -16					; size = 4
__$EHRec$ = -12						; size = 12
_lcid$ = 8						; size = 4
_dwFlags$ = 12						; size = 4
_pszString1$ = 16					; size = 4
_nLength1$ = 20						; size = 4
_pszString2$ = 24					; size = 4
_nLength2$ = 28						; size = 4
?CompareStringWFake@ATL@@YGHKKPBGH0H@Z PROC NEAR	; ATL::CompareStringWFake, COMDAT

; 192  : {

	push	ebp
	mov	ebp, esp
	push	-1
	push	__ehhandler$?CompareStringWFake@ATL@@YGHKKPBGH0H@Z
	mov	eax, DWORD PTR fs:__except_list
	push	eax
	mov	DWORD PTR fs:__except_list, esp
	sub	esp, 64					; 00000040H
	push	esi
	push	edi
	lea	edi, DWORD PTR [ebp-76]
	mov	ecx, 16					; 00000010H
	mov	eax, -858993460				; ccccccccH
	rep stosd

; 193  : 	USES_CONVERSION_EX;

	mov	DWORD PTR __convert_ex$[ebp], 0
	call	?_AtlGetConversionACP@ATL@@YGIXZ	; ATL::_AtlGetConversionACP
	mov	DWORD PTR __acp_ex$[ebp], eax
	mov	DWORD PTR __lpw_ex$[ebp], 0
	mov	DWORD PTR __lpa_ex$[ebp], 0
	lea	ecx, DWORD PTR __AtlSafeAllocaManager$[ebp]
	call	??0?$CAtlSafeAllocBufferManager@VCCRTAllocator@ATL@@@_ATL_SAFE_ALLOCA_IMPL@ATL@@QAE@XZ ; ATL::_ATL_SAFE_ALLOCA_IMPL::CAtlSafeAllocBufferManager<ATL::CCRTAllocator>::CAtlSafeAllocBufferManager<ATL::CCRTAllocator>
	mov	DWORD PTR __$EHRec$[ebp+8], 0

; 194  : 	
; 195  : 	LPCSTR pszAString1 = NULL;

	mov	DWORD PTR _pszAString1$[ebp], 0

; 196  : 	if(pszString1 != NULL)

	cmp	DWORD PTR _pszString1$[ebp], 0
	je	$L195914

; 197  : 	{
; 198  : 		pszAString1 = W2A_EX(pszString1,_ATL_SAFE_ALLOCA_DEF_THRESHOLD);

	mov	eax, DWORD PTR _pszString1$[ebp]
	mov	DWORD PTR __lpw_ex$[ebp], eax
	cmp	DWORD PTR __lpw_ex$[ebp], 0
	jne	SHORT $L205803
	mov	DWORD PTR tv91[ebp], 0
	jmp	SHORT $L205804
$L205803:
	mov	esi, esp
	mov	ecx, DWORD PTR __lpw_ex$[ebp]
	push	ecx
	call	DWORD PTR __imp__lstrlenW@4
	cmp	esi, esp
	call	__RTC_CheckEsp
	lea	edx, DWORD PTR [eax+eax+2]
	mov	DWORD PTR __convert_ex$[ebp], edx
	cmp	DWORD PTR __convert_ex$[ebp], 1024	; 00000400H
	jg	SHORT $L205801
	mov	eax, DWORD PTR __convert_ex$[ebp]
	push	eax
	call	?_AtlVerifyStackAvailable@_ATL_SAFE_ALLOCA_IMPL@ATL@@YA_NK@Z ; ATL::_ATL_SAFE_ALLOCA_IMPL::_AtlVerifyStackAvailable
	add	esp, 4
	movzx	ecx, al
	test	ecx, ecx
	je	SHORT $L205801
	mov	eax, DWORD PTR __convert_ex$[ebp]
	add	eax, 3
	and	eax, -4					; fffffffcH
	call	__alloca_probe
	mov	DWORD PTR tv84[ebp], esp
	mov	edx, DWORD PTR tv84[ebp]
	mov	DWORD PTR tv89[ebp], edx
	jmp	SHORT $L205802
$L205801:
	mov	eax, DWORD PTR __convert_ex$[ebp]
	push	eax
	lea	ecx, DWORD PTR __AtlSafeAllocaManager$[ebp]
	call	?Allocate@?$CAtlSafeAllocBufferManager@VCCRTAllocator@ATL@@@_ATL_SAFE_ALLOCA_IMPL@ATL@@QAEPAXK@Z ; ATL::_ATL_SAFE_ALLOCA_IMPL::CAtlSafeAllocBufferManager<ATL::CCRTAllocator>::Allocate
	mov	DWORD PTR tv89[ebp], eax
$L205802:
	mov	ecx, DWORD PTR __acp_ex$[ebp]
	push	ecx
	mov	edx, DWORD PTR __convert_ex$[ebp]
	push	edx
	mov	eax, DWORD PTR __lpw_ex$[ebp]
	push	eax
	mov	ecx, DWORD PTR tv89[ebp]
	push	ecx
	call	?AtlW2AHelper@@YGPADPADPBGHI@Z		; AtlW2AHelper
	mov	DWORD PTR tv91[ebp], eax
$L205804:
	mov	edx, DWORD PTR tv91[ebp]
	mov	DWORD PTR _pszAString1$[ebp], edx

; 199  : 		if(pszAString1 == NULL)

	cmp	DWORD PTR _pszAString1$[ebp], 0
	jne	SHORT $L195914

; 200  : 			AtlThrow(E_OUTOFMEMORY);

	push	-2147024882				; 8007000eH
	call	?AtlThrow@ATL@@YGXJ@Z			; ATL::AtlThrow
$L195914:

; 201  : 	}
; 202  : 
; 203  : 	LPCSTR pszAString2 = NULL;

	mov	DWORD PTR _pszAString2$[ebp], 0

; 204  : 	if(pszString2 != NULL)

	cmp	DWORD PTR _pszString2$[ebp], 0
	je	$L195920

; 205  : 	{
; 206  : 		pszAString2 = W2A_EX(pszString2,_ATL_SAFE_ALLOCA_DEF_THRESHOLD);

	mov	eax, DWORD PTR _pszString2$[ebp]
	mov	DWORD PTR __lpw_ex$[ebp], eax
	cmp	DWORD PTR __lpw_ex$[ebp], 0
	jne	SHORT $L205807
	mov	DWORD PTR tv149[ebp], 0
	jmp	SHORT $L205808
$L205807:
	mov	esi, esp
	mov	ecx, DWORD PTR __lpw_ex$[ebp]
	push	ecx
	call	DWORD PTR __imp__lstrlenW@4
	cmp	esi, esp
	call	__RTC_CheckEsp
	lea	edx, DWORD PTR [eax+eax+2]
	mov	DWORD PTR __convert_ex$[ebp], edx
	cmp	DWORD PTR __convert_ex$[ebp], 1024	; 00000400H
	jg	SHORT $L205805
	mov	eax, DWORD PTR __convert_ex$[ebp]
	push	eax
	call	?_AtlVerifyStackAvailable@_ATL_SAFE_ALLOCA_IMPL@ATL@@YA_NK@Z ; ATL::_ATL_SAFE_ALLOCA_IMPL::_AtlVerifyStackAvailable
	add	esp, 4
	movzx	ecx, al
	test	ecx, ecx
	je	SHORT $L205805
	mov	eax, DWORD PTR __convert_ex$[ebp]
	add	eax, 3
	and	eax, -4					; fffffffcH
	call	__alloca_probe
	mov	DWORD PTR tv142[ebp], esp
	mov	edx, DWORD PTR tv142[ebp]
	mov	DWORD PTR tv147[ebp], edx
	jmp	SHORT $L205806
$L205805:
	mov	eax, DWORD PTR __convert_ex$[ebp]
	push	eax
	lea	ecx, DWORD PTR __AtlSafeAllocaManager$[ebp]
	call	?Allocate@?$CAtlSafeAllocBufferManager@VCCRTAllocator@ATL@@@_ATL_SAFE_ALLOCA_IMPL@ATL@@QAEPAXK@Z ; ATL::_ATL_SAFE_ALLOCA_IMPL::CAtlSafeAllocBufferManager<ATL::CCRTAllocator>::Allocate
	mov	DWORD PTR tv147[ebp], eax
$L205806:
	mov	ecx, DWORD PTR __acp_ex$[ebp]
	push	ecx
	mov	edx, DWORD PTR __convert_ex$[ebp]
	push	edx
	mov	eax, DWORD PTR __lpw_ex$[ebp]
	push	eax
	mov	ecx, DWORD PTR tv147[ebp]
	push	ecx
	call	?AtlW2AHelper@@YGPADPADPBGHI@Z		; AtlW2AHelper
	mov	DWORD PTR tv149[ebp], eax
$L205808:
	mov	edx, DWORD PTR tv149[ebp]
	mov	DWORD PTR _pszAString2$[ebp], edx

; 207  : 		if(pszAString2 == NULL)

	cmp	DWORD PTR _pszAString2$[ebp], 0
	jne	SHORT $L195920

; 208  : 			AtlThrow(E_OUTOFMEMORY);

	push	-2147024882				; 8007000eH
	call	?AtlThrow@ATL@@YGXJ@Z			; ATL::AtlThrow
$L195920:

; 209  : 	}
; 210  : 
; 211  : 	return ::CompareStringA(lcid, dwFlags, pszAString1, nLength1, pszAString2, nLength2);

	mov	esi, esp
	mov	eax, DWORD PTR _nLength2$[ebp]
	push	eax
	mov	ecx, DWORD PTR _pszAString2$[ebp]
	push	ecx
	mov	edx, DWORD PTR _nLength1$[ebp]
	push	edx
	mov	eax, DWORD PTR _pszAString1$[ebp]
	push	eax
	mov	ecx, DWORD PTR _dwFlags$[ebp]
	push	ecx
	mov	edx, DWORD PTR _lcid$[ebp]
	push	edx
	call	DWORD PTR __imp__CompareStringA@24
	cmp	esi, esp
	call	__RTC_CheckEsp
	mov	DWORD PTR $T205809[ebp], eax
	mov	DWORD PTR __$EHRec$[ebp+8], -1
	lea	ecx, DWORD PTR __AtlSafeAllocaManager$[ebp]
	call	??1?$CAtlSafeAllocBufferManager@VCCRTAllocator@ATL@@@_ATL_SAFE_ALLOCA_IMPL@ATL@@QAE@XZ ; ATL::_ATL_SAFE_ALLOCA_IMPL::CAtlSafeAllocBufferManager<ATL::CCRTAllocator>::~CAtlSafeAllocBufferManager<ATL::CCRTAllocator>
	mov	eax, DWORD PTR $T205809[ebp]
$L205800:

; 212  : }

	lea	esp, DWORD PTR [ebp-84]
	push	edx
	mov	ecx, ebp
	push	eax
	lea	edx, DWORD PTR $L205817
	call	@_RTC_CheckStackVars@8
	pop	eax
	pop	edx
	mov	ecx, DWORD PTR __$EHRec$[ebp]
	mov	DWORD PTR fs:__except_list, ecx
	pop	edi
	pop	esi
	mov	esp, ebp
	pop	ebp
	ret	24					; 00000018H
$L205817:
	DD	1
	DD	$L205816
$L205816:
	DD	-36					; ffffffdcH
	DD	4
	DD	$L205814
$L205814:
	DB	95					; 0000005fH
	DB	65					; 00000041H
	DB	116					; 00000074H
	DB	108					; 0000006cH
	DB	83					; 00000053H
	DB	97					; 00000061H
	DB	102					; 00000066H
	DB	101					; 00000065H
	DB	65					; 00000041H
	DB	108					; 0000006cH
	DB	108					; 0000006cH
	DB	111					; 0000006fH
	DB	99					; 00000063H
	DB	97					; 00000061H
	DB	77					; 0000004dH
	DB	97					; 00000061H
	DB	110					; 0000006eH
	DB	97					; 00000061H
	DB	103					; 00000067H
	DB	101					; 00000065H
	DB	114					; 00000072H
	DB	0
_TEXT	ENDS
;	COMDAT text$x
text$x	SEGMENT
$L205810:
	lea	ecx, DWORD PTR __AtlSafeAllocaManager$[ebp]
	jmp	??1?$CAtlSafeAllocBufferManager@VCCRTAllocator@ATL@@@_ATL_SAFE_ALLOCA_IMPL@ATL@@QAE@XZ ; ATL::_ATL_SAFE_ALLOCA_IMPL::CAtlSafeAllocBufferManager<ATL::CCRTAllocator>::~CAtlSafeAllocBufferManager<ATL::CCRTAllocator>
__ehhandler$?CompareStringWFake@ATL@@YGHKKPBGH0H@Z:
	mov	eax, OFFSET FLAT:$T205812
	jmp	___CxxFrameHandler
text$x	ENDS
?CompareStringWFake@ATL@@YGHKKPBGH0H@Z ENDP		; ATL::CompareStringWFake
EXTRN	__except_handler3:NEAR
EXTRN	__resetstkoflw:NEAR
;	COMDAT CONST
; File c:\program files\microsoft visual studio .net 2003\vc7\atlmfc\include\atlalloc.h
CONST	SEGMENT
$T205829 DD	0ffffffffH
	DD	FLAT:$L205824
	DD	FLAT:$L205825
; Function compile flags: /Odt /RTCsu
CONST	ENDS
;	COMDAT ?_AtlVerifyStackAvailable@_ATL_SAFE_ALLOCA_IMPL@ATL@@YA_NK@Z
_TEXT	SEGMENT
tv65 = -48						; size = 4
$T205828 = -44						; size = 4
_p$75737 = -36						; size = 4
_bStackAvailable$ = -25					; size = 1
__$SEHRec$ = -24					; size = 24
_Size$ = 8						; size = 4
?_AtlVerifyStackAvailable@_ATL_SAFE_ALLOCA_IMPL@ATL@@YA_NK@Z PROC NEAR ; ATL::_ATL_SAFE_ALLOCA_IMPL::_AtlVerifyStackAvailable, COMDAT

; 331  : {

	push	ebp
	mov	ebp, esp
	push	-1
	push	OFFSET FLAT:$T205829
	push	OFFSET FLAT:__except_handler3
	mov	eax, DWORD PTR fs:__except_list
	push	eax
	mov	DWORD PTR fs:__except_list, esp
	add	esp, -32				; ffffffe0H
	push	ebx
	push	esi
	push	edi
	mov	eax, -858993460				; ccccccccH
	mov	DWORD PTR [ebp-48], eax
	mov	DWORD PTR [ebp-44], eax
	mov	DWORD PTR [ebp-40], eax
	mov	DWORD PTR [ebp-36], eax
	mov	DWORD PTR [ebp-32], eax
	mov	DWORD PTR [ebp-28], eax
	mov	DWORD PTR __$SEHRec$[ebp], esp

; 332  :     bool bStackAvailable = true;

	mov	BYTE PTR _bStackAvailable$[ebp], 1

; 333  : 
; 334  :     __try

	mov	DWORD PTR __$SEHRec$[ebp+20], 0

; 335  :     {
; 336  :         PVOID p = _alloca(Size + _ATL_STACK_MARGIN);

	mov	eax, DWORD PTR _Size$[ebp]
	add	eax, 8195				; 00002003H
	and	eax, -4					; fffffffcH
	call	__alloca_probe
	mov	DWORD PTR tv65[ebp], esp
	mov	DWORD PTR __$SEHRec$[ebp], esp
	mov	eax, DWORD PTR tv65[ebp]
	mov	DWORD PTR _p$75737[ebp], eax
	mov	DWORD PTR __$SEHRec$[ebp+20], -1
	jmp	SHORT $L205827
$L205824:
$L205836:

; 337  :         (p);
; 338  :     }
; 339  :     __except ((EXCEPTION_STACK_OVERFLOW == GetExceptionCode()) ?
; 340  :                    EXCEPTION_EXECUTE_HANDLER :
; 341  :                    EXCEPTION_CONTINUE_SEARCH)

	mov	ecx, DWORD PTR __$SEHRec$[ebp+4]
	mov	edx, DWORD PTR [ecx]
	mov	eax, DWORD PTR [edx]
	mov	DWORD PTR $T205828[ebp], eax
	mov	eax, DWORD PTR $T205828[ebp]
	sub	eax, -1073741571			; c00000fdH
	neg	eax
	sbb	eax, eax
	inc	eax
$L205826:
$L205835:
	ret	0
$L205825:
	mov	esp, DWORD PTR __$SEHRec$[ebp]

; 342  :     {
; 343  :         bStackAvailable = false;

	mov	BYTE PTR _bStackAvailable$[ebp], 0

; 344  :         _resetstkoflw();

	call	__resetstkoflw
	mov	DWORD PTR __$SEHRec$[ebp+20], -1
$L205827:

; 345  :     }
; 346  :     return bStackAvailable;

	mov	al, BYTE PTR _bStackAvailable$[ebp]
$L205823:

; 347  : }

	lea	esp, DWORD PTR [ebp-60]
	push	edx
	mov	ecx, ebp
	push	eax
	lea	edx, DWORD PTR $L205834
	call	@_RTC_CheckStackVars@8
	pop	eax
	pop	edx
	mov	ecx, DWORD PTR __$SEHRec$[ebp+8]
	mov	DWORD PTR fs:__except_list, ecx
	pop	edi
	pop	esi
	pop	ebx
	mov	esp, ebp
	pop	ebp
	ret	0
$L205834:
	DD	1
	DD	$L205833
$L205833:
	DD	-36					; ffffffdcH
	DD	4
	DD	$L205831
$L205831:
	DB	112					; 00000070H
	DB	0
?_AtlVerifyStackAvailable@_ATL_SAFE_ALLOCA_IMPL@ATL@@YA_NK@Z ENDP ; ATL::_ATL_SAFE_ALLOCA_IMPL::_AtlVerifyStackAvailable
_TEXT	ENDS
PUBLIC	??_C@_08DMHHBMMN@lpa?5?$CB?$DN?50?$AA@		; `string'
PUBLIC	??_C@_0FA@OHHMODBN@C?3?2Program?5Files?2Microsoft?5Visua@ ; `string'
PUBLIC	??_C@_08DIHJLFDJ@lpw?5?$CB?$DN?50?$AA@		; `string'
PUBLIC	??_C@_01GBGANLPD@0?$AA@				; `string'
EXTRN	__imp__WideCharToMultiByte@32:NEAR
;	COMDAT ??_C@_08DIHJLFDJ@lpw?5?$CB?$DN?50?$AA@
; File c:\program files\microsoft visual studio .net 2003\vc7\atlmfc\include\atlconv.h
CONST	SEGMENT
??_C@_08DIHJLFDJ@lpw?5?$CB?$DN?50?$AA@ DB 'lpw != 0', 00H ; `string'
CONST	ENDS
;	COMDAT ??_C@_0FA@OHHMODBN@C?3?2Program?5Files?2Microsoft?5Visua@
CONST	SEGMENT
??_C@_0FA@OHHMODBN@C?3?2Program?5Files?2Microsoft?5Visua@ DB 'C:\Program '
	DB	'Files\Microsoft Visual Studio .NET 2003\Vc7\atlmfc\include\at'
	DB	'lconv.h', 00H				; `string'
CONST	ENDS
;	COMDAT ??_C@_08DMHHBMMN@lpa?5?$CB?$DN?50?$AA@
CONST	SEGMENT
??_C@_08DMHHBMMN@lpa?5?$CB?$DN?50?$AA@ DB 'lpa != 0', 00H ; `string'
CONST	ENDS
;	COMDAT ??_C@_01GBGANLPD@0?$AA@
CONST	SEGMENT
??_C@_01GBGANLPD@0?$AA@ DB '0', 00H			; `string'
; Function compile flags: /Odt /RTCsu
CONST	ENDS
;	COMDAT ?AtlW2AHelper@@YGPADPADPBGHI@Z
_TEXT	SEGMENT
_ret$ = -4						; size = 4
_lpa$ = 8						; size = 4
_lpw$ = 12						; size = 4
_nChars$ = 16						; size = 4
_acp$ = 20						; size = 4
?AtlW2AHelper@@YGPADPADPBGHI@Z PROC NEAR		; AtlW2AHelper, COMDAT

; 573  : {

	push	ebp
	mov	ebp, esp
	push	ecx
	push	esi
	mov	DWORD PTR [ebp-4], -858993460		; ccccccccH

; 574  : 	ATLASSERT(lpw != NULL);

	cmp	DWORD PTR _lpw$[ebp], 0
	jne	SHORT $L205841
	push	OFFSET FLAT:??_C@_08DIHJLFDJ@lpw?5?$CB?$DN?50?$AA@
	push	0
	push	574					; 0000023eH
	push	OFFSET FLAT:??_C@_0FA@OHHMODBN@C?3?2Program?5Files?2Microsoft?5Visua@
	push	2
	call	__CrtDbgReport
	add	esp, 20					; 00000014H
	cmp	eax, 1
	jne	SHORT $L205841
	int	3
$L205841:

; 575  : 	ATLASSERT(lpa != NULL);

	cmp	DWORD PTR _lpa$[ebp], 0
	jne	SHORT $L205842
	push	OFFSET FLAT:??_C@_08DMHHBMMN@lpa?5?$CB?$DN?50?$AA@
	push	0
	push	575					; 0000023fH
	push	OFFSET FLAT:??_C@_0FA@OHHMODBN@C?3?2Program?5Files?2Microsoft?5Visua@
	push	2
	call	__CrtDbgReport
	add	esp, 20					; 00000014H
	cmp	eax, 1
	jne	SHORT $L205842
	int	3
$L205842:

; 576  : 	if (lpa == NULL || lpw == NULL)

	cmp	DWORD PTR _lpa$[ebp], 0
	je	SHORT $L75958
	cmp	DWORD PTR _lpw$[ebp], 0
	jne	SHORT $L75957
$L75958:

; 577  : 		return NULL;

	xor	eax, eax
	jmp	SHORT $L75954
$L75957:

; 578  : 	// verify that no illegal character present
; 579  : 	// since lpa was allocated based on the size of lpw
; 580  : 	// don't worry about the number of chars
; 581  : 	lpa[0] = '\0';

	mov	edx, DWORD PTR _lpa$[ebp]
	mov	BYTE PTR [edx], 0

; 582  : 	int ret = WideCharToMultiByte(acp, 0, lpw, -1, lpa, nChars, NULL, NULL);

	mov	esi, esp
	push	0
	push	0
	mov	eax, DWORD PTR _nChars$[ebp]
	push	eax
	mov	ecx, DWORD PTR _lpa$[ebp]
	push	ecx
	push	-1
	mov	edx, DWORD PTR _lpw$[ebp]
	push	edx
	push	0
	mov	eax, DWORD PTR _acp$[ebp]
	push	eax
	call	DWORD PTR __imp__WideCharToMultiByte@32
	cmp	esi, esp
	call	__RTC_CheckEsp
	mov	DWORD PTR _ret$[ebp], eax

; 583  : 	if(ret == 0)

	cmp	DWORD PTR _ret$[ebp], 0
	jne	SHORT $L75960

; 584  : 	{
; 585  : 		ATLASSERT(FALSE);

	xor	ecx, ecx
	jne	SHORT $L205843
	push	OFFSET FLAT:??_C@_01GBGANLPD@0?$AA@
	push	0
	push	585					; 00000249H
	push	OFFSET FLAT:??_C@_0FA@OHHMODBN@C?3?2Program?5Files?2Microsoft?5Visua@
	push	2
	call	__CrtDbgReport
	add	esp, 20					; 00000014H
	cmp	eax, 1
	jne	SHORT $L205843
	int	3
$L205843:

; 586  : 		return NULL;

	xor	eax, eax
	jmp	SHORT $L75954
$L75960:

; 587  : 	}
; 588  : 	return lpa;

	mov	eax, DWORD PTR _lpa$[ebp]
$L75954:

; 589  : }

	pop	esi
	add	esp, 4
	cmp	ebp, esp
	call	__RTC_CheckEsp
	mov	esp, ebp
	pop	ebp
	ret	16					; 00000010H
?AtlW2AHelper@@YGPADPADPBGHI@Z ENDP			; AtlW2AHelper
_TEXT	ENDS
PUBLIC	??BCTraceCategory@ATL@@QBEKXZ			; ATL::CTraceCategory::operator unsigned long
PUBLIC	??0CTraceFileAndLineInfo@ATL@@QAE@PBDH@Z	; ATL::CTraceFileAndLineInfo::CTraceFileAndLineInfo
PUBLIC	??RCTraceFileAndLineInfo@ATL@@QBAXKIPBDZZ	; ATL::CTraceFileAndLineInfo::operator()
PUBLIC	??0CAtlException@ATL@@QAE@J@Z			; ATL::CAtlException::CAtlException
PUBLIC	??_C@_0FC@CFIFHLCH@C?3?2Program?5Files?2Microsoft?5Visua@ ; `string'
PUBLIC	??_C@_0BF@IAAKIJDJ@AtlThrow?3?5hr?5?$DN?50x?$CFx?6?$AA@ ; `string'
PUBLIC	__TI1?AVCAtlException@ATL@@
PUBLIC	__CTA1?AVCAtlException@ATL@@
PUBLIC	??_R0?AVCAtlException@ATL@@@8			; ATL::CAtlException `RTTI Type Descriptor'
PUBLIC	__CT??_R0?AVCAtlException@ATL@@@84
EXTRN	__CxxThrowException@8:NEAR
EXTRN	?atlTraceException@ATL@@3VCTraceCategory@1@A:DWORD ; ATL::atlTraceException
EXTRN	??_7type_info@@6B@:DWORD			; type_info::`vftable'
;	COMDAT ??_C@_0BF@IAAKIJDJ@AtlThrow?3?5hr?5?$DN?50x?$CFx?6?$AA@
; File c:\program files\microsoft visual studio .net 2003\vc7\atlmfc\include\atlexcept.h
CONST	SEGMENT
??_C@_0BF@IAAKIJDJ@AtlThrow?3?5hr?5?$DN?50x?$CFx?6?$AA@ DB 'AtlThrow: hr '
	DB	'= 0x%x', 0aH, 00H				; `string'
CONST	ENDS
;	COMDAT ??_C@_0FC@CFIFHLCH@C?3?2Program?5Files?2Microsoft?5Visua@
CONST	SEGMENT
??_C@_0FC@CFIFHLCH@C?3?2Program?5Files?2Microsoft?5Visua@ DB 'C:\Program '
	DB	'Files\Microsoft Visual Studio .NET 2003\Vc7\atlmfc\include\at'
	DB	'lexcept.h', 00H				; `string'
CONST	ENDS
;	COMDAT __TI1?AVCAtlException@ATL@@
xdata$x	SEGMENT
__TI1?AVCAtlException@ATL@@ DD 00H
	DD	00H
	DD	00H
	DD	FLAT:__CTA1?AVCAtlException@ATL@@
xdata$x	ENDS
;	COMDAT __CTA1?AVCAtlException@ATL@@
xdata$x	SEGMENT
__CTA1?AVCAtlException@ATL@@ DD 01H
	DD	FLAT:__CT??_R0?AVCAtlException@ATL@@@84
xdata$x	ENDS
;	COMDAT __CT??_R0?AVCAtlException@ATL@@@84
xdata$x	SEGMENT
__CT??_R0?AVCAtlException@ATL@@@84 DD 00H
	DD	FLAT:??_R0?AVCAtlException@ATL@@@8
	DD	00H
	DD	0ffffffffH
	ORG $+4
	DD	04H
	DD	00H
xdata$x	ENDS
;	COMDAT ??_R0?AVCAtlException@ATL@@@8
_DATA	SEGMENT
??_R0?AVCAtlException@ATL@@@8 DD FLAT:??_7type_info@@6B@ ; ATL::CAtlException `RTTI Type Descriptor'
	DD	00H
	DB	'.?AVCAtlException@ATL@@', 00H
; Function compile flags: /Odt /RTCsu
_DATA	ENDS
;	COMDAT ?AtlThrow@ATL@@YGXJ@Z
_TEXT	SEGMENT
$T205848 = -16						; size = 4
$T205847 = -12						; size = 4
$T205846 = -8						; size = 8
_hr$ = 8						; size = 4
?AtlThrow@ATL@@YGXJ@Z PROC NEAR				; ATL::AtlThrow, COMDAT

; 61   : {

	push	ebp
	mov	ebp, esp
	sub	esp, 16					; 00000010H
	mov	eax, -858993460				; ccccccccH
	mov	DWORD PTR [ebp-16], eax
	mov	DWORD PTR [ebp-12], eax
	mov	DWORD PTR [ebp-8], eax
	mov	DWORD PTR [ebp-4], eax

; 62   : 	ATLTRACE(atlTraceException, 0, _T("AtlThrow: hr = 0x%x\n"), hr );

	mov	eax, DWORD PTR _hr$[ebp]
	push	eax
	push	OFFSET FLAT:??_C@_0BF@IAAKIJDJ@AtlThrow?3?5hr?5?$DN?50x?$CFx?6?$AA@
	push	0
	mov	ecx, OFFSET FLAT:?atlTraceException@ATL@@3VCTraceCategory@1@A ; ATL::atlTraceException
	call	??BCTraceCategory@ATL@@QBEKXZ		; ATL::CTraceCategory::operator unsigned long
	push	eax
	push	62					; 0000003eH
	push	OFFSET FLAT:??_C@_0FC@CFIFHLCH@C?3?2Program?5Files?2Microsoft?5Visua@
	lea	ecx, DWORD PTR $T205846[ebp]
	call	??0CTraceFileAndLineInfo@ATL@@QAE@PBDH@Z ; ATL::CTraceFileAndLineInfo::CTraceFileAndLineInfo
	push	eax
	call	??RCTraceFileAndLineInfo@ATL@@QBAXKIPBDZZ ; ATL::CTraceFileAndLineInfo::operator()
	add	esp, 20					; 00000014H

; 63   : #ifdef _AFX
; 64   : 	if( hr == E_OUTOFMEMORY )
; 65   : 	{
; 66   : 		AfxThrowMemoryException();
; 67   : 	}
; 68   : 	else
; 69   : 	{
; 70   : 		AfxThrowOleException( hr );
; 71   : 	}
; 72   : #else
; 73   : 	throw CAtlException( hr );

	mov	ecx, DWORD PTR _hr$[ebp]
	push	ecx
	lea	ecx, DWORD PTR $T205848[ebp]
	call	??0CAtlException@ATL@@QAE@J@Z		; ATL::CAtlException::CAtlException
	mov	edx, DWORD PTR [eax]
	mov	DWORD PTR $T205847[ebp], edx
	push	OFFSET FLAT:__TI1?AVCAtlException@ATL@@
	lea	eax, DWORD PTR $T205847[ebp]
	push	eax
	call	__CxxThrowException@8
$L205845:

; 74   : #endif
; 75   : };

	add	esp, 16					; 00000010H
	cmp	ebp, esp
	call	__RTC_CheckEsp
	mov	esp, ebp
	pop	ebp
	ret	4
?AtlThrow@ATL@@YGXJ@Z ENDP				; ATL::AtlThrow
; Function compile flags: /Odt /RTCsu
; File c:\program files\microsoft visual studio .net 2003\vc7\atlmfc\include\atltrace.h
_TEXT	ENDS
;	COMDAT ??0CTraceFileAndLineInfo@ATL@@QAE@PBDH@Z
_TEXT	SEGMENT
_this$ = -4						; size = 4
_pszFileName$ = 8					; size = 4
_nLineNo$ = 12						; size = 4
??0CTraceFileAndLineInfo@ATL@@QAE@PBDH@Z PROC NEAR	; ATL::CTraceFileAndLineInfo::CTraceFileAndLineInfo, COMDAT
; _this$ = ecx

; 158  : 	{}

	push	ebp
	mov	ebp, esp
	push	ecx
	mov	DWORD PTR [ebp-4], -858993460		; ccccccccH
	mov	DWORD PTR _this$[ebp], ecx
	mov	eax, DWORD PTR _this$[ebp]
	mov	ecx, DWORD PTR _pszFileName$[ebp]
	mov	DWORD PTR [eax], ecx
	mov	edx, DWORD PTR _this$[ebp]
	mov	eax, DWORD PTR _nLineNo$[ebp]
	mov	DWORD PTR [edx+4], eax
	mov	eax, DWORD PTR _this$[ebp]
	mov	esp, ebp
	pop	ebp
	ret	8
??0CTraceFileAndLineInfo@ATL@@QAE@PBDH@Z ENDP		; ATL::CTraceFileAndLineInfo::CTraceFileAndLineInfo
_TEXT	ENDS
PUBLIC	?TraceV@CTrace@ATL@@QBAXPBDHKI0PAD@Z		; ATL::CTrace::TraceV
EXTRN	?s_trace@CTrace@ATL@@2V12@A:QWORD		; ATL::CTrace::s_trace
; Function compile flags: /Odt /RTCsu
;	COMDAT ??RCTraceFileAndLineInfo@ATL@@QBAXKIPBDZZ
_TEXT	SEGMENT
_ptr$ = -4						; size = 4
_this$ = 8						; size = 4
_dwCategory$ = 12					; size = 4
_nLevel$ = 16						; size = 4
_pszFmt$ = 20						; size = 4
??RCTraceFileAndLineInfo@ATL@@QBAXKIPBDZZ PROC NEAR	; ATL::CTraceFileAndLineInfo::operator(), COMDAT

; 161  : 	{

	push	ebp
	mov	ebp, esp
	push	ecx
	mov	DWORD PTR [ebp-4], -858993460		; ccccccccH

; 162  : 		va_list ptr; va_start(ptr, pszFmt);

	lea	eax, DWORD PTR _pszFmt$[ebp+4]
	mov	DWORD PTR _ptr$[ebp], eax

; 163  : 		ATL::CTrace::s_trace.TraceV(m_pszFileName, m_nLineNo, dwCategory, nLevel, pszFmt, ptr);

	mov	ecx, DWORD PTR _ptr$[ebp]
	push	ecx
	mov	edx, DWORD PTR _pszFmt$[ebp]
	push	edx
	mov	eax, DWORD PTR _nLevel$[ebp]
	push	eax
	mov	ecx, DWORD PTR _dwCategory$[ebp]
	push	ecx
	mov	edx, DWORD PTR _this$[ebp]
	mov	eax, DWORD PTR [edx+4]
	push	eax
	mov	ecx, DWORD PTR _this$[ebp]
	mov	edx, DWORD PTR [ecx]
	push	edx
	push	OFFSET FLAT:?s_trace@CTrace@ATL@@2V12@A
	call	?TraceV@CTrace@ATL@@QBAXPBDHKI0PAD@Z	; ATL::CTrace::TraceV
	add	esp, 28					; 0000001cH

; 164  : 		va_end(ptr);

	mov	DWORD PTR _ptr$[ebp], 0

; 165  : 	}

	add	esp, 4
	cmp	ebp, esp
	call	__RTC_CheckEsp
	mov	esp, ebp
	pop	ebp
	ret	0
??RCTraceFileAndLineInfo@ATL@@QBAXKIPBDZZ ENDP		; ATL::CTraceFileAndLineInfo::operator()
_TEXT	ENDS
EXTRN	_AtlTraceVA:NEAR
; Function compile flags: /Odt /RTCsu
;	COMDAT ?TraceV@CTrace@ATL@@QBAXPBDHKI0PAD@Z
_TEXT	SEGMENT
_this$ = 8						; size = 4
_pszFileName$ = 12					; size = 4
_nLine$ = 16						; size = 4
_dwCategory$ = 20					; size = 4
_nLevel$ = 24						; size = 4
_pszFmt$ = 28						; size = 4
_args$ = 32						; size = 4
?TraceV@CTrace@ATL@@QBAXPBDHKI0PAD@Z PROC NEAR		; ATL::CTrace::TraceV, COMDAT

; 121  : 	{

	push	ebp
	mov	ebp, esp

; 122  : 		AtlTraceVA(m_dwModule, pszFileName, nLine, dwCategory, nLevel, pszFmt, args);

	mov	eax, DWORD PTR _args$[ebp]
	push	eax
	mov	ecx, DWORD PTR _pszFmt$[ebp]
	push	ecx
	mov	edx, DWORD PTR _nLevel$[ebp]
	push	edx
	mov	eax, DWORD PTR _dwCategory$[ebp]
	push	eax
	mov	ecx, DWORD PTR _nLine$[ebp]
	push	ecx
	mov	edx, DWORD PTR _pszFileName$[ebp]
	push	edx
	mov	eax, DWORD PTR _this$[ebp]
	mov	ecx, DWORD PTR [eax+4]
	push	ecx
	call	_AtlTraceVA
	add	esp, 28					; 0000001cH

; 123  : 	}

	cmp	ebp, esp
	call	__RTC_CheckEsp
	pop	ebp
	ret	0
?TraceV@CTrace@ATL@@QBAXPBDHKI0PAD@Z ENDP		; ATL::CTrace::TraceV
; Function compile flags: /Odt /RTCsu
_TEXT	ENDS
;	COMDAT ??BCTraceCategory@ATL@@QBEKXZ
_TEXT	SEGMENT
_this$ = -4						; size = 4
??BCTraceCategory@ATL@@QBEKXZ PROC NEAR			; ATL::CTraceCategory::operator unsigned long, COMDAT
; _this$ = ecx

; 202  : {

	push	ebp
	mov	ebp, esp
	push	ecx
	mov	DWORD PTR [ebp-4], -858993460		; ccccccccH
	mov	DWORD PTR _this$[ebp], ecx

; 203  : 	return( m_dwCategory );

	mov	eax, DWORD PTR _this$[ebp]
	mov	eax, DWORD PTR [eax]

; 204  : }

	mov	esp, ebp
	pop	ebp
	ret	0
??BCTraceCategory@ATL@@QBEKXZ ENDP			; ATL::CTraceCategory::operator unsigned long
; Function compile flags: /Odt /RTCsu
; File c:\program files\microsoft visual studio .net 2003\vc7\atlmfc\include\atlexcept.h
_TEXT	ENDS
;	COMDAT ??0CAtlException@ATL@@QAE@J@Z
_TEXT	SEGMENT
_this$ = -4						; size = 4
_hr$ = 8						; size = 4
??0CAtlException@ATL@@QAE@J@Z PROC NEAR			; ATL::CAtlException::CAtlException, COMDAT
; _this$ = ecx

; 40   : 	{

	push	ebp
	mov	ebp, esp
	push	ecx
	mov	DWORD PTR [ebp-4], -858993460		; ccccccccH
	mov	DWORD PTR _this$[ebp], ecx
	mov	eax, DWORD PTR _this$[ebp]
	mov	ecx, DWORD PTR _hr$[ebp]
	mov	DWORD PTR [eax], ecx

; 41   : 	}

	mov	eax, DWORD PTR _this$[ebp]
	mov	esp, ebp
	pop	ebp
	ret	4
??0CAtlException@ATL@@QAE@J@Z ENDP			; ATL::CAtlException::CAtlException
_TEXT	ENDS
PUBLIC	?GetStringTypeExWFake@ATL@@YGHKKPBGHPAG@Z	; ATL::GetStringTypeExWFake
EXTRN	__imp__GetStringTypeExW@20:NEAR
; Function compile flags: /Odt /RTCsu
; File c:\program files\microsoft visual studio .net 2003\vc7\atlmfc\include\cstringt.h
;	COMDAT ?GetStringTypeExWThunk@ATL@@YGHKKPBGHPAG@Z
_TEXT	SEGMENT
_lcid$ = 8						; size = 4
_dwInfoType$ = 12					; size = 4
_pszSrc$ = 16						; size = 4
_nLength$ = 20						; size = 4
_pwCharType$ = 24					; size = 4
?GetStringTypeExWThunk@ATL@@YGHKKPBGHPAG@Z PROC NEAR	; ATL::GetStringTypeExWThunk, COMDAT

; 240  : {

	push	ebp
	mov	ebp, esp
	push	esi

; 241  : 	_AtlInstallStringThunk(reinterpret_cast<void**>(&_strthunks.pfnGetStringTypeExW), GetStringTypeExWFake, ::GetStringTypeExW);

	mov	eax, DWORD PTR __imp__GetStringTypeExW@20
	push	eax
	push	OFFSET FLAT:?GetStringTypeExWFake@ATL@@YGHKKPBGHPAG@Z ; ATL::GetStringTypeExWFake
	push	OFFSET FLAT:?_strthunks@ATL@@3U_AtlStringThunks@1@A+4
	call	?_AtlInstallStringThunk@ATL@@YAXPAPAXPAX1@Z ; ATL::_AtlInstallStringThunk
	add	esp, 12					; 0000000cH

; 242  : 
; 243  : 	return _strthunks.pfnGetStringTypeExW(lcid, dwInfoType, pszSrc, nLength, pwCharType);

	mov	esi, esp
	mov	ecx, DWORD PTR _pwCharType$[ebp]
	push	ecx
	mov	edx, DWORD PTR _nLength$[ebp]
	push	edx
	mov	eax, DWORD PTR _pszSrc$[ebp]
	push	eax
	mov	ecx, DWORD PTR _dwInfoType$[ebp]
	push	ecx
	mov	edx, DWORD PTR _lcid$[ebp]
	push	edx
	call	DWORD PTR ?_strthunks@ATL@@3U_AtlStringThunks@1@A+4
	cmp	esi, esp
	call	__RTC_CheckEsp

; 244  : }

	pop	esi
	cmp	ebp, esp
	call	__RTC_CheckEsp
	pop	ebp
	ret	20					; 00000014H
?GetStringTypeExWThunk@ATL@@YGHKKPBGHPAG@Z ENDP		; ATL::GetStringTypeExWThunk
_TEXT	ENDS
EXTRN	__imp__GetStringTypeExA@20:NEAR
;	COMDAT xdata$x
xdata$x	SEGMENT
$T205874 DD	0ffffffffH
	DD	FLAT:$L205866
$T205868 DD	019930520H
	DD	01H
	DD	FLAT:$T205874
	DD	2 DUP(00H)
	DD	2 DUP(00H)
; Function compile flags: /Odt /RTCsu
xdata$x	ENDS
;	COMDAT ?GetStringTypeExWFake@ATL@@YGHKKPBGHPAG@Z
_TEXT	SEGMENT
$T205865 = -164						; size = 4
_pszA$ = -156						; size = 132
_nLengthA$ = -20					; size = 4
__$ArrayPad$ = -16					; size = 4
__$EHRec$ = -12						; size = 12
__$ReturnAddr$ = 4					; size = 4
_lcid$ = 8						; size = 4
_dwInfoType$ = 12					; size = 4
_pszSrc$ = 16						; size = 4
_nLength$ = 20						; size = 4
_pwCharType$ = 24					; size = 4
?GetStringTypeExWFake@ATL@@YGHKKPBGHPAG@Z PROC NEAR	; ATL::GetStringTypeExWFake, COMDAT

; 224  : {

	push	ebp
	mov	ebp, esp
	push	-1
	push	__ehhandler$?GetStringTypeExWFake@ATL@@YGHKKPBGHPAG@Z
	mov	eax, DWORD PTR fs:__except_list
	push	eax
	mov	DWORD PTR fs:__except_list, esp
	sub	esp, 152				; 00000098H
	push	esi
	push	edi
	lea	edi, DWORD PTR [ebp-164]
	mov	ecx, 38					; 00000026H
	mov	eax, -858993460				; ccccccccH
	rep stosd
	mov	eax, DWORD PTR ___security_cookie
	mov	DWORD PTR __$ArrayPad$[ebp], eax

; 225  : 	int nLengthA;
; 226  : 	CTempBuffer<char> pszA;

	lea	ecx, DWORD PTR _pszA$[ebp]
	call	??0?$CTempBuffer@D$0IA@VCCRTAllocator@ATL@@@ATL@@QAE@XZ ; ATL::CTempBuffer<char,128,ATL::CCRTAllocator>::CTempBuffer<char,128,ATL::CCRTAllocator>
	mov	DWORD PTR __$EHRec$[ebp+8], 0

; 227  : 
; 228  : 	nLengthA = ::WideCharToMultiByte(_AtlGetConversionACP(), 0, pszSrc, nLength, NULL, 0, NULL, NULL);

	mov	esi, esp
	push	0
	push	0
	push	0
	push	0
	mov	eax, DWORD PTR _nLength$[ebp]
	push	eax
	mov	ecx, DWORD PTR _pszSrc$[ebp]
	push	ecx
	push	0
	call	?_AtlGetConversionACP@ATL@@YGIXZ	; ATL::_AtlGetConversionACP
	push	eax
	call	DWORD PTR __imp__WideCharToMultiByte@32
	cmp	esi, esp
	call	__RTC_CheckEsp
	mov	DWORD PTR _nLengthA$[ebp], eax

; 229  : 	pszA.Allocate(nLengthA);

	mov	edx, DWORD PTR _nLengthA$[ebp]
	push	edx
	lea	ecx, DWORD PTR _pszA$[ebp]
	call	?Allocate@?$CTempBuffer@D$0IA@VCCRTAllocator@ATL@@@ATL@@QAEPADI@Z ; ATL::CTempBuffer<char,128,ATL::CCRTAllocator>::Allocate

; 230  : 	::WideCharToMultiByte(_AtlGetConversionACP(), 0, pszSrc, nLength, pszA, nLengthA, NULL, NULL);

	mov	esi, esp
	push	0
	push	0
	mov	eax, DWORD PTR _nLengthA$[ebp]
	push	eax
	lea	ecx, DWORD PTR _pszA$[ebp]
	call	??B?$CTempBuffer@D$0IA@VCCRTAllocator@ATL@@@ATL@@QBEPADXZ ; ATL::CTempBuffer<char,128,ATL::CCRTAllocator>::operator char *
	push	eax
	mov	ecx, DWORD PTR _nLength$[ebp]
	push	ecx
	mov	edx, DWORD PTR _pszSrc$[ebp]
	push	edx
	push	0
	call	?_AtlGetConversionACP@ATL@@YGIXZ	; ATL::_AtlGetConversionACP
	push	eax
	call	DWORD PTR __imp__WideCharToMultiByte@32
	cmp	esi, esp
	call	__RTC_CheckEsp

; 231  : 
; 232  : 	if (nLength == -1)

	cmp	DWORD PTR _nLength$[ebp], -1
	jne	SHORT $L195946

; 233  : 		nLengthA = -1;

	mov	DWORD PTR _nLengthA$[ebp], -1
$L195946:

; 234  : 
; 235  : 	return ::GetStringTypeExA(lcid, dwInfoType, pszA, nLengthA, pwCharType);

	mov	esi, esp
	mov	eax, DWORD PTR _pwCharType$[ebp]
	push	eax
	mov	ecx, DWORD PTR _nLengthA$[ebp]
	push	ecx
	lea	ecx, DWORD PTR _pszA$[ebp]
	call	??B?$CTempBuffer@D$0IA@VCCRTAllocator@ATL@@@ATL@@QBEPADXZ ; ATL::CTempBuffer<char,128,ATL::CCRTAllocator>::operator char *
	push	eax
	mov	edx, DWORD PTR _dwInfoType$[ebp]
	push	edx
	mov	eax, DWORD PTR _lcid$[ebp]
	push	eax
	call	DWORD PTR __imp__GetStringTypeExA@20
	cmp	esi, esp
	call	__RTC_CheckEsp
	mov	DWORD PTR $T205865[ebp], eax
	mov	DWORD PTR __$EHRec$[ebp+8], -1
	lea	ecx, DWORD PTR _pszA$[ebp]
	call	??1?$CTempBuffer@D$0IA@VCCRTAllocator@ATL@@@ATL@@QAE@XZ ; ATL::CTempBuffer<char,128,ATL::CCRTAllocator>::~CTempBuffer<char,128,ATL::CCRTAllocator>
	mov	eax, DWORD PTR $T205865[ebp]

; 236  : }

	push	edx
	mov	ecx, ebp
	push	eax
	lea	edx, DWORD PTR $L205873
	call	@_RTC_CheckStackVars@8
	pop	eax
	pop	edx
	mov	ecx, DWORD PTR __$EHRec$[ebp]
	mov	DWORD PTR fs:__except_list, ecx
	mov	ecx, DWORD PTR __$ArrayPad$[ebp]
	call	@__security_check_cookie@4
	pop	edi
	pop	esi
	add	esp, 164				; 000000a4H
	cmp	ebp, esp
	call	__RTC_CheckEsp
	mov	esp, ebp
	pop	ebp
	ret	20					; 00000014H
$L205873:
	DD	1
	DD	$L205872
$L205872:
	DD	-156					; ffffff64H
	DD	132					; 00000084H
	DD	$L205869
$L205869:
	DB	112					; 00000070H
	DB	115					; 00000073H
	DB	122					; 0000007aH
	DB	65					; 00000041H
	DB	0
_TEXT	ENDS
;	COMDAT text$x
text$x	SEGMENT
$L205866:
	lea	ecx, DWORD PTR _pszA$[ebp]
	jmp	??1?$CTempBuffer@D$0IA@VCCRTAllocator@ATL@@@ATL@@QAE@XZ ; ATL::CTempBuffer<char,128,ATL::CCRTAllocator>::~CTempBuffer<char,128,ATL::CCRTAllocator>
__ehhandler$?GetStringTypeExWFake@ATL@@YGHKKPBGHPAG@Z:
	mov	eax, OFFSET FLAT:$T205868
	jmp	___CxxFrameHandler
text$x	ENDS
?GetStringTypeExWFake@ATL@@YGHKKPBGHPAG@Z ENDP		; ATL::GetStringTypeExWFake
PUBLIC	?lstrcmpiWFake@ATL@@YGHPBG0@Z			; ATL::lstrcmpiWFake
EXTRN	__imp__lstrcmpiW@8:NEAR
; Function compile flags: /Odt /RTCsu
;	COMDAT ?lstrcmpiWThunk@ATL@@YGHPBG0@Z
_TEXT	SEGMENT
_psz1$ = 8						; size = 4
_psz2$ = 12						; size = 4
?lstrcmpiWThunk@ATL@@YGHPBG0@Z PROC NEAR		; ATL::lstrcmpiWThunk, COMDAT

; 254  : {

	push	ebp
	mov	ebp, esp
	push	esi

; 255  : 	_AtlInstallStringThunk(reinterpret_cast<void**>(&_strthunks.pfnlstrcmpiW), lstrcmpiWFake, ::lstrcmpiW);

	mov	eax, DWORD PTR __imp__lstrcmpiW@8
	push	eax
	push	OFFSET FLAT:?lstrcmpiWFake@ATL@@YGHPBG0@Z ; ATL::lstrcmpiWFake
	push	OFFSET FLAT:?_strthunks@ATL@@3U_AtlStringThunks@1@A+8
	call	?_AtlInstallStringThunk@ATL@@YAXPAPAXPAX1@Z ; ATL::_AtlInstallStringThunk
	add	esp, 12					; 0000000cH

; 256  : 
; 257  : 	return _strthunks.pfnlstrcmpiW(psz1, psz2);

	mov	esi, esp
	mov	ecx, DWORD PTR _psz2$[ebp]
	push	ecx
	mov	edx, DWORD PTR _psz1$[ebp]
	push	edx
	call	DWORD PTR ?_strthunks@ATL@@3U_AtlStringThunks@1@A+8
	cmp	esi, esp
	call	__RTC_CheckEsp

; 258  : }

	pop	esi
	cmp	ebp, esp
	call	__RTC_CheckEsp
	pop	ebp
	ret	8
?lstrcmpiWThunk@ATL@@YGHPBG0@Z ENDP			; ATL::lstrcmpiWThunk
_TEXT	ENDS
EXTRN	__imp__lstrcmpiA@8:NEAR
; Function compile flags: /Odt /RTCsu
;	COMDAT ?lstrcmpiWFake@ATL@@YGHPBG0@Z
_TEXT	SEGMENT
tv91 = -32						; size = 4
tv94 = -28						; size = 4
tv76 = -24						; size = 4
tv79 = -20						; size = 4
__lpa$ = -16						; size = 4
__lpw$ = -12						; size = 4
__acp$ = -8						; size = 4
__convert$ = -4						; size = 4
_psz1$ = 8						; size = 4
_psz2$ = 12						; size = 4
?lstrcmpiWFake@ATL@@YGHPBG0@Z PROC NEAR			; ATL::lstrcmpiWFake, COMDAT

; 247  : {

	push	ebp
	mov	ebp, esp
	sub	esp, 32					; 00000020H
	push	esi
	mov	eax, -858993460				; ccccccccH
	mov	DWORD PTR [ebp-32], eax
	mov	DWORD PTR [ebp-28], eax
	mov	DWORD PTR [ebp-24], eax
	mov	DWORD PTR [ebp-20], eax
	mov	DWORD PTR [ebp-16], eax
	mov	DWORD PTR [ebp-12], eax
	mov	DWORD PTR [ebp-8], eax
	mov	DWORD PTR [ebp-4], eax

; 248  : 	USES_CONVERSION;

	mov	DWORD PTR __convert$[ebp], 0
	call	?_AtlGetConversionACP@ATL@@YGIXZ	; ATL::_AtlGetConversionACP
	mov	DWORD PTR __acp$[ebp], eax
	mov	DWORD PTR __lpw$[ebp], 0
	mov	DWORD PTR __lpa$[ebp], 0

; 249  : 
; 250  : 	return ::lstrcmpiA(W2A(psz1), W2A(psz2));

	mov	eax, DWORD PTR _psz2$[ebp]
	mov	DWORD PTR __lpw$[ebp], eax
	cmp	DWORD PTR __lpw$[ebp], 0
	jne	SHORT $L205881
	mov	DWORD PTR tv79[ebp], 0
	jmp	SHORT $L205882
$L205881:
	mov	esi, esp
	mov	ecx, DWORD PTR __lpw$[ebp]
	push	ecx
	call	DWORD PTR __imp__lstrlenW@4
	cmp	esi, esp
	call	__RTC_CheckEsp
	lea	edx, DWORD PTR [eax+eax+2]
	mov	DWORD PTR __convert$[ebp], edx
	mov	eax, DWORD PTR __convert$[ebp]
	add	eax, 3
	and	eax, -4					; fffffffcH
	call	__alloca_probe
	mov	DWORD PTR tv76[ebp], esp
	mov	eax, DWORD PTR __acp$[ebp]
	push	eax
	mov	ecx, DWORD PTR __convert$[ebp]
	push	ecx
	mov	edx, DWORD PTR __lpw$[ebp]
	push	edx
	mov	eax, DWORD PTR tv76[ebp]
	push	eax
	call	?AtlW2AHelper@@YGPADPADPBGHI@Z		; AtlW2AHelper
	mov	DWORD PTR tv79[ebp], eax
$L205882:
	mov	ecx, DWORD PTR _psz1$[ebp]
	mov	DWORD PTR __lpw$[ebp], ecx
	cmp	DWORD PTR __lpw$[ebp], 0
	jne	SHORT $L205883
	mov	DWORD PTR tv94[ebp], 0
	jmp	SHORT $L205884
$L205883:
	mov	esi, esp
	mov	edx, DWORD PTR __lpw$[ebp]
	push	edx
	call	DWORD PTR __imp__lstrlenW@4
	cmp	esi, esp
	call	__RTC_CheckEsp
	lea	eax, DWORD PTR [eax+eax+2]
	mov	DWORD PTR __convert$[ebp], eax
	mov	eax, DWORD PTR __convert$[ebp]
	add	eax, 3
	and	eax, -4					; fffffffcH
	call	__alloca_probe
	mov	DWORD PTR tv91[ebp], esp
	mov	ecx, DWORD PTR __acp$[ebp]
	push	ecx
	mov	edx, DWORD PTR __convert$[ebp]
	push	edx
	mov	eax, DWORD PTR __lpw$[ebp]
	push	eax
	mov	ecx, DWORD PTR tv91[ebp]
	push	ecx
	call	?AtlW2AHelper@@YGPADPADPBGHI@Z		; AtlW2AHelper
	mov	DWORD PTR tv94[ebp], eax
$L205884:
	mov	esi, esp
	mov	edx, DWORD PTR tv79[ebp]
	push	edx
	mov	eax, DWORD PTR tv94[ebp]
	push	eax
	call	DWORD PTR __imp__lstrcmpiA@8
	cmp	esi, esp
	call	__RTC_CheckEsp

; 251  : }

	lea	esp, DWORD PTR [ebp-36]
	pop	esi
	mov	esp, ebp
	pop	ebp
	ret	8
?lstrcmpiWFake@ATL@@YGHPBG0@Z ENDP			; ATL::lstrcmpiWFake
_TEXT	ENDS
PUBLIC	?CharLowerWFake@ATL@@YGPAGPAG@Z			; ATL::CharLowerWFake
EXTRN	__imp__CharLowerW@4:NEAR
; Function compile flags: /Odt /RTCsu
;	COMDAT ?CharLowerWThunk@ATL@@YGPAGPAG@Z
_TEXT	SEGMENT
_psz$ = 8						; size = 4
?CharLowerWThunk@ATL@@YGPAGPAG@Z PROC NEAR		; ATL::CharLowerWThunk, COMDAT

; 273  : {

	push	ebp
	mov	ebp, esp
	push	esi

; 274  : 	_AtlInstallStringThunk(reinterpret_cast<void**>(&_strthunks.pfnCharLowerW), CharLowerWFake, ::CharLowerW);

	mov	eax, DWORD PTR __imp__CharLowerW@4
	push	eax
	push	OFFSET FLAT:?CharLowerWFake@ATL@@YGPAGPAG@Z ; ATL::CharLowerWFake
	push	OFFSET FLAT:?_strthunks@ATL@@3U_AtlStringThunks@1@A+12
	call	?_AtlInstallStringThunk@ATL@@YAXPAPAXPAX1@Z ; ATL::_AtlInstallStringThunk
	add	esp, 12					; 0000000cH

; 275  : 
; 276  : 	return _strthunks.pfnCharLowerW(psz);

	mov	esi, esp
	mov	ecx, DWORD PTR _psz$[ebp]
	push	ecx
	call	DWORD PTR ?_strthunks@ATL@@3U_AtlStringThunks@1@A+12
	cmp	esi, esp
	call	__RTC_CheckEsp

; 277  : }

	pop	esi
	cmp	ebp, esp
	call	__RTC_CheckEsp
	pop	ebp
	ret	4
?CharLowerWThunk@ATL@@YGPAGPAG@Z ENDP			; ATL::CharLowerWThunk
_TEXT	ENDS
PUBLIC	?AtlA2WHelper@@YGPAGPAGPBDHI@Z			; AtlA2WHelper
EXTRN	__imp__CharLowerA@4:NEAR
EXTRN	__imp__lstrlenA@4:NEAR
EXTRN	_wcscpy:NEAR
; Function compile flags: /Odt /RTCsu
;	COMDAT ?CharLowerWFake@ATL@@YGPAGPAG@Z
_TEXT	SEGMENT
tv90 = -36						; size = 4
tv94 = -32						; size = 4
tv75 = -28						; size = 4
tv78 = -24						; size = 4
_pszA$ = -20						; size = 4
__lpa$ = -16						; size = 4
__lpw$ = -12						; size = 4
__acp$ = -8						; size = 4
__convert$ = -4						; size = 4
_psz$ = 8						; size = 4
?CharLowerWFake@ATL@@YGPAGPAG@Z PROC NEAR		; ATL::CharLowerWFake, COMDAT

; 261  : {

	push	ebp
	mov	ebp, esp
	sub	esp, 36					; 00000024H
	push	esi
	mov	eax, -858993460				; ccccccccH
	mov	DWORD PTR [ebp-36], eax
	mov	DWORD PTR [ebp-32], eax
	mov	DWORD PTR [ebp-28], eax
	mov	DWORD PTR [ebp-24], eax
	mov	DWORD PTR [ebp-20], eax
	mov	DWORD PTR [ebp-16], eax
	mov	DWORD PTR [ebp-12], eax
	mov	DWORD PTR [ebp-8], eax
	mov	DWORD PTR [ebp-4], eax

; 262  : 	USES_CONVERSION;

	mov	DWORD PTR __convert$[ebp], 0
	call	?_AtlGetConversionACP@ATL@@YGIXZ	; ATL::_AtlGetConversionACP
	mov	DWORD PTR __acp$[ebp], eax
	mov	DWORD PTR __lpw$[ebp], 0
	mov	DWORD PTR __lpa$[ebp], 0

; 263  : 	LPSTR pszA;
; 264  : 
; 265  : 	pszA = W2A(psz);

	mov	eax, DWORD PTR _psz$[ebp]
	mov	DWORD PTR __lpw$[ebp], eax
	cmp	DWORD PTR __lpw$[ebp], 0
	jne	SHORT $L205889
	mov	DWORD PTR tv78[ebp], 0
	jmp	SHORT $L205890
$L205889:
	mov	esi, esp
	mov	ecx, DWORD PTR __lpw$[ebp]
	push	ecx
	call	DWORD PTR __imp__lstrlenW@4
	cmp	esi, esp
	call	__RTC_CheckEsp
	lea	edx, DWORD PTR [eax+eax+2]
	mov	DWORD PTR __convert$[ebp], edx
	mov	eax, DWORD PTR __convert$[ebp]
	add	eax, 3
	and	eax, -4					; fffffffcH
	call	__alloca_probe
	mov	DWORD PTR tv75[ebp], esp
	mov	eax, DWORD PTR __acp$[ebp]
	push	eax
	mov	ecx, DWORD PTR __convert$[ebp]
	push	ecx
	mov	edx, DWORD PTR __lpw$[ebp]
	push	edx
	mov	eax, DWORD PTR tv75[ebp]
	push	eax
	call	?AtlW2AHelper@@YGPADPADPBGHI@Z		; AtlW2AHelper
	mov	DWORD PTR tv78[ebp], eax
$L205890:
	mov	ecx, DWORD PTR tv78[ebp]
	mov	DWORD PTR _pszA$[ebp], ecx

; 266  : 	::CharLowerA(pszA);

	mov	esi, esp
	mov	edx, DWORD PTR _pszA$[ebp]
	push	edx
	call	DWORD PTR __imp__CharLowerA@4
	cmp	esi, esp
	call	__RTC_CheckEsp

; 267  : 	wcscpy(psz, A2W(pszA));

	mov	eax, DWORD PTR _pszA$[ebp]
	mov	DWORD PTR __lpa$[ebp], eax
	cmp	DWORD PTR __lpa$[ebp], 0
	jne	SHORT $L205891
	mov	DWORD PTR tv94[ebp], 0
	jmp	SHORT $L205892
$L205891:
	mov	esi, esp
	mov	ecx, DWORD PTR __lpa$[ebp]
	push	ecx
	call	DWORD PTR __imp__lstrlenA@4
	cmp	esi, esp
	call	__RTC_CheckEsp
	add	eax, 1
	mov	DWORD PTR __convert$[ebp], eax
	mov	eax, DWORD PTR __convert$[ebp]
	shl	eax, 1
	add	eax, 3
	and	eax, -4					; fffffffcH
	call	__alloca_probe
	mov	DWORD PTR tv90[ebp], esp
	mov	edx, DWORD PTR __acp$[ebp]
	push	edx
	mov	eax, DWORD PTR __convert$[ebp]
	push	eax
	mov	ecx, DWORD PTR __lpa$[ebp]
	push	ecx
	mov	edx, DWORD PTR tv90[ebp]
	push	edx
	call	?AtlA2WHelper@@YGPAGPAGPBDHI@Z		; AtlA2WHelper
	mov	DWORD PTR tv94[ebp], eax
$L205892:
	mov	eax, DWORD PTR tv94[ebp]
	push	eax
	mov	ecx, DWORD PTR _psz$[ebp]
	push	ecx
	call	_wcscpy
	add	esp, 8

; 268  : 
; 269  : 	return psz;

	mov	eax, DWORD PTR _psz$[ebp]

; 270  : }

	lea	esp, DWORD PTR [ebp-40]
	pop	esi
	mov	esp, ebp
	pop	ebp
	ret	4
?CharLowerWFake@ATL@@YGPAGPAG@Z ENDP			; ATL::CharLowerWFake
; Function compile flags: /Odt /RTCsu
; File c:\program files\microsoft visual studio .net 2003\vc7\atlmfc\include\atlconv.h
_TEXT	ENDS
;	COMDAT ?AtlA2WHelper@@YGPAGPAGPBDHI@Z
_TEXT	SEGMENT
_ret$ = -4						; size = 4
_lpw$ = 8						; size = 4
_lpa$ = 12						; size = 4
_nChars$ = 16						; size = 4
_acp$ = 20						; size = 4
?AtlA2WHelper@@YGPAGPAGPBDHI@Z PROC NEAR		; AtlA2WHelper, COMDAT

; 554  : {

	push	ebp
	mov	ebp, esp
	push	ecx
	push	esi
	mov	DWORD PTR [ebp-4], -858993460		; ccccccccH

; 555  : 	ATLASSERT(lpa != NULL);

	cmp	DWORD PTR _lpa$[ebp], 0
	jne	SHORT $L205895
	push	OFFSET FLAT:??_C@_08DMHHBMMN@lpa?5?$CB?$DN?50?$AA@
	push	0
	push	555					; 0000022bH
	push	OFFSET FLAT:??_C@_0FA@OHHMODBN@C?3?2Program?5Files?2Microsoft?5Visua@
	push	2
	call	__CrtDbgReport
	add	esp, 20					; 00000014H
	cmp	eax, 1
	jne	SHORT $L205895
	int	3
$L205895:

; 556  : 	ATLASSERT(lpw != NULL);

	cmp	DWORD PTR _lpw$[ebp], 0
	jne	SHORT $L205896
	push	OFFSET FLAT:??_C@_08DIHJLFDJ@lpw?5?$CB?$DN?50?$AA@
	push	0
	push	556					; 0000022cH
	push	OFFSET FLAT:??_C@_0FA@OHHMODBN@C?3?2Program?5Files?2Microsoft?5Visua@
	push	2
	call	__CrtDbgReport
	add	esp, 20					; 00000014H
	cmp	eax, 1
	jne	SHORT $L205896
	int	3
$L205896:

; 557  : 	if (lpw == NULL || lpa == NULL)

	cmp	DWORD PTR _lpw$[ebp], 0
	je	SHORT $L75944
	cmp	DWORD PTR _lpa$[ebp], 0
	jne	SHORT $L75943
$L75944:

; 558  : 		return NULL;

	xor	eax, eax
	jmp	SHORT $L75937
$L75943:

; 559  : 	// verify that no illegal character present
; 560  : 	// since lpw was allocated based on the size of lpa
; 561  : 	// don't worry about the number of chars
; 562  : 	lpw[0] = '\0';

	mov	edx, DWORD PTR _lpw$[ebp]
	mov	WORD PTR [edx], 0

; 563  : 	int ret = MultiByteToWideChar(acp, 0, lpa, -1, lpw, nChars);

	mov	esi, esp
	mov	eax, DWORD PTR _nChars$[ebp]
	push	eax
	mov	ecx, DWORD PTR _lpw$[ebp]
	push	ecx
	push	-1
	mov	edx, DWORD PTR _lpa$[ebp]
	push	edx
	push	0
	mov	eax, DWORD PTR _acp$[ebp]
	push	eax
	call	DWORD PTR __imp__MultiByteToWideChar@24
	cmp	esi, esp
	call	__RTC_CheckEsp
	mov	DWORD PTR _ret$[ebp], eax

; 564  : 	if(ret == 0)

	cmp	DWORD PTR _ret$[ebp], 0
	jne	SHORT $L75946

; 565  : 	{
; 566  : 		ATLASSERT(FALSE);

	xor	ecx, ecx
	jne	SHORT $L205897
	push	OFFSET FLAT:??_C@_01GBGANLPD@0?$AA@
	push	0
	push	566					; 00000236H
	push	OFFSET FLAT:??_C@_0FA@OHHMODBN@C?3?2Program?5Files?2Microsoft?5Visua@
	push	2
	call	__CrtDbgReport
	add	esp, 20					; 00000014H
	cmp	eax, 1
	jne	SHORT $L205897
	int	3
$L205897:

; 567  : 		return NULL;

	xor	eax, eax
	jmp	SHORT $L75937
$L75946:

; 568  : 	}		
; 569  : 	return lpw;

	mov	eax, DWORD PTR _lpw$[ebp]
$L75937:

; 570  : }

	pop	esi
	add	esp, 4
	cmp	ebp, esp
	call	__RTC_CheckEsp
	mov	esp, ebp
	pop	ebp
	ret	16					; 00000010H
?AtlA2WHelper@@YGPAGPAGPBDHI@Z ENDP			; AtlA2WHelper
_TEXT	ENDS
PUBLIC	?CharUpperWFake@ATL@@YGPAGPAG@Z			; ATL::CharUpperWFake
EXTRN	__imp__CharUpperW@4:NEAR
; Function compile flags: /Odt /RTCsu
; File c:\program files\microsoft visual studio .net 2003\vc7\atlmfc\include\cstringt.h
;	COMDAT ?CharUpperWThunk@ATL@@YGPAGPAG@Z
_TEXT	SEGMENT
_psz$ = 8						; size = 4
?CharUpperWThunk@ATL@@YGPAGPAG@Z PROC NEAR		; ATL::CharUpperWThunk, COMDAT

; 292  : {

	push	ebp
	mov	ebp, esp
	push	esi

; 293  : 	_AtlInstallStringThunk(reinterpret_cast<void**>(&_strthunks.pfnCharUpperW), CharUpperWFake, ::CharUpperW);

	mov	eax, DWORD PTR __imp__CharUpperW@4
	push	eax
	push	OFFSET FLAT:?CharUpperWFake@ATL@@YGPAGPAG@Z ; ATL::CharUpperWFake
	push	OFFSET FLAT:?_strthunks@ATL@@3U_AtlStringThunks@1@A+16
	call	?_AtlInstallStringThunk@ATL@@YAXPAPAXPAX1@Z ; ATL::_AtlInstallStringThunk
	add	esp, 12					; 0000000cH

; 294  : 
; 295  : 	return _strthunks.pfnCharUpperW(psz);

	mov	esi, esp
	mov	ecx, DWORD PTR _psz$[ebp]
	push	ecx
	call	DWORD PTR ?_strthunks@ATL@@3U_AtlStringThunks@1@A+16
	cmp	esi, esp
	call	__RTC_CheckEsp

; 296  : }

	pop	esi
	cmp	ebp, esp
	call	__RTC_CheckEsp
	pop	ebp
	ret	4
?CharUpperWThunk@ATL@@YGPAGPAG@Z ENDP			; ATL::CharUpperWThunk
_TEXT	ENDS
EXTRN	__imp__CharUpperA@4:NEAR
; Function compile flags: /Odt /RTCsu
;	COMDAT ?CharUpperWFake@ATL@@YGPAGPAG@Z
_TEXT	SEGMENT
tv90 = -36						; size = 4
tv94 = -32						; size = 4
tv75 = -28						; size = 4
tv78 = -24						; size = 4
_pszA$ = -20						; size = 4
__lpa$ = -16						; size = 4
__lpw$ = -12						; size = 4
__acp$ = -8						; size = 4
__convert$ = -4						; size = 4
_psz$ = 8						; size = 4
?CharUpperWFake@ATL@@YGPAGPAG@Z PROC NEAR		; ATL::CharUpperWFake, COMDAT

; 280  : {

	push	ebp
	mov	ebp, esp
	sub	esp, 36					; 00000024H
	push	esi
	mov	eax, -858993460				; ccccccccH
	mov	DWORD PTR [ebp-36], eax
	mov	DWORD PTR [ebp-32], eax
	mov	DWORD PTR [ebp-28], eax
	mov	DWORD PTR [ebp-24], eax
	mov	DWORD PTR [ebp-20], eax
	mov	DWORD PTR [ebp-16], eax
	mov	DWORD PTR [ebp-12], eax
	mov	DWORD PTR [ebp-8], eax
	mov	DWORD PTR [ebp-4], eax

; 281  : 	USES_CONVERSION;

	mov	DWORD PTR __convert$[ebp], 0
	call	?_AtlGetConversionACP@ATL@@YGIXZ	; ATL::_AtlGetConversionACP
	mov	DWORD PTR __acp$[ebp], eax
	mov	DWORD PTR __lpw$[ebp], 0
	mov	DWORD PTR __lpa$[ebp], 0

; 282  : 	LPSTR pszA;
; 283  : 
; 284  : 	pszA = W2A(psz);

	mov	eax, DWORD PTR _psz$[ebp]
	mov	DWORD PTR __lpw$[ebp], eax
	cmp	DWORD PTR __lpw$[ebp], 0
	jne	SHORT $L205902
	mov	DWORD PTR tv78[ebp], 0
	jmp	SHORT $L205903
$L205902:
	mov	esi, esp
	mov	ecx, DWORD PTR __lpw$[ebp]
	push	ecx
	call	DWORD PTR __imp__lstrlenW@4
	cmp	esi, esp
	call	__RTC_CheckEsp
	lea	edx, DWORD PTR [eax+eax+2]
	mov	DWORD PTR __convert$[ebp], edx
	mov	eax, DWORD PTR __convert$[ebp]
	add	eax, 3
	and	eax, -4					; fffffffcH
	call	__alloca_probe
	mov	DWORD PTR tv75[ebp], esp
	mov	eax, DWORD PTR __acp$[ebp]
	push	eax
	mov	ecx, DWORD PTR __convert$[ebp]
	push	ecx
	mov	edx, DWORD PTR __lpw$[ebp]
	push	edx
	mov	eax, DWORD PTR tv75[ebp]
	push	eax
	call	?AtlW2AHelper@@YGPADPADPBGHI@Z		; AtlW2AHelper
	mov	DWORD PTR tv78[ebp], eax
$L205903:
	mov	ecx, DWORD PTR tv78[ebp]
	mov	DWORD PTR _pszA$[ebp], ecx

; 285  : 	::CharUpperA(pszA);

	mov	esi, esp
	mov	edx, DWORD PTR _pszA$[ebp]
	push	edx
	call	DWORD PTR __imp__CharUpperA@4
	cmp	esi, esp
	call	__RTC_CheckEsp

; 286  : 	wcscpy(psz, A2W(pszA));

	mov	eax, DWORD PTR _pszA$[ebp]
	mov	DWORD PTR __lpa$[ebp], eax
	cmp	DWORD PTR __lpa$[ebp], 0
	jne	SHORT $L205904
	mov	DWORD PTR tv94[ebp], 0
	jmp	SHORT $L205905
$L205904:
	mov	esi, esp
	mov	ecx, DWORD PTR __lpa$[ebp]
	push	ecx
	call	DWORD PTR __imp__lstrlenA@4
	cmp	esi, esp
	call	__RTC_CheckEsp
	add	eax, 1
	mov	DWORD PTR __convert$[ebp], eax
	mov	eax, DWORD PTR __convert$[ebp]
	shl	eax, 1
	add	eax, 3
	and	eax, -4					; fffffffcH
	call	__alloca_probe
	mov	DWORD PTR tv90[ebp], esp
	mov	edx, DWORD PTR __acp$[ebp]
	push	edx
	mov	eax, DWORD PTR __convert$[ebp]
	push	eax
	mov	ecx, DWORD PTR __lpa$[ebp]
	push	ecx
	mov	edx, DWORD PTR tv90[ebp]
	push	edx
	call	?AtlA2WHelper@@YGPAGPAGPBDHI@Z		; AtlA2WHelper
	mov	DWORD PTR tv94[ebp], eax
$L205905:
	mov	eax, DWORD PTR tv94[ebp]
	push	eax
	mov	ecx, DWORD PTR _psz$[ebp]
	push	ecx
	call	_wcscpy
	add	esp, 8

; 287  : 
; 288  : 	return psz;

	mov	eax, DWORD PTR _psz$[ebp]

; 289  : }

	lea	esp, DWORD PTR [ebp-40]
	pop	esi
	mov	esp, ebp
	pop	ebp
	ret	4
?CharUpperWFake@ATL@@YGPAGPAG@Z ENDP			; ATL::CharUpperWFake
_TEXT	ENDS
PUBLIC	?UpdateRegistryFromResourceD@CComModule@ATL@@UAGJIHPAU_ATL_REGMAP_ENTRY@2@@Z ; ATL::CComModule::UpdateRegistryFromResourceD
EXTRN	?RegEntries@CSignature@@2PAU_ATL_REGMAP_ENTRY@ATL@@A:BYTE ; CSignature::RegEntries
; Function compile flags: /Odt /RTCsu
; File c:\activex\xmlsign\signature.h
;	COMDAT ?UpdateRegistry@CSignature@@SGJH@Z
_TEXT	SEGMENT
_bRegister$ = 8						; size = 4
?UpdateRegistry@CSignature@@SGJH@Z PROC NEAR		; CSignature::UpdateRegistry, COMDAT

; 449  : 	{

	push	ebp
	mov	ebp, esp

; 450  : 		return _Module.UpdateRegistryFromResource(IDR_SIGNATURE, bRegister, RegEntries);

	push	OFFSET FLAT:?RegEntries@CSignature@@2PAU_ATL_REGMAP_ENTRY@ATL@@A ; CSignature::RegEntries
	mov	eax, DWORD PTR _bRegister$[ebp]
	push	eax
	push	101					; 00000065H
	push	OFFSET FLAT:?_Module@@3VCComModule@ATL@@A
	call	?UpdateRegistryFromResourceD@CComModule@ATL@@UAGJIHPAU_ATL_REGMAP_ENTRY@2@@Z ; ATL::CComModule::UpdateRegistryFromResourceD

; 451  : 	}

	cmp	ebp, esp
	call	__RTC_CheckEsp
	pop	ebp
	ret	4
?UpdateRegistry@CSignature@@SGJH@Z ENDP			; CSignature::UpdateRegistry
_TEXT	ENDS
PUBLIC	?UpdateRegistryFromResourceD@CAtlModule@ATL@@QAGJIHPAU_ATL_REGMAP_ENTRY@2@@Z ; ATL::CAtlModule::UpdateRegistryFromResourceD
; Function compile flags: /Odt /RTCsu
; File c:\program files\microsoft visual studio .net 2003\vc7\atlmfc\include\atlbase.h
;	COMDAT ?UpdateRegistryFromResourceD@CComModule@ATL@@UAGJIHPAU_ATL_REGMAP_ENTRY@2@@Z
_TEXT	SEGMENT
_this$ = 8						; size = 4
_nResID$ = 12						; size = 4
_bRegister$ = 16					; size = 4
_pMapEntries$ = 20					; size = 4
?UpdateRegistryFromResourceD@CComModule@ATL@@UAGJIHPAU_ATL_REGMAP_ENTRY@2@@Z PROC NEAR ; ATL::CComModule::UpdateRegistryFromResourceD, COMDAT

; 4118 : 	{

	push	ebp
	mov	ebp, esp

; 4119 : #if defined(_ATL_STATIC_REGISTRY)
; 4120 : 		(nResID);
; 4121 : 		(bRegister);
; 4122 : 		(pMapEntries);
; 4123 : 		return E_FAIL;
; 4124 : #else
; 4125 : 		return CAtlModuleT<CComModule>::UpdateRegistryFromResourceD(nResID, bRegister, pMapEntries);

	mov	eax, DWORD PTR _pMapEntries$[ebp]
	push	eax
	mov	ecx, DWORD PTR _bRegister$[ebp]
	push	ecx
	mov	edx, DWORD PTR _nResID$[ebp]
	push	edx
	mov	eax, DWORD PTR _this$[ebp]
	push	eax
	call	?UpdateRegistryFromResourceD@CAtlModule@ATL@@QAGJIHPAU_ATL_REGMAP_ENTRY@2@@Z ; ATL::CAtlModule::UpdateRegistryFromResourceD

; 4126 : #endif
; 4127 : 	}

	cmp	ebp, esp
	call	__RTC_CheckEsp
	pop	ebp
	ret	16					; 00000010H
?UpdateRegistryFromResourceD@CComModule@ATL@@UAGJIHPAU_ATL_REGMAP_ENTRY@2@@Z ENDP ; ATL::CComModule::UpdateRegistryFromResourceD
_TEXT	ENDS
PUBLIC	?UpdateRegistryFromResourceDHelper@CAtlModule@ATL@@QAGJPBGHPAU_ATL_REGMAP_ENTRY@2@@Z ; ATL::CAtlModule::UpdateRegistryFromResourceDHelper
; Function compile flags: /Odt /RTCsu
;	COMDAT ?UpdateRegistryFromResourceD@CAtlModule@ATL@@QAGJIHPAU_ATL_REGMAP_ENTRY@2@@Z
_TEXT	SEGMENT
_this$ = 8						; size = 4
_nResID$ = 12						; size = 4
_bRegister$ = 16					; size = 4
_pMapEntries$ = 20					; size = 4
?UpdateRegistryFromResourceD@CAtlModule@ATL@@QAGJIHPAU_ATL_REGMAP_ENTRY@2@@Z PROC NEAR ; ATL::CAtlModule::UpdateRegistryFromResourceD, COMDAT

; 2730 : 	{

	push	ebp
	mov	ebp, esp

; 2731 : 		return UpdateRegistryFromResourceDHelper((LPCOLESTR)MAKEINTRESOURCE(nResID), bRegister, pMapEntries);

	mov	eax, DWORD PTR _pMapEntries$[ebp]
	push	eax
	mov	ecx, DWORD PTR _bRegister$[ebp]
	push	ecx
	movzx	edx, WORD PTR _nResID$[ebp]
	push	edx
	mov	eax, DWORD PTR _this$[ebp]
	push	eax
	call	?UpdateRegistryFromResourceDHelper@CAtlModule@ATL@@QAGJPBGHPAU_ATL_REGMAP_ENTRY@2@@Z ; ATL::CAtlModule::UpdateRegistryFromResourceDHelper

; 2732 : 	}

	cmp	ebp, esp
	call	__RTC_CheckEsp
	pop	ebp
	ret	16					; 00000010H
?UpdateRegistryFromResourceD@CAtlModule@ATL@@QAGJIHPAU_ATL_REGMAP_ENTRY@2@@Z ENDP ; ATL::CAtlModule::UpdateRegistryFromResourceD
_TEXT	ENDS
PUBLIC	??B?$CComPtrBase@UIRegistrar@@@ATL@@QBEPAUIRegistrar@@XZ ; ATL::CComPtrBase<IRegistrar>::operator IRegistrar *
PUBLIC	??I?$CComPtrBase@UIRegistrar@@@ATL@@QAEPAPAUIRegistrar@@XZ ; ATL::CComPtrBase<IRegistrar>::operator&
PUBLIC	??C?$CComPtrBase@UIRegistrar@@@ATL@@QBEPAV?$_NoAddRefReleaseOnCComPtr@UIRegistrar@@@1@XZ ; ATL::CComPtrBase<IRegistrar>::operator->
PUBLIC	??0?$CComPtr@UIRegistrar@@@ATL@@QAE@XZ		; ATL::CComPtr<IRegistrar>::CComPtr<IRegistrar>
PUBLIC	??1?$CComPtr@UIRegistrar@@@ATL@@QAE@XZ		; ATL::CComPtr<IRegistrar>::~CComPtr<IRegistrar>
PUBLIC	??_C@_0BJ@MKNPNODP@0?5?$CB?$DN?5pMapEntries?9?$DOszData?$AA@ ; `string'
PUBLIC	??_C@_0FA@KBNNCCJL@C?3?2Program?5Files?2Microsoft?5Visua@ ; `string'
PUBLIC	?GetModuleInstance@CAtlBaseModule@ATL@@QAEPAUHINSTANCE__@@XZ ; ATL::CAtlBaseModule::GetModuleInstance
EXTRN	?_AtlBaseModule@ATL@@3VCAtlBaseModule@1@A:BYTE	; ATL::_AtlBaseModule
EXTRN	__imp__AtlUpdateRegistryFromResourceD@20:NEAR
EXTRN	__imp__AtlCreateRegistrar@4:NEAR
;	COMDAT ??_C@_0BJ@MKNPNODP@0?5?$CB?$DN?5pMapEntries?9?$DOszData?$AA@
CONST	SEGMENT
??_C@_0BJ@MKNPNODP@0?5?$CB?$DN?5pMapEntries?9?$DOszData?$AA@ DB '0 != pMa'
	DB	'pEntries->szData', 00H			; `string'
CONST	ENDS
;	COMDAT ??_C@_0FA@KBNNCCJL@C?3?2Program?5Files?2Microsoft?5Visua@
CONST	SEGMENT
??_C@_0FA@KBNNCCJL@C?3?2Program?5Files?2Microsoft?5Visua@ DB 'C:\Program '
	DB	'Files\Microsoft Visual Studio .NET 2003\Vc7\atlmfc\include\at'
	DB	'lbase.h', 00H				; `string'
; Function compile flags: /Odt /RTCsu
CONST	ENDS
;	COMDAT ?UpdateRegistryFromResourceDHelper@CAtlModule@ATL@@QAGJPBGHPAU_ATL_REGMAP_ENTRY@2@@Z
_TEXT	SEGMENT
tv87 = -32						; size = 4
$T205917 = -28						; size = 4
$T205916 = -24						; size = 4
$T205914 = -20						; size = 4
_hr$ = -16						; size = 4
_spRegistrar$ = -8					; size = 4
_this$ = 8						; size = 4
_lpszRes$ = 12						; size = 4
_bRegister$ = 16					; size = 4
_pMapEntries$ = 20					; size = 4
?UpdateRegistryFromResourceDHelper@CAtlModule@ATL@@QAGJPBGHPAU_ATL_REGMAP_ENTRY@2@@Z PROC NEAR ; ATL::CAtlModule::UpdateRegistryFromResourceDHelper, COMDAT

; 2739 : 	{

	push	ebp
	mov	ebp, esp
	sub	esp, 32					; 00000020H
	push	esi
	mov	eax, -858993460				; ccccccccH
	mov	DWORD PTR [ebp-32], eax
	mov	DWORD PTR [ebp-28], eax
	mov	DWORD PTR [ebp-24], eax
	mov	DWORD PTR [ebp-20], eax
	mov	DWORD PTR [ebp-16], eax
	mov	DWORD PTR [ebp-12], eax
	mov	DWORD PTR [ebp-8], eax
	mov	DWORD PTR [ebp-4], eax

; 2740 : 		CComPtr<IRegistrar> spRegistrar;

	lea	ecx, DWORD PTR _spRegistrar$[ebp]
	call	??0?$CComPtr@UIRegistrar@@@ATL@@QAE@XZ	; ATL::CComPtr<IRegistrar>::CComPtr<IRegistrar>

; 2741 : 		HRESULT hr = AtlCreateRegistrar(&spRegistrar);

	lea	ecx, DWORD PTR _spRegistrar$[ebp]
	call	??I?$CComPtrBase@UIRegistrar@@@ATL@@QAEPAPAUIRegistrar@@XZ ; ATL::CComPtrBase<IRegistrar>::operator&
	mov	esi, esp
	push	eax
	call	DWORD PTR __imp__AtlCreateRegistrar@4
	cmp	esi, esp
	call	__RTC_CheckEsp
	mov	DWORD PTR _hr$[ebp], eax

; 2742 : 		if (FAILED(hr))

	cmp	DWORD PTR _hr$[ebp], 0
	jge	SHORT $L88304

; 2743 : 			return hr;

	mov	eax, DWORD PTR _hr$[ebp]
	mov	DWORD PTR $T205914[ebp], eax
	lea	ecx, DWORD PTR _spRegistrar$[ebp]
	call	??1?$CComPtr@UIRegistrar@@@ATL@@QAE@XZ
	mov	eax, DWORD PTR $T205914[ebp]
	jmp	$L88226
$L88304:

; 2744 : 
; 2745 : 		if (NULL != pMapEntries)

	cmp	DWORD PTR _pMapEntries$[ebp], 0
	je	SHORT $L88306
$L88308:

; 2746 : 		{
; 2747 : 			while (NULL != pMapEntries->szKey)

	mov	ecx, DWORD PTR _pMapEntries$[ebp]
	cmp	DWORD PTR [ecx], 0
	je	SHORT $L88306

; 2748 : 			{
; 2749 : 				ATLASSERT(NULL != pMapEntries->szData);

	mov	edx, DWORD PTR _pMapEntries$[ebp]
	cmp	DWORD PTR [edx+4], 0
	jne	SHORT $L205915
	push	OFFSET FLAT:??_C@_0BJ@MKNPNODP@0?5?$CB?$DN?5pMapEntries?9?$DOszData?$AA@
	push	0
	push	2749					; 00000abdH
	push	OFFSET FLAT:??_C@_0FA@KBNNCCJL@C?3?2Program?5Files?2Microsoft?5Visua@
	push	2
	call	__CrtDbgReport
	add	esp, 20					; 00000014H
	cmp	eax, 1
	jne	SHORT $L205915
	int	3
$L205915:

; 2750 : 				spRegistrar->AddReplacement(pMapEntries->szKey, pMapEntries->szData);

	lea	ecx, DWORD PTR _spRegistrar$[ebp]
	call	??C?$CComPtrBase@UIRegistrar@@@ATL@@QBEPAV?$_NoAddRefReleaseOnCComPtr@UIRegistrar@@@1@XZ ; ATL::CComPtrBase<IRegistrar>::operator->
	mov	DWORD PTR tv87[ebp], eax
	mov	esi, esp
	mov	ecx, DWORD PTR _pMapEntries$[ebp]
	mov	edx, DWORD PTR [ecx+4]
	push	edx
	mov	eax, DWORD PTR _pMapEntries$[ebp]
	mov	ecx, DWORD PTR [eax]
	push	ecx
	mov	edx, DWORD PTR tv87[ebp]
	push	edx
	mov	eax, DWORD PTR tv87[ebp]
	mov	ecx, DWORD PTR [eax]
	call	DWORD PTR [ecx+12]
	cmp	esi, esp
	call	__RTC_CheckEsp

; 2751 : 				pMapEntries++;

	mov	edx, DWORD PTR _pMapEntries$[ebp]
	add	edx, 8
	mov	DWORD PTR _pMapEntries$[ebp], edx

; 2752 : 			}

	jmp	SHORT $L88308
$L88306:

; 2753 : 		}
; 2754 : 
; 2755 : 		hr = AddCommonRGSReplacements(spRegistrar);

	lea	ecx, DWORD PTR _spRegistrar$[ebp]
	call	??B?$CComPtrBase@UIRegistrar@@@ATL@@QBEPAUIRegistrar@@XZ ; ATL::CComPtrBase<IRegistrar>::operator IRegistrar *
	mov	esi, esp
	push	eax
	mov	eax, DWORD PTR _this$[ebp]
	mov	edx, DWORD PTR [eax]
	mov	ecx, DWORD PTR _this$[ebp]
	call	DWORD PTR [edx+20]
	cmp	esi, esp
	call	__RTC_CheckEsp
	mov	DWORD PTR _hr$[ebp], eax

; 2756 : 		if (FAILED(hr))

	cmp	DWORD PTR _hr$[ebp], 0
	jge	SHORT $L88324

; 2757 : 			return hr;

	mov	eax, DWORD PTR _hr$[ebp]
	mov	DWORD PTR $T205916[ebp], eax
	lea	ecx, DWORD PTR _spRegistrar$[ebp]
	call	??1?$CComPtr@UIRegistrar@@@ATL@@QAE@XZ
	mov	eax, DWORD PTR $T205916[ebp]
	jmp	SHORT $L88226
$L88324:

; 2758 : 
; 2759 : 		return AtlUpdateRegistryFromResourceD(_AtlBaseModule.GetModuleInstance(), lpszRes, bRegister,
; 2760 : 			NULL, spRegistrar);

	lea	ecx, DWORD PTR _spRegistrar$[ebp]
	call	??B?$CComPtrBase@UIRegistrar@@@ATL@@QBEPAUIRegistrar@@XZ ; ATL::CComPtrBase<IRegistrar>::operator IRegistrar *
	mov	esi, esp
	push	eax
	push	0
	mov	ecx, DWORD PTR _bRegister$[ebp]
	push	ecx
	mov	edx, DWORD PTR _lpszRes$[ebp]
	push	edx
	mov	ecx, OFFSET FLAT:?_AtlBaseModule@ATL@@3VCAtlBaseModule@1@A
	call	?GetModuleInstance@CAtlBaseModule@ATL@@QAEPAUHINSTANCE__@@XZ ; ATL::CAtlBaseModule::GetModuleInstance
	push	eax
	call	DWORD PTR __imp__AtlUpdateRegistryFromResourceD@20
	cmp	esi, esp
	call	__RTC_CheckEsp
	mov	DWORD PTR $T205917[ebp], eax
	lea	ecx, DWORD PTR _spRegistrar$[ebp]
	call	??1?$CComPtr@UIRegistrar@@@ATL@@QAE@XZ
	mov	eax, DWORD PTR $T205917[ebp]
$L88226:

; 2761 : 	}

	push	edx
	mov	ecx, ebp
	push	eax
	lea	edx, DWORD PTR $L205920
	call	@_RTC_CheckStackVars@8
	pop	eax
	pop	edx
	pop	esi
	add	esp, 32					; 00000020H
	cmp	ebp, esp
	call	__RTC_CheckEsp
	mov	esp, ebp
	pop	ebp
	ret	16					; 00000010H
$L205920:
	DD	1
	DD	$L205919
$L205919:
	DD	-8					; fffffff8H
	DD	4
	DD	$L205918
$L205918:
	DB	115					; 00000073H
	DB	112					; 00000070H
	DB	82					; 00000052H
	DB	101					; 00000065H
	DB	103					; 00000067H
	DB	105					; 00000069H
	DB	115					; 00000073H
	DB	116					; 00000074H
	DB	114					; 00000072H
	DB	97					; 00000061H
	DB	114					; 00000072H
	DB	0
?UpdateRegistryFromResourceDHelper@CAtlModule@ATL@@QAGJPBGHPAU_ATL_REGMAP_ENTRY@2@@Z ENDP ; ATL::CAtlModule::UpdateRegistryFromResourceDHelper
; Function compile flags: /Odt /RTCsu
; File c:\program files\microsoft visual studio .net 2003\vc7\atlmfc\include\atlcore.h
_TEXT	ENDS
;	COMDAT ?GetModuleInstance@CAtlBaseModule@ATL@@QAEPAUHINSTANCE__@@XZ
_TEXT	SEGMENT
_this$ = -4						; size = 4
?GetModuleInstance@CAtlBaseModule@ATL@@QAEPAUHINSTANCE__@@XZ PROC NEAR ; ATL::CAtlBaseModule::GetModuleInstance, COMDAT
; _this$ = ecx

; 206  : 	{

	push	ebp
	mov	ebp, esp
	push	ecx
	mov	DWORD PTR [ebp-4], -858993460		; ccccccccH
	mov	DWORD PTR _this$[ebp], ecx

; 207  : 		return m_hInst;

	mov	eax, DWORD PTR _this$[ebp]
	mov	eax, DWORD PTR [eax+4]

; 208  : 	}

	mov	esp, ebp
	pop	ebp
	ret	0
?GetModuleInstance@CAtlBaseModule@ATL@@QAEPAUHINSTANCE__@@XZ ENDP ; ATL::CAtlBaseModule::GetModuleInstance
_TEXT	ENDS
PUBLIC	??1?$CComPtrBase@UIRegistrar@@@ATL@@QAE@XZ	; ATL::CComPtrBase<IRegistrar>::~CComPtrBase<IRegistrar>
; Function compile flags: /Odt /RTCsu
;	COMDAT ??1?$CComPtr@UIRegistrar@@@ATL@@QAE@XZ
_TEXT	SEGMENT
_this$ = -4						; size = 4
??1?$CComPtr@UIRegistrar@@@ATL@@QAE@XZ PROC NEAR	; ATL::CComPtr<IRegistrar>::~CComPtr<IRegistrar>, COMDAT
; _this$ = ecx
	push	ebp
	mov	ebp, esp
	push	ecx
	mov	DWORD PTR [ebp-4], -858993460		; ccccccccH
	mov	DWORD PTR _this$[ebp], ecx
	mov	ecx, DWORD PTR _this$[ebp]
	call	??1?$CComPtrBase@UIRegistrar@@@ATL@@QAE@XZ ; ATL::CComPtrBase<IRegistrar>::~CComPtrBase<IRegistrar>
	add	esp, 4
	cmp	ebp, esp
	call	__RTC_CheckEsp
	mov	esp, ebp
	pop	ebp
	ret	0
??1?$CComPtr@UIRegistrar@@@ATL@@QAE@XZ ENDP		; ATL::CComPtr<IRegistrar>::~CComPtr<IRegistrar>
_TEXT	ENDS
PUBLIC	?pMap@?1??GetCategoryMap@CSignature@@SAPBU_ATL_CATMAP_ENTRY@ATL@@XZ@4QBU34@B ; `CSignature::GetCategoryMap'::`2'::pMap
EXTRN	_CATID_SafeForScripting:BYTE
EXTRN	_CATID_SafeForInitializing:BYTE
;	COMDAT ?pMap@?1??GetCategoryMap@CSignature@@SAPBU_ATL_CATMAP_ENTRY@ATL@@XZ@4QBU34@B
; File c:\activex\xmlsign\signature.h
CONST	SEGMENT
?pMap@?1??GetCategoryMap@CSignature@@SAPBU_ATL_CATMAP_ENTRY@ATL@@XZ@4QBU34@B DD 01H ; `CSignature::GetCategoryMap'::`2'::pMap
	DD	FLAT:_CATID_SafeForScripting
	DD	01H
	DD	FLAT:_CATID_SafeForInitializing
	DD	00H
	DD	00H
; Function compile flags: /Odt /RTCsu
CONST	ENDS
;	COMDAT ?GetCategoryMap@CSignature@@SAPBU_ATL_CATMAP_ENTRY@ATL@@XZ
_TEXT	SEGMENT
?GetCategoryMap@CSignature@@SAPBU_ATL_CATMAP_ENTRY@ATL@@XZ PROC NEAR ; CSignature::GetCategoryMap, COMDAT

; 454  : BEGIN_CATEGORY_MAP(CSignature)

	push	ebp
	mov	ebp, esp

; 455  : 	IMPLEMENTED_CATEGORY(CATID_SafeForScripting)
; 456  : 	IMPLEMENTED_CATEGORY(CATID_SafeForInitializing)
; 457  : END_CATEGORY_MAP()

	mov	eax, OFFSET FLAT:?pMap@?1??GetCategoryMap@CSignature@@SAPBU_ATL_CATMAP_ENTRY@ATL@@XZ@4QBU34@B ; `CSignature::GetCategoryMap'::`2'::pMap
	pop	ebp
	ret	0
?GetCategoryMap@CSignature@@SAPBU_ATL_CATMAP_ENTRY@ATL@@XZ ENDP ; CSignature::GetCategoryMap
_TEXT	ENDS
PUBLIC	_DllMain@12
PUBLIC	?Init@CComModule@ATL@@QAEJPAU_ATL_OBJMAP_ENTRY30@2@PAUHINSTANCE__@@PBU_GUID@@@Z ; ATL::CComModule::Init
PUBLIC	?Term@CComModule@ATL@@QAEXXZ			; ATL::CComModule::Term
EXTRN	__imp__DisableThreadLibraryCalls@4:NEAR
EXTRN	__imp__GetModuleFileNameA@12:NEAR
EXTRN	_strlen:NEAR
; Function compile flags: /Odt /RTCsu
; File c:\activex\xmlsign\xmlsign.cpp
_TEXT	SEGMENT
tv86 = -308						; size = 4
tv90 = -304						; size = 4
_pszModulePath$202137 = -300				; size = 4
__lpa$202136 = -296					; size = 4
__lpw$202135 = -292					; size = 4
__acp$202134 = -288					; size = 4
__convert$202133 = -284					; size = 4
_i$202128 = -280					; size = 4
_len$202127 = -276					; size = 4
_ModulePath$202126 = -268				; size = 260
__$ArrayPad$ = -4					; size = 4
__$ReturnAddr$ = 4					; size = 4
_hInstance$ = 8						; size = 4
_dwReason$ = 12						; size = 4
___formal$ = 16						; size = 4
_DllMain@12 PROC NEAR

; 63   : {

	push	ebp
	mov	ebp, esp
	sub	esp, 308				; 00000134H
	push	esi
	push	edi
	lea	edi, DWORD PTR [ebp-308]
	mov	ecx, 77					; 0000004dH
	mov	eax, -858993460				; ccccccccH
	rep stosd
	mov	eax, DWORD PTR ___security_cookie
	mov	DWORD PTR __$ArrayPad$[ebp], eax

; 64   :     if (dwReason == DLL_PROCESS_ATTACH)

	cmp	DWORD PTR _dwReason$[ebp], 1
	jne	$L202125

; 65   :     {
; 66   : 		TCHAR ModulePath[MAX_PATH];
; 67   : 
; 68   : 		hInst = hInstance;

	mov	eax, DWORD PTR _hInstance$[ebp]
	mov	DWORD PTR _hInst, eax

; 69   : 
; 70   : 		// Find and store this DLL module path as OLECHAR array
; 71   : 
; 72   : 		::GetModuleFileName(hInstance, ModulePath, MAX_PATH);

	mov	esi, esp
	push	260					; 00000104H
	lea	ecx, DWORD PTR _ModulePath$202126[ebp]
	push	ecx
	mov	edx, DWORD PTR _hInstance$[ebp]
	push	edx
	call	DWORD PTR __imp__GetModuleFileNameA@12
	cmp	esi, esp
	call	__RTC_CheckEsp

; 73   : 		int len = _tcslen(ModulePath);

	lea	eax, DWORD PTR _ModulePath$202126[ebp]
	push	eax
	call	_strlen
	add	esp, 4
	mov	DWORD PTR _len$202127[ebp], eax

; 74   : 
; 75   : 		for ( int i = len; i > 0; i--)

	mov	ecx, DWORD PTR _len$202127[ebp]
	mov	DWORD PTR _i$202128[ebp], ecx
	jmp	SHORT $L202129
$L202130:
	mov	edx, DWORD PTR _i$202128[ebp]
	sub	edx, 1
	mov	DWORD PTR _i$202128[ebp], edx
$L202129:
	cmp	DWORD PTR _i$202128[ebp], 0
	jle	$L202131

; 76   : 			if ( ModulePath[i] == _T('\\'))

	mov	eax, DWORD PTR _i$202128[ebp]
	movsx	ecx, BYTE PTR _ModulePath$202126[ebp+eax]
	cmp	ecx, 92					; 0000005cH
	jne	$L202132

; 77   : 			{
; 78   : 				USES_CONVERSION;

	mov	DWORD PTR __convert$202133[ebp], 0
	call	?_AtlGetConversionACP@ATL@@YGIXZ	; ATL::_AtlGetConversionACP
	mov	DWORD PTR __acp$202134[ebp], eax
	mov	DWORD PTR __lpw$202135[ebp], 0
	mov	DWORD PTR __lpa$202136[ebp], 0

; 79   : 				ModulePath[i] = _T('\0');

	mov	edx, DWORD PTR _i$202128[ebp]
	mov	BYTE PTR _ModulePath$202126[ebp+edx], 0

; 80   : 
; 81   : 				OLECHAR* pszModulePath = T2OLE(ModulePath);

	lea	eax, DWORD PTR _ModulePath$202126[ebp]
	mov	DWORD PTR __lpa$202136[ebp], eax
	cmp	DWORD PTR __lpa$202136[ebp], 0
	jne	SHORT $L205930
	mov	DWORD PTR tv90[ebp], 0
	jmp	SHORT $L205931
$L205930:
	mov	esi, esp
	mov	ecx, DWORD PTR __lpa$202136[ebp]
	push	ecx
	call	DWORD PTR __imp__lstrlenA@4
	cmp	esi, esp
	call	__RTC_CheckEsp
	add	eax, 1
	mov	DWORD PTR __convert$202133[ebp], eax
	mov	eax, DWORD PTR __convert$202133[ebp]
	shl	eax, 1
	add	eax, 3
	and	eax, -4					; fffffffcH
	call	__alloca_probe
	mov	DWORD PTR tv86[ebp], esp
	mov	edx, DWORD PTR __acp$202134[ebp]
	push	edx
	mov	eax, DWORD PTR __convert$202133[ebp]
	push	eax
	mov	ecx, DWORD PTR __lpa$202136[ebp]
	push	ecx
	mov	edx, DWORD PTR tv86[ebp]
	push	edx
	call	?AtlA2WHelper@@YGPAGPAGPBDHI@Z		; AtlA2WHelper
	mov	DWORD PTR tv90[ebp], eax
$L205931:
	mov	eax, DWORD PTR tv90[ebp]
	mov	DWORD PTR _pszModulePath$202137[ebp], eax

; 82   : 				wcscpy( szModulePath, pszModulePath);

	mov	ecx, DWORD PTR _pszModulePath$202137[ebp]
	push	ecx
	push	OFFSET FLAT:?szModulePath@@3PAGA	; szModulePath
	call	_wcscpy
	add	esp, 8

; 83   : 				break;

	jmp	SHORT $L202131
$L202132:

; 84   : 			}
; 85   : 
; 86   :         _Module.Init(ObjectMap, hInstance, &LIBID_XMLSIGNLib);

	jmp	$L202130
$L202131:
	push	OFFSET FLAT:_LIBID_XMLSIGNLib
	mov	edx, DWORD PTR _hInstance$[ebp]
	push	edx
	push	OFFSET FLAT:_ObjectMap
	mov	ecx, OFFSET FLAT:?_Module@@3VCComModule@ATL@@A
	call	?Init@CComModule@ATL@@QAEJPAU_ATL_OBJMAP_ENTRY30@2@PAUHINSTANCE__@@PBU_GUID@@@Z ; ATL::CComModule::Init

; 87   : 		
; 88   :         DisableThreadLibraryCalls(hInstance);

	mov	esi, esp
	mov	eax, DWORD PTR _hInstance$[ebp]
	push	eax
	call	DWORD PTR __imp__DisableThreadLibraryCalls@4
	cmp	esi, esp
	call	__RTC_CheckEsp

; 89   :     }
; 90   :     else if (dwReason == DLL_PROCESS_DETACH)

	jmp	SHORT $L202139
$L202125:
	cmp	DWORD PTR _dwReason$[ebp], 0
	jne	SHORT $L202139

; 91   :         _Module.Term();

	mov	ecx, OFFSET FLAT:?_Module@@3VCComModule@ATL@@A
	call	?Term@CComModule@ATL@@QAEXXZ		; ATL::CComModule::Term
$L202139:

; 92   :     return TRUE;    // ok

	mov	eax, 1

; 93   : }

	lea	esp, DWORD PTR [ebp-316]
	push	edx
	mov	ecx, ebp
	push	eax
	lea	edx, DWORD PTR $L205935
	call	@_RTC_CheckStackVars@8
	pop	eax
	pop	edx
	mov	ecx, DWORD PTR __$ArrayPad$[ebp]
	call	@__security_check_cookie@4
	pop	edi
	pop	esi
	mov	esp, ebp
	pop	ebp
	ret	12					; 0000000cH
$L205935:
	DD	1
	DD	$L205934
$L205934:
	DD	-268					; fffffef4H
	DD	260					; 00000104H
	DD	$L205932
$L205932:
	DB	77					; 0000004dH
	DB	111					; 0000006fH
	DB	100					; 00000064H
	DB	117					; 00000075H
	DB	108					; 0000006cH
	DB	101					; 00000065H
	DB	80					; 00000050H
	DB	97					; 00000061H
	DB	116					; 00000074H
	DB	104					; 00000068H
	DB	0
_DllMain@12 ENDP
_TEXT	ENDS
EXTRN	?_AtlComModule@ATL@@3VCAtlComModule@1@A:BYTE	; ATL::_AtlComModule
; Function compile flags: /Odt /RTCsu
; File c:\program files\microsoft visual studio .net 2003\vc7\atlmfc\include\atlbase.h
;	COMDAT ?Init@CComModule@ATL@@QAEJPAU_ATL_OBJMAP_ENTRY30@2@PAUHINSTANCE__@@PBU_GUID@@@Z
_TEXT	SEGMENT
_ppEntry$89956 = -12					; size = 4
_pEntry$ = -8						; size = 4
_this$ = -4						; size = 4
_p$ = 8							; size = 4
___formal$ = 12						; size = 4
_plibid$ = 16						; size = 4
?Init@CComModule@ATL@@QAEJPAU_ATL_OBJMAP_ENTRY30@2@PAUHINSTANCE__@@PBU_GUID@@@Z PROC NEAR ; ATL::CComModule::Init, COMDAT
; _this$ = ecx

; 6475 : {

	push	ebp
	mov	ebp, esp
	sub	esp, 12					; 0000000cH
	push	esi
	mov	DWORD PTR [ebp-12], -858993460		; ccccccccH
	mov	DWORD PTR [ebp-8], -858993460		; ccccccccH
	mov	DWORD PTR [ebp-4], -858993460		; ccccccccH
	mov	DWORD PTR _this$[ebp], ecx

; 6476 : 	if (plibid != NULL)

	cmp	DWORD PTR _plibid$[ebp], 0
	je	SHORT $L89948

; 6477 : 		m_libid = *plibid;

	mov	eax, DWORD PTR _plibid$[ebp]
	mov	ecx, DWORD PTR [eax]
	mov	DWORD PTR ?m_libid@CAtlModule@ATL@@2U_GUID@@A, ecx
	mov	edx, DWORD PTR [eax+4]
	mov	DWORD PTR ?m_libid@CAtlModule@ATL@@2U_GUID@@A+4, edx
	mov	ecx, DWORD PTR [eax+8]
	mov	DWORD PTR ?m_libid@CAtlModule@ATL@@2U_GUID@@A+8, ecx
	mov	edx, DWORD PTR [eax+12]
	mov	DWORD PTR ?m_libid@CAtlModule@ATL@@2U_GUID@@A+12, edx
$L89948:

; 6478 : 
; 6479 : 	_ATL_OBJMAP_ENTRY* pEntry;
; 6480 : 	if (p != (_ATL_OBJMAP_ENTRY*)-1)

	cmp	DWORD PTR _p$[ebp], -1
	je	SHORT $L89951

; 6481 : 	{
; 6482 : 		m_pObjMap = p;

	mov	eax, DWORD PTR _this$[ebp]
	mov	ecx, DWORD PTR _p$[ebp]
	mov	DWORD PTR [eax+44], ecx

; 6483 : 		if (m_pObjMap != NULL)

	mov	edx, DWORD PTR _this$[ebp]
	cmp	DWORD PTR [edx+44], 0
	je	SHORT $L89951

; 6484 : 		{
; 6485 : 			pEntry = m_pObjMap;

	mov	eax, DWORD PTR _this$[ebp]
	mov	ecx, DWORD PTR [eax+44]
	mov	DWORD PTR _pEntry$[ebp], ecx
$L89954:

; 6486 : 			while (pEntry->pclsid != NULL)

	mov	edx, DWORD PTR _pEntry$[ebp]
	cmp	DWORD PTR [edx], 0
	je	SHORT $L89951

; 6487 : 			{
; 6488 : 				pEntry->pfnObjectMain(true); //initialize class resources

	mov	esi, esp
	push	1
	mov	eax, DWORD PTR _pEntry$[ebp]
	call	DWORD PTR [eax+32]
	cmp	esi, esp
	call	__RTC_CheckEsp

; 6489 : 				pEntry++;

	mov	ecx, DWORD PTR _pEntry$[ebp]
	add	ecx, 36					; 00000024H
	mov	DWORD PTR _pEntry$[ebp], ecx

; 6490 : 			}

	jmp	SHORT $L89954
$L89951:

; 6491 : 		}
; 6492 : 	}
; 6493 : 	for (_ATL_OBJMAP_ENTRY** ppEntry = _AtlComModule.m_ppAutoObjMapFirst; ppEntry < _AtlComModule.m_ppAutoObjMapLast; ppEntry++)

	mov	edx, DWORD PTR ?_AtlComModule@ATL@@3VCAtlComModule@1@A+8
	mov	DWORD PTR _ppEntry$89956[ebp], edx
	jmp	SHORT $L89957
$L89958:
	mov	eax, DWORD PTR _ppEntry$89956[ebp]
	add	eax, 4
	mov	DWORD PTR _ppEntry$89956[ebp], eax
$L89957:
	mov	ecx, DWORD PTR _ppEntry$89956[ebp]
	cmp	ecx, DWORD PTR ?_AtlComModule@ATL@@3VCAtlComModule@1@A+12
	jae	SHORT $L89959

; 6494 : 	{
; 6495 : 		if (*ppEntry != NULL)

	mov	edx, DWORD PTR _ppEntry$89956[ebp]
	cmp	DWORD PTR [edx], 0
	je	SHORT $L89960

; 6496 : 			(*ppEntry)->pfnObjectMain(true); //initialize class resources

	mov	esi, esp
	push	1
	mov	eax, DWORD PTR _ppEntry$89956[ebp]
	mov	ecx, DWORD PTR [eax]
	call	DWORD PTR [ecx+32]
	cmp	esi, esp
	call	__RTC_CheckEsp
$L89960:

; 6497 : 	}

	jmp	SHORT $L89958
$L89959:

; 6498 : 	return S_OK;

	xor	eax, eax

; 6499 : }

	pop	esi
	add	esp, 12					; 0000000cH
	cmp	ebp, esp
	call	__RTC_CheckEsp
	mov	esp, ebp
	pop	ebp
	ret	12					; 0000000cH
?Init@CComModule@ATL@@QAEJPAU_ATL_OBJMAP_ENTRY30@2@PAUHINSTANCE__@@PBU_GUID@@@Z ENDP ; ATL::CComModule::Init
_TEXT	ENDS
PUBLIC	?Term@CAtlWinModule@ATL@@QAEXXZ			; ATL::CAtlWinModule::Term
PUBLIC	?Term@CAtlModule@ATL@@QAEXXZ			; ATL::CAtlModule::Term
; Function compile flags: /Odt /RTCsu
;	COMDAT ?Term@CComModule@ATL@@QAEXXZ
_TEXT	SEGMENT
_ppEntry$89971 = -12					; size = 4
_pEntry$ = -8						; size = 4
_this$ = -4						; size = 4
?Term@CComModule@ATL@@QAEXXZ PROC NEAR			; ATL::CComModule::Term, COMDAT
; _this$ = ecx

; 6501 : {

	push	ebp
	mov	ebp, esp
	sub	esp, 12					; 0000000cH
	push	esi
	mov	DWORD PTR [ebp-12], -858993460		; ccccccccH
	mov	DWORD PTR [ebp-8], -858993460		; ccccccccH
	mov	DWORD PTR [ebp-4], -858993460		; ccccccccH
	mov	DWORD PTR _this$[ebp], ecx

; 6502 : 	_ATL_OBJMAP_ENTRY* pEntry;
; 6503 : 	if (m_pObjMap != NULL)

	mov	eax, DWORD PTR _this$[ebp]
	cmp	DWORD PTR [eax+44], 0
	je	SHORT $L89966

; 6504 : 	{
; 6505 : 		pEntry = m_pObjMap;

	mov	ecx, DWORD PTR _this$[ebp]
	mov	edx, DWORD PTR [ecx+44]
	mov	DWORD PTR _pEntry$[ebp], edx
$L89968:

; 6506 : 		while (pEntry->pclsid != NULL)

	mov	eax, DWORD PTR _pEntry$[ebp]
	cmp	DWORD PTR [eax], 0
	je	SHORT $L89966

; 6507 : 		{
; 6508 : 			if (pEntry->pCF != NULL)

	mov	ecx, DWORD PTR _pEntry$[ebp]
	cmp	DWORD PTR [ecx+16], 0
	je	SHORT $L89970

; 6509 : 				pEntry->pCF->Release();

	mov	edx, DWORD PTR _pEntry$[ebp]
	mov	eax, DWORD PTR [edx+16]
	mov	ecx, DWORD PTR _pEntry$[ebp]
	mov	edx, DWORD PTR [ecx+16]
	mov	eax, DWORD PTR [eax]
	mov	esi, esp
	push	edx
	call	DWORD PTR [eax+8]
	cmp	esi, esp
	call	__RTC_CheckEsp
$L89970:

; 6510 : 			pEntry->pCF = NULL;

	mov	ecx, DWORD PTR _pEntry$[ebp]
	mov	DWORD PTR [ecx+16], 0

; 6511 : 			pEntry->pfnObjectMain(false); //cleanup class resources

	mov	esi, esp
	push	0
	mov	edx, DWORD PTR _pEntry$[ebp]
	call	DWORD PTR [edx+32]
	cmp	esi, esp
	call	__RTC_CheckEsp

; 6512 : 			pEntry++;

	mov	eax, DWORD PTR _pEntry$[ebp]
	add	eax, 36					; 00000024H
	mov	DWORD PTR _pEntry$[ebp], eax

; 6513 : 		}

	jmp	SHORT $L89968
$L89966:

; 6514 : 	}
; 6515 : 	for (_ATL_OBJMAP_ENTRY** ppEntry = _AtlComModule.m_ppAutoObjMapFirst; ppEntry < _AtlComModule.m_ppAutoObjMapLast; ppEntry++)

	mov	ecx, DWORD PTR ?_AtlComModule@ATL@@3VCAtlComModule@1@A+8
	mov	DWORD PTR _ppEntry$89971[ebp], ecx
	jmp	SHORT $L89972
$L89973:
	mov	edx, DWORD PTR _ppEntry$89971[ebp]
	add	edx, 4
	mov	DWORD PTR _ppEntry$89971[ebp], edx
$L89972:
	mov	eax, DWORD PTR _ppEntry$89971[ebp]
	cmp	eax, DWORD PTR ?_AtlComModule@ATL@@3VCAtlComModule@1@A+12
	jae	SHORT $L89974

; 6516 : 	{
; 6517 : 		if (*ppEntry != NULL)

	mov	ecx, DWORD PTR _ppEntry$89971[ebp]
	cmp	DWORD PTR [ecx], 0
	je	SHORT $L89975

; 6518 : 			(*ppEntry)->pfnObjectMain(false); //cleanup class resources

	mov	esi, esp
	push	0
	mov	edx, DWORD PTR _ppEntry$89971[ebp]
	mov	eax, DWORD PTR [edx]
	call	DWORD PTR [eax+32]
	cmp	esi, esp
	call	__RTC_CheckEsp
$L89975:

; 6519 : 	}

	jmp	SHORT $L89973
$L89974:

; 6520 : #ifdef _DEBUG
; 6521 : 	// Prevent false memory leak reporting. ~CAtlWinModule may be too late.
; 6522 : 	_AtlWinModule.Term();		

	mov	ecx, OFFSET FLAT:?_AtlWinModule@ATL@@3VCAtlWinModule@1@A
	call	?Term@CAtlWinModule@ATL@@QAEXXZ		; ATL::CAtlWinModule::Term

; 6523 : #endif	// _DEBUG
; 6524 : 
; 6525 : 	CAtlModuleT<CComModule>::Term();

	mov	ecx, DWORD PTR _this$[ebp]
	call	?Term@CAtlModule@ATL@@QAEXXZ		; ATL::CAtlModule::Term

; 6526 : }

	pop	esi
	add	esp, 12					; 0000000cH
	cmp	ebp, esp
	call	__RTC_CheckEsp
	mov	esp, ebp
	pop	ebp
	ret	0
?Term@CComModule@ATL@@QAEXXZ ENDP			; ATL::CComModule::Term
_TEXT	ENDS
EXTRN	__imp__AtlWinModuleTerm@8:NEAR
; Function compile flags: /Odt /RTCsu
;	COMDAT ?Term@CAtlWinModule@ATL@@QAEXXZ
_TEXT	SEGMENT
_this$ = -4						; size = 4
?Term@CAtlWinModule@ATL@@QAEXXZ PROC NEAR		; ATL::CAtlWinModule::Term, COMDAT
; _this$ = ecx

; 2587 : 	{

	push	ebp
	mov	ebp, esp
	push	ecx
	push	esi
	mov	DWORD PTR [ebp-4], -858993460		; ccccccccH
	mov	DWORD PTR _this$[ebp], ecx

; 2588 : 		AtlWinModuleTerm(this, _AtlBaseModule.GetModuleInstance());

	mov	ecx, OFFSET FLAT:?_AtlBaseModule@ATL@@3VCAtlBaseModule@1@A
	call	?GetModuleInstance@CAtlBaseModule@ATL@@QAEPAUHINSTANCE__@@XZ ; ATL::CAtlBaseModule::GetModuleInstance
	mov	esi, esp
	push	eax
	mov	eax, DWORD PTR _this$[ebp]
	push	eax
	call	DWORD PTR __imp__AtlWinModuleTerm@8
	cmp	esi, esp
	call	__RTC_CheckEsp

; 2589 : 	}

	pop	esi
	add	esp, 4
	cmp	ebp, esp
	call	__RTC_CheckEsp
	mov	esp, ebp
	pop	ebp
	ret	0
?Term@CAtlWinModule@ATL@@QAEXXZ ENDP			; ATL::CAtlWinModule::Term
_TEXT	ENDS
PUBLIC	?Term@CComCriticalSection@ATL@@QAEJXZ		; ATL::CComCriticalSection::Term
EXTRN	__imp__AtlCallTermFunc@4:NEAR
; Function compile flags: /Odt /RTCsu
;	COMDAT ?Term@CAtlModule@ATL@@QAEXXZ
_TEXT	SEGMENT
tv70 = -8						; size = 4
_this$ = -4						; size = 4
?Term@CAtlModule@ATL@@QAEXXZ PROC NEAR			; ATL::CAtlModule::Term, COMDAT
; _this$ = ecx

; 2636 : 	{

	push	ebp
	mov	ebp, esp
	sub	esp, 8
	push	esi
	mov	DWORD PTR [ebp-8], -858993460		; ccccccccH
	mov	DWORD PTR [ebp-4], -858993460		; ccccccccH
	mov	DWORD PTR _this$[ebp], ecx

; 2637 : 		// cbSize == 0 indicates that Term has already been called
; 2638 : 		if (cbSize == 0)

	mov	eax, DWORD PTR _this$[ebp]
	cmp	DWORD PTR [eax+4], 0
	jne	SHORT $L88174

; 2639 : 			return;

	jmp	SHORT $L88173
$L88174:

; 2640 : 
; 2641 : 		// Call term functions
; 2642 : 		if (m_pTermFuncs != NULL)

	mov	ecx, DWORD PTR _this$[ebp]
	cmp	DWORD PTR [ecx+12], 0
	je	SHORT $L88175

; 2643 : 		{
; 2644 : 			AtlCallTermFunc(this);

	cmp	DWORD PTR _this$[ebp], 0
	je	SHORT $L205943
	mov	edx, DWORD PTR _this$[ebp]
	add	edx, 4
	mov	DWORD PTR tv70[ebp], edx
	jmp	SHORT $L205944
$L205943:
	mov	DWORD PTR tv70[ebp], 0
$L205944:
	mov	esi, esp
	mov	eax, DWORD PTR tv70[ebp]
	push	eax
	call	DWORD PTR __imp__AtlCallTermFunc@4
	cmp	esi, esp
	call	__RTC_CheckEsp

; 2645 : 			m_pTermFuncs = NULL;

	mov	ecx, DWORD PTR _this$[ebp]
	mov	DWORD PTR [ecx+12], 0
$L88175:

; 2646 : 		}
; 2647 : 
; 2648 : 		if (m_pGIT != NULL)

	mov	edx, DWORD PTR _this$[ebp]
	cmp	DWORD PTR [edx+40], 0
	je	SHORT $L88176

; 2649 : 			m_pGIT->Release();

	mov	eax, DWORD PTR _this$[ebp]
	mov	ecx, DWORD PTR [eax+40]
	mov	edx, DWORD PTR _this$[ebp]
	mov	eax, DWORD PTR [edx+40]
	mov	ecx, DWORD PTR [ecx]
	mov	esi, esp
	push	eax
	call	DWORD PTR [ecx+8]
	cmp	esi, esp
	call	__RTC_CheckEsp
$L88176:

; 2650 : 
; 2651 : 		m_csStaticDataInitAndTypeInfo.Term();

	mov	ecx, DWORD PTR _this$[ebp]
	add	ecx, 16					; 00000010H
	call	?Term@CComCriticalSection@ATL@@QAEJXZ	; ATL::CComCriticalSection::Term

; 2652 : 
; 2653 : 		cbSize = 0;

	mov	edx, DWORD PTR _this$[ebp]
	mov	DWORD PTR [edx+4], 0
$L88173:

; 2654 : 	}

	pop	esi
	add	esp, 8
	cmp	ebp, esp
	call	__RTC_CheckEsp
	mov	esp, ebp
	pop	ebp
	ret	0
?Term@CAtlModule@ATL@@QAEXXZ ENDP			; ATL::CAtlModule::Term
_TEXT	ENDS
EXTRN	__imp__DeleteCriticalSection@4:NEAR
; Function compile flags: /Odt /RTCsu
; File c:\program files\microsoft visual studio .net 2003\vc7\atlmfc\include\atlcore.h
;	COMDAT ?Term@CComCriticalSection@ATL@@QAEJXZ
_TEXT	SEGMENT
_this$ = -4						; size = 4
?Term@CComCriticalSection@ATL@@QAEJXZ PROC NEAR		; ATL::CComCriticalSection::Term, COMDAT
; _this$ = ecx

; 147  : 	{

	push	ebp
	mov	ebp, esp
	push	ecx
	push	esi
	mov	DWORD PTR [ebp-4], -858993460		; ccccccccH
	mov	DWORD PTR _this$[ebp], ecx

; 148  : 		DeleteCriticalSection(&m_sec);

	mov	esi, esp
	mov	eax, DWORD PTR _this$[ebp]
	push	eax
	call	DWORD PTR __imp__DeleteCriticalSection@4
	cmp	esi, esp
	call	__RTC_CheckEsp

; 149  : 		return S_OK;

	xor	eax, eax

; 150  : 	}	

	pop	esi
	add	esp, 4
	cmp	ebp, esp
	call	__RTC_CheckEsp
	mov	esp, ebp
	pop	ebp
	ret	0
?Term@CComCriticalSection@ATL@@QAEJXZ ENDP		; ATL::CComCriticalSection::Term
_TEXT	ENDS
PUBLIC	?GetLockCount@CAtlModule@ATL@@UAEJXZ		; ATL::CAtlModule::GetLockCount
PUBLIC	_DllCanUnloadNow@0
; Function compile flags: /Odt /RTCsu
; File c:\activex\xmlsign\xmlsign.cpp
_TEXT	SEGMENT
_DllCanUnloadNow@0 PROC NEAR

; 99   : {

	push	ebp
	mov	ebp, esp

; 100  :     return (_Module.GetLockCount()==0) ? S_OK : S_FALSE;

	mov	ecx, OFFSET FLAT:?_Module@@3VCComModule@ATL@@A
	call	?GetLockCount@CAtlModule@ATL@@UAEJXZ	; ATL::CAtlModule::GetLockCount
	neg	eax
	sbb	eax, eax
	neg	eax

; 101  : }

	cmp	ebp, esp
	call	__RTC_CheckEsp
	pop	ebp
	ret	0
_DllCanUnloadNow@0 ENDP
; Function compile flags: /Odt /RTCsu
; File c:\program files\microsoft visual studio .net 2003\vc7\atlmfc\include\atlbase.h
_TEXT	ENDS
;	COMDAT ?GetLockCount@CAtlModule@ATL@@UAEJXZ
_TEXT	SEGMENT
_this$ = -4						; size = 4
?GetLockCount@CAtlModule@ATL@@UAEJXZ PROC NEAR		; ATL::CAtlModule::GetLockCount, COMDAT
; _this$ = ecx

; 2672 : 	{

	push	ebp
	mov	ebp, esp
	push	ecx
	mov	DWORD PTR [ebp-4], -858993460		; ccccccccH
	mov	DWORD PTR _this$[ebp], ecx

; 2673 : 		return m_nLockCnt;

	mov	eax, DWORD PTR _this$[ebp]
	mov	eax, DWORD PTR [eax+8]

; 2674 : 	}

	mov	esp, ebp
	pop	ebp
	ret	0
?GetLockCount@CAtlModule@ATL@@UAEJXZ ENDP		; ATL::CAtlModule::GetLockCount
_TEXT	ENDS
PUBLIC	?GetClassObject@CComModule@ATL@@QAEJABU_GUID@@0PAPAX@Z ; ATL::CComModule::GetClassObject
PUBLIC	_DllGetClassObject@12
; Function compile flags: /Odt /RTCsu
; File c:\activex\xmlsign\xmlsign.cpp
_TEXT	SEGMENT
_rclsid$ = 8						; size = 4
_riid$ = 12						; size = 4
_ppv$ = 16						; size = 4
_DllGetClassObject@12 PROC NEAR

; 107  : {

	push	ebp
	mov	ebp, esp

; 108  :     return _Module.GetClassObject(rclsid, riid, ppv);

	mov	eax, DWORD PTR _ppv$[ebp]
	push	eax
	mov	ecx, DWORD PTR _riid$[ebp]
	push	ecx
	mov	edx, DWORD PTR _rclsid$[ebp]
	push	edx
	mov	ecx, OFFSET FLAT:?_Module@@3VCComModule@ATL@@A
	call	?GetClassObject@CComModule@ATL@@QAEJABU_GUID@@0PAPAX@Z ; ATL::CComModule::GetClassObject

; 109  : }

	cmp	ebp, esp
	call	__RTC_CheckEsp
	pop	ebp
	ret	12					; 0000000cH
_DllGetClassObject@12 ENDP
_TEXT	ENDS
PUBLIC	__GUID_00000000_0000_0000_c000_000000000046
PUBLIC	_InlineIsEqualGUID
PUBLIC	??0?$CComCritSecLock@VCComCriticalSection@ATL@@@ATL@@QAE@AAVCComCriticalSection@1@_N@Z ; ATL::CComCritSecLock<ATL::CComCriticalSection>::CComCritSecLock<ATL::CComCriticalSection>
PUBLIC	??1?$CComCritSecLock@VCComCriticalSection@ATL@@@ATL@@QAE@XZ ; ATL::CComCritSecLock<ATL::CComCriticalSection>::~CComCritSecLock<ATL::CComCriticalSection>
PUBLIC	?Lock@?$CComCritSecLock@VCComCriticalSection@ATL@@@ATL@@QAEJXZ ; ATL::CComCritSecLock<ATL::CComCriticalSection>::Lock
PUBLIC	??_C@_0EH@BABLPHCB@ERROR?5?3?5Unable?5to?5lock?5critical?5@ ; `string'
EXTRN	?atlTraceCOM@ATL@@3VCTraceCategory@1@A:DWORD	; ATL::atlTraceCOM
EXTRN	__imp__AtlComModuleGetClassObject@16:NEAR
;	COMDAT ??_C@_0EH@BABLPHCB@ERROR?5?3?5Unable?5to?5lock?5critical?5@
; File c:\program files\microsoft visual studio .net 2003\vc7\atlmfc\include\atlbase.h
CONST	SEGMENT
??_C@_0EH@BABLPHCB@ERROR?5?3?5Unable?5to?5lock?5critical?5@ DB 'ERROR : U'
	DB	'nable to lock critical section in CComModule::GetClassObject', 0aH
	DB	00H						; `string'
CONST	ENDS
;	COMDAT __GUID_00000000_0000_0000_c000_000000000046
CONST	SEGMENT
__GUID_00000000_0000_0000_c000_000000000046 DD 00H
	DW	00H
	DW	00H
	DB	0c0H
	DB	00H
	DB	00H
	DB	00H
	DB	00H
	DB	00H
	DB	00H
	DB	046H
; Function compile flags: /Odt /RTCsu
CONST	ENDS
;	COMDAT ?GetClassObject@CComModule@ATL@@QAEJABU_GUID@@0PAPAX@Z
_TEXT	SEGMENT
$T205953 = -36						; size = 8
_lock$90011 = -24					; size = 8
_pEntry$ = -12						; size = 4
_hr$ = -8						; size = 4
_this$ = -4						; size = 4
_rclsid$ = 8						; size = 4
_riid$ = 12						; size = 4
_ppv$ = 16						; size = 4
?GetClassObject@CComModule@ATL@@QAEJABU_GUID@@0PAPAX@Z PROC NEAR ; ATL::CComModule::GetClassObject, COMDAT
; _this$ = ecx

; 6529 : {

	push	ebp
	mov	ebp, esp
	sub	esp, 36					; 00000024H
	push	esi
	mov	eax, -858993460				; ccccccccH
	mov	DWORD PTR [ebp-36], eax
	mov	DWORD PTR [ebp-32], eax
	mov	DWORD PTR [ebp-28], eax
	mov	DWORD PTR [ebp-24], eax
	mov	DWORD PTR [ebp-20], eax
	mov	DWORD PTR [ebp-16], eax
	mov	DWORD PTR [ebp-12], eax
	mov	DWORD PTR [ebp-8], eax
	mov	DWORD PTR [ebp-4], eax
	mov	DWORD PTR _this$[ebp], ecx

; 6530 : 	if (ppv == NULL)

	cmp	DWORD PTR _ppv$[ebp], 0
	jne	SHORT $L89982

; 6531 : 		return E_POINTER;

	mov	eax, -2147467261			; 80004003H
	jmp	$L89981
$L89982:

; 6532 : 	HRESULT hr = S_OK;

	mov	DWORD PTR _hr$[ebp], 0

; 6533 : 	_ATL_OBJMAP_ENTRY* pEntry;
; 6534 : 	if (m_pObjMap != NULL)

	mov	eax, DWORD PTR _this$[ebp]
	cmp	DWORD PTR [eax+44], 0
	je	$L89987

; 6535 : 	{
; 6536 : 		pEntry = m_pObjMap;

	mov	ecx, DWORD PTR _this$[ebp]
	mov	edx, DWORD PTR [ecx+44]
	mov	DWORD PTR _pEntry$[ebp], edx
$L89989:

; 6537 : 		while (pEntry->pclsid != NULL)

	mov	eax, DWORD PTR _pEntry$[ebp]
	cmp	DWORD PTR [eax], 0
	je	$L89987

; 6538 : 		{
; 6539 : 			if ((pEntry->pfnGetClassObject != NULL) && InlineIsEqualGUID(rclsid, *pEntry->pclsid))

	mov	ecx, DWORD PTR _pEntry$[ebp]
	cmp	DWORD PTR [ecx+8], 0
	je	$L89991
	mov	edx, DWORD PTR _pEntry$[ebp]
	mov	eax, DWORD PTR [edx]
	push	eax
	mov	ecx, DWORD PTR _rclsid$[ebp]
	push	ecx
	call	_InlineIsEqualGUID
	add	esp, 8
	test	eax, eax
	je	$L89991

; 6540 : 			{
; 6541 : 				if (pEntry->pCF == NULL)

	mov	edx, DWORD PTR _pEntry$[ebp]
	cmp	DWORD PTR [edx+16], 0
	jne	$L89992

; 6542 : 				{
; 6543 : 					CComCritSecLock<CComCriticalSection> lock(_AtlComModule.m_csObjMap, false);

	push	0
	push	OFFSET FLAT:?_AtlComModule@ATL@@3VCAtlComModule@1@A+16
	lea	ecx, DWORD PTR _lock$90011[ebp]
	call	??0?$CComCritSecLock@VCComCriticalSection@ATL@@@ATL@@QAE@AAVCComCriticalSection@1@_N@Z ; ATL::CComCritSecLock<ATL::CComCriticalSection>::CComCritSecLock<ATL::CComCriticalSection>

; 6544 : 					hr = lock.Lock();

	lea	ecx, DWORD PTR _lock$90011[ebp]
	call	?Lock@?$CComCritSecLock@VCComCriticalSection@ATL@@@ATL@@QAEJXZ ; ATL::CComCritSecLock<ATL::CComCriticalSection>::Lock
	mov	DWORD PTR _hr$[ebp], eax

; 6545 : 					if (FAILED(hr))

	cmp	DWORD PTR _hr$[ebp], 0
	jge	SHORT $L90013

; 6546 : 					{
; 6547 : 						ATLTRACE(atlTraceCOM, 0, _T("ERROR : Unable to lock critical section in CComModule::GetClassObject\n"));

	push	OFFSET FLAT:??_C@_0EH@BABLPHCB@ERROR?5?3?5Unable?5to?5lock?5critical?5@
	push	0
	mov	ecx, OFFSET FLAT:?atlTraceCOM@ATL@@3VCTraceCategory@1@A ; ATL::atlTraceCOM
	call	??BCTraceCategory@ATL@@QBEKXZ		; ATL::CTraceCategory::operator unsigned long
	push	eax
	push	6547					; 00001993H
	push	OFFSET FLAT:??_C@_0FA@KBNNCCJL@C?3?2Program?5Files?2Microsoft?5Visua@
	lea	ecx, DWORD PTR $T205953[ebp]
	call	??0CTraceFileAndLineInfo@ATL@@QAE@PBDH@Z ; ATL::CTraceFileAndLineInfo::CTraceFileAndLineInfo
	push	eax
	call	??RCTraceFileAndLineInfo@ATL@@QBAXKIPBDZZ ; ATL::CTraceFileAndLineInfo::operator()
	add	esp, 16					; 00000010H

; 6548 : 						ATLASSERT(0);

	xor	eax, eax
	jne	SHORT $L205954
	push	OFFSET FLAT:??_C@_01GBGANLPD@0?$AA@
	push	0
	push	6548					; 00001994H
	push	OFFSET FLAT:??_C@_0FA@KBNNCCJL@C?3?2Program?5Files?2Microsoft?5Visua@
	push	2
	call	__CrtDbgReport
	add	esp, 20					; 00000014H
	cmp	eax, 1
	jne	SHORT $L205954
	int	3
$L205954:

; 6549 : 						break;

	lea	ecx, DWORD PTR _lock$90011[ebp]
	call	??1?$CComCritSecLock@VCComCriticalSection@ATL@@@ATL@@QAE@XZ ; ATL::CComCritSecLock<ATL::CComCriticalSection>::~CComCritSecLock<ATL::CComCriticalSection>
	jmp	SHORT $L89987
$L90013:

; 6550 : 					}
; 6551 : 					if (pEntry->pCF == NULL)

	mov	edx, DWORD PTR _pEntry$[ebp]
	cmp	DWORD PTR [edx+16], 0
	jne	SHORT $L90017

; 6552 : 						hr = pEntry->pfnGetClassObject(pEntry->pfnCreateInstance, __uuidof(IUnknown), (LPVOID*)&pEntry->pCF);

	mov	eax, DWORD PTR _pEntry$[ebp]
	add	eax, 16					; 00000010H
	mov	esi, esp
	push	eax
	push	OFFSET FLAT:__GUID_00000000_0000_0000_c000_000000000046
	mov	ecx, DWORD PTR _pEntry$[ebp]
	mov	edx, DWORD PTR [ecx+12]
	push	edx
	mov	eax, DWORD PTR _pEntry$[ebp]
	call	DWORD PTR [eax+8]
	cmp	esi, esp
	call	__RTC_CheckEsp
	mov	DWORD PTR _hr$[ebp], eax
$L90017:

; 6553 : 				}

	lea	ecx, DWORD PTR _lock$90011[ebp]
	call	??1?$CComCritSecLock@VCComCriticalSection@ATL@@@ATL@@QAE@XZ ; ATL::CComCritSecLock<ATL::CComCriticalSection>::~CComCritSecLock<ATL::CComCriticalSection>
$L89992:

; 6554 : 				if (pEntry->pCF != NULL)

	mov	ecx, DWORD PTR _pEntry$[ebp]
	cmp	DWORD PTR [ecx+16], 0
	je	SHORT $L90019

; 6555 : 					hr = pEntry->pCF->QueryInterface(riid, ppv);

	mov	esi, esp
	mov	edx, DWORD PTR _ppv$[ebp]
	push	edx
	mov	eax, DWORD PTR _riid$[ebp]
	push	eax
	mov	ecx, DWORD PTR _pEntry$[ebp]
	mov	edx, DWORD PTR [ecx+16]
	mov	eax, DWORD PTR _pEntry$[ebp]
	mov	ecx, DWORD PTR [eax+16]
	mov	edx, DWORD PTR [edx]
	push	ecx
	call	DWORD PTR [edx]
	cmp	esi, esp
	call	__RTC_CheckEsp
	mov	DWORD PTR _hr$[ebp], eax
$L90019:

; 6556 : 				break;

	jmp	SHORT $L89987
$L89991:

; 6557 : 			}
; 6558 : 			pEntry++;

	mov	eax, DWORD PTR _pEntry$[ebp]
	add	eax, 36					; 00000024H
	mov	DWORD PTR _pEntry$[ebp], eax

; 6559 : 		}

	jmp	$L89989
$L89987:

; 6560 : 	}
; 6561 : 	if (*ppv == NULL && hr == S_OK)

	mov	ecx, DWORD PTR _ppv$[ebp]
	cmp	DWORD PTR [ecx], 0
	jne	SHORT $L90021
	cmp	DWORD PTR _hr$[ebp], 0
	jne	SHORT $L90021

; 6562 : 		hr = AtlComModuleGetClassObject(&_AtlComModule, rclsid, riid, ppv);

	mov	esi, esp
	mov	edx, DWORD PTR _ppv$[ebp]
	push	edx
	mov	eax, DWORD PTR _riid$[ebp]
	push	eax
	mov	ecx, DWORD PTR _rclsid$[ebp]
	push	ecx
	push	OFFSET FLAT:?_AtlComModule@ATL@@3VCAtlComModule@1@A ; ATL::_AtlComModule
	call	DWORD PTR __imp__AtlComModuleGetClassObject@16
	cmp	esi, esp
	call	__RTC_CheckEsp
	mov	DWORD PTR _hr$[ebp], eax
$L90021:

; 6563 : 	return hr;

	mov	eax, DWORD PTR _hr$[ebp]
$L89981:

; 6564 : }

	push	edx
	mov	ecx, ebp
	push	eax
	lea	edx, DWORD PTR $L205957
	call	@_RTC_CheckStackVars@8
	pop	eax
	pop	edx
	pop	esi
	add	esp, 36					; 00000024H
	cmp	ebp, esp
	call	__RTC_CheckEsp
	mov	esp, ebp
	pop	ebp
	ret	12					; 0000000cH
$L205957:
	DD	1
	DD	$L205956
$L205956:
	DD	-24					; ffffffe8H
	DD	8
	DD	$L205955
$L205955:
	DB	108					; 0000006cH
	DB	111					; 0000006fH
	DB	99					; 00000063H
	DB	107					; 0000006bH
	DB	0
?GetClassObject@CComModule@ATL@@QAEJABU_GUID@@0PAPAX@Z ENDP ; ATL::CComModule::GetClassObject
; Function compile flags: /Odt /RTCsu
; File c:\program files\microsoft visual studio .net 2003\vc7\platformsdk\include\guiddef.h
_TEXT	ENDS
;	COMDAT _InlineIsEqualGUID
_TEXT	SEGMENT
tv74 = -4						; size = 4
_rguid1$ = 8						; size = 4
_rguid2$ = 12						; size = 4
_InlineIsEqualGUID PROC NEAR				; COMDAT

; 151  : {

	push	ebp
	mov	ebp, esp
	push	ecx
	mov	DWORD PTR [ebp-4], -858993460		; ccccccccH

; 152  :    return (
; 153  :       ((unsigned long *) &rguid1)[0] == ((unsigned long *) &rguid2)[0] &&
; 154  :       ((unsigned long *) &rguid1)[1] == ((unsigned long *) &rguid2)[1] &&
; 155  :       ((unsigned long *) &rguid1)[2] == ((unsigned long *) &rguid2)[2] &&
; 156  :       ((unsigned long *) &rguid1)[3] == ((unsigned long *) &rguid2)[3]);

	mov	eax, DWORD PTR _rguid1$[ebp]
	mov	ecx, DWORD PTR _rguid2$[ebp]
	mov	edx, DWORD PTR [eax]
	cmp	edx, DWORD PTR [ecx]
	jne	SHORT $L205960
	mov	eax, DWORD PTR _rguid1$[ebp]
	mov	ecx, DWORD PTR _rguid2$[ebp]
	mov	edx, DWORD PTR [eax+4]
	cmp	edx, DWORD PTR [ecx+4]
	jne	SHORT $L205960
	mov	eax, DWORD PTR _rguid1$[ebp]
	mov	ecx, DWORD PTR _rguid2$[ebp]
	mov	edx, DWORD PTR [eax+8]
	cmp	edx, DWORD PTR [ecx+8]
	jne	SHORT $L205960
	mov	eax, DWORD PTR _rguid1$[ebp]
	mov	ecx, DWORD PTR _rguid2$[ebp]
	mov	edx, DWORD PTR [eax+12]
	cmp	edx, DWORD PTR [ecx+12]
	jne	SHORT $L205960
	mov	DWORD PTR tv74[ebp], 1
	jmp	SHORT $L205961
$L205960:
	mov	DWORD PTR tv74[ebp], 0
$L205961:
	mov	eax, DWORD PTR tv74[ebp]

; 157  : }

	mov	esp, ebp
	pop	ebp
	ret	0
_InlineIsEqualGUID ENDP
_TEXT	ENDS
PUBLIC	?RegisterServer@CComModule@ATL@@QAEJHPBU_GUID@@@Z ; ATL::CComModule::RegisterServer
PUBLIC	_DllRegisterServer@0
; Function compile flags: /Odt /RTCsu
; File c:\activex\xmlsign\xmlsign.cpp
_TEXT	SEGMENT
_DllRegisterServer@0 PROC NEAR

; 115  : {

	push	ebp
	mov	ebp, esp

; 116  :     // registers object, typelib and all interfaces in typelib
; 117  :     return _Module.RegisterServer(TRUE);

	push	0
	push	1
	mov	ecx, OFFSET FLAT:?_Module@@3VCComModule@ATL@@A
	call	?RegisterServer@CComModule@ATL@@QAEJHPBU_GUID@@@Z ; ATL::CComModule::RegisterServer

; 118  : }

	cmp	ebp, esp
	call	__RTC_CheckEsp
	pop	ebp
	ret	0
_DllRegisterServer@0 ENDP
_TEXT	ENDS
PUBLIC	?RegisterServer@?$CAtlModuleT@VCComModule@ATL@@@ATL@@QAEJHPBU_GUID@@@Z ; ATL::CAtlModuleT<ATL::CComModule>::RegisterServer
PUBLIC	_IsEqualGUID
EXTRN	__imp__AtlRegisterClassCategoriesHelper@12:NEAR
; Function compile flags: /Odt /RTCsu
; File c:\program files\microsoft visual studio .net 2003\vc7\atlmfc\include\atlbase.h
;	COMDAT ?RegisterServer@CComModule@ATL@@QAEJHPBU_GUID@@@Z
_TEXT	SEGMENT
_pEntry$ = -12						; size = 4
_hr$ = -8						; size = 4
_this$ = -4						; size = 4
_bRegTypeLib$ = 8					; size = 4
_pCLSID$ = 12						; size = 4
?RegisterServer@CComModule@ATL@@QAEJHPBU_GUID@@@Z PROC NEAR ; ATL::CComModule::RegisterServer, COMDAT
; _this$ = ecx

; 6621 : {

	push	ebp
	mov	ebp, esp
	sub	esp, 12					; 0000000cH
	push	esi
	push	edi
	mov	DWORD PTR [ebp-12], -858993460		; ccccccccH
	mov	DWORD PTR [ebp-8], -858993460		; ccccccccH
	mov	DWORD PTR [ebp-4], -858993460		; ccccccccH
	mov	DWORD PTR _this$[ebp], ecx

; 6622 : 	HRESULT hr = S_OK;

	mov	DWORD PTR _hr$[ebp], 0

; 6623 : 	_ATL_OBJMAP_ENTRY* pEntry = m_pObjMap;

	mov	eax, DWORD PTR _this$[ebp]
	mov	ecx, DWORD PTR [eax+44]
	mov	DWORD PTR _pEntry$[ebp], ecx

; 6624 : 	if (pEntry != NULL)

	cmp	DWORD PTR _pEntry$[ebp], 0
	je	$L90072

; 6625 : 	{
; 6626 : 		for (;pEntry->pclsid != NULL; pEntry++)

	jmp	SHORT $L90073
$L90074:
	mov	edx, DWORD PTR _pEntry$[ebp]
	add	edx, 36					; 00000024H
	mov	DWORD PTR _pEntry$[ebp], edx
$L90073:
	mov	eax, DWORD PTR _pEntry$[ebp]
	cmp	DWORD PTR [eax], 0
	je	SHORT $L90072

; 6627 : 		{
; 6628 : 			if (pCLSID != NULL)

	cmp	DWORD PTR _pCLSID$[ebp], 0
	je	SHORT $L90076

; 6629 : 			{
; 6630 : 				if (!IsEqualGUID(*pCLSID, *pEntry->pclsid))

	mov	ecx, DWORD PTR _pEntry$[ebp]
	mov	edx, DWORD PTR [ecx]
	push	edx
	mov	eax, DWORD PTR _pCLSID$[ebp]
	push	eax
	call	_IsEqualGUID
	add	esp, 8
	test	eax, eax
	jne	SHORT $L90076

; 6631 : 					continue;

	jmp	SHORT $L90074
$L90076:

; 6632 : 			}
; 6633 : 			hr = pEntry->pfnUpdateRegistry(TRUE);

	mov	esi, esp
	push	1
	mov	ecx, DWORD PTR _pEntry$[ebp]
	call	DWORD PTR [ecx+4]
	cmp	esi, esp
	call	__RTC_CheckEsp
	mov	DWORD PTR _hr$[ebp], eax

; 6634 : 			if (FAILED(hr))

	cmp	DWORD PTR _hr$[ebp], 0
	jge	SHORT $L90079

; 6635 : 				break;

	jmp	SHORT $L90072
$L90079:

; 6636 : 			hr = AtlRegisterClassCategoriesHelper( *pEntry->pclsid,
; 6637 : 				pEntry->pfnGetCategoryMap(), TRUE );

	mov	esi, esp
	push	1
	mov	edx, DWORD PTR _pEntry$[ebp]
	mov	edi, esp
	call	DWORD PTR [edx+28]
	cmp	edi, esp
	call	__RTC_CheckEsp
	push	eax
	mov	eax, DWORD PTR _pEntry$[ebp]
	mov	ecx, DWORD PTR [eax]
	push	ecx
	call	DWORD PTR __imp__AtlRegisterClassCategoriesHelper@12
	cmp	esi, esp
	call	__RTC_CheckEsp
	mov	DWORD PTR _hr$[ebp], eax

; 6638 : 			if (FAILED(hr))

	cmp	DWORD PTR _hr$[ebp], 0
	jge	SHORT $L90081

; 6639 : 				break;

	jmp	SHORT $L90072
$L90081:

; 6640 : 		}

	jmp	SHORT $L90074
$L90072:

; 6641 : 	}
; 6642 : 	if (SUCCEEDED(hr))

	cmp	DWORD PTR _hr$[ebp], 0
	jl	SHORT $L90083

; 6643 : 		hr = CAtlModuleT<CComModule>::RegisterServer(bRegTypeLib, pCLSID);

	mov	edx, DWORD PTR _pCLSID$[ebp]
	push	edx
	mov	eax, DWORD PTR _bRegTypeLib$[ebp]
	push	eax
	mov	ecx, DWORD PTR _this$[ebp]
	call	?RegisterServer@?$CAtlModuleT@VCComModule@ATL@@@ATL@@QAEJHPBU_GUID@@@Z ; ATL::CAtlModuleT<ATL::CComModule>::RegisterServer
	mov	DWORD PTR _hr$[ebp], eax
$L90083:

; 6644 : 	return hr;

	mov	eax, DWORD PTR _hr$[ebp]

; 6645 : }

	pop	edi
	pop	esi
	add	esp, 12					; 0000000cH
	cmp	ebp, esp
	call	__RTC_CheckEsp
	mov	esp, ebp
	pop	ebp
	ret	8
?RegisterServer@CComModule@ATL@@QAEJHPBU_GUID@@@Z ENDP	; ATL::CComModule::RegisterServer
_TEXT	ENDS
EXTRN	_memcmp:NEAR
; Function compile flags: /Odt /RTCsu
; File c:\program files\microsoft visual studio .net 2003\vc7\platformsdk\include\guiddef.h
;	COMDAT _IsEqualGUID
_TEXT	SEGMENT
_rguid1$ = 8						; size = 4
_rguid2$ = 12						; size = 4
_IsEqualGUID PROC NEAR					; COMDAT

; 160  : {

	push	ebp
	mov	ebp, esp

; 161  :     return !memcmp(&rguid1, &rguid2, sizeof(GUID));

	push	16					; 00000010H
	mov	eax, DWORD PTR _rguid2$[ebp]
	push	eax
	mov	ecx, DWORD PTR _rguid1$[ebp]
	push	ecx
	call	_memcmp
	add	esp, 12					; 0000000cH
	neg	eax
	sbb	eax, eax
	inc	eax

; 162  : }

	cmp	ebp, esp
	call	__RTC_CheckEsp
	pop	ebp
	ret	0
_IsEqualGUID ENDP
_TEXT	ENDS
PUBLIC	?UnregisterServer@CComModule@ATL@@QAEJHPBU_GUID@@@Z ; ATL::CComModule::UnregisterServer
PUBLIC	_DllUnregisterServer@0
; Function compile flags: /Odt /RTCsu
; File c:\activex\xmlsign\xmlsign.cpp
_TEXT	SEGMENT
_DllUnregisterServer@0 PROC NEAR

; 124  : {

	push	ebp
	mov	ebp, esp

; 125  :     return _Module.UnregisterServer(TRUE);

	push	0
	push	1
	mov	ecx, OFFSET FLAT:?_Module@@3VCComModule@ATL@@A
	call	?UnregisterServer@CComModule@ATL@@QAEJHPBU_GUID@@@Z ; ATL::CComModule::UnregisterServer

; 126  : }

	cmp	ebp, esp
	call	__RTC_CheckEsp
	pop	ebp
	ret	0
_DllUnregisterServer@0 ENDP
_TEXT	ENDS
PUBLIC	?UnregisterServer@?$CAtlModuleT@VCComModule@ATL@@@ATL@@QAEJHPBU_GUID@@@Z ; ATL::CAtlModuleT<ATL::CComModule>::UnregisterServer
; Function compile flags: /Odt /RTCsu
; File c:\program files\microsoft visual studio .net 2003\vc7\atlmfc\include\atlbase.h
;	COMDAT ?UnregisterServer@CComModule@ATL@@QAEJHPBU_GUID@@@Z
_TEXT	SEGMENT
_pEntry$ = -12						; size = 4
_hr$ = -8						; size = 4
_this$ = -4						; size = 4
_bUnRegTypeLib$ = 8					; size = 4
_pCLSID$ = 12						; size = 4
?UnregisterServer@CComModule@ATL@@QAEJHPBU_GUID@@@Z PROC NEAR ; ATL::CComModule::UnregisterServer, COMDAT
; _this$ = ecx

; 6648 : {

	push	ebp
	mov	ebp, esp
	sub	esp, 12					; 0000000cH
	push	esi
	push	edi
	mov	DWORD PTR [ebp-12], -858993460		; ccccccccH
	mov	DWORD PTR [ebp-8], -858993460		; ccccccccH
	mov	DWORD PTR [ebp-4], -858993460		; ccccccccH
	mov	DWORD PTR _this$[ebp], ecx

; 6649 : 	HRESULT hr = S_OK;	

	mov	DWORD PTR _hr$[ebp], 0

; 6650 : 	_ATL_OBJMAP_ENTRY* pEntry = m_pObjMap;

	mov	eax, DWORD PTR _this$[ebp]
	mov	ecx, DWORD PTR [eax+44]
	mov	DWORD PTR _pEntry$[ebp], ecx

; 6651 : 	if (pEntry != NULL)

	cmp	DWORD PTR _pEntry$[ebp], 0
	je	$L90092

; 6652 : 	{
; 6653 : 		for (;pEntry->pclsid != NULL; pEntry++)

	jmp	SHORT $L90093
$L90094:
	mov	edx, DWORD PTR _pEntry$[ebp]
	add	edx, 36					; 00000024H
	mov	DWORD PTR _pEntry$[ebp], edx
$L90093:
	mov	eax, DWORD PTR _pEntry$[ebp]
	cmp	DWORD PTR [eax], 0
	je	SHORT $L90092

; 6654 : 		{
; 6655 : 			if (pCLSID != NULL)

	cmp	DWORD PTR _pCLSID$[ebp], 0
	je	SHORT $L90096

; 6656 : 			{
; 6657 : 				if (!IsEqualGUID(*pCLSID, *pEntry->pclsid))

	mov	ecx, DWORD PTR _pEntry$[ebp]
	mov	edx, DWORD PTR [ecx]
	push	edx
	mov	eax, DWORD PTR _pCLSID$[ebp]
	push	eax
	call	_IsEqualGUID
	add	esp, 8
	test	eax, eax
	jne	SHORT $L90096

; 6658 : 					continue;

	jmp	SHORT $L90094
$L90096:

; 6659 : 			}
; 6660 : 			hr = AtlRegisterClassCategoriesHelper( *pEntry->pclsid,
; 6661 : 				pEntry->pfnGetCategoryMap(), FALSE );

	mov	esi, esp
	push	0
	mov	ecx, DWORD PTR _pEntry$[ebp]
	mov	edi, esp
	call	DWORD PTR [ecx+28]
	cmp	edi, esp
	call	__RTC_CheckEsp
	push	eax
	mov	edx, DWORD PTR _pEntry$[ebp]
	mov	eax, DWORD PTR [edx]
	push	eax
	call	DWORD PTR __imp__AtlRegisterClassCategoriesHelper@12
	cmp	esi, esp
	call	__RTC_CheckEsp
	mov	DWORD PTR _hr$[ebp], eax

; 6662 : 			if (FAILED(hr))

	cmp	DWORD PTR _hr$[ebp], 0
	jge	SHORT $L90099

; 6663 : 				break;

	jmp	SHORT $L90092
$L90099:

; 6664 : 			hr = pEntry->pfnUpdateRegistry(FALSE); //unregister

	mov	esi, esp
	push	0
	mov	ecx, DWORD PTR _pEntry$[ebp]
	call	DWORD PTR [ecx+4]
	cmp	esi, esp
	call	__RTC_CheckEsp
	mov	DWORD PTR _hr$[ebp], eax

; 6665 : 			if (FAILED(hr))

	cmp	DWORD PTR _hr$[ebp], 0
	jge	SHORT $L90101

; 6666 : 				break;

	jmp	SHORT $L90092
$L90101:

; 6667 : 		}

	jmp	SHORT $L90094
$L90092:

; 6668 : 	}
; 6669 : 	if (SUCCEEDED(hr))

	cmp	DWORD PTR _hr$[ebp], 0
	jl	SHORT $L90103

; 6670 : 		hr = CAtlModuleT<CComModule>::UnregisterServer(bUnRegTypeLib, pCLSID);

	mov	edx, DWORD PTR _pCLSID$[ebp]
	push	edx
	mov	eax, DWORD PTR _bUnRegTypeLib$[ebp]
	push	eax
	mov	ecx, DWORD PTR _this$[ebp]
	call	?UnregisterServer@?$CAtlModuleT@VCComModule@ATL@@@ATL@@QAEJHPBU_GUID@@@Z ; ATL::CAtlModuleT<ATL::CComModule>::UnregisterServer
	mov	DWORD PTR _hr$[ebp], eax
$L90103:

; 6671 : 	return hr;

	mov	eax, DWORD PTR _hr$[ebp]

; 6672 : }

	pop	edi
	pop	esi
	add	esp, 12					; 0000000cH
	cmp	ebp, esp
	call	__RTC_CheckEsp
	mov	esp, ebp
	pop	ebp
	ret	8
?UnregisterServer@CComModule@ATL@@QAEJHPBU_GUID@@@Z ENDP ; ATL::CComModule::UnregisterServer
_TEXT	ENDS
PUBLIC	?Init@?$CW2AEX@$0IA@@ATL@@AAEXPBGI@Z		; ATL::CW2AEX<128>::Init
; Function compile flags: /Odt /RTCsu
; File c:\program files\microsoft visual studio .net 2003\vc7\atlmfc\include\atlconv.h
;	COMDAT ??0?$CW2AEX@$0IA@@ATL@@QAE@PBG@Z
_TEXT	SEGMENT
_this$ = -4						; size = 4
_psz$ = 8						; size = 4
??0?$CW2AEX@$0IA@@ATL@@QAE@PBG@Z PROC NEAR		; ATL::CW2AEX<128>::CW2AEX<128>, COMDAT
; _this$ = ecx

; 419  : 	{

	push	ebp
	mov	ebp, esp
	push	ecx
	mov	DWORD PTR [ebp-4], -858993460		; ccccccccH
	mov	DWORD PTR _this$[ebp], ecx
	mov	eax, DWORD PTR _this$[ebp]
	add	eax, 4
	mov	ecx, DWORD PTR _this$[ebp]
	mov	DWORD PTR [ecx], eax

; 420  : 		Init( psz, _AtlGetConversionACP() );

	call	?_AtlGetConversionACP@ATL@@YGIXZ	; ATL::_AtlGetConversionACP
	push	eax
	mov	edx, DWORD PTR _psz$[ebp]
	push	edx
	mov	ecx, DWORD PTR _this$[ebp]
	call	?Init@?$CW2AEX@$0IA@@ATL@@AAEXPBGI@Z	; ATL::CW2AEX<128>::Init

; 421  : 	}

	mov	eax, DWORD PTR _this$[ebp]
	add	esp, 4
	cmp	ebp, esp
	call	__RTC_CheckEsp
	mov	esp, ebp
	pop	ebp
	ret	4
??0?$CW2AEX@$0IA@@ATL@@QAE@PBG@Z ENDP			; ATL::CW2AEX<128>::CW2AEX<128>
_TEXT	ENDS
EXTRN	_free:NEAR
; Function compile flags: /Odt /RTCsu
;	COMDAT ??1?$CW2AEX@$0IA@@ATL@@QAE@XZ
_TEXT	SEGMENT
_this$ = -4						; size = 4
??1?$CW2AEX@$0IA@@ATL@@QAE@XZ PROC NEAR			; ATL::CW2AEX<128>::~CW2AEX<128>, COMDAT
; _this$ = ecx

; 428  : 	{

	push	ebp
	mov	ebp, esp
	push	ecx
	mov	DWORD PTR [ebp-4], -858993460		; ccccccccH
	mov	DWORD PTR _this$[ebp], ecx

; 429  : 		if( m_psz != m_szBuffer )

	mov	eax, DWORD PTR _this$[ebp]
	add	eax, 4
	mov	ecx, DWORD PTR _this$[ebp]
	cmp	DWORD PTR [ecx], eax
	je	SHORT $L202554

; 430  : 		{
; 431  : 			free( m_psz );

	mov	edx, DWORD PTR _this$[ebp]
	mov	eax, DWORD PTR [edx]
	push	eax
	call	_free
	add	esp, 4
$L202554:

; 432  : 		}
; 433  : 	}

	add	esp, 4
	cmp	ebp, esp
	call	__RTC_CheckEsp
	mov	esp, ebp
	pop	ebp
	ret	0
??1?$CW2AEX@$0IA@@ATL@@QAE@XZ ENDP			; ATL::CW2AEX<128>::~CW2AEX<128>
; Function compile flags: /Odt /RTCsu
_TEXT	ENDS
;	COMDAT ??B?$CW2AEX@$0IA@@ATL@@QBEPADXZ
_TEXT	SEGMENT
_this$ = -4						; size = 4
??B?$CW2AEX@$0IA@@ATL@@QBEPADXZ PROC NEAR		; ATL::CW2AEX<128>::operator char *, COMDAT
; _this$ = ecx

; 436  : 	{

	push	ebp
	mov	ebp, esp
	push	ecx
	mov	DWORD PTR [ebp-4], -858993460		; ccccccccH
	mov	DWORD PTR _this$[ebp], ecx

; 437  : 		return( m_psz );

	mov	eax, DWORD PTR _this$[ebp]
	mov	eax, DWORD PTR [eax]

; 438  : 	}

	mov	esp, ebp
	pop	ebp
	ret	0
??B?$CW2AEX@$0IA@@ATL@@QBEPADXZ ENDP			; ATL::CW2AEX<128>::operator char *
; Function compile flags: /Odt /RTCsu
; File c:\program files\microsoft visual studio .net 2003\vc7\atlmfc\include\atlcom.h
_TEXT	ENDS
;	COMDAT ?GetObjectDescription@?$CComCoClass@VCSignature@@$1?CLSID_Signature@@3U_GUID@@B@ATL@@SGPBDXZ
_TEXT	SEGMENT
?GetObjectDescription@?$CComCoClass@VCSignature@@$1?CLSID_Signature@@3U_GUID@@B@ATL@@SGPBDXZ PROC NEAR ; ATL::CComCoClass<CSignature,&CLSID_Signature>::GetObjectDescription, COMDAT

; 3412 : 	static LPCTSTR WINAPI GetObjectDescription() {return NULL;}

	push	ebp
	mov	ebp, esp
	xor	eax, eax
	pop	ebp
	ret	0
?GetObjectDescription@?$CComCoClass@VCSignature@@$1?CLSID_Signature@@3U_GUID@@B@ATL@@SGPBDXZ ENDP ; ATL::CComCoClass<CSignature,&CLSID_Signature>::GetObjectDescription
_TEXT	ENDS
PUBLIC	??_C@_0EP@FBJOMLAB@C?3?2Program?5Files?2Microsoft?5Visua@ ; `string'
PUBLIC	??0?$CComObjectCached@VCComClassFactory@ATL@@@ATL@@QAE@PAX@Z ; ATL::CComObjectCached<ATL::CComClassFactory>::CComObjectCached<ATL::CComClassFactory>
PUBLIC	?FinalConstruct@CComObjectRootBase@ATL@@QAEJXZ	; ATL::CComObjectRootBase::FinalConstruct
PUBLIC	?_AtlFinalConstruct@CComObjectRootBase@ATL@@QAEJXZ ; ATL::CComObjectRootBase::_AtlFinalConstruct
PUBLIC	?InternalFinalConstructAddRef@CComObjectRootBase@ATL@@QAEXXZ ; ATL::CComObjectRootBase::InternalFinalConstructAddRef
PUBLIC	?InternalFinalConstructRelease@CComObjectRootBase@ATL@@QAEXXZ ; ATL::CComObjectRootBase::InternalFinalConstructRelease
PUBLIC	?SetVoid@CComClassFactory@ATL@@QAEXPAX@Z	; ATL::CComClassFactory::SetVoid
PUBLIC	??_C@_08NEPKAPOI@ppv?5?$CB?$DN?50?$AA@		; `string'
EXTRN	??2@YAPAXI@Z:NEAR				; operator new
;	COMDAT xdata$x
xdata$x	SEGMENT
$T205995 DD	0ffffffffH
	DD	00H
	DD	00H
	DD	FLAT:$L205991
	DD	0ffffffffH
	DD	00H
$T205997 DD	00H
	DD	00H
	DD	00H
	DD	FLAT:$L205990
$T205996 DD	00H
	DD	01H
	DD	02H
	DD	01H
	DD	FLAT:$T205997
$T205993 DD	019930520H
	DD	03H
	DD	FLAT:$T205995
	DD	01H
	DD	FLAT:$T205996
	DD	2 DUP(00H)
xdata$x	ENDS
;	COMDAT ??_C@_08NEPKAPOI@ppv?5?$CB?$DN?50?$AA@
CONST	SEGMENT
??_C@_08NEPKAPOI@ppv?5?$CB?$DN?50?$AA@ DB 'ppv != 0', 00H ; `string'
CONST	ENDS
;	COMDAT ??_C@_0EP@FBJOMLAB@C?3?2Program?5Files?2Microsoft?5Visua@
CONST	SEGMENT
??_C@_0EP@FBJOMLAB@C?3?2Program?5Files?2Microsoft?5Visua@ DB 'C:\Program '
	DB	'Files\Microsoft Visual Studio .NET 2003\Vc7\atlmfc\include\at'
	DB	'lcom.h', 00H				; `string'
; Function compile flags: /Odt /RTCsu
CONST	ENDS
;	COMDAT ?CreateInstance@?$CComCreator@V?$CComObjectCached@VCComClassFactory@ATL@@@ATL@@@ATL@@SGJPAXABU_GUID@@PAPAX@Z
_TEXT	SEGMENT
tv142 = -56						; size = 4
tv82 = -52						; size = 4
tv147 = -48						; size = 4
tv145 = -44						; size = 4
$T205986 = -40						; size = 4
$T205985 = -36						; size = 4
$T205982 = -32						; size = 4
$T205981 = -28						; size = 4
_p$ = -24						; size = 4
_hRes$ = -20						; size = 4
__$EHRec$ = -16						; size = 16
_pv$ = 8						; size = 4
_riid$ = 12						; size = 4
_ppv$ = 16						; size = 4
?CreateInstance@?$CComCreator@V?$CComObjectCached@VCComClassFactory@ATL@@@ATL@@@ATL@@SGJPAXABU_GUID@@PAPAX@Z PROC NEAR ; ATL::CComCreator<ATL::CComObjectCached<ATL::CComClassFactory> >::CreateInstance, COMDAT

; 1751 : 	{

	push	ebp
	mov	ebp, esp
	push	-1
	push	__ehhandler$?CreateInstance@?$CComCreator@V?$CComObjectCached@VCComClassFactory@ATL@@@ATL@@@ATL@@SGJPAXABU_GUID@@PAPAX@Z
	mov	eax, DWORD PTR fs:__except_list
	push	eax
	mov	DWORD PTR fs:__except_list, esp
	push	ecx
	sub	esp, 40					; 00000028H
	push	ebx
	push	esi
	push	edi
	lea	edi, DWORD PTR [ebp-56]
	mov	ecx, 10					; 0000000aH
	mov	eax, -858993460				; ccccccccH
	rep stosd
	mov	DWORD PTR __$EHRec$[ebp], esp

; 1752 : 		ATLASSERT(ppv != NULL);

	cmp	DWORD PTR _ppv$[ebp], 0
	jne	SHORT $L205980
	push	OFFSET FLAT:??_C@_08NEPKAPOI@ppv?5?$CB?$DN?50?$AA@
	push	0
	push	1752					; 000006d8H
	push	OFFSET FLAT:??_C@_0EP@FBJOMLAB@C?3?2Program?5Files?2Microsoft?5Visua@
	push	2
	call	__CrtDbgReport
	add	esp, 20					; 00000014H
	cmp	eax, 1
	jne	SHORT $L205980
	int	3
$L205980:

; 1753 : 		if (ppv == NULL)

	cmp	DWORD PTR _ppv$[ebp], 0
	jne	SHORT $L202822

; 1754 : 			return E_POINTER;

	mov	eax, -2147467261			; 80004003H
	jmp	$L202820
$L202822:

; 1755 : 		*ppv = NULL;

	mov	ecx, DWORD PTR _ppv$[ebp]
	mov	DWORD PTR [ecx], 0

; 1756 : 
; 1757 : 		HRESULT hRes = E_OUTOFMEMORY;

	mov	DWORD PTR _hRes$[ebp], -2147024882	; 8007000eH

; 1758 : 		T1* p = NULL;

	mov	DWORD PTR _p$[ebp], 0

; 1759 : 		ATLTRY(p = new T1(pv))

	mov	DWORD PTR __$EHRec$[ebp+12], 0
	push	60					; 0000003cH
	call	??2@YAPAXI@Z				; operator new
	add	esp, 4
	mov	DWORD PTR tv145[ebp], eax
	mov	edx, DWORD PTR tv145[ebp]
	mov	DWORD PTR $T205982[ebp], edx
	mov	BYTE PTR __$EHRec$[ebp+12], 1
	cmp	DWORD PTR $T205982[ebp], 0
	je	SHORT $L205983
	mov	eax, DWORD PTR _pv$[ebp]
	push	eax
	mov	ecx, DWORD PTR $T205982[ebp]
	call	??0?$CComObjectCached@VCComClassFactory@ATL@@@ATL@@QAE@PAX@Z ; ATL::CComObjectCached<ATL::CComClassFactory>::CComObjectCached<ATL::CComClassFactory>
	mov	DWORD PTR tv147[ebp], eax
	mov	ecx, DWORD PTR tv147[ebp]
	mov	DWORD PTR tv82[ebp], ecx
	jmp	SHORT $L205984
$L205983:
	mov	DWORD PTR tv82[ebp], 0
$L205984:
	mov	edx, DWORD PTR tv82[ebp]
	mov	DWORD PTR $T205981[ebp], edx
	mov	BYTE PTR __$EHRec$[ebp+12], 0
	mov	eax, DWORD PTR $T205981[ebp]
	mov	DWORD PTR _p$[ebp], eax
	jmp	SHORT $L205989
$L205990:
	mov	eax, $L205989
	ret	0
$L205989:
	mov	DWORD PTR __$EHRec$[ebp+12], -1

; 1760 : 		if (p != NULL)

	cmp	DWORD PTR _p$[ebp], 0
	je	$L202857

; 1761 : 		{
; 1762 : 			p->SetVoid(pv);

	mov	ecx, DWORD PTR _pv$[ebp]
	push	ecx
	mov	ecx, DWORD PTR _p$[ebp]
	call	?SetVoid@CComClassFactory@ATL@@QAEXPAX@Z ; ATL::CComClassFactory::SetVoid

; 1763 : 			p->InternalFinalConstructAddRef();

	mov	ecx, DWORD PTR _p$[ebp]
	add	ecx, 4
	call	?InternalFinalConstructAddRef@CComObjectRootBase@ATL@@QAEXXZ ; ATL::CComObjectRootBase::InternalFinalConstructAddRef

; 1764 : 			hRes = p->FinalConstruct();

	mov	ecx, DWORD PTR _p$[ebp]
	add	ecx, 4
	call	?FinalConstruct@CComObjectRootBase@ATL@@QAEJXZ ; ATL::CComObjectRootBase::FinalConstruct
	mov	DWORD PTR _hRes$[ebp], eax

; 1765 : 			if (SUCCEEDED(hRes))

	cmp	DWORD PTR _hRes$[ebp], 0
	jl	SHORT $L202859

; 1766 : 				hRes = p->_AtlFinalConstruct();

	mov	ecx, DWORD PTR _p$[ebp]
	add	ecx, 4
	call	?_AtlFinalConstruct@CComObjectRootBase@ATL@@QAEJXZ ; ATL::CComObjectRootBase::_AtlFinalConstruct
	mov	DWORD PTR _hRes$[ebp], eax
$L202859:

; 1767 : 			p->InternalFinalConstructRelease();

	mov	ecx, DWORD PTR _p$[ebp]
	add	ecx, 4
	call	?InternalFinalConstructRelease@CComObjectRootBase@ATL@@QAEXXZ ; ATL::CComObjectRootBase::InternalFinalConstructRelease

; 1768 : 			if (hRes == S_OK)

	cmp	DWORD PTR _hRes$[ebp], 0
	jne	SHORT $L202861

; 1769 : 				hRes = p->QueryInterface(riid, ppv);

	mov	esi, esp
	mov	edx, DWORD PTR _ppv$[ebp]
	push	edx
	mov	eax, DWORD PTR _riid$[ebp]
	push	eax
	mov	ecx, DWORD PTR _p$[ebp]
	push	ecx
	mov	edx, DWORD PTR _p$[ebp]
	mov	eax, DWORD PTR [edx]
	call	DWORD PTR [eax]
	cmp	esi, esp
	call	__RTC_CheckEsp
	mov	DWORD PTR _hRes$[ebp], eax
$L202861:

; 1770 : 			if (hRes != S_OK)

	cmp	DWORD PTR _hRes$[ebp], 0
	je	SHORT $L202857

; 1771 : 				delete p;

	mov	ecx, DWORD PTR _p$[ebp]
	mov	DWORD PTR $T205986[ebp], ecx
	mov	edx, DWORD PTR $T205986[ebp]
	mov	DWORD PTR $T205985[ebp], edx
	cmp	DWORD PTR $T205985[ebp], 0
	je	SHORT $L205987
	mov	esi, esp
	push	1
	mov	eax, DWORD PTR $T205985[ebp]
	mov	edx, DWORD PTR [eax]
	mov	ecx, DWORD PTR $T205985[ebp]
	call	DWORD PTR [edx+20]
	cmp	esi, esp
	call	__RTC_CheckEsp
	mov	DWORD PTR tv142[ebp], eax
	jmp	SHORT $L202857
$L205987:
	mov	DWORD PTR tv142[ebp], 0
$L202857:

; 1772 : 		}
; 1773 : 		return hRes;

	mov	eax, DWORD PTR _hRes$[ebp]
$L202820:

; 1774 : 	}

	mov	ecx, DWORD PTR __$EHRec$[ebp+4]
	mov	DWORD PTR fs:__except_list, ecx
	pop	edi
	pop	esi
	pop	ebx
	add	esp, 56					; 00000038H
	cmp	ebp, esp
	call	__RTC_CheckEsp
	mov	esp, ebp
	pop	ebp
	ret	12					; 0000000cH
_TEXT	ENDS
;	COMDAT text$x
text$x	SEGMENT
$L205991:
	mov	eax, DWORD PTR $T205982[ebp]
	push	eax
	call	??3@YAXPAX@Z				; operator delete
	pop	ecx
	ret	0
__ehhandler$?CreateInstance@?$CComCreator@V?$CComObjectCached@VCComClassFactory@ATL@@@ATL@@@ATL@@SGJPAXABU_GUID@@PAPAX@Z:
	mov	eax, OFFSET FLAT:$T205993
	jmp	___CxxFrameHandler
text$x	ENDS
?CreateInstance@?$CComCreator@V?$CComObjectCached@VCComClassFactory@ATL@@@ATL@@@ATL@@SGJPAXABU_GUID@@PAPAX@Z ENDP ; ATL::CComCreator<ATL::CComObjectCached<ATL::CComClassFactory> >::CreateInstance
; Function compile flags: /Odt /RTCsu
;	COMDAT ?FinalConstruct@CComObjectRootBase@ATL@@QAEJXZ
_TEXT	SEGMENT
_this$ = -4						; size = 4
?FinalConstruct@CComObjectRootBase@ATL@@QAEJXZ PROC NEAR ; ATL::CComObjectRootBase::FinalConstruct, COMDAT
; _this$ = ecx

; 2133 : 	{

	push	ebp
	mov	ebp, esp
	push	ecx
	mov	DWORD PTR [ebp-4], -858993460		; ccccccccH
	mov	DWORD PTR _this$[ebp], ecx

; 2134 : 		return S_OK;

	xor	eax, eax

; 2135 : 	}

	mov	esp, ebp
	pop	ebp
	ret	0
?FinalConstruct@CComObjectRootBase@ATL@@QAEJXZ ENDP	; ATL::CComObjectRootBase::FinalConstruct
; Function compile flags: /Odt /RTCsu
_TEXT	ENDS
;	COMDAT ?_AtlFinalConstruct@CComObjectRootBase@ATL@@QAEJXZ
_TEXT	SEGMENT
_this$ = -4						; size = 4
?_AtlFinalConstruct@CComObjectRootBase@ATL@@QAEJXZ PROC NEAR ; ATL::CComObjectRootBase::_AtlFinalConstruct, COMDAT
; _this$ = ecx

; 2138 : 	{

	push	ebp
	mov	ebp, esp
	push	ecx
	mov	DWORD PTR [ebp-4], -858993460		; ccccccccH
	mov	DWORD PTR _this$[ebp], ecx

; 2139 : 		return S_OK;

	xor	eax, eax

; 2140 : 	}

	mov	esp, ebp
	pop	ebp
	ret	0
?_AtlFinalConstruct@CComObjectRootBase@ATL@@QAEJXZ ENDP	; ATL::CComObjectRootBase::_AtlFinalConstruct
; Function compile flags: /Odt /RTCsu
_TEXT	ENDS
;	COMDAT ?InternalFinalConstructAddRef@CComObjectRootBase@ATL@@QAEXXZ
_TEXT	SEGMENT
_this$ = -4						; size = 4
?InternalFinalConstructAddRef@CComObjectRootBase@ATL@@QAEXXZ PROC NEAR ; ATL::CComObjectRootBase::InternalFinalConstructAddRef, COMDAT
; _this$ = ecx

; 2193 : 	void InternalFinalConstructAddRef() {}

	push	ebp
	mov	ebp, esp
	push	ecx
	mov	DWORD PTR [ebp-4], -858993460		; ccccccccH
	mov	DWORD PTR _this$[ebp], ecx
	mov	esp, ebp
	pop	ebp
	ret	0
?InternalFinalConstructAddRef@CComObjectRootBase@ATL@@QAEXXZ ENDP ; ATL::CComObjectRootBase::InternalFinalConstructAddRef
_TEXT	ENDS
PUBLIC	??_C@_0N@JELNCKOF@m_dwRef?5?$DN?$DN?50?$AA@	; `string'
;	COMDAT ??_C@_0N@JELNCKOF@m_dwRef?5?$DN?$DN?50?$AA@
CONST	SEGMENT
??_C@_0N@JELNCKOF@m_dwRef?5?$DN?$DN?50?$AA@ DB 'm_dwRef == 0', 00H ; `string'
; Function compile flags: /Odt /RTCsu
CONST	ENDS
;	COMDAT ?InternalFinalConstructRelease@CComObjectRootBase@ATL@@QAEXXZ
_TEXT	SEGMENT
_this$ = -4						; size = 4
?InternalFinalConstructRelease@CComObjectRootBase@ATL@@QAEXXZ PROC NEAR ; ATL::CComObjectRootBase::InternalFinalConstructRelease, COMDAT
; _this$ = ecx

; 2195 : 	{

	push	ebp
	mov	ebp, esp
	push	ecx
	mov	DWORD PTR [ebp-4], -858993460		; ccccccccH
	mov	DWORD PTR _this$[ebp], ecx

; 2196 : 		ATLASSERT(m_dwRef == 0);

	mov	eax, DWORD PTR _this$[ebp]
	cmp	DWORD PTR [eax], 0
	je	SHORT $L91428
	push	OFFSET FLAT:??_C@_0N@JELNCKOF@m_dwRef?5?$DN?$DN?50?$AA@
	push	0
	push	2196					; 00000894H
	push	OFFSET FLAT:??_C@_0EP@FBJOMLAB@C?3?2Program?5Files?2Microsoft?5Visua@
	push	2
	call	__CrtDbgReport
	add	esp, 20					; 00000014H
	cmp	eax, 1
	jne	SHORT $L91428
	int	3
$L91428:

; 2197 : 	}

	add	esp, 4
	cmp	ebp, esp
	call	__RTC_CheckEsp
	mov	esp, ebp
	pop	ebp
	ret	0
?InternalFinalConstructRelease@CComObjectRootBase@ATL@@QAEXXZ ENDP ; ATL::CComObjectRootBase::InternalFinalConstructRelease
; Function compile flags: /Odt /RTCsu
_TEXT	ENDS
;	COMDAT ?SetVoid@CComClassFactory@ATL@@QAEXPAX@Z
_TEXT	SEGMENT
_this$ = -4						; size = 4
_pv$ = 8						; size = 4
?SetVoid@CComClassFactory@ATL@@QAEXPAX@Z PROC NEAR	; ATL::CComClassFactory::SetVoid, COMDAT
; _this$ = ecx

; 3195 : 	{

	push	ebp
	mov	ebp, esp
	push	ecx
	mov	DWORD PTR [ebp-4], -858993460		; ccccccccH
	mov	DWORD PTR _this$[ebp], ecx

; 3196 : 		m_pfnCreateInstance = (_ATL_CREATORFUNC*)pv;

	mov	eax, DWORD PTR _this$[ebp]
	mov	ecx, DWORD PTR _pv$[ebp]
	mov	DWORD PTR [eax+32], ecx

; 3197 : 	}

	mov	esp, ebp
	pop	ebp
	ret	4
?SetVoid@CComClassFactory@ATL@@QAEXPAX@Z ENDP		; ATL::CComClassFactory::SetVoid
_TEXT	ENDS
PUBLIC	?CreateInstance@?$CComCreator@V?$CComObject@VCSignature@@@ATL@@@ATL@@SGJPAXABU_GUID@@PAPAX@Z ; ATL::CComCreator<ATL::CComObject<CSignature> >::CreateInstance
PUBLIC	?CreateInstance@?$CComCreator@V?$CComAggObject@VCSignature@@@ATL@@@ATL@@SGJPAXABU_GUID@@PAPAX@Z ; ATL::CComCreator<ATL::CComAggObject<CSignature> >::CreateInstance
; Function compile flags: /Odt /RTCsu
;	COMDAT ?CreateInstance@?$CComCreator2@V?$CComCreator@V?$CComObject@VCSignature@@@ATL@@@ATL@@V?$CComCreator@V?$CComAggObject@VCSignature@@@ATL@@@2@@ATL@@SGJPAXABU_GUID@@PAPAX@Z
_TEXT	SEGMENT
tv82 = -4						; size = 4
_pv$ = 8						; size = 4
_riid$ = 12						; size = 4
_ppv$ = 16						; size = 4
?CreateInstance@?$CComCreator2@V?$CComCreator@V?$CComObject@VCSignature@@@ATL@@@ATL@@V?$CComCreator@V?$CComAggObject@VCSignature@@@ATL@@@2@@ATL@@SGJPAXABU_GUID@@PAPAX@Z PROC NEAR ; ATL::CComCreator2<ATL::CComCreator<ATL::CComObject<CSignature> >,ATL::CComCreator<ATL::CComAggObject<CSignature> > >::CreateInstance, COMDAT

; 1827 : 	{

	push	ebp
	mov	ebp, esp
	push	ecx
	mov	DWORD PTR [ebp-4], -858993460		; ccccccccH

; 1828 : 		ATLASSERT(ppv != NULL);

	cmp	DWORD PTR _ppv$[ebp], 0
	jne	SHORT $L206013
	push	OFFSET FLAT:??_C@_08NEPKAPOI@ppv?5?$CB?$DN?50?$AA@
	push	0
	push	1828					; 00000724H
	push	OFFSET FLAT:??_C@_0EP@FBJOMLAB@C?3?2Program?5Files?2Microsoft?5Visua@
	push	2
	call	__CrtDbgReport
	add	esp, 20					; 00000014H
	cmp	eax, 1
	jne	SHORT $L206013
	int	3
$L206013:

; 1829 : 
; 1830 : 		return (pv == NULL) ? 
; 1831 : 			T1::CreateInstance(NULL, riid, ppv) : 
; 1832 : 			T2::CreateInstance(pv, riid, ppv);

	cmp	DWORD PTR _pv$[ebp], 0
	jne	SHORT $L206014
	mov	ecx, DWORD PTR _ppv$[ebp]
	push	ecx
	mov	edx, DWORD PTR _riid$[ebp]
	push	edx
	push	0
	call	?CreateInstance@?$CComCreator@V?$CComObject@VCSignature@@@ATL@@@ATL@@SGJPAXABU_GUID@@PAPAX@Z ; ATL::CComCreator<ATL::CComObject<CSignature> >::CreateInstance
	mov	DWORD PTR tv82[ebp], eax
	jmp	SHORT $L206015
$L206014:
	mov	eax, DWORD PTR _ppv$[ebp]
	push	eax
	mov	ecx, DWORD PTR _riid$[ebp]
	push	ecx
	mov	edx, DWORD PTR _pv$[ebp]
	push	edx
	call	?CreateInstance@?$CComCreator@V?$CComAggObject@VCSignature@@@ATL@@@ATL@@SGJPAXABU_GUID@@PAPAX@Z ; ATL::CComCreator<ATL::CComAggObject<CSignature> >::CreateInstance
	mov	DWORD PTR tv82[ebp], eax
$L206015:
	mov	eax, DWORD PTR tv82[ebp]

; 1833 : 	}

	add	esp, 4
	cmp	ebp, esp
	call	__RTC_CheckEsp
	mov	esp, ebp
	pop	ebp
	ret	12					; 0000000cH
?CreateInstance@?$CComCreator2@V?$CComCreator@V?$CComObject@VCSignature@@@ATL@@@ATL@@V?$CComCreator@V?$CComAggObject@VCSignature@@@ATL@@@2@@ATL@@SGJPAXABU_GUID@@PAPAX@Z ENDP ; ATL::CComCreator2<ATL::CComCreator<ATL::CComObject<CSignature> >,ATL::CComCreator<ATL::CComAggObject<CSignature> > >::CreateInstance
_TEXT	ENDS
PUBLIC	?AtlThrowLastWin32@ATL@@YGXXZ			; ATL::AtlThrowLastWin32
EXTRN	_malloc:NEAR
; Function compile flags: /Odt /RTCsu
; File c:\program files\microsoft visual studio .net 2003\vc7\atlmfc\include\atlconv.h
;	COMDAT ?Init@?$CW2AEX@$0IA@@ATL@@AAEXPBGI@Z
_TEXT	SEGMENT
_nLengthA$ = -12					; size = 4
_nLengthW$ = -8						; size = 4
_this$ = -4						; size = 4
_psz$ = 8						; size = 4
_nCodePage$ = 12					; size = 4
?Init@?$CW2AEX@$0IA@@ATL@@AAEXPBGI@Z PROC NEAR		; ATL::CW2AEX<128>::Init, COMDAT
; _this$ = ecx

; 442  : 	{

	push	ebp
	mov	ebp, esp
	sub	esp, 12					; 0000000cH
	push	esi
	mov	DWORD PTR [ebp-12], -858993460		; ccccccccH
	mov	DWORD PTR [ebp-8], -858993460		; ccccccccH
	mov	DWORD PTR [ebp-4], -858993460		; ccccccccH
	mov	DWORD PTR _this$[ebp], ecx

; 443  : 		if (psz == NULL)

	cmp	DWORD PTR _psz$[ebp], 0
	jne	SHORT $L203390

; 444  : 		{
; 445  : 			m_psz = NULL;

	mov	eax, DWORD PTR _this$[ebp]
	mov	DWORD PTR [eax], 0

; 446  : 			return;

	jmp	$L206017
$L203390:

; 447  : 		}
; 448  : 		int nLengthW = lstrlenW( psz )+1;

	mov	esi, esp
	mov	ecx, DWORD PTR _psz$[ebp]
	push	ecx
	call	DWORD PTR __imp__lstrlenW@4
	cmp	esi, esp
	call	__RTC_CheckEsp
	add	eax, 1
	mov	DWORD PTR _nLengthW$[ebp], eax

; 449  : 		int nLengthA = nLengthW*2;

	mov	edx, DWORD PTR _nLengthW$[ebp]
	shl	edx, 1
	mov	DWORD PTR _nLengthA$[ebp], edx

; 450  : 
; 451  : 		if( nLengthA > t_nBufferLength )

	cmp	DWORD PTR _nLengthA$[ebp], 128		; 00000080H
	jle	SHORT $L203393

; 452  : 		{
; 453  : 			m_psz = static_cast< LPSTR >( malloc( nLengthA*sizeof( char ) ) );

	mov	eax, DWORD PTR _nLengthA$[ebp]
	push	eax
	call	_malloc
	add	esp, 4
	mov	ecx, DWORD PTR _this$[ebp]
	mov	DWORD PTR [ecx], eax

; 454  : 			if (m_psz == NULL)

	mov	edx, DWORD PTR _this$[ebp]
	cmp	DWORD PTR [edx], 0
	jne	SHORT $L203393

; 455  : 			{
; 456  : 				AtlThrow( E_OUTOFMEMORY );

	push	-2147024882				; 8007000eH
	call	?AtlThrow@ATL@@YGXJ@Z			; ATL::AtlThrow
$L203393:

; 457  : 			}
; 458  : 		}
; 459  : 
; 460  : 		if (::WideCharToMultiByte( nCodePage, 0, psz, nLengthW, m_psz, nLengthA, NULL, NULL ) == 0)

	mov	esi, esp
	push	0
	push	0
	mov	eax, DWORD PTR _nLengthA$[ebp]
	push	eax
	mov	ecx, DWORD PTR _this$[ebp]
	mov	edx, DWORD PTR [ecx]
	push	edx
	mov	eax, DWORD PTR _nLengthW$[ebp]
	push	eax
	mov	ecx, DWORD PTR _psz$[ebp]
	push	ecx
	push	0
	mov	edx, DWORD PTR _nCodePage$[ebp]
	push	edx
	call	DWORD PTR __imp__WideCharToMultiByte@32
	cmp	esi, esp
	call	__RTC_CheckEsp
	test	eax, eax
	jne	SHORT $L206017

; 461  : 		{
; 462  : 			AtlThrowLastWin32();

	call	?AtlThrowLastWin32@ATL@@YGXXZ		; ATL::AtlThrowLastWin32
$L206017:

; 463  : 		}
; 464  : 	}

	pop	esi
	add	esp, 12					; 0000000cH
	cmp	ebp, esp
	call	__RTC_CheckEsp
	mov	esp, ebp
	pop	ebp
	ret	8
?Init@?$CW2AEX@$0IA@@ATL@@AAEXPBGI@Z ENDP		; ATL::CW2AEX<128>::Init
_TEXT	ENDS
EXTRN	__imp__GetLastError@0:NEAR
; Function compile flags: /Odt /RTCsu
; File c:\program files\microsoft visual studio .net 2003\vc7\atlmfc\include\atlexcept.h
;	COMDAT ?AtlThrowLastWin32@ATL@@YGXXZ
_TEXT	SEGMENT
tv69 = -8						; size = 4
_dwError$ = -4						; size = 4
?AtlThrowLastWin32@ATL@@YGXXZ PROC NEAR			; ATL::AtlThrowLastWin32, COMDAT

; 80   : {

	push	ebp
	mov	ebp, esp
	sub	esp, 8
	push	esi
	mov	DWORD PTR [ebp-8], -858993460		; ccccccccH
	mov	DWORD PTR [ebp-4], -858993460		; ccccccccH

; 81   : 	DWORD dwError = ::GetLastError();

	mov	esi, esp
	call	DWORD PTR __imp__GetLastError@0
	cmp	esi, esp
	call	__RTC_CheckEsp
	mov	DWORD PTR _dwError$[ebp], eax

; 82   : 	AtlThrow( HRESULT_FROM_WIN32( dwError ) );

	cmp	DWORD PTR _dwError$[ebp], 0
	jg	SHORT $L206020
	mov	eax, DWORD PTR _dwError$[ebp]
	mov	DWORD PTR tv69[ebp], eax
	jmp	SHORT $L206021
$L206020:
	mov	ecx, DWORD PTR _dwError$[ebp]
	and	ecx, 65535				; 0000ffffH
	or	ecx, 458752				; 00070000H
	or	ecx, -2147483648			; 80000000H
	mov	DWORD PTR tv69[ebp], ecx
$L206021:
	mov	edx, DWORD PTR tv69[ebp]
	push	edx
	call	?AtlThrow@ATL@@YGXJ@Z			; ATL::AtlThrow
$L206019:

; 83   : }

	pop	esi
	add	esp, 8
	cmp	ebp, esp
	call	__RTC_CheckEsp
	mov	esp, ebp
	pop	ebp
	ret	0
?AtlThrowLastWin32@ATL@@YGXXZ ENDP			; ATL::AtlThrowLastWin32
_TEXT	ENDS
PUBLIC	?AddRef@?$CComObjectCached@VCComClassFactory@ATL@@@ATL@@UAGKXZ ; ATL::CComObjectCached<ATL::CComClassFactory>::AddRef
PUBLIC	?Release@?$CComObjectCached@VCComClassFactory@ATL@@@ATL@@UAGKXZ ; ATL::CComObjectCached<ATL::CComClassFactory>::Release
PUBLIC	?QueryInterface@?$CComObjectCached@VCComClassFactory@ATL@@@ATL@@UAGJABU_GUID@@PAPAX@Z ; ATL::CComObjectCached<ATL::CComClassFactory>::QueryInterface
PUBLIC	??_7?$CComObjectCached@VCComClassFactory@ATL@@@ATL@@6B@ ; ATL::CComObjectCached<ATL::CComClassFactory>::`vftable'
PUBLIC	??_G?$CComObjectCached@VCComClassFactory@ATL@@@ATL@@UAEPAXI@Z ; ATL::CComObjectCached<ATL::CComClassFactory>::`scalar deleting destructor'
PUBLIC	??0CComAutoCriticalSection@ATL@@QAE@XZ		; ATL::CComAutoCriticalSection::CComAutoCriticalSection
PUBLIC	??1CComClassFactory@ATL@@UAE@XZ			; ATL::CComClassFactory::~CComClassFactory
PUBLIC	?CreateInstance@CComClassFactory@ATL@@UAGJPAUIUnknown@@ABU_GUID@@PAPAX@Z ; ATL::CComClassFactory::CreateInstance
PUBLIC	?LockServer@CComClassFactory@ATL@@UAGJH@Z	; ATL::CComClassFactory::LockServer
PUBLIC	??0CComClassFactory@ATL@@QAE@XZ			; ATL::CComClassFactory::CComClassFactory
EXTRN	??_E?$CComObjectCached@VCComClassFactory@ATL@@@ATL@@UAEPAXI@Z:NEAR ; ATL::CComObjectCached<ATL::CComClassFactory>::`vector deleting destructor'
;	COMDAT xdata$x
; File c:\program files\microsoft visual studio .net 2003\vc7\atlmfc\include\atlcom.h
xdata$x	SEGMENT
$T206029 DD	0ffffffffH
	DD	FLAT:$L206024
$T206027 DD	019930520H
	DD	01H
	DD	FLAT:$T206029
	DD	2 DUP(00H)
	DD	2 DUP(00H)
xdata$x	ENDS
;	COMDAT ??_7?$CComObjectCached@VCComClassFactory@ATL@@@ATL@@6B@
CONST	SEGMENT
??_7?$CComObjectCached@VCComClassFactory@ATL@@@ATL@@6B@ DD FLAT:?QueryInterface@?$CComObjectCached@VCComClassFactory@ATL@@@ATL@@UAGJABU_GUID@@PAPAX@Z ; ATL::CComObjectCached<ATL::CComClassFactory>::`vftable'
	DD	FLAT:?AddRef@?$CComObjectCached@VCComClassFactory@ATL@@@ATL@@UAGKXZ
	DD	FLAT:?Release@?$CComObjectCached@VCComClassFactory@ATL@@@ATL@@UAGKXZ
	DD	FLAT:?CreateInstance@CComClassFactory@ATL@@UAGJPAUIUnknown@@ABU_GUID@@PAPAX@Z
	DD	FLAT:?LockServer@CComClassFactory@ATL@@UAGJH@Z
	DD	FLAT:??_E?$CComObjectCached@VCComClassFactory@ATL@@@ATL@@UAEPAXI@Z
; Function compile flags: /Odt /RTCsu
CONST	ENDS
;	COMDAT ??0?$CComObjectCached@VCComClassFactory@ATL@@@ATL@@QAE@PAX@Z
_TEXT	SEGMENT
_this$ = -16						; size = 4
__$EHRec$ = -12						; size = 12
___formal$ = 8						; size = 4
??0?$CComObjectCached@VCComClassFactory@ATL@@@ATL@@QAE@PAX@Z PROC NEAR ; ATL::CComObjectCached<ATL::CComClassFactory>::CComObjectCached<ATL::CComClassFactory>, COMDAT
; _this$ = ecx

; 2564 : 	CComObjectCached(void* = NULL){}

	push	ebp
	mov	ebp, esp
	push	-1
	push	__ehhandler$??0?$CComObjectCached@VCComClassFactory@ATL@@@ATL@@QAE@PAX@Z
	mov	eax, DWORD PTR fs:__except_list
	push	eax
	mov	DWORD PTR fs:__except_list, esp
	push	ecx
	mov	DWORD PTR [ebp-16], -858993460		; ccccccccH
	mov	DWORD PTR _this$[ebp], ecx
	mov	ecx, DWORD PTR _this$[ebp]
	call	??0CComClassFactory@ATL@@QAE@XZ
	mov	DWORD PTR __$EHRec$[ebp+8], 0
	mov	eax, DWORD PTR _this$[ebp]
	mov	DWORD PTR [eax], OFFSET FLAT:??_7?$CComObjectCached@VCComClassFactory@ATL@@@ATL@@6B@
	mov	ecx, DWORD PTR _this$[ebp]
	add	ecx, 36					; 00000024H
	call	??0CComAutoCriticalSection@ATL@@QAE@XZ	; ATL::CComAutoCriticalSection::CComAutoCriticalSection
	mov	DWORD PTR __$EHRec$[ebp+8], -1
	mov	eax, DWORD PTR _this$[ebp]
	mov	ecx, DWORD PTR __$EHRec$[ebp]
	mov	DWORD PTR fs:__except_list, ecx
	add	esp, 16					; 00000010H
	cmp	ebp, esp
	call	__RTC_CheckEsp
	mov	esp, ebp
	pop	ebp
	ret	4
_TEXT	ENDS
;	COMDAT text$x
text$x	SEGMENT
$L206024:
	mov	ecx, DWORD PTR _this$[ebp]
	jmp	??1CComClassFactory@ATL@@UAE@XZ		; ATL::CComClassFactory::~CComClassFactory
__ehhandler$??0?$CComObjectCached@VCComClassFactory@ATL@@@ATL@@QAE@PAX@Z:
	mov	eax, OFFSET FLAT:$T206027
	jmp	___CxxFrameHandler
text$x	ENDS
??0?$CComObjectCached@VCComClassFactory@ATL@@@ATL@@QAE@PAX@Z ENDP ; ATL::CComObjectCached<ATL::CComClassFactory>::CComObjectCached<ATL::CComClassFactory>
PUBLIC	??0CComCriticalSection@ATL@@QAE@XZ		; ATL::CComCriticalSection::CComCriticalSection
PUBLIC	?Init@CComCriticalSection@ATL@@QAEJXZ		; ATL::CComCriticalSection::Init
; Function compile flags: /Odt /RTCsu
; File c:\program files\microsoft visual studio .net 2003\vc7\atlmfc\include\atlcore.h
;	COMDAT ??0CComAutoCriticalSection@ATL@@QAE@XZ
_TEXT	SEGMENT
_hr$ = -8						; size = 4
_this$ = -4						; size = 4
??0CComAutoCriticalSection@ATL@@QAE@XZ PROC NEAR	; ATL::CComAutoCriticalSection::CComAutoCriticalSection, COMDAT
; _this$ = ecx

; 157  : 	CComAutoCriticalSection()

	push	ebp
	mov	ebp, esp
	sub	esp, 8
	mov	DWORD PTR [ebp-8], -858993460		; ccccccccH
	mov	DWORD PTR [ebp-4], -858993460		; ccccccccH
	mov	DWORD PTR _this$[ebp], ecx
	mov	ecx, DWORD PTR _this$[ebp]
	call	??0CComCriticalSection@ATL@@QAE@XZ	; ATL::CComCriticalSection::CComCriticalSection

; 158  : 	{
; 159  : 		HRESULT hr = CComCriticalSection::Init();

	mov	ecx, DWORD PTR _this$[ebp]
	call	?Init@CComCriticalSection@ATL@@QAEJXZ	; ATL::CComCriticalSection::Init
	mov	DWORD PTR _hr$[ebp], eax

; 160  : 		if (FAILED(hr))

	cmp	DWORD PTR _hr$[ebp], 0
	jge	SHORT $L77351

; 161  : 			AtlThrow(hr);

	mov	eax, DWORD PTR _hr$[ebp]
	push	eax
	call	?AtlThrow@ATL@@YGXJ@Z			; ATL::AtlThrow
$L77351:

; 162  : 	}

	mov	eax, DWORD PTR _this$[ebp]
$L206033:
	add	esp, 8
	cmp	ebp, esp
	call	__RTC_CheckEsp
	mov	esp, ebp
	pop	ebp
	ret	0
??0CComAutoCriticalSection@ATL@@QAE@XZ ENDP		; ATL::CComAutoCriticalSection::CComAutoCriticalSection
_TEXT	ENDS
EXTRN	_memset:NEAR
; Function compile flags: /Odt /RTCsu
;	COMDAT ??0CComCriticalSection@ATL@@QAE@XZ
_TEXT	SEGMENT
_this$ = -4						; size = 4
??0CComCriticalSection@ATL@@QAE@XZ PROC NEAR		; ATL::CComCriticalSection::CComCriticalSection, COMDAT
; _this$ = ecx

; 114  : 	CComCriticalSection() throw()

	push	ebp
	mov	ebp, esp
	push	ecx
	mov	DWORD PTR [ebp-4], -858993460		; ccccccccH
	mov	DWORD PTR _this$[ebp], ecx

; 115  : 	{
; 116  : 		memset(&m_sec, 0, sizeof(CRITICAL_SECTION));

	push	24					; 00000018H
	push	0
	mov	eax, DWORD PTR _this$[ebp]
	push	eax
	call	_memset
	add	esp, 12					; 0000000cH

; 117  : 	}

	mov	eax, DWORD PTR _this$[ebp]
	add	esp, 4
	cmp	ebp, esp
	call	__RTC_CheckEsp
	mov	esp, ebp
	pop	ebp
	ret	0
??0CComCriticalSection@ATL@@QAE@XZ ENDP			; ATL::CComCriticalSection::CComCriticalSection
_TEXT	ENDS
EXTRN	__imp__InitializeCriticalSection@4:NEAR
;	COMDAT CONST
CONST	SEGMENT
$T206044 DD	0ffffffffH
	DD	FLAT:$L206039
	DD	FLAT:$L206040
; Function compile flags: /Odt /RTCsu
CONST	ENDS
;	COMDAT ?Init@CComCriticalSection@ATL@@QAEJXZ
_TEXT	SEGMENT
$T206043 = -36						; size = 4
_hRes$ = -32						; size = 4
_this$ = -28						; size = 4
__$SEHRec$ = -24					; size = 24
?Init@CComCriticalSection@ATL@@QAEJXZ PROC NEAR		; ATL::CComCriticalSection::Init, COMDAT
; _this$ = ecx

; 129  : 	{

	push	ebp
	mov	ebp, esp
	push	-1
	push	OFFSET FLAT:$T206044
	push	OFFSET FLAT:__except_handler3
	mov	eax, DWORD PTR fs:__except_list
	push	eax
	mov	DWORD PTR fs:__except_list, esp
	add	esp, -20				; ffffffecH
	push	ebx
	push	esi
	push	edi
	mov	DWORD PTR [ebp-36], -858993460		; ccccccccH
	mov	DWORD PTR [ebp-32], -858993460		; ccccccccH
	mov	DWORD PTR [ebp-28], -858993460		; ccccccccH
	mov	DWORD PTR __$SEHRec$[ebp], esp
	mov	DWORD PTR _this$[ebp], ecx

; 130  : 		HRESULT hRes = S_OK;

	mov	DWORD PTR _hRes$[ebp], 0

; 131  : 		__try

	mov	DWORD PTR __$SEHRec$[ebp+20], 0

; 132  : 		{
; 133  : 			InitializeCriticalSection(&m_sec);

	mov	esi, esp
	mov	eax, DWORD PTR _this$[ebp]
	push	eax
	call	DWORD PTR __imp__InitializeCriticalSection@4
	cmp	esi, esp
	call	__RTC_CheckEsp
	mov	DWORD PTR __$SEHRec$[ebp+20], -1
	jmp	SHORT $L206042
$L206039:
$L206047:

; 134  : 		}
; 135  : 		// structured exception may be raised in low memory situations
; 136  : 		__except(EXCEPTION_EXECUTE_HANDLER)

	mov	ecx, DWORD PTR __$SEHRec$[ebp+4]
	mov	edx, DWORD PTR [ecx]
	mov	eax, DWORD PTR [edx]
	mov	DWORD PTR $T206043[ebp], eax
	mov	eax, 1
$L206041:
$L206046:
	ret	0
$L206040:
	mov	esp, DWORD PTR __$SEHRec$[ebp]

; 137  : 		{
; 138  : 			if (STATUS_NO_MEMORY == GetExceptionCode())

	cmp	DWORD PTR $T206043[ebp], -1073741801	; c0000017H
	jne	SHORT $L77330

; 139  : 				hRes = E_OUTOFMEMORY;

	mov	DWORD PTR _hRes$[ebp], -2147024882	; 8007000eH

; 140  : 			else

	jmp	SHORT $L77332
$L77330:

; 141  : 				hRes = E_FAIL;

	mov	DWORD PTR _hRes$[ebp], -2147467259	; 80004005H
$L77332:
	mov	DWORD PTR __$SEHRec$[ebp+20], -1
$L206042:

; 142  : 		}
; 143  : 		return hRes;

	mov	eax, DWORD PTR _hRes$[ebp]
$L206038:

; 144  : 	}

	mov	ecx, DWORD PTR __$SEHRec$[ebp+8]
	mov	DWORD PTR fs:__except_list, ecx
	pop	edi
	pop	esi
	pop	ebx
	add	esp, 36					; 00000024H
	cmp	ebp, esp
	call	__RTC_CheckEsp
	mov	esp, ebp
	pop	ebp
	ret	0
?Init@CComCriticalSection@ATL@@QAEJXZ ENDP		; ATL::CComCriticalSection::Init
_TEXT	ENDS
PUBLIC	??1?$CComObjectRootEx@VCComMultiThreadModel@ATL@@@ATL@@QAE@XZ ; ATL::CComObjectRootEx<ATL::CComMultiThreadModel>::~CComObjectRootEx<ATL::CComMultiThreadModel>
PUBLIC	??_7CComClassFactory@ATL@@6B@			; ATL::CComClassFactory::`vftable'
PUBLIC	??_GCComClassFactory@ATL@@UAEPAXI@Z		; ATL::CComClassFactory::`scalar deleting destructor'
EXTRN	__purecall:NEAR
EXTRN	??_ECComClassFactory@ATL@@UAEPAXI@Z:NEAR	; ATL::CComClassFactory::`vector deleting destructor'
;	COMDAT ??_7CComClassFactory@ATL@@6B@
; File c:\program files\microsoft visual studio .net 2003\vc7\atlmfc\include\atlcom.h
CONST	SEGMENT
??_7CComClassFactory@ATL@@6B@ DD FLAT:__purecall	; ATL::CComClassFactory::`vftable'
	DD	FLAT:__purecall
	DD	FLAT:__purecall
	DD	FLAT:?CreateInstance@CComClassFactory@ATL@@UAGJPAUIUnknown@@ABU_GUID@@PAPAX@Z
	DD	FLAT:?LockServer@CComClassFactory@ATL@@UAGJH@Z
	DD	FLAT:??_ECComClassFactory@ATL@@UAEPAXI@Z
; Function compile flags: /Odt /RTCsu
CONST	ENDS
;	COMDAT ??1CComClassFactory@ATL@@UAE@XZ
_TEXT	SEGMENT
tv66 = -8						; size = 4
_this$ = -4						; size = 4
??1CComClassFactory@ATL@@UAE@XZ PROC NEAR		; ATL::CComClassFactory::~CComClassFactory, COMDAT
; _this$ = ecx

; 3161 : 	{

	push	ebp
	mov	ebp, esp
	sub	esp, 8
	mov	DWORD PTR [ebp-8], -858993460		; ccccccccH
	mov	DWORD PTR [ebp-4], -858993460		; ccccccccH
	mov	DWORD PTR _this$[ebp], ecx
	mov	eax, DWORD PTR _this$[ebp]
	mov	DWORD PTR [eax], OFFSET FLAT:??_7CComClassFactory@ATL@@6B@

; 3162 : 	}

	cmp	DWORD PTR _this$[ebp], 0
	je	SHORT $L206052
	mov	ecx, DWORD PTR _this$[ebp]
	add	ecx, 4
	mov	DWORD PTR tv66[ebp], ecx
	jmp	SHORT $L206053
$L206052:
	mov	DWORD PTR tv66[ebp], 0
$L206053:
	mov	ecx, DWORD PTR tv66[ebp]
	call	??1?$CComObjectRootEx@VCComMultiThreadModel@ATL@@@ATL@@QAE@XZ
	add	esp, 8
	cmp	ebp, esp
	call	__RTC_CheckEsp
	mov	esp, ebp
	pop	ebp
	ret	0
??1CComClassFactory@ATL@@UAE@XZ ENDP			; ATL::CComClassFactory::~CComClassFactory
_TEXT	ENDS
PUBLIC	??_C@_0BJ@HNHMIKBN@m_pfnCreateInstance?5?$CB?$DN?50?$AA@ ; `string'
PUBLIC	??_C@_0FH@OCMNPHBO@CComClassFactory?3?5asked?5for?5non?5@ ; `string'
PUBLIC	?InlineIsEqualUnknown@ATL@@YGHABU_GUID@@@Z	; ATL::InlineIsEqualUnknown
;	COMDAT ??_C@_0BJ@HNHMIKBN@m_pfnCreateInstance?5?$CB?$DN?50?$AA@
CONST	SEGMENT
??_C@_0BJ@HNHMIKBN@m_pfnCreateInstance?5?$CB?$DN?50?$AA@ DB 'm_pfnCreateI'
	DB	'nstance != 0', 00H				; `string'
CONST	ENDS
;	COMDAT ??_C@_0FH@OCMNPHBO@CComClassFactory?3?5asked?5for?5non?5@
CONST	SEGMENT
??_C@_0FH@OCMNPHBO@CComClassFactory?3?5asked?5for?5non?5@ DB 'CComClassFa'
	DB	'ctory: asked for non IUnknown interface while creating an agg'
	DB	'regated object', 00H			; `string'
; Function compile flags: /Odt /RTCsu
CONST	ENDS
;	COMDAT ?CreateInstance@CComClassFactory@ATL@@UAGJPAUIUnknown@@ABU_GUID@@PAPAX@Z
_TEXT	SEGMENT
$T206060 = -12						; size = 8
_hRes$ = -4						; size = 4
_this$ = 8						; size = 4
_pUnkOuter$ = 12					; size = 4
_riid$ = 16						; size = 4
_ppvObj$ = 20						; size = 4
?CreateInstance@CComClassFactory@ATL@@UAGJPAUIUnknown@@ABU_GUID@@PAPAX@Z PROC NEAR ; ATL::CComClassFactory::CreateInstance, COMDAT

; 3166 : 	{

	push	ebp
	mov	ebp, esp
	sub	esp, 12					; 0000000cH
	push	esi
	mov	DWORD PTR [ebp-12], -858993460		; ccccccccH
	mov	DWORD PTR [ebp-8], -858993460		; ccccccccH
	mov	DWORD PTR [ebp-4], -858993460		; ccccccccH

; 3167 : 		ATLASSERT(m_pfnCreateInstance != NULL);

	mov	eax, DWORD PTR _this$[ebp]
	cmp	DWORD PTR [eax+32], 0
	jne	SHORT $L206059
	push	OFFSET FLAT:??_C@_0BJ@HNHMIKBN@m_pfnCreateInstance?5?$CB?$DN?50?$AA@
	push	0
	push	3167					; 00000c5fH
	push	OFFSET FLAT:??_C@_0EP@FBJOMLAB@C?3?2Program?5Files?2Microsoft?5Visua@
	push	2
	call	__CrtDbgReport
	add	esp, 20					; 00000014H
	cmp	eax, 1
	jne	SHORT $L206059
	int	3
$L206059:

; 3168 : 		HRESULT hRes = E_POINTER;

	mov	DWORD PTR _hRes$[ebp], -2147467261	; 80004003H

; 3169 : 		if (ppvObj != NULL)

	cmp	DWORD PTR _ppvObj$[ebp], 0
	je	SHORT $L91826

; 3170 : 		{
; 3171 : 			*ppvObj = NULL;

	mov	edx, DWORD PTR _ppvObj$[ebp]
	mov	DWORD PTR [edx], 0

; 3172 : 			// can't ask for anything other than IUnknown when aggregating
; 3173 : 
; 3174 : 			if ((pUnkOuter != NULL) && !InlineIsEqualUnknown(riid))

	cmp	DWORD PTR _pUnkOuter$[ebp], 0
	je	SHORT $L91827
	mov	eax, DWORD PTR _riid$[ebp]
	push	eax
	call	?InlineIsEqualUnknown@ATL@@YGHABU_GUID@@@Z ; ATL::InlineIsEqualUnknown
	test	eax, eax
	jne	SHORT $L91827

; 3175 : 			{
; 3176 : 				ATLTRACE(atlTraceCOM, 0, _T("CComClassFactory: asked for non IUnknown interface while creating an aggregated object"));

	push	OFFSET FLAT:??_C@_0FH@OCMNPHBO@CComClassFactory?3?5asked?5for?5non?5@
	push	0
	mov	ecx, OFFSET FLAT:?atlTraceCOM@ATL@@3VCTraceCategory@1@A ; ATL::atlTraceCOM
	call	??BCTraceCategory@ATL@@QBEKXZ		; ATL::CTraceCategory::operator unsigned long
	push	eax
	push	3176					; 00000c68H
	push	OFFSET FLAT:??_C@_0EP@FBJOMLAB@C?3?2Program?5Files?2Microsoft?5Visua@
	lea	ecx, DWORD PTR $T206060[ebp]
	call	??0CTraceFileAndLineInfo@ATL@@QAE@PBDH@Z ; ATL::CTraceFileAndLineInfo::CTraceFileAndLineInfo
	push	eax
	call	??RCTraceFileAndLineInfo@ATL@@QBAXKIPBDZZ ; ATL::CTraceFileAndLineInfo::operator()
	add	esp, 16					; 00000010H

; 3177 : 				hRes = CLASS_E_NOAGGREGATION;

	mov	DWORD PTR _hRes$[ebp], -2147221232	; 80040110H

; 3178 : 			}
; 3179 : 			else

	jmp	SHORT $L91826
$L91827:

; 3180 : 				hRes = m_pfnCreateInstance(pUnkOuter, riid, ppvObj);

	mov	esi, esp
	mov	ecx, DWORD PTR _ppvObj$[ebp]
	push	ecx
	mov	edx, DWORD PTR _riid$[ebp]
	push	edx
	mov	eax, DWORD PTR _pUnkOuter$[ebp]
	push	eax
	mov	ecx, DWORD PTR _this$[ebp]
	call	DWORD PTR [ecx+32]
	cmp	esi, esp
	call	__RTC_CheckEsp
	mov	DWORD PTR _hRes$[ebp], eax
$L91826:

; 3181 : 		}
; 3182 : 		return hRes;

	mov	eax, DWORD PTR _hRes$[ebp]

; 3183 : 	}

	pop	esi
	add	esp, 12					; 0000000cH
	cmp	ebp, esp
	call	__RTC_CheckEsp
	mov	esp, ebp
	pop	ebp
	ret	16					; 00000010H
?CreateInstance@CComClassFactory@ATL@@UAGJPAUIUnknown@@ABU_GUID@@PAPAX@Z ENDP ; ATL::CComClassFactory::CreateInstance
; Function compile flags: /Odt /RTCsu
; File c:\program files\microsoft visual studio .net 2003\vc7\atlmfc\include\atlbase.h
_TEXT	ENDS
;	COMDAT ?InlineIsEqualUnknown@ATL@@YGHABU_GUID@@@Z
_TEXT	SEGMENT
tv71 = -4						; size = 4
_rguid1$ = 8						; size = 4
?InlineIsEqualUnknown@ATL@@YGHABU_GUID@@@Z PROC NEAR	; ATL::InlineIsEqualUnknown, COMDAT

; 727  : {

	push	ebp
	mov	ebp, esp
	push	ecx
	mov	DWORD PTR [ebp-4], -858993460		; ccccccccH

; 728  :    return (
; 729  : 	  ((PLONG) &rguid1)[0] == 0 &&
; 730  : 	  ((PLONG) &rguid1)[1] == 0 &&
; 731  : #ifdef _ATL_BYTESWAP
; 732  : 	  ((PLONG) &rguid1)[2] == 0xC0000000 &&
; 733  : 	  ((PLONG) &rguid1)[3] == 0x00000046);
; 734  : #else
; 735  : 	  ((PLONG) &rguid1)[2] == 0x000000C0 &&
; 736  : 	  ((PLONG) &rguid1)[3] == 0x46000000);

	mov	eax, DWORD PTR _rguid1$[ebp]
	cmp	DWORD PTR [eax], 0
	jne	SHORT $L206063
	mov	ecx, DWORD PTR _rguid1$[ebp]
	cmp	DWORD PTR [ecx+4], 0
	jne	SHORT $L206063
	mov	edx, DWORD PTR _rguid1$[ebp]
	cmp	DWORD PTR [edx+8], 192			; 000000c0H
	jne	SHORT $L206063
	mov	eax, DWORD PTR _rguid1$[ebp]
	cmp	DWORD PTR [eax+12], 1174405120		; 46000000H
	jne	SHORT $L206063
	mov	DWORD PTR tv71[ebp], 1
	jmp	SHORT $L206064
$L206063:
	mov	DWORD PTR tv71[ebp], 0
$L206064:
	mov	eax, DWORD PTR tv71[ebp]

; 737  : #endif
; 738  : }

	mov	esp, ebp
	pop	ebp
	ret	4
?InlineIsEqualUnknown@ATL@@YGHABU_GUID@@@Z ENDP		; ATL::InlineIsEqualUnknown
; Function compile flags: /Odt /RTCsu
; File c:\program files\microsoft visual studio .net 2003\vc7\atlmfc\include\atlcom.h
_TEXT	ENDS
;	COMDAT ?LockServer@CComClassFactory@ATL@@UAGJH@Z
_TEXT	SEGMENT
_this$ = 8						; size = 4
_fLock$ = 12						; size = 4
?LockServer@CComClassFactory@ATL@@UAGJH@Z PROC NEAR	; ATL::CComClassFactory::LockServer, COMDAT

; 3186 : 	{

	push	ebp
	mov	ebp, esp
	push	esi

; 3187 : 		if (fLock)

	cmp	DWORD PTR _fLock$[ebp], 0
	je	SHORT $L91834

; 3188 : 			_pAtlModule->Lock();

	mov	eax, DWORD PTR ?_pAtlModule@ATL@@3PAVCAtlModule@1@A ; ATL::_pAtlModule
	mov	edx, DWORD PTR [eax]
	mov	esi, esp
	mov	ecx, DWORD PTR ?_pAtlModule@ATL@@3PAVCAtlModule@1@A ; ATL::_pAtlModule
	call	DWORD PTR [edx+4]
	cmp	esi, esp
	call	__RTC_CheckEsp

; 3189 : 		else

	jmp	SHORT $L91835
$L91834:

; 3190 : 			_pAtlModule->Unlock();

	mov	eax, DWORD PTR ?_pAtlModule@ATL@@3PAVCAtlModule@1@A ; ATL::_pAtlModule
	mov	edx, DWORD PTR [eax]
	mov	esi, esp
	mov	ecx, DWORD PTR ?_pAtlModule@ATL@@3PAVCAtlModule@1@A ; ATL::_pAtlModule
	call	DWORD PTR [edx+8]
	cmp	esi, esp
	call	__RTC_CheckEsp
$L91835:

; 3191 : 		return S_OK;

	xor	eax, eax

; 3192 : 	}

	pop	esi
	cmp	ebp, esp
	call	__RTC_CheckEsp
	pop	ebp
	ret	8
?LockServer@CComClassFactory@ATL@@UAGJH@Z ENDP		; ATL::CComClassFactory::LockServer
; Function compile flags: /Odt /RTCsu
_TEXT	ENDS
;	COMDAT ??_GCComClassFactory@ATL@@UAEPAXI@Z
_TEXT	SEGMENT
_this$ = -4						; size = 4
___flags$ = 8						; size = 4
??_GCComClassFactory@ATL@@UAEPAXI@Z PROC NEAR		; ATL::CComClassFactory::`scalar deleting destructor', COMDAT
; _this$ = ecx
	push	ebp
	mov	ebp, esp
	push	ecx
	mov	DWORD PTR [ebp-4], -858993460		; ccccccccH
	mov	DWORD PTR _this$[ebp], ecx
	mov	ecx, DWORD PTR _this$[ebp]
	call	??1CComClassFactory@ATL@@UAE@XZ		; ATL::CComClassFactory::~CComClassFactory
	mov	eax, DWORD PTR ___flags$[ebp]
	and	eax, 1
	je	SHORT $L91843
	mov	ecx, DWORD PTR _this$[ebp]
	push	ecx
	call	??3@YAXPAX@Z				; operator delete
	add	esp, 4
$L91843:
	mov	eax, DWORD PTR _this$[ebp]
	add	esp, 4
	cmp	ebp, esp
	call	__RTC_CheckEsp
	mov	esp, ebp
	pop	ebp
	ret	4
??_GCComClassFactory@ATL@@UAEPAXI@Z ENDP		; ATL::CComClassFactory::`scalar deleting destructor'
_TEXT	ENDS
PUBLIC	??1CComAutoCriticalSection@ATL@@QAE@XZ		; ATL::CComAutoCriticalSection::~CComAutoCriticalSection
; Function compile flags: /Odt /RTCsu
;	COMDAT ??1?$CComObjectRootEx@VCComMultiThreadModel@ATL@@@ATL@@QAE@XZ
_TEXT	SEGMENT
_this$ = -4						; size = 4
??1?$CComObjectRootEx@VCComMultiThreadModel@ATL@@@ATL@@QAE@XZ PROC NEAR ; ATL::CComObjectRootEx<ATL::CComMultiThreadModel>::~CComObjectRootEx<ATL::CComMultiThreadModel>, COMDAT
; _this$ = ecx
	push	ebp
	mov	ebp, esp
	push	ecx
	mov	DWORD PTR [ebp-4], -858993460		; ccccccccH
	mov	DWORD PTR _this$[ebp], ecx
	mov	ecx, DWORD PTR _this$[ebp]
	add	ecx, 4
	call	??1CComAutoCriticalSection@ATL@@QAE@XZ	; ATL::CComAutoCriticalSection::~CComAutoCriticalSection
	add	esp, 4
	cmp	ebp, esp
	call	__RTC_CheckEsp
	mov	esp, ebp
	pop	ebp
	ret	0
??1?$CComObjectRootEx@VCComMultiThreadModel@ATL@@@ATL@@QAE@XZ ENDP ; ATL::CComObjectRootEx<ATL::CComMultiThreadModel>::~CComObjectRootEx<ATL::CComMultiThreadModel>
; Function compile flags: /Odt /RTCsu
; File c:\program files\microsoft visual studio .net 2003\vc7\atlmfc\include\atlcore.h
_TEXT	ENDS
;	COMDAT ??1CComAutoCriticalSection@ATL@@QAE@XZ
_TEXT	SEGMENT
_this$ = -4						; size = 4
??1CComAutoCriticalSection@ATL@@QAE@XZ PROC NEAR	; ATL::CComAutoCriticalSection::~CComAutoCriticalSection, COMDAT
; _this$ = ecx

; 164  : 	{

	push	ebp
	mov	ebp, esp
	push	ecx
	mov	DWORD PTR [ebp-4], -858993460		; ccccccccH
	mov	DWORD PTR _this$[ebp], ecx

; 165  : 		CComCriticalSection::Term();

	mov	ecx, DWORD PTR _this$[ebp]
	call	?Term@CComCriticalSection@ATL@@QAEJXZ	; ATL::CComCriticalSection::Term

; 166  : 	}

	add	esp, 4
	cmp	ebp, esp
	call	__RTC_CheckEsp
	mov	esp, ebp
	pop	ebp
	ret	0
??1CComAutoCriticalSection@ATL@@QAE@XZ ENDP		; ATL::CComAutoCriticalSection::~CComAutoCriticalSection
_TEXT	ENDS
PUBLIC	?Lock@CComCriticalSection@ATL@@QAEJXZ		; ATL::CComCriticalSection::Lock
PUBLIC	?Unlock@CComCriticalSection@ATL@@QAEJXZ		; ATL::CComCriticalSection::Unlock
PUBLIC	?InternalAddRef@?$CComObjectRootEx@VCComMultiThreadModel@ATL@@@ATL@@QAEKXZ ; ATL::CComObjectRootEx<ATL::CComMultiThreadModel>::InternalAddRef
; Function compile flags: /Odt /RTCsu
; File c:\program files\microsoft visual studio .net 2003\vc7\atlmfc\include\atlcom.h
;	COMDAT ?AddRef@?$CComObjectCached@VCComClassFactory@ATL@@@ATL@@UAGKXZ
_TEXT	SEGMENT
_l$ = -4						; size = 4
_this$ = 8						; size = 4
?AddRef@?$CComObjectCached@VCComClassFactory@ATL@@@ATL@@UAGKXZ PROC NEAR ; ATL::CComObjectCached<ATL::CComClassFactory>::AddRef, COMDAT

; 2578 : 	{

	push	ebp
	mov	ebp, esp
	push	ecx
	push	esi
	mov	DWORD PTR [ebp-4], -858993460		; ccccccccH

; 2579 : 		m_csCached.Lock();

	mov	ecx, DWORD PTR _this$[ebp]
	add	ecx, 36					; 00000024H
	call	?Lock@CComCriticalSection@ATL@@QAEJXZ	; ATL::CComCriticalSection::Lock

; 2580 : 		ULONG l = InternalAddRef();

	mov	ecx, DWORD PTR _this$[ebp]
	add	ecx, 4
	call	?InternalAddRef@?$CComObjectRootEx@VCComMultiThreadModel@ATL@@@ATL@@QAEKXZ ; ATL::CComObjectRootEx<ATL::CComMultiThreadModel>::InternalAddRef
	mov	DWORD PTR _l$[ebp], eax

; 2581 : 		if (m_dwRef == 2)

	mov	eax, DWORD PTR _this$[ebp]
	cmp	DWORD PTR [eax+4], 2
	jne	SHORT $L203455

; 2582 : 			_pAtlModule->Lock();

	mov	ecx, DWORD PTR ?_pAtlModule@ATL@@3PAVCAtlModule@1@A ; ATL::_pAtlModule
	mov	edx, DWORD PTR [ecx]
	mov	esi, esp
	mov	ecx, DWORD PTR ?_pAtlModule@ATL@@3PAVCAtlModule@1@A ; ATL::_pAtlModule
	call	DWORD PTR [edx+4]
	cmp	esi, esp
	call	__RTC_CheckEsp
$L203455:

; 2583 : 		m_csCached.Unlock();

	mov	ecx, DWORD PTR _this$[ebp]
	add	ecx, 36					; 00000024H
	call	?Unlock@CComCriticalSection@ATL@@QAEJXZ	; ATL::CComCriticalSection::Unlock

; 2584 : 		return l;

	mov	eax, DWORD PTR _l$[ebp]

; 2585 : 	}

	pop	esi
	add	esp, 4
	cmp	ebp, esp
	call	__RTC_CheckEsp
	mov	esp, ebp
	pop	ebp
	ret	4
?AddRef@?$CComObjectCached@VCComClassFactory@ATL@@@ATL@@UAGKXZ ENDP ; ATL::CComObjectCached<ATL::CComClassFactory>::AddRef
_TEXT	ENDS
EXTRN	__imp__EnterCriticalSection@4:NEAR
; Function compile flags: /Odt /RTCsu
; File c:\program files\microsoft visual studio .net 2003\vc7\atlmfc\include\atlcore.h
;	COMDAT ?Lock@CComCriticalSection@ATL@@QAEJXZ
_TEXT	SEGMENT
_this$ = -4						; size = 4
?Lock@CComCriticalSection@ATL@@QAEJXZ PROC NEAR		; ATL::CComCriticalSection::Lock, COMDAT
; _this$ = ecx

; 119  : 	{

	push	ebp
	mov	ebp, esp
	push	ecx
	push	esi
	mov	DWORD PTR [ebp-4], -858993460		; ccccccccH
	mov	DWORD PTR _this$[ebp], ecx

; 120  : 		EnterCriticalSection(&m_sec);

	mov	esi, esp
	mov	eax, DWORD PTR _this$[ebp]
	push	eax
	call	DWORD PTR __imp__EnterCriticalSection@4
	cmp	esi, esp
	call	__RTC_CheckEsp

; 121  : 		return S_OK;

	xor	eax, eax

; 122  : 	}

	pop	esi
	add	esp, 4
	cmp	ebp, esp
	call	__RTC_CheckEsp
	mov	esp, ebp
	pop	ebp
	ret	0
?Lock@CComCriticalSection@ATL@@QAEJXZ ENDP		; ATL::CComCriticalSection::Lock
_TEXT	ENDS
EXTRN	__imp__LeaveCriticalSection@4:NEAR
; Function compile flags: /Odt /RTCsu
;	COMDAT ?Unlock@CComCriticalSection@ATL@@QAEJXZ
_TEXT	SEGMENT
_this$ = -4						; size = 4
?Unlock@CComCriticalSection@ATL@@QAEJXZ PROC NEAR	; ATL::CComCriticalSection::Unlock, COMDAT
; _this$ = ecx

; 124  : 	{

	push	ebp
	mov	ebp, esp
	push	ecx
	push	esi
	mov	DWORD PTR [ebp-4], -858993460		; ccccccccH
	mov	DWORD PTR _this$[ebp], ecx

; 125  : 		LeaveCriticalSection(&m_sec);

	mov	esi, esp
	mov	eax, DWORD PTR _this$[ebp]
	push	eax
	call	DWORD PTR __imp__LeaveCriticalSection@4
	cmp	esi, esp
	call	__RTC_CheckEsp

; 126  : 		return S_OK;

	xor	eax, eax

; 127  : 	}

	pop	esi
	add	esp, 4
	cmp	ebp, esp
	call	__RTC_CheckEsp
	mov	esp, ebp
	pop	ebp
	ret	0
?Unlock@CComCriticalSection@ATL@@QAEJXZ ENDP		; ATL::CComCriticalSection::Unlock
_TEXT	ENDS
PUBLIC	?InternalRelease@?$CComObjectRootEx@VCComMultiThreadModel@ATL@@@ATL@@QAEKXZ ; ATL::CComObjectRootEx<ATL::CComMultiThreadModel>::InternalRelease
; Function compile flags: /Odt /RTCsu
; File c:\program files\microsoft visual studio .net 2003\vc7\atlmfc\include\atlcom.h
;	COMDAT ?Release@?$CComObjectCached@VCComClassFactory@ATL@@@ATL@@UAGKXZ
_TEXT	SEGMENT
tv80 = -16						; size = 4
$T206082 = -12						; size = 4
$T206081 = -8						; size = 4
_l$ = -4						; size = 4
_this$ = 8						; size = 4
?Release@?$CComObjectCached@VCComClassFactory@ATL@@@ATL@@UAGKXZ PROC NEAR ; ATL::CComObjectCached<ATL::CComClassFactory>::Release, COMDAT

; 2587 : 	{

	push	ebp
	mov	ebp, esp
	sub	esp, 16					; 00000010H
	push	esi
	mov	eax, -858993460				; ccccccccH
	mov	DWORD PTR [ebp-16], eax
	mov	DWORD PTR [ebp-12], eax
	mov	DWORD PTR [ebp-8], eax
	mov	DWORD PTR [ebp-4], eax

; 2588 : 		m_csCached.Lock();

	mov	ecx, DWORD PTR _this$[ebp]
	add	ecx, 36					; 00000024H
	call	?Lock@CComCriticalSection@ATL@@QAEJXZ	; ATL::CComCriticalSection::Lock

; 2589 : 		InternalRelease();

	mov	ecx, DWORD PTR _this$[ebp]
	add	ecx, 4
	call	?InternalRelease@?$CComObjectRootEx@VCComMultiThreadModel@ATL@@@ATL@@QAEKXZ ; ATL::CComObjectRootEx<ATL::CComMultiThreadModel>::InternalRelease

; 2590 : 		ULONG l = m_dwRef;

	mov	eax, DWORD PTR _this$[ebp]
	mov	ecx, DWORD PTR [eax+4]
	mov	DWORD PTR _l$[ebp], ecx

; 2591 : 		m_csCached.Unlock();

	mov	ecx, DWORD PTR _this$[ebp]
	add	ecx, 36					; 00000024H
	call	?Unlock@CComCriticalSection@ATL@@QAEJXZ	; ATL::CComCriticalSection::Unlock

; 2592 : 		if (l == 0)

	cmp	DWORD PTR _l$[ebp], 0
	jne	SHORT $L203459

; 2593 : 			delete this;

	mov	edx, DWORD PTR _this$[ebp]
	mov	DWORD PTR $T206082[ebp], edx
	mov	eax, DWORD PTR $T206082[ebp]
	mov	DWORD PTR $T206081[ebp], eax
	cmp	DWORD PTR $T206081[ebp], 0
	je	SHORT $L206083
	mov	esi, esp
	push	1
	mov	ecx, DWORD PTR $T206081[ebp]
	mov	edx, DWORD PTR [ecx]
	mov	ecx, DWORD PTR $T206081[ebp]
	call	DWORD PTR [edx+20]
	cmp	esi, esp
	call	__RTC_CheckEsp
	mov	DWORD PTR tv80[ebp], eax
	jmp	SHORT $L206084
$L206083:
	mov	DWORD PTR tv80[ebp], 0
$L206084:

; 2594 : 		else if (l == 1)

	jmp	SHORT $L203462
$L203459:
	cmp	DWORD PTR _l$[ebp], 1
	jne	SHORT $L203462

; 2595 : 			_pAtlModule->Unlock();

	mov	eax, DWORD PTR ?_pAtlModule@ATL@@3PAVCAtlModule@1@A ; ATL::_pAtlModule
	mov	edx, DWORD PTR [eax]
	mov	esi, esp
	mov	ecx, DWORD PTR ?_pAtlModule@ATL@@3PAVCAtlModule@1@A ; ATL::_pAtlModule
	call	DWORD PTR [edx+8]
	cmp	esi, esp
	call	__RTC_CheckEsp
$L203462:

; 2596 : 		return l;

	mov	eax, DWORD PTR _l$[ebp]

; 2597 : 	}

	pop	esi
	add	esp, 16					; 00000010H
	cmp	ebp, esp
	call	__RTC_CheckEsp
	mov	esp, ebp
	pop	ebp
	ret	4
?Release@?$CComObjectCached@VCComClassFactory@ATL@@@ATL@@UAGKXZ ENDP ; ATL::CComObjectCached<ATL::CComClassFactory>::Release
_TEXT	ENDS
PUBLIC	?_InternalQueryInterface@CComClassFactory@ATL@@QAEJABU_GUID@@PAPAX@Z ; ATL::CComClassFactory::_InternalQueryInterface
; Function compile flags: /Odt /RTCsu
;	COMDAT ?QueryInterface@?$CComObjectCached@VCComClassFactory@ATL@@@ATL@@UAGJABU_GUID@@PAPAX@Z
_TEXT	SEGMENT
_this$ = 8						; size = 4
_iid$ = 12						; size = 4
_ppvObject$ = 16					; size = 4
?QueryInterface@?$CComObjectCached@VCComClassFactory@ATL@@@ATL@@UAGJABU_GUID@@PAPAX@Z PROC NEAR ; ATL::CComObjectCached<ATL::CComClassFactory>::QueryInterface, COMDAT

; 2600 : 	{return _InternalQueryInterface(iid, ppvObject);}

	push	ebp
	mov	ebp, esp
	mov	eax, DWORD PTR _ppvObject$[ebp]
	push	eax
	mov	ecx, DWORD PTR _iid$[ebp]
	push	ecx
	mov	ecx, DWORD PTR _this$[ebp]
	call	?_InternalQueryInterface@CComClassFactory@ATL@@QAEJABU_GUID@@PAPAX@Z ; ATL::CComClassFactory::_InternalQueryInterface
	cmp	ebp, esp
	call	__RTC_CheckEsp
	pop	ebp
	ret	12					; 0000000cH
?QueryInterface@?$CComObjectCached@VCComClassFactory@ATL@@@ATL@@UAGJABU_GUID@@PAPAX@Z ENDP ; ATL::CComObjectCached<ATL::CComClassFactory>::QueryInterface
_TEXT	ENDS
PUBLIC	?InternalQueryInterface@CComObjectRootBase@ATL@@SGJPAXPBU_ATL_INTMAP_ENTRY@2@ABU_GUID@@PAPAX@Z ; ATL::CComObjectRootBase::InternalQueryInterface
PUBLIC	?_GetEntries@CComClassFactory@ATL@@SGPBU_ATL_INTMAP_ENTRY@2@XZ ; ATL::CComClassFactory::_GetEntries
; Function compile flags: /Odt /RTCsu
;	COMDAT ?_InternalQueryInterface@CComClassFactory@ATL@@QAEJABU_GUID@@PAPAX@Z
_TEXT	SEGMENT
_this$ = -4						; size = 4
_iid$ = 8						; size = 4
_ppvObject$ = 12					; size = 4
?_InternalQueryInterface@CComClassFactory@ATL@@QAEJABU_GUID@@PAPAX@Z PROC NEAR ; ATL::CComClassFactory::_InternalQueryInterface, COMDAT
; _this$ = ecx

; 3156 : 	BEGIN_COM_MAP(CComClassFactory)

	push	ebp
	mov	ebp, esp
	push	ecx
	mov	DWORD PTR [ebp-4], -858993460		; ccccccccH
	mov	DWORD PTR _this$[ebp], ecx
	mov	eax, DWORD PTR _ppvObject$[ebp]
	push	eax
	mov	ecx, DWORD PTR _iid$[ebp]
	push	ecx
	call	?_GetEntries@CComClassFactory@ATL@@SGPBU_ATL_INTMAP_ENTRY@2@XZ ; ATL::CComClassFactory::_GetEntries
	push	eax
	mov	edx, DWORD PTR _this$[ebp]
	push	edx
	call	?InternalQueryInterface@CComObjectRootBase@ATL@@SGJPAXPBU_ATL_INTMAP_ENTRY@2@ABU_GUID@@PAPAX@Z ; ATL::CComObjectRootBase::InternalQueryInterface
	add	esp, 4
	cmp	ebp, esp
	call	__RTC_CheckEsp
	mov	esp, ebp
	pop	ebp
	ret	8
?_InternalQueryInterface@CComClassFactory@ATL@@QAEJABU_GUID@@PAPAX@Z ENDP ; ATL::CComClassFactory::_InternalQueryInterface
_TEXT	ENDS
PUBLIC	??_C@_0P@BMHEGBAP@ppvObject?5?$CB?$DN?50?$AA@	; `string'
PUBLIC	??_C@_0L@DBHNDLKF@pThis?5?$CB?$DN?50?$AA@	; `string'
PUBLIC	??_C@_0DC@BBKMJDPM@pEntries?9?$DOpFunc?5?$DN?$DN?5?$CI?$CIATL?3?3_ATL_C@ ; `string'
EXTRN	__imp__AtlInternalQueryInterface@16:NEAR
;	COMDAT ??_C@_0P@BMHEGBAP@ppvObject?5?$CB?$DN?50?$AA@
CONST	SEGMENT
??_C@_0P@BMHEGBAP@ppvObject?5?$CB?$DN?50?$AA@ DB 'ppvObject != 0', 00H ; `string'
CONST	ENDS
;	COMDAT ??_C@_0L@DBHNDLKF@pThis?5?$CB?$DN?50?$AA@
CONST	SEGMENT
??_C@_0L@DBHNDLKF@pThis?5?$CB?$DN?50?$AA@ DB 'pThis != 0', 00H ; `string'
CONST	ENDS
;	COMDAT ??_C@_0DC@BBKMJDPM@pEntries?9?$DOpFunc?5?$DN?$DN?5?$CI?$CIATL?3?3_ATL_C@
CONST	SEGMENT
??_C@_0DC@BBKMJDPM@pEntries?9?$DOpFunc?5?$DN?$DN?5?$CI?$CIATL?3?3_ATL_C@ DB 'p'
	DB	'Entries->pFunc == ((ATL::_ATL_CREATORARGFUNC*)1)', 00H ; `string'
; Function compile flags: /Odt /RTCsu
CONST	ENDS
;	COMDAT ?InternalQueryInterface@CComObjectRootBase@ATL@@SGJPAXPBU_ATL_INTMAP_ENTRY@2@ABU_GUID@@PAPAX@Z
_TEXT	SEGMENT
_hRes$ = -4						; size = 4
_pThis$ = 8						; size = 4
_pEntries$ = 12						; size = 4
_iid$ = 16						; size = 4
_ppvObject$ = 20					; size = 4
?InternalQueryInterface@CComObjectRootBase@ATL@@SGJPAXPBU_ATL_INTMAP_ENTRY@2@ABU_GUID@@PAPAX@Z PROC NEAR ; ATL::CComObjectRootBase::InternalQueryInterface, COMDAT

; 2160 : 	{

	push	ebp
	mov	ebp, esp
	push	ecx
	push	esi
	mov	DWORD PTR [ebp-4], -858993460		; ccccccccH

; 2161 : 		// Only Assert here. AtlInternalQueryInterface will return the correct HRESULT if ppvObject == NULL
; 2162 : #ifndef _ATL_OLEDB_CONFORMANCE_TESTS
; 2163 : 		ATLASSERT(ppvObject != NULL);

	cmp	DWORD PTR _ppvObject$[ebp], 0
	jne	SHORT $L206091
	push	OFFSET FLAT:??_C@_0P@BMHEGBAP@ppvObject?5?$CB?$DN?50?$AA@
	push	0
	push	2163					; 00000873H
	push	OFFSET FLAT:??_C@_0EP@FBJOMLAB@C?3?2Program?5Files?2Microsoft?5Visua@
	push	2
	call	__CrtDbgReport
	add	esp, 20					; 00000014H
	cmp	eax, 1
	jne	SHORT $L206091
	int	3
$L206091:

; 2164 : #endif
; 2165 : 		ATLASSERT(pThis != NULL);

	cmp	DWORD PTR _pThis$[ebp], 0
	jne	SHORT $L206092
	push	OFFSET FLAT:??_C@_0L@DBHNDLKF@pThis?5?$CB?$DN?50?$AA@
	push	0
	push	2165					; 00000875H
	push	OFFSET FLAT:??_C@_0EP@FBJOMLAB@C?3?2Program?5Files?2Microsoft?5Visua@
	push	2
	call	__CrtDbgReport
	add	esp, 20					; 00000014H
	cmp	eax, 1
	jne	SHORT $L206092
	int	3
$L206092:

; 2166 : 		// First entry in the com map should be a simple map entry
; 2167 : 		ATLASSERT(pEntries->pFunc == _ATL_SIMPLEMAPENTRY);

	mov	edx, DWORD PTR _pEntries$[ebp]
	cmp	DWORD PTR [edx+8], 1
	je	SHORT $L206093
	push	OFFSET FLAT:??_C@_0DC@BBKMJDPM@pEntries?9?$DOpFunc?5?$DN?$DN?5?$CI?$CIATL?3?3_ATL_C@
	push	0
	push	2167					; 00000877H
	push	OFFSET FLAT:??_C@_0EP@FBJOMLAB@C?3?2Program?5Files?2Microsoft?5Visua@
	push	2
	call	__CrtDbgReport
	add	esp, 20					; 00000014H
	cmp	eax, 1
	jne	SHORT $L206093
	int	3
$L206093:

; 2168 : 	#if defined(_ATL_DEBUG_INTERFACES) || defined(_ATL_DEBUG_QI)
; 2169 : 		LPCTSTR pszClassName = (LPCTSTR) pEntries[-1].dw;
; 2170 : 	#endif // _ATL_DEBUG_INTERFACES
; 2171 : 		HRESULT hRes = AtlInternalQueryInterface(pThis, pEntries, iid, ppvObject);

	mov	esi, esp
	mov	ecx, DWORD PTR _ppvObject$[ebp]
	push	ecx
	mov	edx, DWORD PTR _iid$[ebp]
	push	edx
	mov	eax, DWORD PTR _pEntries$[ebp]
	push	eax
	mov	ecx, DWORD PTR _pThis$[ebp]
	push	ecx
	call	DWORD PTR __imp__AtlInternalQueryInterface@16
	cmp	esi, esp
	call	__RTC_CheckEsp
	mov	DWORD PTR _hRes$[ebp], eax

; 2172 : 	#ifdef _ATL_DEBUG_INTERFACES
; 2173 : 		_AtlDebugInterfacesModule.AddThunk((IUnknown**)ppvObject, pszClassName, iid);
; 2174 : 	#endif // _ATL_DEBUG_INTERFACES
; 2175 : 		return _ATLDUMPIID(iid, pszClassName, hRes);

	mov	eax, DWORD PTR _hRes$[ebp]

; 2176 : 	}

	pop	esi
	add	esp, 4
	cmp	ebp, esp
	call	__RTC_CheckEsp
	mov	esp, ebp
	pop	ebp
	ret	16					; 00000010H
?InternalQueryInterface@CComObjectRootBase@ATL@@SGJPAXPBU_ATL_INTMAP_ENTRY@2@ABU_GUID@@PAPAX@Z ENDP ; ATL::CComObjectRootBase::InternalQueryInterface
_TEXT	ENDS
PUBLIC	?_entries@?1??_GetEntries@CComClassFactory@ATL@@SGPBU_ATL_INTMAP_ENTRY@3@XZ@4QBU43@B ; `ATL::CComClassFactory::_GetEntries'::`2'::_entries
PUBLIC	??_C@_0BB@PADCHBLN@CComClassFactory?$AA@	; `string'
PUBLIC	__GUID_00000001_0000_0000_c000_000000000046
;	COMDAT ?_entries@?1??_GetEntries@CComClassFactory@ATL@@SGPBU_ATL_INTMAP_ENTRY@3@XZ@4QBU43@B
CONST	SEGMENT
?_entries@?1??_GetEntries@CComClassFactory@ATL@@SGPBU_ATL_INTMAP_ENTRY@3@XZ@4QBU43@B DD 00H ; `ATL::CComClassFactory::_GetEntries'::`2'::_entries
	DD	FLAT:??_C@_0BB@PADCHBLN@CComClassFactory?$AA@
	DD	00H
	DD	FLAT:__GUID_00000001_0000_0000_c000_000000000046
	DD	00H
	DD	01H
	DD	00H
	DD	00H
	DD	00H
CONST	ENDS
;	COMDAT ??_C@_0BB@PADCHBLN@CComClassFactory?$AA@
CONST	SEGMENT
??_C@_0BB@PADCHBLN@CComClassFactory?$AA@ DB 'CComClassFactory', 00H ; `string'
CONST	ENDS
;	COMDAT __GUID_00000001_0000_0000_c000_000000000046
CONST	SEGMENT
__GUID_00000001_0000_0000_c000_000000000046 DD 01H
	DW	00H
	DW	00H
	DB	0c0H
	DB	00H
	DB	00H
	DB	00H
	DB	00H
	DB	00H
	DB	00H
	DB	046H
; Function compile flags: /Odt /RTCsu
CONST	ENDS
;	COMDAT ?_GetEntries@CComClassFactory@ATL@@SGPBU_ATL_INTMAP_ENTRY@2@XZ
_TEXT	SEGMENT
?_GetEntries@CComClassFactory@ATL@@SGPBU_ATL_INTMAP_ENTRY@2@XZ PROC NEAR ; ATL::CComClassFactory::_GetEntries, COMDAT

; 3156 : 	BEGIN_COM_MAP(CComClassFactory)

	push	ebp
	mov	ebp, esp

; 3157 : 		COM_INTERFACE_ENTRY(IClassFactory)
; 3158 : 	END_COM_MAP()

	mov	eax, OFFSET FLAT:?_entries@?1??_GetEntries@CComClassFactory@ATL@@SGPBU_ATL_INTMAP_ENTRY@3@XZ@4QBU43@B+12
	pop	ebp
	ret	0
?_GetEntries@CComClassFactory@ATL@@SGPBU_ATL_INTMAP_ENTRY@2@XZ ENDP ; ATL::CComClassFactory::_GetEntries
_TEXT	ENDS
PUBLIC	?SetVoid@CComObjectRootBase@ATL@@QAEXPAX@Z	; ATL::CComObjectRootBase::SetVoid
PUBLIC	?InternalFinalConstructAddRef@CSignature@@QAEXXZ ; CSignature::InternalFinalConstructAddRef
PUBLIC	?InternalFinalConstructRelease@CSignature@@QAEXXZ ; CSignature::InternalFinalConstructRelease
PUBLIC	??0?$CComObject@VCSignature@@@ATL@@QAE@PAX@Z	; ATL::CComObject<CSignature>::CComObject<CSignature>
;	COMDAT xdata$x
xdata$x	SEGMENT
$T206111 DD	0ffffffffH
	DD	00H
	DD	0ffffffffH
	DD	00H
$T206113 DD	00H
	DD	00H
	DD	00H
	DD	FLAT:$L206107
$T206112 DD	00H
	DD	00H
	DD	01H
	DD	01H
	DD	FLAT:$T206113
$T206109 DD	019930520H
	DD	02H
	DD	FLAT:$T206111
	DD	01H
	DD	FLAT:$T206112
	DD	2 DUP(00H)
; Function compile flags: /Odt /RTCsu
xdata$x	ENDS
;	COMDAT ?CreateInstance@?$CComCreator@V?$CComObject@VCSignature@@@ATL@@@ATL@@SGJPAXABU_GUID@@PAPAX@Z
_TEXT	SEGMENT
tv140 = -48						; size = 4
tv80 = -44						; size = 4
tv142 = -40						; size = 4
$T206103 = -36						; size = 4
$T206102 = -32						; size = 4
$T206099 = -28						; size = 4
_p$ = -24						; size = 4
_hRes$ = -20						; size = 4
__$EHRec$ = -16						; size = 16
_pv$ = 8						; size = 4
_riid$ = 12						; size = 4
_ppv$ = 16						; size = 4
?CreateInstance@?$CComCreator@V?$CComObject@VCSignature@@@ATL@@@ATL@@SGJPAXABU_GUID@@PAPAX@Z PROC NEAR ; ATL::CComCreator<ATL::CComObject<CSignature> >::CreateInstance, COMDAT

; 1751 : 	{

	push	ebp
	mov	ebp, esp
	push	-1
	push	__ehhandler$?CreateInstance@?$CComCreator@V?$CComObject@VCSignature@@@ATL@@@ATL@@SGJPAXABU_GUID@@PAPAX@Z
	mov	eax, DWORD PTR fs:__except_list
	push	eax
	mov	DWORD PTR fs:__except_list, esp
	push	ecx
	sub	esp, 32					; 00000020H
	push	ebx
	push	esi
	push	edi
	mov	eax, -858993460				; ccccccccH
	mov	DWORD PTR [ebp-48], eax
	mov	DWORD PTR [ebp-44], eax
	mov	DWORD PTR [ebp-40], eax
	mov	DWORD PTR [ebp-36], eax
	mov	DWORD PTR [ebp-32], eax
	mov	DWORD PTR [ebp-28], eax
	mov	DWORD PTR [ebp-24], eax
	mov	DWORD PTR [ebp-20], eax
	mov	DWORD PTR __$EHRec$[ebp], esp

; 1752 : 		ATLASSERT(ppv != NULL);

	cmp	DWORD PTR _ppv$[ebp], 0
	jne	SHORT $L206098
	push	OFFSET FLAT:??_C@_08NEPKAPOI@ppv?5?$CB?$DN?50?$AA@
	push	0
	push	1752					; 000006d8H
	push	OFFSET FLAT:??_C@_0EP@FBJOMLAB@C?3?2Program?5Files?2Microsoft?5Visua@
	push	2
	call	__CrtDbgReport
	add	esp, 20					; 00000014H
	cmp	eax, 1
	jne	SHORT $L206098
	int	3
$L206098:

; 1753 : 		if (ppv == NULL)

	cmp	DWORD PTR _ppv$[ebp], 0
	jne	SHORT $L203468

; 1754 : 			return E_POINTER;

	mov	eax, -2147467261			; 80004003H
	jmp	$L203466
$L203468:

; 1755 : 		*ppv = NULL;

	mov	ecx, DWORD PTR _ppv$[ebp]
	mov	DWORD PTR [ecx], 0

; 1756 : 
; 1757 : 		HRESULT hRes = E_OUTOFMEMORY;

	mov	DWORD PTR _hRes$[ebp], -2147024882	; 8007000eH

; 1758 : 		T1* p = NULL;

	mov	DWORD PTR _p$[ebp], 0

; 1759 : 		ATLTRY(p = new T1(pv))

	mov	DWORD PTR __$EHRec$[ebp+12], 0
	push	3440					; 00000d70H
	call	??2@YAPAXI@Z				; operator new
	add	esp, 4
	mov	DWORD PTR tv142[ebp], eax
	mov	edx, DWORD PTR tv142[ebp]
	mov	DWORD PTR $T206099[ebp], edx
	cmp	DWORD PTR $T206099[ebp], 0
	je	SHORT $L206100
	mov	eax, DWORD PTR _pv$[ebp]
	push	eax
	mov	ecx, DWORD PTR $T206099[ebp]
	call	??0?$CComObject@VCSignature@@@ATL@@QAE@PAX@Z ; ATL::CComObject<CSignature>::CComObject<CSignature>
	mov	DWORD PTR tv80[ebp], eax
	jmp	SHORT $L206101
$L206100:
	mov	DWORD PTR tv80[ebp], 0
$L206101:
	mov	ecx, DWORD PTR tv80[ebp]
	mov	DWORD PTR _p$[ebp], ecx
	jmp	SHORT $L206106
$L206107:
	mov	eax, $L206106
	ret	0
$L206106:
	mov	DWORD PTR __$EHRec$[ebp+12], -1

; 1760 : 		if (p != NULL)

	cmp	DWORD PTR _p$[ebp], 0
	je	$L203507

; 1761 : 		{
; 1762 : 			p->SetVoid(pv);

	mov	edx, DWORD PTR _pv$[ebp]
	push	edx
	mov	ecx, DWORD PTR _p$[ebp]
	add	ecx, 12					; 0000000cH
	call	?SetVoid@CComObjectRootBase@ATL@@QAEXPAX@Z ; ATL::CComObjectRootBase::SetVoid

; 1763 : 			p->InternalFinalConstructAddRef();

	mov	ecx, DWORD PTR _p$[ebp]
	call	?InternalFinalConstructAddRef@CSignature@@QAEXXZ ; CSignature::InternalFinalConstructAddRef

; 1764 : 			hRes = p->FinalConstruct();

	mov	ecx, DWORD PTR _p$[ebp]
	add	ecx, 12					; 0000000cH
	call	?FinalConstruct@CComObjectRootBase@ATL@@QAEJXZ ; ATL::CComObjectRootBase::FinalConstruct
	mov	DWORD PTR _hRes$[ebp], eax

; 1765 : 			if (SUCCEEDED(hRes))

	cmp	DWORD PTR _hRes$[ebp], 0
	jl	SHORT $L203509

; 1766 : 				hRes = p->_AtlFinalConstruct();

	mov	ecx, DWORD PTR _p$[ebp]
	add	ecx, 12					; 0000000cH
	call	?_AtlFinalConstruct@CComObjectRootBase@ATL@@QAEJXZ ; ATL::CComObjectRootBase::_AtlFinalConstruct
	mov	DWORD PTR _hRes$[ebp], eax
$L203509:

; 1767 : 			p->InternalFinalConstructRelease();

	mov	ecx, DWORD PTR _p$[ebp]
	call	?InternalFinalConstructRelease@CSignature@@QAEXXZ ; CSignature::InternalFinalConstructRelease

; 1768 : 			if (hRes == S_OK)

	cmp	DWORD PTR _hRes$[ebp], 0
	jne	SHORT $L203511

; 1769 : 				hRes = p->QueryInterface(riid, ppv);

	mov	esi, esp
	mov	eax, DWORD PTR _ppv$[ebp]
	push	eax
	mov	ecx, DWORD PTR _riid$[ebp]
	push	ecx
	mov	edx, DWORD PTR _p$[ebp]
	push	edx
	mov	eax, DWORD PTR _p$[ebp]
	mov	ecx, DWORD PTR [eax]
	call	DWORD PTR [ecx]
	cmp	esi, esp
	call	__RTC_CheckEsp
	mov	DWORD PTR _hRes$[ebp], eax
$L203511:

; 1770 : 			if (hRes != S_OK)

	cmp	DWORD PTR _hRes$[ebp], 0
	je	SHORT $L203507

; 1771 : 				delete p;

	mov	edx, DWORD PTR _p$[ebp]
	mov	DWORD PTR $T206103[ebp], edx
	mov	eax, DWORD PTR $T206103[ebp]
	mov	DWORD PTR $T206102[ebp], eax
	cmp	DWORD PTR $T206102[ebp], 0
	je	SHORT $L206104
	mov	esi, esp
	push	1
	mov	ecx, DWORD PTR $T206102[ebp]
	mov	edx, DWORD PTR [ecx]
	mov	ecx, DWORD PTR $T206102[ebp]
	call	DWORD PTR [edx+900]
	cmp	esi, esp
	call	__RTC_CheckEsp
	mov	DWORD PTR tv140[ebp], eax
	jmp	SHORT $L203507
$L206104:
	mov	DWORD PTR tv140[ebp], 0
$L203507:

; 1772 : 		}
; 1773 : 		return hRes;

	mov	eax, DWORD PTR _hRes$[ebp]
$L203466:

; 1774 : 	}

	mov	ecx, DWORD PTR __$EHRec$[ebp+4]
	mov	DWORD PTR fs:__except_list, ecx
	pop	edi
	pop	esi
	pop	ebx
	add	esp, 48					; 00000030H
	cmp	ebp, esp
	call	__RTC_CheckEsp
	mov	esp, ebp
	pop	ebp
	ret	12					; 0000000cH
_TEXT	ENDS
;	COMDAT text$x
text$x	SEGMENT
__ehhandler$?CreateInstance@?$CComCreator@V?$CComObject@VCSignature@@@ATL@@@ATL@@SGJPAXABU_GUID@@PAPAX@Z:
	mov	eax, OFFSET FLAT:$T206109
	jmp	___CxxFrameHandler
text$x	ENDS
?CreateInstance@?$CComCreator@V?$CComObject@VCSignature@@@ATL@@@ATL@@SGJPAXABU_GUID@@PAPAX@Z ENDP ; ATL::CComCreator<ATL::CComObject<CSignature> >::CreateInstance
; Function compile flags: /Odt /RTCsu
;	COMDAT ?SetVoid@CComObjectRootBase@ATL@@QAEXPAX@Z
_TEXT	SEGMENT
_this$ = -4						; size = 4
___formal$ = 8						; size = 4
?SetVoid@CComObjectRootBase@ATL@@QAEXPAX@Z PROC NEAR	; ATL::CComObjectRootBase::SetVoid, COMDAT
; _this$ = ecx

; 2192 : 	void SetVoid(void*) {}

	push	ebp
	mov	ebp, esp
	push	ecx
	mov	DWORD PTR [ebp-4], -858993460		; ccccccccH
	mov	DWORD PTR _this$[ebp], ecx
	mov	esp, ebp
	pop	ebp
	ret	4
?SetVoid@CComObjectRootBase@ATL@@QAEXPAX@Z ENDP		; ATL::CComObjectRootBase::SetVoid
_TEXT	ENDS
PUBLIC	?InternalAddRef@?$CComObjectRootEx@VCComSingleThreadModel@ATL@@@ATL@@QAEKXZ ; ATL::CComObjectRootEx<ATL::CComSingleThreadModel>::InternalAddRef
; Function compile flags: /Odt /RTCsu
; File c:\activex\xmlsign\signature.h
;	COMDAT ?InternalFinalConstructAddRef@CSignature@@QAEXXZ
_TEXT	SEGMENT
_this$ = -4						; size = 4
?InternalFinalConstructAddRef@CSignature@@QAEXXZ PROC NEAR ; CSignature::InternalFinalConstructAddRef, COMDAT
; _this$ = ecx

; 302  : DECLARE_PROTECT_FINAL_CONSTRUCT()

	push	ebp
	mov	ebp, esp
	push	ecx
	mov	DWORD PTR [ebp-4], -858993460		; ccccccccH
	mov	DWORD PTR _this$[ebp], ecx
	mov	ecx, DWORD PTR _this$[ebp]
	add	ecx, 12					; 0000000cH
	call	?InternalAddRef@?$CComObjectRootEx@VCComSingleThreadModel@ATL@@@ATL@@QAEKXZ ; ATL::CComObjectRootEx<ATL::CComSingleThreadModel>::InternalAddRef
	add	esp, 4
	cmp	ebp, esp
	call	__RTC_CheckEsp
	mov	esp, ebp
	pop	ebp
	ret	0
?InternalFinalConstructAddRef@CSignature@@QAEXXZ ENDP	; CSignature::InternalFinalConstructAddRef
_TEXT	ENDS
PUBLIC	??_C@_0P@IDNKKMJE@m_dwRef?5?$CB?$DN?5?91L?$AA@	; `string'
PUBLIC	?Increment@CComSingleThreadModel@ATL@@SGKPAJ@Z	; ATL::CComSingleThreadModel::Increment
;	COMDAT ??_C@_0P@IDNKKMJE@m_dwRef?5?$CB?$DN?5?91L?$AA@
; File c:\program files\microsoft visual studio .net 2003\vc7\atlmfc\include\atlcom.h
CONST	SEGMENT
??_C@_0P@IDNKKMJE@m_dwRef?5?$CB?$DN?5?91L?$AA@ DB 'm_dwRef != -1L', 00H ; `string'
; Function compile flags: /Odt /RTCsu
CONST	ENDS
;	COMDAT ?InternalAddRef@?$CComObjectRootEx@VCComSingleThreadModel@ATL@@@ATL@@QAEKXZ
_TEXT	SEGMENT
_this$ = -4						; size = 4
?InternalAddRef@?$CComObjectRootEx@VCComSingleThreadModel@ATL@@@ATL@@QAEKXZ PROC NEAR ; ATL::CComObjectRootEx<ATL::CComSingleThreadModel>::InternalAddRef, COMDAT
; _this$ = ecx

; 2326 : 	{

	push	ebp
	mov	ebp, esp
	push	ecx
	mov	DWORD PTR [ebp-4], -858993460		; ccccccccH
	mov	DWORD PTR _this$[ebp], ecx

; 2327 : 		ATLASSERT(m_dwRef != -1L);

	mov	eax, DWORD PTR _this$[ebp]
	cmp	DWORD PTR [eax], -1
	jne	SHORT $L206122
	push	OFFSET FLAT:??_C@_0P@IDNKKMJE@m_dwRef?5?$CB?$DN?5?91L?$AA@
	push	0
	push	2327					; 00000917H
	push	OFFSET FLAT:??_C@_0EP@FBJOMLAB@C?3?2Program?5Files?2Microsoft?5Visua@
	push	2
	call	__CrtDbgReport
	add	esp, 20					; 00000014H
	cmp	eax, 1
	jne	SHORT $L206122
	int	3
$L206122:

; 2328 : 		return _ThreadModel::Increment(&m_dwRef);

	mov	edx, DWORD PTR _this$[ebp]
	push	edx
	call	?Increment@CComSingleThreadModel@ATL@@SGKPAJ@Z ; ATL::CComSingleThreadModel::Increment

; 2329 : 	}

	add	esp, 4
	cmp	ebp, esp
	call	__RTC_CheckEsp
	mov	esp, ebp
	pop	ebp
	ret	0
?InternalAddRef@?$CComObjectRootEx@VCComSingleThreadModel@ATL@@@ATL@@QAEKXZ ENDP ; ATL::CComObjectRootEx<ATL::CComSingleThreadModel>::InternalAddRef
; Function compile flags: /Odt /RTCsu
; File c:\program files\microsoft visual studio .net 2003\vc7\atlmfc\include\atlbase.h
_TEXT	ENDS
;	COMDAT ?Increment@CComSingleThreadModel@ATL@@SGKPAJ@Z
_TEXT	SEGMENT
_p$ = 8							; size = 4
?Increment@CComSingleThreadModel@ATL@@SGKPAJ@Z PROC NEAR ; ATL::CComSingleThreadModel::Increment, COMDAT

; 357  : 	static ULONG WINAPI Increment(LPLONG p) throw() {return ++(*p);}

	push	ebp
	mov	ebp, esp
	mov	eax, DWORD PTR _p$[ebp]
	mov	ecx, DWORD PTR [eax]
	add	ecx, 1
	mov	edx, DWORD PTR _p$[ebp]
	mov	DWORD PTR [edx], ecx
	mov	eax, DWORD PTR _p$[ebp]
	mov	eax, DWORD PTR [eax]
	pop	ebp
	ret	4
?Increment@CComSingleThreadModel@ATL@@SGKPAJ@Z ENDP	; ATL::CComSingleThreadModel::Increment
_TEXT	ENDS
PUBLIC	?InternalRelease@?$CComObjectRootEx@VCComSingleThreadModel@ATL@@@ATL@@QAEKXZ ; ATL::CComObjectRootEx<ATL::CComSingleThreadModel>::InternalRelease
; Function compile flags: /Odt /RTCsu
; File c:\activex\xmlsign\signature.h
;	COMDAT ?InternalFinalConstructRelease@CSignature@@QAEXXZ
_TEXT	SEGMENT
_this$ = -4						; size = 4
?InternalFinalConstructRelease@CSignature@@QAEXXZ PROC NEAR ; CSignature::InternalFinalConstructRelease, COMDAT
; _this$ = ecx

; 302  : DECLARE_PROTECT_FINAL_CONSTRUCT()

	push	ebp
	mov	ebp, esp
	push	ecx
	mov	DWORD PTR [ebp-4], -858993460		; ccccccccH
	mov	DWORD PTR _this$[ebp], ecx
	mov	ecx, DWORD PTR _this$[ebp]
	add	ecx, 12					; 0000000cH
	call	?InternalRelease@?$CComObjectRootEx@VCComSingleThreadModel@ATL@@@ATL@@QAEKXZ ; ATL::CComObjectRootEx<ATL::CComSingleThreadModel>::InternalRelease
	add	esp, 4
	cmp	ebp, esp
	call	__RTC_CheckEsp
	mov	esp, ebp
	pop	ebp
	ret	0
?InternalFinalConstructRelease@CSignature@@QAEXXZ ENDP	; CSignature::InternalFinalConstructRelease
_TEXT	ENDS
PUBLIC	??_C@_0EC@FOHBGNDM@0?5?$CG?$CG?5?$CCRelease?5called?5on?5a?5pointe@ ; `string'
PUBLIC	?Decrement@CComSingleThreadModel@ATL@@SGKPAJ@Z	; ATL::CComSingleThreadModel::Decrement
;	COMDAT ??_C@_0EC@FOHBGNDM@0?5?$CG?$CG?5?$CCRelease?5called?5on?5a?5pointe@
; File c:\program files\microsoft visual studio .net 2003\vc7\atlmfc\include\atlcom.h
CONST	SEGMENT
??_C@_0EC@FOHBGNDM@0?5?$CG?$CG?5?$CCRelease?5called?5on?5a?5pointe@ DB '0'
	DB	' && "Release called on a pointer that has already been releas'
	DB	'ed"', 00H					; `string'
; Function compile flags: /Odt /RTCsu
CONST	ENDS
;	COMDAT ?InternalRelease@?$CComObjectRootEx@VCComSingleThreadModel@ATL@@@ATL@@QAEKXZ
_TEXT	SEGMENT
_nRef$ = -8						; size = 4
_this$ = -4						; size = 4
?InternalRelease@?$CComObjectRootEx@VCComSingleThreadModel@ATL@@@ATL@@QAEKXZ PROC NEAR ; ATL::CComObjectRootEx<ATL::CComSingleThreadModel>::InternalRelease, COMDAT
; _this$ = ecx

; 2331 : 	{

	push	ebp
	mov	ebp, esp
	sub	esp, 8
	mov	DWORD PTR [ebp-8], -858993460		; ccccccccH
	mov	DWORD PTR [ebp-4], -858993460		; ccccccccH
	mov	DWORD PTR _this$[ebp], ecx

; 2332 : #ifdef _DEBUG
; 2333 : 		long nRef = _ThreadModel::Decrement(&m_dwRef);

	mov	eax, DWORD PTR _this$[ebp]
	push	eax
	call	?Decrement@CComSingleThreadModel@ATL@@SGKPAJ@Z ; ATL::CComSingleThreadModel::Decrement
	mov	DWORD PTR _nRef$[ebp], eax

; 2334 : 		if (nRef < -(LONG_MAX / 2))

	cmp	DWORD PTR _nRef$[ebp], -1073741823	; c0000001H
	jge	SHORT $L91522

; 2335 : 		{
; 2336 : 			ATLASSERT(0 && _T("Release called on a pointer that has already been released"));

	xor	ecx, ecx
	jne	SHORT $L91522
	push	OFFSET FLAT:??_C@_0EC@FOHBGNDM@0?5?$CG?$CG?5?$CCRelease?5called?5on?5a?5pointe@
	push	0
	push	2336					; 00000920H
	push	OFFSET FLAT:??_C@_0EP@FBJOMLAB@C?3?2Program?5Files?2Microsoft?5Visua@
	push	2
	call	__CrtDbgReport
	add	esp, 20					; 00000014H
	cmp	eax, 1
	jne	SHORT $L91522
	int	3
$L91522:

; 2337 : 		}
; 2338 : 		return nRef;

	mov	eax, DWORD PTR _nRef$[ebp]

; 2339 : #else
; 2340 : 		return _ThreadModel::Decrement(&m_dwRef);
; 2341 : #endif	
; 2342 : 	}

	add	esp, 8
	cmp	ebp, esp
	call	__RTC_CheckEsp
	mov	esp, ebp
	pop	ebp
	ret	0
?InternalRelease@?$CComObjectRootEx@VCComSingleThreadModel@ATL@@@ATL@@QAEKXZ ENDP ; ATL::CComObjectRootEx<ATL::CComSingleThreadModel>::InternalRelease
; Function compile flags: /Odt /RTCsu
; File c:\program files\microsoft visual studio .net 2003\vc7\atlmfc\include\atlbase.h
_TEXT	ENDS
;	COMDAT ?Decrement@CComSingleThreadModel@ATL@@SGKPAJ@Z
_TEXT	SEGMENT
_p$ = 8							; size = 4
?Decrement@CComSingleThreadModel@ATL@@SGKPAJ@Z PROC NEAR ; ATL::CComSingleThreadModel::Decrement, COMDAT

; 358  : 	static ULONG WINAPI Decrement(LPLONG p) throw() {return --(*p);}

	push	ebp
	mov	ebp, esp
	mov	eax, DWORD PTR _p$[ebp]
	mov	ecx, DWORD PTR [eax]
	sub	ecx, 1
	mov	edx, DWORD PTR _p$[ebp]
	mov	DWORD PTR [edx], ecx
	mov	eax, DWORD PTR _p$[ebp]
	mov	eax, DWORD PTR [eax]
	pop	ebp
	ret	4
?Decrement@CComSingleThreadModel@ATL@@SGKPAJ@Z ENDP	; ATL::CComSingleThreadModel::Decrement
_TEXT	ENDS
PUBLIC	??0?$CComAggObject@VCSignature@@@ATL@@QAE@PAX@Z	; ATL::CComAggObject<CSignature>::CComAggObject<CSignature>
PUBLIC	?FinalConstruct@?$CComAggObject@VCSignature@@@ATL@@QAEJXZ ; ATL::CComAggObject<CSignature>::FinalConstruct
;	COMDAT xdata$x
; File c:\program files\microsoft visual studio .net 2003\vc7\atlmfc\include\atlcom.h
xdata$x	SEGMENT
$T206149 DD	0ffffffffH
	DD	00H
	DD	00H
	DD	FLAT:$L206145
	DD	0ffffffffH
	DD	00H
$T206151 DD	00H
	DD	00H
	DD	00H
	DD	FLAT:$L206144
$T206150 DD	00H
	DD	01H
	DD	02H
	DD	01H
	DD	FLAT:$T206151
$T206147 DD	019930520H
	DD	03H
	DD	FLAT:$T206149
	DD	01H
	DD	FLAT:$T206150
	DD	2 DUP(00H)
; Function compile flags: /Odt /RTCsu
xdata$x	ENDS
;	COMDAT ?CreateInstance@?$CComCreator@V?$CComAggObject@VCSignature@@@ATL@@@ATL@@SGJPAXABU_GUID@@PAPAX@Z
_TEXT	SEGMENT
tv142 = -56						; size = 4
tv82 = -52						; size = 4
tv147 = -48						; size = 4
tv145 = -44						; size = 4
$T206140 = -40						; size = 4
$T206139 = -36						; size = 4
$T206136 = -32						; size = 4
$T206135 = -28						; size = 4
_p$ = -24						; size = 4
_hRes$ = -20						; size = 4
__$EHRec$ = -16						; size = 16
_pv$ = 8						; size = 4
_riid$ = 12						; size = 4
_ppv$ = 16						; size = 4
?CreateInstance@?$CComCreator@V?$CComAggObject@VCSignature@@@ATL@@@ATL@@SGJPAXABU_GUID@@PAPAX@Z PROC NEAR ; ATL::CComCreator<ATL::CComAggObject<CSignature> >::CreateInstance, COMDAT

; 1751 : 	{

	push	ebp
	mov	ebp, esp
	push	-1
	push	__ehhandler$?CreateInstance@?$CComCreator@V?$CComAggObject@VCSignature@@@ATL@@@ATL@@SGJPAXABU_GUID@@PAPAX@Z
	mov	eax, DWORD PTR fs:__except_list
	push	eax
	mov	DWORD PTR fs:__except_list, esp
	push	ecx
	sub	esp, 40					; 00000028H
	push	ebx
	push	esi
	push	edi
	lea	edi, DWORD PTR [ebp-56]
	mov	ecx, 10					; 0000000aH
	mov	eax, -858993460				; ccccccccH
	rep stosd
	mov	DWORD PTR __$EHRec$[ebp], esp

; 1752 : 		ATLASSERT(ppv != NULL);

	cmp	DWORD PTR _ppv$[ebp], 0
	jne	SHORT $L206134
	push	OFFSET FLAT:??_C@_08NEPKAPOI@ppv?5?$CB?$DN?50?$AA@
	push	0
	push	1752					; 000006d8H
	push	OFFSET FLAT:??_C@_0EP@FBJOMLAB@C?3?2Program?5Files?2Microsoft?5Visua@
	push	2
	call	__CrtDbgReport
	add	esp, 20					; 00000014H
	cmp	eax, 1
	jne	SHORT $L206134
	int	3
$L206134:

; 1753 : 		if (ppv == NULL)

	cmp	DWORD PTR _ppv$[ebp], 0
	jne	SHORT $L203518

; 1754 : 			return E_POINTER;

	mov	eax, -2147467261			; 80004003H
	jmp	$L203516
$L203518:

; 1755 : 		*ppv = NULL;

	mov	ecx, DWORD PTR _ppv$[ebp]
	mov	DWORD PTR [ecx], 0

; 1756 : 
; 1757 : 		HRESULT hRes = E_OUTOFMEMORY;

	mov	DWORD PTR _hRes$[ebp], -2147024882	; 8007000eH

; 1758 : 		T1* p = NULL;

	mov	DWORD PTR _p$[ebp], 0

; 1759 : 		ATLTRY(p = new T1(pv))

	mov	DWORD PTR __$EHRec$[ebp+12], 0
	push	3448					; 00000d78H
	call	??2@YAPAXI@Z				; operator new
	add	esp, 4
	mov	DWORD PTR tv145[ebp], eax
	mov	edx, DWORD PTR tv145[ebp]
	mov	DWORD PTR $T206136[ebp], edx
	mov	BYTE PTR __$EHRec$[ebp+12], 1
	cmp	DWORD PTR $T206136[ebp], 0
	je	SHORT $L206137
	mov	eax, DWORD PTR _pv$[ebp]
	push	eax
	mov	ecx, DWORD PTR $T206136[ebp]
	call	??0?$CComAggObject@VCSignature@@@ATL@@QAE@PAX@Z ; ATL::CComAggObject<CSignature>::CComAggObject<CSignature>
	mov	DWORD PTR tv147[ebp], eax
	mov	ecx, DWORD PTR tv147[ebp]
	mov	DWORD PTR tv82[ebp], ecx
	jmp	SHORT $L206138
$L206137:
	mov	DWORD PTR tv82[ebp], 0
$L206138:
	mov	edx, DWORD PTR tv82[ebp]
	mov	DWORD PTR $T206135[ebp], edx
	mov	BYTE PTR __$EHRec$[ebp+12], 0
	mov	eax, DWORD PTR $T206135[ebp]
	mov	DWORD PTR _p$[ebp], eax
	jmp	SHORT $L206143
$L206144:
	mov	eax, $L206143
	ret	0
$L206143:
	mov	DWORD PTR __$EHRec$[ebp+12], -1

; 1760 : 		if (p != NULL)

	cmp	DWORD PTR _p$[ebp], 0
	je	$L203586

; 1761 : 		{
; 1762 : 			p->SetVoid(pv);

	mov	ecx, DWORD PTR _pv$[ebp]
	push	ecx
	mov	ecx, DWORD PTR _p$[ebp]
	add	ecx, 4
	call	?SetVoid@CComObjectRootBase@ATL@@QAEXPAX@Z ; ATL::CComObjectRootBase::SetVoid

; 1763 : 			p->InternalFinalConstructAddRef();

	mov	ecx, DWORD PTR _p$[ebp]
	add	ecx, 4
	call	?InternalFinalConstructAddRef@CComObjectRootBase@ATL@@QAEXXZ ; ATL::CComObjectRootBase::InternalFinalConstructAddRef

; 1764 : 			hRes = p->FinalConstruct();

	mov	ecx, DWORD PTR _p$[ebp]
	call	?FinalConstruct@?$CComAggObject@VCSignature@@@ATL@@QAEJXZ ; ATL::CComAggObject<CSignature>::FinalConstruct
	mov	DWORD PTR _hRes$[ebp], eax

; 1765 : 			if (SUCCEEDED(hRes))

	cmp	DWORD PTR _hRes$[ebp], 0
	jl	SHORT $L203588

; 1766 : 				hRes = p->_AtlFinalConstruct();

	mov	ecx, DWORD PTR _p$[ebp]
	add	ecx, 4
	call	?_AtlFinalConstruct@CComObjectRootBase@ATL@@QAEJXZ ; ATL::CComObjectRootBase::_AtlFinalConstruct
	mov	DWORD PTR _hRes$[ebp], eax
$L203588:

; 1767 : 			p->InternalFinalConstructRelease();

	mov	ecx, DWORD PTR _p$[ebp]
	add	ecx, 4
	call	?InternalFinalConstructRelease@CComObjectRootBase@ATL@@QAEXXZ ; ATL::CComObjectRootBase::InternalFinalConstructRelease

; 1768 : 			if (hRes == S_OK)

	cmp	DWORD PTR _hRes$[ebp], 0
	jne	SHORT $L203590

; 1769 : 				hRes = p->QueryInterface(riid, ppv);

	mov	esi, esp
	mov	edx, DWORD PTR _ppv$[ebp]
	push	edx
	mov	eax, DWORD PTR _riid$[ebp]
	push	eax
	mov	ecx, DWORD PTR _p$[ebp]
	push	ecx
	mov	edx, DWORD PTR _p$[ebp]
	mov	eax, DWORD PTR [edx]
	call	DWORD PTR [eax]
	cmp	esi, esp
	call	__RTC_CheckEsp
	mov	DWORD PTR _hRes$[ebp], eax
$L203590:

; 1770 : 			if (hRes != S_OK)

	cmp	DWORD PTR _hRes$[ebp], 0
	je	SHORT $L203586

; 1771 : 				delete p;

	mov	ecx, DWORD PTR _p$[ebp]
	mov	DWORD PTR $T206140[ebp], ecx
	mov	edx, DWORD PTR $T206140[ebp]
	mov	DWORD PTR $T206139[ebp], edx
	cmp	DWORD PTR $T206139[ebp], 0
	je	SHORT $L206141
	mov	esi, esp
	push	1
	mov	eax, DWORD PTR $T206139[ebp]
	mov	edx, DWORD PTR [eax]
	mov	ecx, DWORD PTR $T206139[ebp]
	call	DWORD PTR [edx+12]
	cmp	esi, esp
	call	__RTC_CheckEsp
	mov	DWORD PTR tv142[ebp], eax
	jmp	SHORT $L203586
$L206141:
	mov	DWORD PTR tv142[ebp], 0
$L203586:

; 1772 : 		}
; 1773 : 		return hRes;

	mov	eax, DWORD PTR _hRes$[ebp]
$L203516:

; 1774 : 	}

	mov	ecx, DWORD PTR __$EHRec$[ebp+4]
	mov	DWORD PTR fs:__except_list, ecx
	pop	edi
	pop	esi
	pop	ebx
	add	esp, 56					; 00000038H
	cmp	ebp, esp
	call	__RTC_CheckEsp
	mov	esp, ebp
	pop	ebp
	ret	12					; 0000000cH
_TEXT	ENDS
;	COMDAT text$x
text$x	SEGMENT
$L206145:
	mov	eax, DWORD PTR $T206136[ebp]
	push	eax
	call	??3@YAXPAX@Z				; operator delete
	pop	ecx
	ret	0
__ehhandler$?CreateInstance@?$CComCreator@V?$CComAggObject@VCSignature@@@ATL@@@ATL@@SGJPAXABU_GUID@@PAPAX@Z:
	mov	eax, OFFSET FLAT:$T206147
	jmp	___CxxFrameHandler
text$x	ENDS
?CreateInstance@?$CComCreator@V?$CComAggObject@VCSignature@@@ATL@@@ATL@@SGJPAXABU_GUID@@PAPAX@Z ENDP ; ATL::CComCreator<ATL::CComAggObject<CSignature> >::CreateInstance
PUBLIC	??1?$CComObjectCached@VCComClassFactory@ATL@@@ATL@@UAE@XZ ; ATL::CComObjectCached<ATL::CComClassFactory>::~CComObjectCached<ATL::CComClassFactory>
; Function compile flags: /Odt /RTCsu
;	COMDAT ??_G?$CComObjectCached@VCComClassFactory@ATL@@@ATL@@UAEPAXI@Z
_TEXT	SEGMENT
_this$ = -4						; size = 4
___flags$ = 8						; size = 4
??_G?$CComObjectCached@VCComClassFactory@ATL@@@ATL@@UAEPAXI@Z PROC NEAR ; ATL::CComObjectCached<ATL::CComClassFactory>::`scalar deleting destructor', COMDAT
; _this$ = ecx
	push	ebp
	mov	ebp, esp
	push	ecx
	mov	DWORD PTR [ebp-4], -858993460		; ccccccccH
	mov	DWORD PTR _this$[ebp], ecx
	mov	ecx, DWORD PTR _this$[ebp]
	call	??1?$CComObjectCached@VCComClassFactory@ATL@@@ATL@@UAE@XZ ; ATL::CComObjectCached<ATL::CComClassFactory>::~CComObjectCached<ATL::CComClassFactory>
	mov	eax, DWORD PTR ___flags$[ebp]
	and	eax, 1
	je	SHORT $L203598
	mov	ecx, DWORD PTR _this$[ebp]
	push	ecx
	call	??3@YAXPAX@Z				; operator delete
	add	esp, 4
$L203598:
	mov	eax, DWORD PTR _this$[ebp]
	add	esp, 4
	cmp	ebp, esp
	call	__RTC_CheckEsp
	mov	esp, ebp
	pop	ebp
	ret	4
??_G?$CComObjectCached@VCComClassFactory@ATL@@@ATL@@UAEPAXI@Z ENDP ; ATL::CComObjectCached<ATL::CComClassFactory>::`scalar deleting destructor'
_TEXT	ENDS
PUBLIC	?FinalRelease@CComObjectRootBase@ATL@@QAEXXZ	; ATL::CComObjectRootBase::FinalRelease
;	COMDAT xdata$x
xdata$x	SEGMENT
$T206163 DD	0ffffffffH
	DD	FLAT:$L206158
	DD	00H
	DD	FLAT:$L206159
$T206161 DD	019930520H
	DD	02H
	DD	FLAT:$T206163
	DD	2 DUP(00H)
	DD	2 DUP(00H)
; Function compile flags: /Odt /RTCsu
xdata$x	ENDS
;	COMDAT ??1?$CComObjectCached@VCComClassFactory@ATL@@@ATL@@UAE@XZ
_TEXT	SEGMENT
_this$ = -16						; size = 4
__$EHRec$ = -12						; size = 12
??1?$CComObjectCached@VCComClassFactory@ATL@@@ATL@@UAE@XZ PROC NEAR ; ATL::CComObjectCached<ATL::CComClassFactory>::~CComObjectCached<ATL::CComClassFactory>, COMDAT
; _this$ = ecx

; 2568 : 	{

	push	ebp
	mov	ebp, esp
	push	-1
	push	__ehhandler$??1?$CComObjectCached@VCComClassFactory@ATL@@@ATL@@UAE@XZ
	mov	eax, DWORD PTR fs:__except_list
	push	eax
	mov	DWORD PTR fs:__except_list, esp
	push	ecx
	mov	DWORD PTR [ebp-16], -858993460		; ccccccccH
	mov	DWORD PTR _this$[ebp], ecx
	mov	eax, DWORD PTR _this$[ebp]
	mov	DWORD PTR [eax], OFFSET FLAT:??_7?$CComObjectCached@VCComClassFactory@ATL@@@ATL@@6B@
	mov	DWORD PTR __$EHRec$[ebp+8], 1

; 2569 : 		m_dwRef = -(LONG_MAX/2);

	mov	ecx, DWORD PTR _this$[ebp]
	mov	DWORD PTR [ecx+4], -1073741823		; c0000001H

; 2570 : 		FinalRelease();

	mov	ecx, DWORD PTR _this$[ebp]
	add	ecx, 4
	call	?FinalRelease@CComObjectRootBase@ATL@@QAEXXZ ; ATL::CComObjectRootBase::FinalRelease

; 2571 : #ifdef _ATL_DEBUG_INTERFACES
; 2572 : 		_AtlDebugInterfacesModule.DeleteNonAddRefThunk(_GetRawUnknown());
; 2573 : #endif
; 2574 : 	}

	mov	BYTE PTR __$EHRec$[ebp+8], 0
	mov	ecx, DWORD PTR _this$[ebp]
	add	ecx, 36					; 00000024H
	call	??1CComAutoCriticalSection@ATL@@QAE@XZ	; ATL::CComAutoCriticalSection::~CComAutoCriticalSection
	mov	DWORD PTR __$EHRec$[ebp+8], -1
	mov	ecx, DWORD PTR _this$[ebp]
	call	??1CComClassFactory@ATL@@UAE@XZ		; ATL::CComClassFactory::~CComClassFactory
	mov	ecx, DWORD PTR __$EHRec$[ebp]
	mov	DWORD PTR fs:__except_list, ecx
	add	esp, 16					; 00000010H
	cmp	ebp, esp
	call	__RTC_CheckEsp
	mov	esp, ebp
	pop	ebp
	ret	0
_TEXT	ENDS
;	COMDAT text$x
text$x	SEGMENT
$L206158:
	mov	ecx, DWORD PTR _this$[ebp]
	jmp	??1CComClassFactory@ATL@@UAE@XZ		; ATL::CComClassFactory::~CComClassFactory
$L206159:
	mov	ecx, DWORD PTR _this$[ebp]
	add	ecx, 36					; 00000024H
	jmp	??1CComAutoCriticalSection@ATL@@QAE@XZ	; ATL::CComAutoCriticalSection::~CComAutoCriticalSection
__ehhandler$??1?$CComObjectCached@VCComClassFactory@ATL@@@ATL@@UAE@XZ:
	mov	eax, OFFSET FLAT:$T206161
	jmp	___CxxFrameHandler
text$x	ENDS
??1?$CComObjectCached@VCComClassFactory@ATL@@@ATL@@UAE@XZ ENDP ; ATL::CComObjectCached<ATL::CComClassFactory>::~CComObjectCached<ATL::CComClassFactory>
; Function compile flags: /Odt /RTCsu
;	COMDAT ?FinalRelease@CComObjectRootBase@ATL@@QAEXXZ
_TEXT	SEGMENT
_this$ = -4						; size = 4
?FinalRelease@CComObjectRootBase@ATL@@QAEXXZ PROC NEAR	; ATL::CComObjectRootBase::FinalRelease, COMDAT
; _this$ = ecx

; 2141 : 	void FinalRelease() {}

	push	ebp
	mov	ebp, esp
	push	ecx
	mov	DWORD PTR [ebp-4], -858993460		; ccccccccH
	mov	DWORD PTR _this$[ebp], ecx
	mov	esp, ebp
	pop	ebp
	ret	0
?FinalRelease@CComObjectRootBase@ATL@@QAEXXZ ENDP	; ATL::CComObjectRootBase::FinalRelease
_TEXT	ENDS
PUBLIC	??0IClassFactory@@QAE@XZ			; IClassFactory::IClassFactory
PUBLIC	??0?$CComObjectRootEx@VCComMultiThreadModel@ATL@@@ATL@@QAE@XZ ; ATL::CComObjectRootEx<ATL::CComMultiThreadModel>::CComObjectRootEx<ATL::CComMultiThreadModel>
; Function compile flags: /Odt /RTCsu
;	COMDAT ??0CComClassFactory@ATL@@QAE@XZ
_TEXT	SEGMENT
_this$ = -4						; size = 4
??0CComClassFactory@ATL@@QAE@XZ PROC NEAR		; ATL::CComClassFactory::CComClassFactory, COMDAT
; _this$ = ecx
	push	ebp
	mov	ebp, esp
	push	ecx
	mov	DWORD PTR [ebp-4], -858993460		; ccccccccH
	mov	DWORD PTR _this$[ebp], ecx
	mov	ecx, DWORD PTR _this$[ebp]
	call	??0IClassFactory@@QAE@XZ
	mov	ecx, DWORD PTR _this$[ebp]
	add	ecx, 4
	call	??0?$CComObjectRootEx@VCComMultiThreadModel@ATL@@@ATL@@QAE@XZ
	mov	eax, DWORD PTR _this$[ebp]
	mov	DWORD PTR [eax], OFFSET FLAT:??_7CComClassFactory@ATL@@6B@
	mov	eax, DWORD PTR _this$[ebp]
	add	esp, 4
	cmp	ebp, esp
	call	__RTC_CheckEsp
	mov	esp, ebp
	pop	ebp
	ret	0
??0CComClassFactory@ATL@@QAE@XZ ENDP			; ATL::CComClassFactory::CComClassFactory
_TEXT	ENDS
PUBLIC	??0IUnknown@@QAE@XZ				; IUnknown::IUnknown
; Function compile flags: /Odt /RTCsu
;	COMDAT ??0IClassFactory@@QAE@XZ
_TEXT	SEGMENT
_this$ = -4						; size = 4
??0IClassFactory@@QAE@XZ PROC NEAR			; IClassFactory::IClassFactory, COMDAT
; _this$ = ecx
	push	ebp
	mov	ebp, esp
	push	ecx
	mov	DWORD PTR [ebp-4], -858993460		; ccccccccH
	mov	DWORD PTR _this$[ebp], ecx
	mov	ecx, DWORD PTR _this$[ebp]
	call	??0IUnknown@@QAE@XZ
	mov	eax, DWORD PTR _this$[ebp]
	add	esp, 4
	cmp	ebp, esp
	call	__RTC_CheckEsp
	mov	esp, ebp
	pop	ebp
	ret	0
??0IClassFactory@@QAE@XZ ENDP				; IClassFactory::IClassFactory
; Function compile flags: /Odt /RTCsu
_TEXT	ENDS
;	COMDAT ??0IUnknown@@QAE@XZ
_TEXT	SEGMENT
_this$ = -4						; size = 4
??0IUnknown@@QAE@XZ PROC NEAR				; IUnknown::IUnknown, COMDAT
; _this$ = ecx
	push	ebp
	mov	ebp, esp
	push	ecx
	mov	DWORD PTR [ebp-4], -858993460		; ccccccccH
	mov	DWORD PTR _this$[ebp], ecx
	mov	eax, DWORD PTR _this$[ebp]
	mov	esp, ebp
	pop	ebp
	ret	0
??0IUnknown@@QAE@XZ ENDP				; IUnknown::IUnknown
_TEXT	ENDS
PUBLIC	??0CComObjectRootBase@ATL@@QAE@XZ		; ATL::CComObjectRootBase::CComObjectRootBase
; Function compile flags: /Odt /RTCsu
;	COMDAT ??0?$CComObjectRootEx@VCComMultiThreadModel@ATL@@@ATL@@QAE@XZ
_TEXT	SEGMENT
_this$ = -4						; size = 4
??0?$CComObjectRootEx@VCComMultiThreadModel@ATL@@@ATL@@QAE@XZ PROC NEAR ; ATL::CComObjectRootEx<ATL::CComMultiThreadModel>::CComObjectRootEx<ATL::CComMultiThreadModel>, COMDAT
; _this$ = ecx
	push	ebp
	mov	ebp, esp
	push	ecx
	mov	DWORD PTR [ebp-4], -858993460		; ccccccccH
	mov	DWORD PTR _this$[ebp], ecx
	mov	ecx, DWORD PTR _this$[ebp]
	call	??0CComObjectRootBase@ATL@@QAE@XZ	; ATL::CComObjectRootBase::CComObjectRootBase
	mov	ecx, DWORD PTR _this$[ebp]
	add	ecx, 4
	call	??0CComAutoCriticalSection@ATL@@QAE@XZ	; ATL::CComAutoCriticalSection::CComAutoCriticalSection
	mov	eax, DWORD PTR _this$[ebp]
	add	esp, 4
	cmp	ebp, esp
	call	__RTC_CheckEsp
	mov	esp, ebp
	pop	ebp
	ret	0
??0?$CComObjectRootEx@VCComMultiThreadModel@ATL@@@ATL@@QAE@XZ ENDP ; ATL::CComObjectRootEx<ATL::CComMultiThreadModel>::CComObjectRootEx<ATL::CComMultiThreadModel>
; Function compile flags: /Odt /RTCsu
_TEXT	ENDS
;	COMDAT ??0CComObjectRootBase@ATL@@QAE@XZ
_TEXT	SEGMENT
_this$ = -4						; size = 4
??0CComObjectRootBase@ATL@@QAE@XZ PROC NEAR		; ATL::CComObjectRootBase::CComObjectRootBase, COMDAT
; _this$ = ecx

; 2128 : 	CComObjectRootBase()

	push	ebp
	mov	ebp, esp
	push	ecx
	mov	DWORD PTR [ebp-4], -858993460		; ccccccccH
	mov	DWORD PTR _this$[ebp], ecx

; 2129 : 	{
; 2130 : 		m_dwRef = 0L;

	mov	eax, DWORD PTR _this$[ebp]
	mov	DWORD PTR [eax], 0

; 2131 : 	}

	mov	eax, DWORD PTR _this$[ebp]
	mov	esp, ebp
	pop	ebp
	ret	0
??0CComObjectRootBase@ATL@@QAE@XZ ENDP			; ATL::CComObjectRootBase::CComObjectRootBase
_TEXT	ENDS
PUBLIC	?Increment@CComMultiThreadModel@ATL@@SGKPAJ@Z	; ATL::CComMultiThreadModel::Increment
; Function compile flags: /Odt /RTCsu
;	COMDAT ?InternalAddRef@?$CComObjectRootEx@VCComMultiThreadModel@ATL@@@ATL@@QAEKXZ
_TEXT	SEGMENT
_this$ = -4						; size = 4
?InternalAddRef@?$CComObjectRootEx@VCComMultiThreadModel@ATL@@@ATL@@QAEKXZ PROC NEAR ; ATL::CComObjectRootEx<ATL::CComMultiThreadModel>::InternalAddRef, COMDAT
; _this$ = ecx

; 2293 : 	{

	push	ebp
	mov	ebp, esp
	push	ecx
	mov	DWORD PTR [ebp-4], -858993460		; ccccccccH
	mov	DWORD PTR _this$[ebp], ecx

; 2294 : 		ATLASSERT(m_dwRef != -1L);

	mov	eax, DWORD PTR _this$[ebp]
	cmp	DWORD PTR [eax], -1
	jne	SHORT $L206182
	push	OFFSET FLAT:??_C@_0P@IDNKKMJE@m_dwRef?5?$CB?$DN?5?91L?$AA@
	push	0
	push	2294					; 000008f6H
	push	OFFSET FLAT:??_C@_0EP@FBJOMLAB@C?3?2Program?5Files?2Microsoft?5Visua@
	push	2
	call	__CrtDbgReport
	add	esp, 20					; 00000014H
	cmp	eax, 1
	jne	SHORT $L206182
	int	3
$L206182:

; 2295 : 		return _ThreadModel::Increment(&m_dwRef);

	mov	edx, DWORD PTR _this$[ebp]
	push	edx
	call	?Increment@CComMultiThreadModel@ATL@@SGKPAJ@Z ; ATL::CComMultiThreadModel::Increment

; 2296 : 	}

	add	esp, 4
	cmp	ebp, esp
	call	__RTC_CheckEsp
	mov	esp, ebp
	pop	ebp
	ret	0
?InternalAddRef@?$CComObjectRootEx@VCComMultiThreadModel@ATL@@@ATL@@QAEKXZ ENDP ; ATL::CComObjectRootEx<ATL::CComMultiThreadModel>::InternalAddRef
_TEXT	ENDS
EXTRN	__imp__InterlockedIncrement@4:NEAR
; Function compile flags: /Odt /RTCsu
; File c:\program files\microsoft visual studio .net 2003\vc7\atlmfc\include\atlbase.h
;	COMDAT ?Increment@CComMultiThreadModel@ATL@@SGKPAJ@Z
_TEXT	SEGMENT
_p$ = 8							; size = 4
?Increment@CComMultiThreadModel@ATL@@SGKPAJ@Z PROC NEAR	; ATL::CComMultiThreadModel::Increment, COMDAT

; 347  : 	static ULONG WINAPI Increment(LPLONG p) throw() {return InterlockedIncrement(p);}

	push	ebp
	mov	ebp, esp
	push	esi
	mov	esi, esp
	mov	eax, DWORD PTR _p$[ebp]
	push	eax
	call	DWORD PTR __imp__InterlockedIncrement@4
	cmp	esi, esp
	call	__RTC_CheckEsp
	pop	esi
	cmp	ebp, esp
	call	__RTC_CheckEsp
	pop	ebp
	ret	4
?Increment@CComMultiThreadModel@ATL@@SGKPAJ@Z ENDP	; ATL::CComMultiThreadModel::Increment
_TEXT	ENDS
PUBLIC	?Decrement@CComMultiThreadModel@ATL@@SGKPAJ@Z	; ATL::CComMultiThreadModel::Decrement
; Function compile flags: /Odt /RTCsu
; File c:\program files\microsoft visual studio .net 2003\vc7\atlmfc\include\atlcom.h
;	COMDAT ?InternalRelease@?$CComObjectRootEx@VCComMultiThreadModel@ATL@@@ATL@@QAEKXZ
_TEXT	SEGMENT
_nRef$ = -8						; size = 4
_this$ = -4						; size = 4
?InternalRelease@?$CComObjectRootEx@VCComMultiThreadModel@ATL@@@ATL@@QAEKXZ PROC NEAR ; ATL::CComObjectRootEx<ATL::CComMultiThreadModel>::InternalRelease, COMDAT
; _this$ = ecx

; 2298 : 	{

	push	ebp
	mov	ebp, esp
	sub	esp, 8
	mov	DWORD PTR [ebp-8], -858993460		; ccccccccH
	mov	DWORD PTR [ebp-4], -858993460		; ccccccccH
	mov	DWORD PTR _this$[ebp], ecx

; 2299 : #ifdef _DEBUG
; 2300 : 		LONG nRef = _ThreadModel::Decrement(&m_dwRef);

	mov	eax, DWORD PTR _this$[ebp]
	push	eax
	call	?Decrement@CComMultiThreadModel@ATL@@SGKPAJ@Z ; ATL::CComMultiThreadModel::Decrement
	mov	DWORD PTR _nRef$[ebp], eax

; 2301 : 		if (nRef < -(LONG_MAX / 2))

	cmp	DWORD PTR _nRef$[ebp], -1073741823	; c0000001H
	jge	SHORT $L203611

; 2302 : 		{
; 2303 : 			ATLASSERT(0 && _T("Release called on a pointer that has already been released"));

	xor	ecx, ecx
	jne	SHORT $L203611
	push	OFFSET FLAT:??_C@_0EC@FOHBGNDM@0?5?$CG?$CG?5?$CCRelease?5called?5on?5a?5pointe@
	push	0
	push	2303					; 000008ffH
	push	OFFSET FLAT:??_C@_0EP@FBJOMLAB@C?3?2Program?5Files?2Microsoft?5Visua@
	push	2
	call	__CrtDbgReport
	add	esp, 20					; 00000014H
	cmp	eax, 1
	jne	SHORT $L203611
	int	3
$L203611:

; 2304 : 		}
; 2305 : 		return nRef;

	mov	eax, DWORD PTR _nRef$[ebp]

; 2306 : #else
; 2307 : 		return _ThreadModel::Decrement(&m_dwRef);
; 2308 : #endif
; 2309 : 	}

	add	esp, 8
	cmp	ebp, esp
	call	__RTC_CheckEsp
	mov	esp, ebp
	pop	ebp
	ret	0
?InternalRelease@?$CComObjectRootEx@VCComMultiThreadModel@ATL@@@ATL@@QAEKXZ ENDP ; ATL::CComObjectRootEx<ATL::CComMultiThreadModel>::InternalRelease
_TEXT	ENDS
EXTRN	__imp__InterlockedDecrement@4:NEAR
; Function compile flags: /Odt /RTCsu
; File c:\program files\microsoft visual studio .net 2003\vc7\atlmfc\include\atlbase.h
;	COMDAT ?Decrement@CComMultiThreadModel@ATL@@SGKPAJ@Z
_TEXT	SEGMENT
_p$ = 8							; size = 4
?Decrement@CComMultiThreadModel@ATL@@SGKPAJ@Z PROC NEAR	; ATL::CComMultiThreadModel::Decrement, COMDAT

; 348  : 	static ULONG WINAPI Decrement(LPLONG p) throw() {return InterlockedDecrement(p);}

	push	ebp
	mov	ebp, esp
	push	esi
	mov	esi, esp
	mov	eax, DWORD PTR _p$[ebp]
	push	eax
	call	DWORD PTR __imp__InterlockedDecrement@4
	cmp	esi, esp
	call	__RTC_CheckEsp
	pop	esi
	cmp	ebp, esp
	call	__RTC_CheckEsp
	pop	ebp
	ret	4
?Decrement@CComMultiThreadModel@ATL@@SGKPAJ@Z ENDP	; ATL::CComMultiThreadModel::Decrement
_TEXT	ENDS
PUBLIC	?GetTypeInfoCount@?$IDispatchImpl@UISignature@@$1?IID_ISignature@@3U_GUID@@B$1?LIBID_XMLSIGNLib@@3U3@B$00$0A@VCComTypeInfoHolder@ATL@@@ATL@@UAGJPAI@Z ; ATL::IDispatchImpl<ISignature,&IID_ISignature,&LIBID_XMLSIGNLib,1,0,ATL::CComTypeInfoHolder>::GetTypeInfoCount
PUBLIC	?GetTypeInfo@?$IDispatchImpl@UISignature@@$1?IID_ISignature@@3U_GUID@@B$1?LIBID_XMLSIGNLib@@3U3@B$00$0A@VCComTypeInfoHolder@ATL@@@ATL@@UAGJIKPAPAUITypeInfo@@@Z ; ATL::IDispatchImpl<ISignature,&IID_ISignature,&LIBID_XMLSIGNLib,1,0,ATL::CComTypeInfoHolder>::GetTypeInfo
PUBLIC	?GetIDsOfNames@?$IDispatchImpl@UISignature@@$1?IID_ISignature@@3U_GUID@@B$1?LIBID_XMLSIGNLib@@3U3@B$00$0A@VCComTypeInfoHolder@ATL@@@ATL@@UAGJABU_GUID@@PAPAGIKPAJ@Z ; ATL::IDispatchImpl<ISignature,&IID_ISignature,&LIBID_XMLSIGNLib,1,0,ATL::CComTypeInfoHolder>::GetIDsOfNames
PUBLIC	?Invoke@?$IDispatchImpl@UISignature@@$1?IID_ISignature@@3U_GUID@@B$1?LIBID_XMLSIGNLib@@3U3@B$00$0A@VCComTypeInfoHolder@ATL@@@ATL@@UAGJJABU_GUID@@KGPAUtagDISPPARAMS@@PAUtagVARIANT@@PAUtagEXCEPINFO@@PAI@Z ; ATL::IDispatchImpl<ISignature,&IID_ISignature,&LIBID_XMLSIGNLib,1,0,ATL::CComTypeInfoHolder>::Invoke
PUBLIC	?QueryInterface@?$CComObject@VCSignature@@@ATL@@W3AGJABU_GUID@@PAPAX@Z ; [thunk]:ATL::CComObject<CSignature>::QueryInterface`adjustor{4}'
PUBLIC	?AddRef@?$CComObject@VCSignature@@@ATL@@W3AGKXZ	; [thunk]:ATL::CComObject<CSignature>::AddRef`adjustor{4}'
PUBLIC	?Release@?$CComObject@VCSignature@@@ATL@@W3AGKXZ ; [thunk]:ATL::CComObject<CSignature>::Release`adjustor{4}'
PUBLIC	?QueryInterface@?$CComObject@VCSignature@@@ATL@@W7AGJABU_GUID@@PAPAX@Z ; [thunk]:ATL::CComObject<CSignature>::QueryInterface`adjustor{8}'
PUBLIC	?AddRef@?$CComObject@VCSignature@@@ATL@@W7AGKXZ	; [thunk]:ATL::CComObject<CSignature>::AddRef`adjustor{8}'
PUBLIC	?Release@?$CComObject@VCSignature@@@ATL@@W7AGKXZ ; [thunk]:ATL::CComObject<CSignature>::Release`adjustor{8}'
PUBLIC	?AddRef@?$CComObject@VCSignature@@@ATL@@UAGKXZ	; ATL::CComObject<CSignature>::AddRef
PUBLIC	?Release@?$CComObject@VCSignature@@@ATL@@UAGKXZ	; ATL::CComObject<CSignature>::Release
PUBLIC	?QueryInterface@?$CComObject@VCSignature@@@ATL@@UAGJABU_GUID@@PAPAX@Z ; ATL::CComObject<CSignature>::QueryInterface
PUBLIC	??_7?$CComObject@VCSignature@@@ATL@@6B?$IDispatchImpl@UISignature@@$1?IID_ISignature@@3U_GUID@@B$1?LIBID_XMLSIGNLib@@3U3@B$00$0A@VCComTypeInfoHolder@ATL@@@1@@ ; ATL::CComObject<CSignature>::`vftable'
PUBLIC	??_7?$CComObject@VCSignature@@@ATL@@6BIOleCommandTarget@@@ ; ATL::CComObject<CSignature>::`vftable'
PUBLIC	??_7?$CComObject@VCSignature@@@ATL@@6BIObjectWithSite@@@ ; ATL::CComObject<CSignature>::`vftable'
PUBLIC	??_G?$CComObject@VCSignature@@@ATL@@UAEPAXI@Z	; ATL::CComObject<CSignature>::`scalar deleting destructor'
EXTRN	?Base64DecodeFileToFile@CSignature@@UAGJPAG0PAPAG@Z:NEAR ; CSignature::Base64DecodeFileToFile
EXTRN	?GunZipFile@CSignature@@UAGJPAG0PAPAG@Z:NEAR	; CSignature::GunZipFile
EXTRN	?get_CertSerialNumberFormat@CSignature@@UAGJPAJ@Z:NEAR ; CSignature::get_CertSerialNumberFormat
EXTRN	?put_CertSerialNumberFormat@CSignature@@UAGJJ@Z:NEAR ; CSignature::put_CertSerialNumberFormat
EXTRN	?SecureXMLVerifyFileToBuffer@CSignature@@UAGJPAGPAPAG@Z:NEAR ; CSignature::SecureXMLVerifyFileToBuffer
EXTRN	?SecureXMLVerifyFileToFile@CSignature@@UAGJPAG0PAPAG@Z:NEAR ; CSignature::SecureXMLVerifyFileToFile
EXTRN	?DeleteSignatureFromXMLStr@CSignature@@UAGJPAG0PAPAG@Z:NEAR ; CSignature::DeleteSignatureFromXMLStr
EXTRN	?DeleteSignatureFromFile@CSignature@@UAGJPAG00PAPAG@Z:NEAR ; CSignature::DeleteSignatureFromFile
EXTRN	?put_AllowedCertIssuerNames@CSignature@@UAGJUtagVARIANT@@@Z:NEAR ; CSignature::put_AllowedCertIssuerNames
EXTRN	?get_CRLCacheDbConnectionString@CSignature@@UAGJPAPAG@Z:NEAR ; CSignature::get_CRLCacheDbConnectionString
EXTRN	?put_CRLCacheDbConnectionString@CSignature@@UAGJPAG@Z:NEAR ; CSignature::put_CRLCacheDbConnectionString
EXTRN	?get_UseCRLCache@CSignature@@UAGJPAH@Z:NEAR	; CSignature::get_UseCRLCache
EXTRN	?put_UseCRLCache@CSignature@@UAGJH@Z:NEAR	; CSignature::put_UseCRLCache
EXTRN	?put_CRLCacheTimeoutInMinutes@CSignature@@UAGJJ@Z:NEAR ; CSignature::put_CRLCacheTimeoutInMinutes
EXTRN	?put_CanonicalizationMethod@CSignature@@UAGJJ@Z:NEAR ; CSignature::put_CanonicalizationMethod
EXTRN	?get_NetscapeStorePassword@CSignature@@UAGJPAPAG@Z:NEAR ; CSignature::get_NetscapeStorePassword
EXTRN	?put_NetscapeStorePassword@CSignature@@UAGJPAG@Z:NEAR ; CSignature::put_NetscapeStorePassword
EXTRN	?SetActivePEMFileCert@CSignature@@UAGJPAG0PAPAG@Z:NEAR ; CSignature::SetActivePEMFileCert
EXTRN	?get_SecureXMLPath@CSignature@@UAGJPAPAG@Z:NEAR	; CSignature::get_SecureXMLPath
EXTRN	?get_SignedDocumentCount@CSignature@@UAGJJPAJ@Z:NEAR ; CSignature::get_SignedDocumentCount
EXTRN	?SignXMLByteArray@CSignature@@UAGJUtagVARIANT@@PAGPAU2@@Z:NEAR ; CSignature::SignXMLByteArray
EXTRN	?SaveXMLByteArray@CSignature@@UAGJUtagVARIANT@@PAGPAPAG@Z:NEAR ; CSignature::SaveXMLByteArray
EXTRN	?ReadAllByteArray@CSignature@@UAGJPAGPAUtagVARIANT@@@Z:NEAR ; CSignature::ReadAllByteArray
EXTRN	?VerifyXMLByteArray@CSignature@@UAGJUtagVARIANT@@PAH@Z:NEAR ; CSignature::VerifyXMLByteArray
EXTRN	?SecureXMLVerifyByteArray@CSignature@@UAGJUtagVARIANT@@PAU2@@Z:NEAR ; CSignature::SecureXMLVerifyByteArray
EXTRN	?SignXMLXpathByteArray@CSignature@@UAGJUtagVARIANT@@PAG1PAU2@@Z:NEAR ; CSignature::SignXMLXpathByteArray
EXTRN	?SignXMLEnvelopedByteArray@CSignature@@UAGJUtagVARIANT@@PAGPAU2@@Z:NEAR ; CSignature::SignXMLEnvelopedByteArray
EXTRN	?Base64DecodeByteArrayToFile@CSignature@@UAGJUtagVARIANT@@PAGPAPAG@Z:NEAR ; CSignature::Base64DecodeByteArrayToFile
EXTRN	?Base64DecodeByteArrayToByteArray@CSignature@@UAGJUtagVARIANT@@PAU2@@Z:NEAR ; CSignature::Base64DecodeByteArrayToByteArray
EXTRN	?Base64EncodeByteArrayToByteArray@CSignature@@UAGJUtagVARIANT@@PAU2@@Z:NEAR ; CSignature::Base64EncodeByteArrayToByteArray
EXTRN	?Base64EncodeByteArrayToFile@CSignature@@UAGJUtagVARIANT@@PAGPAPAG@Z:NEAR ; CSignature::Base64EncodeByteArrayToFile
EXTRN	?Base64EncodeStrToFile@CSignature@@UAGJPAG0PAPAG@Z:NEAR ; CSignature::Base64EncodeStrToFile
EXTRN	?Base64EncodeStrToStr@CSignature@@UAGJPAGPAPAG@Z:NEAR ; CSignature::Base64EncodeStrToStr
EXTRN	?SetActivePFXB64Data@CSignature@@UAGJPAG0PAPAG@Z:NEAR ; CSignature::SetActivePFXB64Data
EXTRN	?get_FloatingLicense@CSignature@@UAGJPAPAG@Z:NEAR ; CSignature::get_FloatingLicense
EXTRN	?put_FloatingLicense@CSignature@@UAGJPAG@Z:NEAR	; CSignature::put_FloatingLicense
EXTRN	?get_LicensedUserCount@CSignature@@UAGJPAJ@Z:NEAR ; CSignature::get_LicensedUserCount
EXTRN	?put_IncludeCRLInSignature@CSignature@@UAGJH@Z:NEAR ; CSignature::put_IncludeCRLInSignature
EXTRN	?get_UsedCRLList@CSignature@@UAGJPAUtagVARIANT@@@Z:NEAR ; CSignature::get_UsedCRLList
EXTRN	?GetErrorDetail@CSignature@@UAGJJPAPAG@Z:NEAR	; CSignature::GetErrorDetail
EXTRN	?put_PhysicalSignatureB64Str@CSignature@@UAGJPAG@Z:NEAR ; CSignature::put_PhysicalSignatureB64Str
EXTRN	?GetSignedInfoDigest@CSignature@@UAGJPAG0PAPAG@Z:NEAR ; CSignature::GetSignedInfoDigest
EXTRN	?GetX509CertificateChain@CSignature@@UAGJPAGPAPAG@Z:NEAR ; CSignature::GetX509CertificateChain
EXTRN	?put_SignerCertificateChain@CSignature@@UAGJPAG@Z:NEAR ; CSignature::put_SignerCertificateChain
EXTRN	?get_SignatureImageId@CSignature@@UAGJPAPAG@Z:NEAR ; CSignature::get_SignatureImageId
EXTRN	?put_SignatureImageId@CSignature@@UAGJPAG@Z:NEAR ; CSignature::put_SignatureImageId
EXTRN	?SignSignedInfoDigest@CSignature@@UAGJPAG0PAPAG@Z:NEAR ; CSignature::SignSignedInfoDigest
EXTRN	?ApplySignatureValue@CSignature@@UAGJPAGPAPAG@Z:NEAR ; CSignature::ApplySignatureValue
EXTRN	?GetSignedInfoDigestFromByteArray@CSignature@@UAGJUtagVARIANT@@PAGPAPAG@Z:NEAR ; CSignature::GetSignedInfoDigestFromByteArray
EXTRN	?ApplySignatureValueGetByteArray@CSignature@@UAGJPAGPAUtagVARIANT@@@Z:NEAR ; CSignature::ApplySignatureValueGetByteArray
EXTRN	?GetSignedDocumentB64Str@CSignature@@UAGJJJPAPAG@Z:NEAR ; CSignature::GetSignedDocumentB64Str
EXTRN	?GetSignedDocumentByteArray@CSignature@@UAGJJJPAUtagVARIANT@@@Z:NEAR ; CSignature::GetSignedDocumentByteArray
EXTRN	?get_CertValidationTransactionId@CSignature@@UAGJPAPAG@Z:NEAR ; CSignature::get_CertValidationTransactionId
EXTRN	?put_CertValidationTransactionId@CSignature@@UAGJPAG@Z:NEAR ; CSignature::put_CertValidationTransactionId
EXTRN	?get_IgnoreIncompleteSignature@CSignature@@UAGJPAH@Z:NEAR ; CSignature::get_IgnoreIncompleteSignature
EXTRN	?put_IgnoreIncompleteSignature@CSignature@@UAGJH@Z:NEAR ; CSignature::put_IgnoreIncompleteSignature
EXTRN	?get_SignatureIndexToVerify@CSignature@@UAGJPAJ@Z:NEAR ; CSignature::get_SignatureIndexToVerify
EXTRN	?put_SignatureIndexToVerify@CSignature@@UAGJJ@Z:NEAR ; CSignature::put_SignatureIndexToVerify
EXTRN	?get_UseOcsp@CSignature@@UAGJPAH@Z:NEAR		; CSignature::get_UseOcsp
EXTRN	?put_UseOcsp@CSignature@@UAGJH@Z:NEAR		; CSignature::put_UseOcsp
EXTRN	?get_OcspTrustedRespSignerCertPath@CSignature@@UAGJPAPAG@Z:NEAR ; CSignature::get_OcspTrustedRespSignerCertPath
EXTRN	?put_OcspTrustedRespSignerCertPath@CSignature@@UAGJPAG@Z:NEAR ; CSignature::put_OcspTrustedRespSignerCertPath
EXTRN	?get_OcspReqSignerPFXCertPath@CSignature@@UAGJPAPAG@Z:NEAR ; CSignature::get_OcspReqSignerPFXCertPath
EXTRN	?put_OcspReqSignerPFXCertPath@CSignature@@UAGJPAG@Z:NEAR ; CSignature::put_OcspReqSignerPFXCertPath
EXTRN	?get_OcspReqSignerPFXCertPassword@CSignature@@UAGJPAPAG@Z:NEAR ; CSignature::get_OcspReqSignerPFXCertPassword
EXTRN	?put_OcspReqSignerPFXCertPassword@CSignature@@UAGJPAG@Z:NEAR ; CSignature::put_OcspReqSignerPFXCertPassword
EXTRN	?get_OcspResponderURL@CSignature@@UAGJPAPAG@Z:NEAR ; CSignature::get_OcspResponderURL
EXTRN	?put_OcspResponderURL@CSignature@@UAGJPAG@Z:NEAR ; CSignature::put_OcspResponderURL
EXTRN	?get_OcspTextResponse@CSignature@@UAGJPAPAG@Z:NEAR ; CSignature::get_OcspTextResponse
EXTRN	?get_OcspB64Response@CSignature@@UAGJPAPAG@Z:NEAR ; CSignature::get_OcspB64Response
EXTRN	?get_CertRevocationDate@CSignature@@UAGJPAPAG@Z:NEAR ; CSignature::get_CertRevocationDate
EXTRN	?get_IncludeOcspResponse@CSignature@@UAGJPAJ@Z:NEAR ; CSignature::get_IncludeOcspResponse
EXTRN	?put_IncludeOcspResponse@CSignature@@UAGJJ@Z:NEAR ; CSignature::put_IncludeOcspResponse
EXTRN	?put_ProxyHost@CSignature@@UAGJPAG@Z:NEAR	; CSignature::put_ProxyHost
EXTRN	?put_ProxyPort@CSignature@@UAGJG@Z:NEAR		; CSignature::put_ProxyPort
EXTRN	?put_ProxyUserName@CSignature@@UAGJPAG@Z:NEAR	; CSignature::put_ProxyUserName
EXTRN	?put_ProxyPassword@CSignature@@UAGJPAG@Z:NEAR	; CSignature::put_ProxyPassword
EXTRN	?put_InclusiveNamespacePrefixList@CSignature@@UAGJUtagVARIANT@@@Z:NEAR ; CSignature::put_InclusiveNamespacePrefixList
EXTRN	?get_TimeStampFormat@CSignature@@UAGJPAJ@Z:NEAR	; CSignature::get_TimeStampFormat
EXTRN	?put_TimeStampFormat@CSignature@@UAGJJ@Z:NEAR	; CSignature::put_TimeStampFormat
EXTRN	?get_TimeStampCritical@CSignature@@UAGJPAJ@Z:NEAR ; CSignature::get_TimeStampCritical
EXTRN	?put_TimeStampCritical@CSignature@@UAGJJ@Z:NEAR	; CSignature::put_TimeStampCritical
EXTRN	?put_SignedObjectId@CSignature@@UAGJUtagVARIANT@@@Z:NEAR ; CSignature::put_SignedObjectId
EXTRN	??0CSignature@@QAE@XZ:NEAR			; CSignature::CSignature
EXTRN	?put_CertificateTrustExplicit@CSignature@@UAGJH@Z:NEAR ; CSignature::put_CertificateTrustExplicit
EXTRN	?get_CertificatePolicyExplicit@CSignature@@UAGJPAH@Z:NEAR ; CSignature::get_CertificatePolicyExplicit
EXTRN	?put_CertificatePolicyExplicit@CSignature@@UAGJH@Z:NEAR ; CSignature::put_CertificatePolicyExplicit
EXTRN	?put_DoDCompliance@CSignature@@UAGJH@Z:NEAR	; CSignature::put_DoDCompliance
EXTRN	?put_CertificatePathLengthChecking@CSignature@@UAGJH@Z:NEAR ; CSignature::put_CertificatePathLengthChecking
EXTRN	?put_CertificateChainValidation@CSignature@@UAGJH@Z:NEAR ; CSignature::put_CertificateChainValidation
EXTRN	?put_CertificatePolicyChecking@CSignature@@UAGJH@Z:NEAR ; CSignature::put_CertificatePolicyChecking
EXTRN	?get_UserConstrainedPolicy@CSignature@@UAGJPAUtagVARIANT@@@Z:NEAR ; CSignature::get_UserConstrainedPolicy
EXTRN	?get_AuthorityConstrainedPolicy@CSignature@@UAGJPAUtagVARIANT@@@Z:NEAR ; CSignature::get_AuthorityConstrainedPolicy
EXTRN	?put_CertificatePolicy@CSignature@@UAGJUtagVARIANT@@@Z:NEAR ; CSignature::put_CertificatePolicy
EXTRN	?VerifyActiveCertificate@CSignature@@UAGJPAH@Z:NEAR ; CSignature::VerifyActiveCertificate
EXTRN	?put_CRLLocation@CSignature@@UAGJUtagVARIANT@@@Z:NEAR ; CSignature::put_CRLLocation
EXTRN	?put_ConfigFileName@CSignature@@UAGJPAG@Z:NEAR	; CSignature::put_ConfigFileName
EXTRN	?SignFiles@CSignature@@UAGJUtagVARIANT@@PAGPAPAG@Z:NEAR ; CSignature::SignFiles
EXTRN	?CoSignFile@CSignature@@UAGJPAG0PAPAG@Z:NEAR	; CSignature::CoSignFile
EXTRN	?put_OverwriteFile@CSignature@@UAGJH@Z:NEAR	; CSignature::put_OverwriteFile
EXTRN	?CoSignXMLStr@CSignature@@UAGJPAGPAPAG@Z:NEAR	; CSignature::CoSignXMLStr
EXTRN	?put_ExcludeSignerCertificate@CSignature@@UAGJH@Z:NEAR ; CSignature::put_ExcludeSignerCertificate
EXTRN	?SignDataStr@CSignature@@UAGJPAGPAPAG@Z:NEAR	; CSignature::SignDataStr
EXTRN	?CaptureLiveSignature@CSignature@@UAGJPAPAG@Z:NEAR ; CSignature::CaptureLiveSignature
EXTRN	?put_DetailedVerificationFlag@CSignature@@UAGJH@Z:NEAR ; CSignature::put_DetailedVerificationFlag
EXTRN	?ChangeOrAddProperty@CSignature@@UAGJPAG0@Z:NEAR ; CSignature::ChangeOrAddProperty
EXTRN	?get_HMACPassword@CSignature@@UAGJPAPAG@Z:NEAR	; CSignature::get_HMACPassword
EXTRN	?put_HMACPassword@CSignature@@UAGJPAG@Z:NEAR	; CSignature::put_HMACPassword
EXTRN	?get_UseHMAC@CSignature@@UAGJPAH@Z:NEAR		; CSignature::get_UseHMAC
EXTRN	?put_UseHMAC@CSignature@@UAGJH@Z:NEAR		; CSignature::put_UseHMAC
EXTRN	?SignXMLXpathStr@CSignature@@UAGJPAG00PAPAG@Z:NEAR ; CSignature::SignXMLXpathStr
EXTRN	?get_AddWindowImage@CSignature@@UAGJPAH@Z:NEAR	; CSignature::get_AddWindowImage
EXTRN	?put_AddWindowImage@CSignature@@UAGJH@Z:NEAR	; CSignature::put_AddWindowImage
EXTRN	?VerifyPFXCertCRL@CSignature@@UAGJPAG00JPAH@Z:NEAR ; CSignature::VerifyPFXCertCRL
EXTRN	?VerifyX509CertCRL@CSignature@@UAGJPAG0JPAH@Z:NEAR ; CSignature::VerifyX509CertCRL
EXTRN	?get_SigCertStatus@CSignature@@UAGJJPAGJPAJ@Z:NEAR ; CSignature::get_SigCertStatus
EXTRN	?get_CrlChecking@CSignature@@UAGJPAH@Z:NEAR	; CSignature::get_CrlChecking
EXTRN	?put_CrlChecking@CSignature@@UAGJH@Z:NEAR	; CSignature::put_CrlChecking
EXTRN	?get_HostOsType@CSignature@@UAGJPAJ@Z:NEAR	; CSignature::get_HostOsType
EXTRN	?get_TimeStamping@CSignature@@UAGJPAH@Z:NEAR	; CSignature::get_TimeStamping
EXTRN	?put_TimeStamping@CSignature@@UAGJH@Z:NEAR	; CSignature::put_TimeStamping
EXTRN	?get_TimeStampURL@CSignature@@UAGJPAPAG@Z:NEAR	; CSignature::get_TimeStampURL
EXTRN	?put_TimeStampURL@CSignature@@UAGJPAG@Z:NEAR	; CSignature::put_TimeStampURL
EXTRN	?get_HostName@CSignature@@UAGJPAPAG@Z:NEAR	; CSignature::get_HostName
EXTRN	?PFXExportActiveCertificate@CSignature@@UAGJPAGPAPAG@Z:NEAR ; CSignature::PFXExportActiveCertificate
EXTRN	?SetActivePFXFileCert@CSignature@@UAGJPAG0PAPAG@Z:NEAR ; CSignature::SetActivePFXFileCert
EXTRN	?VerifyXMLStr@CSignature@@UAGJPAGPAH@Z:NEAR	; CSignature::VerifyXMLStr
EXTRN	?SelectActiveCertificate@CSignature@@UAGJPAPAG@Z:NEAR ; CSignature::SelectActiveCertificate
EXTRN	?ViewAnyCertificate@CSignature@@UAGJPAG@Z:NEAR	; CSignature::ViewAnyCertificate
EXTRN	?QueryStatus@CSignature@@UAGJPBU_GUID@@KQAU_tagOLECMD@@PAU_tagOLECMDTEXT@@@Z:NEAR ; CSignature::QueryStatus
EXTRN	?Exec@CSignature@@UAGJPBU_GUID@@KKPAUtagVARIANT@@1@Z:NEAR ; CSignature::Exec
EXTRN	?SetSite@CSignature@@UAGJPAUIUnknown@@@Z:NEAR	; CSignature::SetSite
EXTRN	?GetSite@CSignature@@UAGJABU_GUID@@PAPAX@Z:NEAR	; CSignature::GetSite
EXTRN	?GetPropertyCount@CSignature@@UAGJJPAJ@Z:NEAR	; CSignature::GetPropertyCount
EXTRN	?GetLicenseStatus@CSignature@@UAGJPAJ@Z:NEAR	; CSignature::GetLicenseStatus
EXTRN	?GetVersion@CSignature@@UAGJPAPAG@Z:NEAR	; CSignature::GetVersion
EXTRN	?SignXMLEnveloped@CSignature@@UAGJPAG0PAPAG@Z:NEAR ; CSignature::SignXMLEnveloped
EXTRN	?GetStoreName@CSignature@@UAGJPAPAG@Z:NEAR	; CSignature::GetStoreName
EXTRN	?SetStoreName@CSignature@@UAGJPAG@Z:NEAR	; CSignature::SetStoreName
EXTRN	?GetSignedFileObject@CSignature@@UAGJPAG0PAPAG@Z:NEAR ; CSignature::GetSignedFileObject
EXTRN	?SignFile@CSignature@@UAGJPAG0@Z:NEAR		; CSignature::SignFile
EXTRN	?GetSignedHTML@CSignature@@UAGJPAGPAPAG@Z:NEAR	; CSignature::GetSignedHTML
EXTRN	?SetCSP@CSignature@@UAGJPAG@Z:NEAR		; CSignature::SetCSP
EXTRN	?SecureXMLVerify@CSignature@@UAGJPAGPAPAG@Z:NEAR ; CSignature::SecureXMLVerify
EXTRN	?SignHTML@CSignature@@UAGJPAUIDispatch@@PAPAG@Z:NEAR ; CSignature::SignHTML
EXTRN	?SaveXMLStr@CSignature@@UAGJPAG0PAPAG@Z:NEAR	; CSignature::SaveXMLStr
EXTRN	?ReadAll@CSignature@@UAGJPAGPAPAG@Z:NEAR	; CSignature::ReadAll
EXTRN	?SignXMLStr@CSignature@@UAGJPAG0PAPAG@Z:NEAR	; CSignature::SignXMLStr
EXTRN	?get_SignatureCount@CSignature@@UAGJPAJ@Z:NEAR	; CSignature::get_SignatureCount
EXTRN	?get_FailedUri@CSignature@@UAGJJPAPAG@Z:NEAR	; CSignature::get_FailedUri
EXTRN	?get_FailedUriFullPath@CSignature@@UAGJJPAPAG@Z:NEAR ; CSignature::get_FailedUriFullPath
EXTRN	?put_FailedUriFullPath@CSignature@@UAGJJPAG@Z:NEAR ; CSignature::put_FailedUriFullPath
EXTRN	?get_TotalUriCount@CSignature@@UAGJPAJ@Z:NEAR	; CSignature::get_TotalUriCount
EXTRN	?get_FailedUriCount@CSignature@@UAGJPAJ@Z:NEAR	; CSignature::get_FailedUriCount
EXTRN	?FileExists@CSignature@@UAGJPAGPAH@Z:NEAR	; CSignature::FileExists
EXTRN	?get_CertSerialNumber@CSignature@@UAGJPAGPAPAG@Z:NEAR ; CSignature::get_CertSerialNumber
EXTRN	?get_CertExpiry@CSignature@@UAGJPAGPAPAG@Z:NEAR	; CSignature::get_CertExpiry
EXTRN	?get_CertIssuer@CSignature@@UAGJPAGPAPAG@Z:NEAR	; CSignature::get_CertIssuer
EXTRN	?get_SignerSubject@CSignature@@UAGJPAGPAPAG@Z:NEAR ; CSignature::get_SignerSubject
EXTRN	?get_SignedDocumentPath@CSignature@@UAGJJJPAPAG@Z:NEAR ; CSignature::get_SignedDocumentPath
EXTRN	?SetActiveCertificate@CSignature@@UAGJPAGPAH@Z:NEAR ; CSignature::SetActiveCertificate
EXTRN	?GetCertificateInfo@CSignature@@UAGJJJPAPAG@Z:NEAR ; CSignature::GetCertificateInfo
EXTRN	?get_CertificateCount@CSignature@@UAGJPAJ@Z:NEAR ; CSignature::get_CertificateCount
EXTRN	?ViewCertificate@CSignature@@UAGJPAG@Z:NEAR	; CSignature::ViewCertificate
EXTRN	?GetX509Certificate@CSignature@@UAGJPAGPAPAG@Z:NEAR ; CSignature::GetX509Certificate
EXTRN	?GetLastError@CSignature@@UAGJPAJ@Z:NEAR	; CSignature::GetLastError
EXTRN	?VerifyDetached@CSignature@@UAGJPAGPAH@Z:NEAR	; CSignature::VerifyDetached
EXTRN	?PFXExportCertificate@CSignature@@UAGJPAG0PAPAG@Z:NEAR ; CSignature::PFXExportCertificate
EXTRN	??_E?$CComObject@VCSignature@@@ATL@@UAEPAXI@Z:NEAR ; ATL::CComObject<CSignature>::`vector deleting destructor'
EXTRN	?GetError@CSignature@@UAGJPAPAG@Z:NEAR		; CSignature::GetError
EXTRN	?Verify@CSignature@@UAGJPAGPAH@Z:NEAR		; CSignature::Verify
EXTRN	?SaveXMLSignature@CSignature@@UAGJPAG@Z:NEAR	; CSignature::SaveXMLSignature
EXTRN	?get_IncludeCamResponse@CSignature@@UAGJPAH@Z:NEAR ; CSignature::get_IncludeCamResponse
EXTRN	?put_IncludeCamResponse@CSignature@@UAGJH@Z:NEAR ; CSignature::put_IncludeCamResponse
EXTRN	?Sign@CSignature@@UAGJPAGPAPAG@Z:NEAR		; CSignature::Sign
EXTRN	?get_PhysicalSignatureFile@CSignature@@UAGJPAPAG@Z:NEAR ; CSignature::get_PhysicalSignatureFile
EXTRN	?put_PhysicalSignatureFile@CSignature@@UAGJPAG@Z:NEAR ; CSignature::put_PhysicalSignatureFile
EXTRN	?get_CapturedSignatureFile@CSignature@@UAGJPAPAG@Z:NEAR ; CSignature::get_CapturedSignatureFile
EXTRN	?get_PhysicalSignatureUsage@CSignature@@UAGJPAJ@Z:NEAR ; CSignature::get_PhysicalSignatureUsage
EXTRN	?put_PhysicalSignatureUsage@CSignature@@UAGJJ@Z:NEAR ; CSignature::put_PhysicalSignatureUsage
EXTRN	?get_SignatureStatus@CSignature@@UAGJJPAH@Z:NEAR ; CSignature::get_SignatureStatus
EXTRN	?get_Language@CSignature@@UAGJPAPAG@Z:NEAR	; CSignature::get_Language
EXTRN	?put_Language@CSignature@@UAGJPAG@Z:NEAR	; CSignature::put_Language
EXTRN	?get_DigestObjectStatus@CSignature@@UAGJJJPAH@Z:NEAR ; CSignature::get_DigestObjectStatus
EXTRN	?get_DocumentURI@CSignature@@UAGJJJPAPAG@Z:NEAR	; CSignature::get_DocumentURI
EXTRN	?get_Base64DecodeXML@CSignature@@UAGJPAH@Z:NEAR	; CSignature::get_Base64DecodeXML
EXTRN	?put_Base64DecodeXML@CSignature@@UAGJH@Z:NEAR	; CSignature::put_Base64DecodeXML
EXTRN	?get_Base64EncodeXML@CSignature@@UAGJPAH@Z:NEAR	; CSignature::get_Base64EncodeXML
EXTRN	?put_Base64EncodeXML@CSignature@@UAGJH@Z:NEAR	; CSignature::put_Base64EncodeXML
EXTRN	?get_Properties@CSignature@@UAGJJJPAPAG@Z:NEAR	; CSignature::get_Properties
EXTRN	?put_Properties@CSignature@@UAGJJJPAG@Z:NEAR	; CSignature::put_Properties
EXTRN	?get_SignatureID@CSignature@@UAGJJPAPAG@Z:NEAR	; CSignature::get_SignatureID
EXTRN	?put_SignatureID@CSignature@@UAGJJPAG@Z:NEAR	; CSignature::put_SignatureID
EXTRN	?get_SignerCertificate@CSignature@@UAGJJPAPAG@Z:NEAR ; CSignature::get_SignerCertificate
EXTRN	?put_SignerCertificate@CSignature@@UAGJJPAG@Z:NEAR ; CSignature::put_SignerCertificate
EXTRN	?get_RecipientCertificateStore@CSignature@@UAGJPAPAG@Z:NEAR ; CSignature::get_RecipientCertificateStore
EXTRN	?put_RecipientCertificateStore@CSignature@@UAGJPAG@Z:NEAR ; CSignature::put_RecipientCertificateStore
EXTRN	?get_EnvelopingFlag@CSignature@@UAGJPAF@Z:NEAR	; CSignature::get_EnvelopingFlag
EXTRN	?put_EnvelopingFlag@CSignature@@UAGJF@Z:NEAR	; CSignature::put_EnvelopingFlag
EXTRN	?put_XpathNamespace@CSignature@@UAGJUtagVARIANT@@@Z:NEAR ; CSignature::put_XpathNamespace
EXTRN	?put_RecipientCertificates@CSignature@@UAGJUtagVARIANT@@@Z:NEAR ; CSignature::put_RecipientCertificates
EXTRN	?EncryptStr@CSignature@@UAGJPAGPAPAG@Z:NEAR	; CSignature::EncryptStr
EXTRN	?DecryptStr@CSignature@@UAGJPAGPAPAG@Z:NEAR	; CSignature::DecryptStr
EXTRN	?EncryptFileA@CSignature@@UAGJPAG0PAPAG@Z:NEAR	; CSignature::EncryptFileA
EXTRN	?DecryptFileA@CSignature@@UAGJPAG0PAPAG@Z:NEAR	; CSignature::DecryptFileA
EXTRN	?put_TrustedRoots@CSignature@@UAGJUtagVARIANT@@@Z:NEAR ; CSignature::put_TrustedRoots
EXTRN	?put_RecipientCertificateFiles@CSignature@@UAGJUtagVARIANT@@@Z:NEAR ; CSignature::put_RecipientCertificateFiles
EXTRN	?put_DetachedObjects@CSignature@@UAGJUtagVARIANT@@@Z:NEAR ; CSignature::put_DetachedObjects
EXTRN	?put_AttachedObjects@CSignature@@UAGJUtagVARIANT@@@Z:NEAR ; CSignature::put_AttachedObjects
EXTRN	?ReadAllBase64@CSignature@@UAGJPAGPAPAG@Z:NEAR	; CSignature::ReadAllBase64
EXTRN	?put_DecryptionPFXCertFile@CSignature@@UAGJPAG@Z:NEAR ; CSignature::put_DecryptionPFXCertFile
EXTRN	?put_DecryptUsingPFXFileCert@CSignature@@UAGJH@Z:NEAR ; CSignature::put_DecryptUsingPFXFileCert
EXTRN	?put_DecryptionPFXPassword@CSignature@@UAGJPAG@Z:NEAR ; CSignature::put_DecryptionPFXPassword
EXTRN	?get_CamServerHost@CSignature@@UAGJPAPAG@Z:NEAR	; CSignature::get_CamServerHost
EXTRN	?put_CamServerHost@CSignature@@UAGJPAG@Z:NEAR	; CSignature::put_CamServerHost
EXTRN	?get_CamServerPort@CSignature@@UAGJPAG@Z:NEAR	; CSignature::get_CamServerPort
EXTRN	?put_CamServerPort@CSignature@@UAGJG@Z:NEAR	; CSignature::put_CamServerPort
EXTRN	?get_UseCam@CSignature@@UAGJPAH@Z:NEAR		; CSignature::get_UseCam
EXTRN	?put_UseCam@CSignature@@UAGJH@Z:NEAR		; CSignature::put_UseCam
EXTRN	?get_AgencyId@CSignature@@UAGJPAPAG@Z:NEAR	; CSignature::get_AgencyId
EXTRN	?put_AgencyId@CSignature@@UAGJPAG@Z:NEAR	; CSignature::put_AgencyId
EXTRN	?get_CamValidationResponse@CSignature@@UAGJPAPAG@Z:NEAR ; CSignature::get_CamValidationResponse
EXTRN	?GetSigPropValueByName@CSignature@@UAGJJPAGPAPAG@Z:NEAR ; CSignature::GetSigPropValueByName
EXTRN	?Base64DecodeBufferToFile@CSignature@@UAGJPAG0PAPAG@Z:NEAR ; CSignature::Base64DecodeBufferToFile
;	COMDAT ??_7?$CComObject@VCSignature@@@ATL@@6B?$IDispatchImpl@UISignature@@$1?IID_ISignature@@3U_GUID@@B$1?LIBID_XMLSIGNLib@@3U3@B$00$0A@VCComTypeInfoHolder@ATL@@@1@@
; File c:\program files\microsoft visual studio .net 2003\vc7\atlmfc\include\atlcom.h
CONST	SEGMENT
??_7?$CComObject@VCSignature@@@ATL@@6B?$IDispatchImpl@UISignature@@$1?IID_ISignature@@3U_GUID@@B$1?LIBID_XMLSIGNLib@@3U3@B$00$0A@VCComTypeInfoHolder@ATL@@@1@@ DD FLAT:?QueryInterface@?$CComObject@VCSignature@@@ATL@@UAGJABU_GUID@@PAPAX@Z ; ATL::CComObject<CSignature>::`vftable'
	DD	FLAT:?AddRef@?$CComObject@VCSignature@@@ATL@@UAGKXZ
	DD	FLAT:?Release@?$CComObject@VCSignature@@@ATL@@UAGKXZ
	DD	FLAT:?GetTypeInfoCount@?$IDispatchImpl@UISignature@@$1?IID_ISignature@@3U_GUID@@B$1?LIBID_XMLSIGNLib@@3U3@B$00$0A@VCComTypeInfoHolder@ATL@@@ATL@@UAGJPAI@Z
	DD	FLAT:?GetTypeInfo@?$IDispatchImpl@UISignature@@$1?IID_ISignature@@3U_GUID@@B$1?LIBID_XMLSIGNLib@@3U3@B$00$0A@VCComTypeInfoHolder@ATL@@@ATL@@UAGJIKPAPAUITypeInfo@@@Z
	DD	FLAT:?GetIDsOfNames@?$IDispatchImpl@UISignature@@$1?IID_ISignature@@3U_GUID@@B$1?LIBID_XMLSIGNLib@@3U3@B$00$0A@VCComTypeInfoHolder@ATL@@@ATL@@UAGJABU_GUID@@PAPAGIKPAJ@Z
	DD	FLAT:?Invoke@?$IDispatchImpl@UISignature@@$1?IID_ISignature@@3U_GUID@@B$1?LIBID_XMLSIGNLib@@3U3@B$00$0A@VCComTypeInfoHolder@ATL@@@ATL@@UAGJJABU_GUID@@KGPAUtagDISPPARAMS@@PAUtagVARIANT@@PAUtagEXCEPINFO@@PAI@Z
	DD	FLAT:?get_EnvelopingFlag@CSignature@@UAGJPAF@Z
	DD	FLAT:?put_EnvelopingFlag@CSignature@@UAGJF@Z
	DD	FLAT:?get_RecipientCertificateStore@CSignature@@UAGJPAPAG@Z
	DD	FLAT:?put_RecipientCertificateStore@CSignature@@UAGJPAG@Z
	DD	FLAT:?get_SignerCertificate@CSignature@@UAGJJPAPAG@Z
	DD	FLAT:?put_SignerCertificate@CSignature@@UAGJJPAG@Z
	DD	FLAT:?get_SignatureID@CSignature@@UAGJJPAPAG@Z
	DD	FLAT:?put_SignatureID@CSignature@@UAGJJPAG@Z
	DD	FLAT:?get_Properties@CSignature@@UAGJJJPAPAG@Z
	DD	FLAT:?put_Properties@CSignature@@UAGJJJPAG@Z
	DD	FLAT:?get_Base64EncodeXML@CSignature@@UAGJPAH@Z
	DD	FLAT:?put_Base64EncodeXML@CSignature@@UAGJH@Z
	DD	FLAT:?get_Base64DecodeXML@CSignature@@UAGJPAH@Z
	DD	FLAT:?put_Base64DecodeXML@CSignature@@UAGJH@Z
	DD	FLAT:?get_DocumentURI@CSignature@@UAGJJJPAPAG@Z
	DD	FLAT:?get_DigestObjectStatus@CSignature@@UAGJJJPAH@Z
	DD	FLAT:?get_Language@CSignature@@UAGJPAPAG@Z
	DD	FLAT:?put_Language@CSignature@@UAGJPAG@Z
	DD	FLAT:?get_SignatureStatus@CSignature@@UAGJJPAH@Z
	DD	FLAT:?get_PhysicalSignatureUsage@CSignature@@UAGJPAJ@Z
	DD	FLAT:?put_PhysicalSignatureUsage@CSignature@@UAGJJ@Z
	DD	FLAT:?get_PhysicalSignatureFile@CSignature@@UAGJPAPAG@Z
	DD	FLAT:?put_PhysicalSignatureFile@CSignature@@UAGJPAG@Z
	DD	FLAT:?get_CapturedSignatureFile@CSignature@@UAGJPAPAG@Z
	DD	FLAT:?Sign@CSignature@@UAGJPAGPAPAG@Z
	DD	FLAT:?get_IncludeCamResponse@CSignature@@UAGJPAH@Z
	DD	FLAT:?put_IncludeCamResponse@CSignature@@UAGJH@Z
	DD	FLAT:?SaveXMLSignature@CSignature@@UAGJPAG@Z
	DD	FLAT:?Verify@CSignature@@UAGJPAGPAH@Z
	DD	FLAT:?GetError@CSignature@@UAGJPAPAG@Z
	DD	FLAT:?put_OverwriteFile@CSignature@@UAGJH@Z
	DD	FLAT:?PFXExportCertificate@CSignature@@UAGJPAG0PAPAG@Z
	DD	FLAT:?VerifyDetached@CSignature@@UAGJPAGPAH@Z
	DD	FLAT:?GetLastError@CSignature@@UAGJPAJ@Z
	DD	FLAT:?GetX509Certificate@CSignature@@UAGJPAGPAPAG@Z
	DD	FLAT:?ViewCertificate@CSignature@@UAGJPAG@Z
	DD	FLAT:?get_CertificateCount@CSignature@@UAGJPAJ@Z
	DD	FLAT:?GetCertificateInfo@CSignature@@UAGJJJPAPAG@Z
	DD	FLAT:?SetActiveCertificate@CSignature@@UAGJPAGPAH@Z
	DD	FLAT:?get_SignedDocumentPath@CSignature@@UAGJJJPAPAG@Z
	DD	FLAT:?get_SignerSubject@CSignature@@UAGJPAGPAPAG@Z
	DD	FLAT:?get_CertIssuer@CSignature@@UAGJPAGPAPAG@Z
	DD	FLAT:?get_CertExpiry@CSignature@@UAGJPAGPAPAG@Z
	DD	FLAT:?get_CertSerialNumber@CSignature@@UAGJPAGPAPAG@Z
	DD	FLAT:?FileExists@CSignature@@UAGJPAGPAH@Z
	DD	FLAT:?get_FailedUriCount@CSignature@@UAGJPAJ@Z
	DD	FLAT:?get_TotalUriCount@CSignature@@UAGJPAJ@Z
	DD	FLAT:?get_FailedUriFullPath@CSignature@@UAGJJPAPAG@Z
	DD	FLAT:?put_FailedUriFullPath@CSignature@@UAGJJPAG@Z
	DD	FLAT:?get_FailedUri@CSignature@@UAGJJPAPAG@Z
	DD	FLAT:?get_SignatureCount@CSignature@@UAGJPAJ@Z
	DD	FLAT:?SignXMLStr@CSignature@@UAGJPAG0PAPAG@Z
	DD	FLAT:?ReadAll@CSignature@@UAGJPAGPAPAG@Z
	DD	FLAT:?SaveXMLStr@CSignature@@UAGJPAG0PAPAG@Z
	DD	FLAT:?SignHTML@CSignature@@UAGJPAUIDispatch@@PAPAG@Z
	DD	FLAT:?SecureXMLVerify@CSignature@@UAGJPAGPAPAG@Z
	DD	FLAT:?SetCSP@CSignature@@UAGJPAG@Z
	DD	FLAT:?GetSignedHTML@CSignature@@UAGJPAGPAPAG@Z
	DD	FLAT:?SignFile@CSignature@@UAGJPAG0@Z
	DD	FLAT:?GetSignedFileObject@CSignature@@UAGJPAG0PAPAG@Z
	DD	FLAT:?SetStoreName@CSignature@@UAGJPAG@Z
	DD	FLAT:?GetStoreName@CSignature@@UAGJPAPAG@Z
	DD	FLAT:?SignXMLEnveloped@CSignature@@UAGJPAG0PAPAG@Z
	DD	FLAT:?GetVersion@CSignature@@UAGJPAPAG@Z
	DD	FLAT:?GetLicenseStatus@CSignature@@UAGJPAJ@Z
	DD	FLAT:?GetPropertyCount@CSignature@@UAGJJPAJ@Z
	DD	FLAT:?ViewAnyCertificate@CSignature@@UAGJPAG@Z
	DD	FLAT:?SelectActiveCertificate@CSignature@@UAGJPAPAG@Z
	DD	FLAT:?VerifyXMLStr@CSignature@@UAGJPAGPAH@Z
	DD	FLAT:?SetActivePFXFileCert@CSignature@@UAGJPAG0PAPAG@Z
	DD	FLAT:?PFXExportActiveCertificate@CSignature@@UAGJPAGPAPAG@Z
	DD	FLAT:?get_HostName@CSignature@@UAGJPAPAG@Z
	DD	FLAT:?get_TimeStampURL@CSignature@@UAGJPAPAG@Z
	DD	FLAT:?put_TimeStampURL@CSignature@@UAGJPAG@Z
	DD	FLAT:?get_TimeStamping@CSignature@@UAGJPAH@Z
	DD	FLAT:?put_TimeStamping@CSignature@@UAGJH@Z
	DD	FLAT:?get_HostOsType@CSignature@@UAGJPAJ@Z
	DD	FLAT:?get_CrlChecking@CSignature@@UAGJPAH@Z
	DD	FLAT:?put_CrlChecking@CSignature@@UAGJH@Z
	DD	FLAT:?get_SigCertStatus@CSignature@@UAGJJPAGJPAJ@Z
	DD	FLAT:?VerifyX509CertCRL@CSignature@@UAGJPAG0JPAH@Z
	DD	FLAT:?VerifyPFXCertCRL@CSignature@@UAGJPAG00JPAH@Z
	DD	FLAT:?get_AddWindowImage@CSignature@@UAGJPAH@Z
	DD	FLAT:?put_AddWindowImage@CSignature@@UAGJH@Z
	DD	FLAT:?put_CRLLocation@CSignature@@UAGJUtagVARIANT@@@Z
	DD	FLAT:?VerifyActiveCertificate@CSignature@@UAGJPAH@Z
	DD	FLAT:?put_CertificatePolicy@CSignature@@UAGJUtagVARIANT@@@Z
	DD	FLAT:?get_AuthorityConstrainedPolicy@CSignature@@UAGJPAUtagVARIANT@@@Z
	DD	FLAT:?get_UserConstrainedPolicy@CSignature@@UAGJPAUtagVARIANT@@@Z
	DD	FLAT:?put_CertificatePolicyChecking@CSignature@@UAGJH@Z
	DD	FLAT:?put_CertificateChainValidation@CSignature@@UAGJH@Z
	DD	FLAT:?put_CertificatePathLengthChecking@CSignature@@UAGJH@Z
	DD	FLAT:?put_ConfigFileName@CSignature@@UAGJPAG@Z
	DD	FLAT:?put_DoDCompliance@CSignature@@UAGJH@Z
	DD	FLAT:?get_CertificatePolicyExplicit@CSignature@@UAGJPAH@Z
	DD	FLAT:?put_CertificatePolicyExplicit@CSignature@@UAGJH@Z
	DD	FLAT:?put_CertificateTrustExplicit@CSignature@@UAGJH@Z
	DD	FLAT:?SignXMLXpathStr@CSignature@@UAGJPAG00PAPAG@Z
	DD	FLAT:?get_UseHMAC@CSignature@@UAGJPAH@Z
	DD	FLAT:?put_UseHMAC@CSignature@@UAGJH@Z
	DD	FLAT:?get_HMACPassword@CSignature@@UAGJPAPAG@Z
	DD	FLAT:?put_HMACPassword@CSignature@@UAGJPAG@Z
	DD	FLAT:?ChangeOrAddProperty@CSignature@@UAGJPAG0@Z
	DD	FLAT:?put_DetailedVerificationFlag@CSignature@@UAGJH@Z
	DD	FLAT:?CaptureLiveSignature@CSignature@@UAGJPAPAG@Z
	DD	FLAT:?SignDataStr@CSignature@@UAGJPAGPAPAG@Z
	DD	FLAT:?put_ExcludeSignerCertificate@CSignature@@UAGJH@Z
	DD	FLAT:?CoSignXMLStr@CSignature@@UAGJPAGPAPAG@Z
	DD	FLAT:?CoSignFile@CSignature@@UAGJPAG0PAPAG@Z
	DD	FLAT:?SignFiles@CSignature@@UAGJUtagVARIANT@@PAGPAPAG@Z
	DD	FLAT:?put_RecipientCertificates@CSignature@@UAGJUtagVARIANT@@@Z
	DD	FLAT:?EncryptStr@CSignature@@UAGJPAGPAPAG@Z
	DD	FLAT:?DecryptStr@CSignature@@UAGJPAGPAPAG@Z
	DD	FLAT:?EncryptFileA@CSignature@@UAGJPAG0PAPAG@Z
	DD	FLAT:?DecryptFileA@CSignature@@UAGJPAG0PAPAG@Z
	DD	FLAT:?put_TrustedRoots@CSignature@@UAGJUtagVARIANT@@@Z
	DD	FLAT:?put_RecipientCertificateFiles@CSignature@@UAGJUtagVARIANT@@@Z
	DD	FLAT:?put_DetachedObjects@CSignature@@UAGJUtagVARIANT@@@Z
	DD	FLAT:?put_AttachedObjects@CSignature@@UAGJUtagVARIANT@@@Z
	DD	FLAT:?ReadAllBase64@CSignature@@UAGJPAGPAPAG@Z
	DD	FLAT:?put_DecryptionPFXCertFile@CSignature@@UAGJPAG@Z
	DD	FLAT:?put_DecryptUsingPFXFileCert@CSignature@@UAGJH@Z
	DD	FLAT:?put_DecryptionPFXPassword@CSignature@@UAGJPAG@Z
	DD	FLAT:?put_XpathNamespace@CSignature@@UAGJUtagVARIANT@@@Z
	DD	FLAT:?get_CamServerHost@CSignature@@UAGJPAPAG@Z
	DD	FLAT:?put_CamServerHost@CSignature@@UAGJPAG@Z
	DD	FLAT:?get_CamServerPort@CSignature@@UAGJPAG@Z
	DD	FLAT:?put_CamServerPort@CSignature@@UAGJG@Z
	DD	FLAT:?get_UseCam@CSignature@@UAGJPAH@Z
	DD	FLAT:?put_UseCam@CSignature@@UAGJH@Z
	DD	FLAT:?get_AgencyId@CSignature@@UAGJPAPAG@Z
	DD	FLAT:?put_AgencyId@CSignature@@UAGJPAG@Z
	DD	FLAT:?get_CamValidationResponse@CSignature@@UAGJPAPAG@Z
	DD	FLAT:?GetSigPropValueByName@CSignature@@UAGJJPAGPAPAG@Z
	DD	FLAT:?Base64DecodeBufferToFile@CSignature@@UAGJPAG0PAPAG@Z
	DD	FLAT:?Base64DecodeFileToFile@CSignature@@UAGJPAG0PAPAG@Z
	DD	FLAT:?GunZipFile@CSignature@@UAGJPAG0PAPAG@Z
	DD	FLAT:?get_CertSerialNumberFormat@CSignature@@UAGJPAJ@Z
	DD	FLAT:?put_CertSerialNumberFormat@CSignature@@UAGJJ@Z
	DD	FLAT:?SecureXMLVerifyFileToBuffer@CSignature@@UAGJPAGPAPAG@Z
	DD	FLAT:?SecureXMLVerifyFileToFile@CSignature@@UAGJPAG0PAPAG@Z
	DD	FLAT:?DeleteSignatureFromXMLStr@CSignature@@UAGJPAG0PAPAG@Z
	DD	FLAT:?DeleteSignatureFromFile@CSignature@@UAGJPAG00PAPAG@Z
	DD	FLAT:?put_AllowedCertIssuerNames@CSignature@@UAGJUtagVARIANT@@@Z
	DD	FLAT:?get_CRLCacheDbConnectionString@CSignature@@UAGJPAPAG@Z
	DD	FLAT:?put_CRLCacheDbConnectionString@CSignature@@UAGJPAG@Z
	DD	FLAT:?get_UseCRLCache@CSignature@@UAGJPAH@Z
	DD	FLAT:?put_UseCRLCache@CSignature@@UAGJH@Z
	DD	FLAT:?put_CRLCacheTimeoutInMinutes@CSignature@@UAGJJ@Z
	DD	FLAT:?put_CanonicalizationMethod@CSignature@@UAGJJ@Z
	DD	FLAT:?get_NetscapeStorePassword@CSignature@@UAGJPAPAG@Z
	DD	FLAT:?put_NetscapeStorePassword@CSignature@@UAGJPAG@Z
	DD	FLAT:?SetActivePEMFileCert@CSignature@@UAGJPAG0PAPAG@Z
	DD	FLAT:?get_SecureXMLPath@CSignature@@UAGJPAPAG@Z
	DD	FLAT:?get_SignedDocumentCount@CSignature@@UAGJJPAJ@Z
	DD	FLAT:?SignXMLByteArray@CSignature@@UAGJUtagVARIANT@@PAGPAU2@@Z
	DD	FLAT:?SaveXMLByteArray@CSignature@@UAGJUtagVARIANT@@PAGPAPAG@Z
	DD	FLAT:?ReadAllByteArray@CSignature@@UAGJPAGPAUtagVARIANT@@@Z
	DD	FLAT:?VerifyXMLByteArray@CSignature@@UAGJUtagVARIANT@@PAH@Z
	DD	FLAT:?SecureXMLVerifyByteArray@CSignature@@UAGJUtagVARIANT@@PAU2@@Z
	DD	FLAT:?SignXMLXpathByteArray@CSignature@@UAGJUtagVARIANT@@PAG1PAU2@@Z
	DD	FLAT:?SignXMLEnvelopedByteArray@CSignature@@UAGJUtagVARIANT@@PAGPAU2@@Z
	DD	FLAT:?Base64DecodeByteArrayToFile@CSignature@@UAGJUtagVARIANT@@PAGPAPAG@Z
	DD	FLAT:?Base64DecodeByteArrayToByteArray@CSignature@@UAGJUtagVARIANT@@PAU2@@Z
	DD	FLAT:?Base64EncodeByteArrayToByteArray@CSignature@@UAGJUtagVARIANT@@PAU2@@Z
	DD	FLAT:?Base64EncodeByteArrayToFile@CSignature@@UAGJUtagVARIANT@@PAGPAPAG@Z
	DD	FLAT:?Base64EncodeStrToFile@CSignature@@UAGJPAG0PAPAG@Z
	DD	FLAT:?Base64EncodeStrToStr@CSignature@@UAGJPAGPAPAG@Z
	DD	FLAT:?SetActivePFXB64Data@CSignature@@UAGJPAG0PAPAG@Z
	DD	FLAT:?get_FloatingLicense@CSignature@@UAGJPAPAG@Z
	DD	FLAT:?put_FloatingLicense@CSignature@@UAGJPAG@Z
	DD	FLAT:?get_LicensedUserCount@CSignature@@UAGJPAJ@Z
	DD	FLAT:?put_IncludeCRLInSignature@CSignature@@UAGJH@Z
	DD	FLAT:?get_UsedCRLList@CSignature@@UAGJPAUtagVARIANT@@@Z
	DD	FLAT:?GetErrorDetail@CSignature@@UAGJJPAPAG@Z
	DD	FLAT:?put_PhysicalSignatureB64Str@CSignature@@UAGJPAG@Z
	DD	FLAT:?GetSignedInfoDigest@CSignature@@UAGJPAG0PAPAG@Z
	DD	FLAT:?GetX509CertificateChain@CSignature@@UAGJPAGPAPAG@Z
	DD	FLAT:?put_SignerCertificateChain@CSignature@@UAGJPAG@Z
	DD	FLAT:?get_SignatureImageId@CSignature@@UAGJPAPAG@Z
	DD	FLAT:?put_SignatureImageId@CSignature@@UAGJPAG@Z
	DD	FLAT:?SignSignedInfoDigest@CSignature@@UAGJPAG0PAPAG@Z
	DD	FLAT:?ApplySignatureValue@CSignature@@UAGJPAGPAPAG@Z
	DD	FLAT:?GetSignedInfoDigestFromByteArray@CSignature@@UAGJUtagVARIANT@@PAGPAPAG@Z
	DD	FLAT:?ApplySignatureValueGetByteArray@CSignature@@UAGJPAGPAUtagVARIANT@@@Z
	DD	FLAT:?GetSignedDocumentB64Str@CSignature@@UAGJJJPAPAG@Z
	DD	FLAT:?GetSignedDocumentByteArray@CSignature@@UAGJJJPAUtagVARIANT@@@Z
	DD	FLAT:?get_CertValidationTransactionId@CSignature@@UAGJPAPAG@Z
	DD	FLAT:?put_CertValidationTransactionId@CSignature@@UAGJPAG@Z
	DD	FLAT:?get_IgnoreIncompleteSignature@CSignature@@UAGJPAH@Z
	DD	FLAT:?put_IgnoreIncompleteSignature@CSignature@@UAGJH@Z
	DD	FLAT:?get_SignatureIndexToVerify@CSignature@@UAGJPAJ@Z
	DD	FLAT:?put_SignatureIndexToVerify@CSignature@@UAGJJ@Z
	DD	FLAT:?get_UseOcsp@CSignature@@UAGJPAH@Z
	DD	FLAT:?put_UseOcsp@CSignature@@UAGJH@Z
	DD	FLAT:?get_OcspTrustedRespSignerCertPath@CSignature@@UAGJPAPAG@Z
	DD	FLAT:?put_OcspTrustedRespSignerCertPath@CSignature@@UAGJPAG@Z
	DD	FLAT:?get_OcspReqSignerPFXCertPath@CSignature@@UAGJPAPAG@Z
	DD	FLAT:?put_OcspReqSignerPFXCertPath@CSignature@@UAGJPAG@Z
	DD	FLAT:?get_OcspReqSignerPFXCertPassword@CSignature@@UAGJPAPAG@Z
	DD	FLAT:?put_OcspReqSignerPFXCertPassword@CSignature@@UAGJPAG@Z
	DD	FLAT:?get_OcspResponderURL@CSignature@@UAGJPAPAG@Z
	DD	FLAT:?put_OcspResponderURL@CSignature@@UAGJPAG@Z
	DD	FLAT:?get_OcspTextResponse@CSignature@@UAGJPAPAG@Z
	DD	FLAT:?get_OcspB64Response@CSignature@@UAGJPAPAG@Z
	DD	FLAT:?get_CertRevocationDate@CSignature@@UAGJPAPAG@Z
	DD	FLAT:?get_IncludeOcspResponse@CSignature@@UAGJPAJ@Z
	DD	FLAT:?put_IncludeOcspResponse@CSignature@@UAGJJ@Z
	DD	FLAT:?put_ProxyHost@CSignature@@UAGJPAG@Z
	DD	FLAT:?put_ProxyPort@CSignature@@UAGJG@Z
	DD	FLAT:?put_ProxyUserName@CSignature@@UAGJPAG@Z
	DD	FLAT:?put_ProxyPassword@CSignature@@UAGJPAG@Z
	DD	FLAT:?put_InclusiveNamespacePrefixList@CSignature@@UAGJUtagVARIANT@@@Z
	DD	FLAT:?get_TimeStampFormat@CSignature@@UAGJPAJ@Z
	DD	FLAT:?put_TimeStampFormat@CSignature@@UAGJJ@Z
	DD	FLAT:?get_TimeStampCritical@CSignature@@UAGJPAJ@Z
	DD	FLAT:?put_TimeStampCritical@CSignature@@UAGJJ@Z
	DD	FLAT:?put_SignedObjectId@CSignature@@UAGJUtagVARIANT@@@Z
	DD	FLAT:??_E?$CComObject@VCSignature@@@ATL@@UAEPAXI@Z
CONST	ENDS
;	COMDAT ??_7?$CComObject@VCSignature@@@ATL@@6BIOleCommandTarget@@@
CONST	SEGMENT
??_7?$CComObject@VCSignature@@@ATL@@6BIOleCommandTarget@@@ DD FLAT:?QueryInterface@?$CComObject@VCSignature@@@ATL@@W3AGJABU_GUID@@PAPAX@Z ; ATL::CComObject<CSignature>::`vftable'
	DD	FLAT:?AddRef@?$CComObject@VCSignature@@@ATL@@W3AGKXZ
	DD	FLAT:?Release@?$CComObject@VCSignature@@@ATL@@W3AGKXZ
	DD	FLAT:?QueryStatus@CSignature@@UAGJPBU_GUID@@KQAU_tagOLECMD@@PAU_tagOLECMDTEXT@@@Z
	DD	FLAT:?Exec@CSignature@@UAGJPBU_GUID@@KKPAUtagVARIANT@@1@Z
CONST	ENDS
;	COMDAT ??_7?$CComObject@VCSignature@@@ATL@@6BIObjectWithSite@@@
CONST	SEGMENT
??_7?$CComObject@VCSignature@@@ATL@@6BIObjectWithSite@@@ DD FLAT:?QueryInterface@?$CComObject@VCSignature@@@ATL@@W7AGJABU_GUID@@PAPAX@Z ; ATL::CComObject<CSignature>::`vftable'
	DD	FLAT:?AddRef@?$CComObject@VCSignature@@@ATL@@W7AGKXZ
	DD	FLAT:?Release@?$CComObject@VCSignature@@@ATL@@W7AGKXZ
	DD	FLAT:?SetSite@CSignature@@UAGJPAUIUnknown@@@Z
	DD	FLAT:?GetSite@CSignature@@UAGJABU_GUID@@PAPAX@Z
; Function compile flags: /Odt /RTCsu
CONST	ENDS
;	COMDAT ??0?$CComObject@VCSignature@@@ATL@@QAE@PAX@Z
_TEXT	SEGMENT
_this$ = -4						; size = 4
___formal$ = 8						; size = 4
??0?$CComObject@VCSignature@@@ATL@@QAE@PAX@Z PROC NEAR	; ATL::CComObject<CSignature>::CComObject<CSignature>, COMDAT
; _this$ = ecx

; 2489 : 	CComObject(void* = NULL) throw()

	push	ebp
	mov	ebp, esp
	push	ecx
	push	esi
	mov	DWORD PTR [ebp-4], -858993460		; ccccccccH
	mov	DWORD PTR _this$[ebp], ecx
	mov	ecx, DWORD PTR _this$[ebp]
	call	??0CSignature@@QAE@XZ			; CSignature::CSignature
	mov	eax, DWORD PTR _this$[ebp]
	mov	DWORD PTR [eax], OFFSET FLAT:??_7?$CComObject@VCSignature@@@ATL@@6B?$IDispatchImpl@UISignature@@$1?IID_ISignature@@3U_GUID@@B$1?LIBID_XMLSIGNLib@@3U3@B$00$0A@VCComTypeInfoHolder@ATL@@@1@@
	mov	ecx, DWORD PTR _this$[ebp]
	mov	DWORD PTR [ecx+4], OFFSET FLAT:??_7?$CComObject@VCSignature@@@ATL@@6BIOleCommandTarget@@@
	mov	edx, DWORD PTR _this$[ebp]
	mov	DWORD PTR [edx+8], OFFSET FLAT:??_7?$CComObject@VCSignature@@@ATL@@6BIObjectWithSite@@@

; 2490 : 	{
; 2491 : 		_pAtlModule->Lock();

	mov	eax, DWORD PTR ?_pAtlModule@ATL@@3PAVCAtlModule@1@A ; ATL::_pAtlModule
	mov	edx, DWORD PTR [eax]
	mov	esi, esp
	mov	ecx, DWORD PTR ?_pAtlModule@ATL@@3PAVCAtlModule@1@A ; ATL::_pAtlModule
	call	DWORD PTR [edx+4]
	cmp	esi, esp
	call	__RTC_CheckEsp

; 2492 : 	}

	mov	eax, DWORD PTR _this$[ebp]
	pop	esi
	add	esp, 4
	cmp	ebp, esp
	call	__RTC_CheckEsp
	mov	esp, ebp
	pop	ebp
	ret	4
??0?$CComObject@VCSignature@@@ATL@@QAE@PAX@Z ENDP	; ATL::CComObject<CSignature>::CComObject<CSignature>
; Function compile flags: /Odt /RTCsu
_TEXT	ENDS
;	COMDAT ?GetTypeInfoCount@?$IDispatchImpl@UISignature@@$1?IID_ISignature@@3U_GUID@@B$1?LIBID_XMLSIGNLib@@3U3@B$00$0A@VCComTypeInfoHolder@ATL@@@ATL@@UAGJPAI@Z
_TEXT	SEGMENT
_this$ = 8						; size = 4
_pctinfo$ = 12						; size = 4
?GetTypeInfoCount@?$IDispatchImpl@UISignature@@$1?IID_ISignature@@3U_GUID@@B$1?LIBID_XMLSIGNLib@@3U3@B$00$0A@VCComTypeInfoHolder@ATL@@@ATL@@UAGJPAI@Z PROC NEAR ; ATL::IDispatchImpl<ISignature,&IID_ISignature,&LIBID_XMLSIGNLib,1,0,ATL::CComTypeInfoHolder>::GetTypeInfoCount, COMDAT

; 4391 : 	{

	push	ebp
	mov	ebp, esp

; 4392 : 		if (pctinfo == NULL) 

	cmp	DWORD PTR _pctinfo$[ebp], 0
	jne	SHORT $L202810

; 4393 : 			return E_POINTER; 

	mov	eax, -2147467261			; 80004003H
	jmp	SHORT $L202809
$L202810:

; 4394 : 		*pctinfo = 1;

	mov	eax, DWORD PTR _pctinfo$[ebp]
	mov	DWORD PTR [eax], 1

; 4395 : 		return S_OK;

	xor	eax, eax
$L202809:

; 4396 : 	}

	pop	ebp
	ret	8
?GetTypeInfoCount@?$IDispatchImpl@UISignature@@$1?IID_ISignature@@3U_GUID@@B$1?LIBID_XMLSIGNLib@@3U3@B$00$0A@VCComTypeInfoHolder@ATL@@@ATL@@UAGJPAI@Z ENDP ; ATL::IDispatchImpl<ISignature,&IID_ISignature,&LIBID_XMLSIGNLib,1,0,ATL::CComTypeInfoHolder>::GetTypeInfoCount
_TEXT	ENDS
PUBLIC	?_tih@?$IDispatchImpl@UISignature@@$1?IID_ISignature@@3U_GUID@@B$1?LIBID_XMLSIGNLib@@3U3@B$00$0A@VCComTypeInfoHolder@ATL@@@ATL@@1VCComTypeInfoHolder@2@A ; ATL::IDispatchImpl<ISignature,&IID_ISignature,&LIBID_XMLSIGNLib,1,0,ATL::CComTypeInfoHolder>::_tih
PUBLIC	?GetTypeInfo@CComTypeInfoHolder@ATL@@QAEJIKPAPAUITypeInfo@@@Z ; ATL::CComTypeInfoHolder::GetTypeInfo
;	COMDAT ?_tih@?$IDispatchImpl@UISignature@@$1?IID_ISignature@@3U_GUID@@B$1?LIBID_XMLSIGNLib@@3U3@B$00$0A@VCComTypeInfoHolder@ATL@@@ATL@@1VCComTypeInfoHolder@2@A
_DATA	SEGMENT
?_tih@?$IDispatchImpl@UISignature@@$1?IID_ISignature@@3U_GUID@@B$1?LIBID_XMLSIGNLib@@3U3@B$00$0A@VCComTypeInfoHolder@ATL@@@ATL@@1VCComTypeInfoHolder@2@A DD FLAT:_IID_ISignature ; ATL::IDispatchImpl<ISignature,&IID_ISignature,&LIBID_XMLSIGNLib,1,0,ATL::CComTypeInfoHolder>::_tih
	DD	FLAT:_LIBID_XMLSIGNLib
	DW	01H
	DW	00H
	DD	00H
	DD	00H
	DD	00H
	DD	00H
; Function compile flags: /Odt /RTCsu
_DATA	ENDS
;	COMDAT ?GetTypeInfo@?$IDispatchImpl@UISignature@@$1?IID_ISignature@@3U_GUID@@B$1?LIBID_XMLSIGNLib@@3U3@B$00$0A@VCComTypeInfoHolder@ATL@@@ATL@@UAGJIKPAPAUITypeInfo@@@Z
_TEXT	SEGMENT
_this$ = 8						; size = 4
_itinfo$ = 12						; size = 4
_lcid$ = 16						; size = 4
_pptinfo$ = 20						; size = 4
?GetTypeInfo@?$IDispatchImpl@UISignature@@$1?IID_ISignature@@3U_GUID@@B$1?LIBID_XMLSIGNLib@@3U3@B$00$0A@VCComTypeInfoHolder@ATL@@@ATL@@UAGJIKPAPAUITypeInfo@@@Z PROC NEAR ; ATL::IDispatchImpl<ISignature,&IID_ISignature,&LIBID_XMLSIGNLib,1,0,ATL::CComTypeInfoHolder>::GetTypeInfo, COMDAT

; 4398 : 	{

	push	ebp
	mov	ebp, esp

; 4399 : 		return _tih.GetTypeInfo(itinfo, lcid, pptinfo);

	mov	eax, DWORD PTR _pptinfo$[ebp]
	push	eax
	mov	ecx, DWORD PTR _lcid$[ebp]
	push	ecx
	mov	edx, DWORD PTR _itinfo$[ebp]
	push	edx
	mov	ecx, OFFSET FLAT:?_tih@?$IDispatchImpl@UISignature@@$1?IID_ISignature@@3U_GUID@@B$1?LIBID_XMLSIGNLib@@3U3@B$00$0A@VCComTypeInfoHolder@ATL@@@ATL@@1VCComTypeInfoHolder@2@A
	call	?GetTypeInfo@CComTypeInfoHolder@ATL@@QAEJIKPAPAUITypeInfo@@@Z ; ATL::CComTypeInfoHolder::GetTypeInfo

; 4400 : 	}

	cmp	ebp, esp
	call	__RTC_CheckEsp
	pop	ebp
	ret	16					; 00000010H
?GetTypeInfo@?$IDispatchImpl@UISignature@@$1?IID_ISignature@@3U_GUID@@B$1?LIBID_XMLSIGNLib@@3U3@B$00$0A@VCComTypeInfoHolder@ATL@@@ATL@@UAGJIKPAPAUITypeInfo@@@Z ENDP ; ATL::IDispatchImpl<ISignature,&IID_ISignature,&LIBID_XMLSIGNLib,1,0,ATL::CComTypeInfoHolder>::GetTypeInfo
_TEXT	ENDS
PUBLIC	?GetTI@CComTypeInfoHolder@ATL@@QAEJKPAPAUITypeInfo@@@Z ; ATL::CComTypeInfoHolder::GetTI
; Function compile flags: /Odt /RTCsu
;	COMDAT ?GetTypeInfo@CComTypeInfoHolder@ATL@@QAEJIKPAPAUITypeInfo@@@Z
_TEXT	SEGMENT
_this$ = -4						; size = 4
___formal$ = 8						; size = 4
_lcid$ = 12						; size = 4
_pptinfo$ = 16						; size = 4
?GetTypeInfo@CComTypeInfoHolder@ATL@@QAEJIKPAPAUITypeInfo@@@Z PROC NEAR ; ATL::CComTypeInfoHolder::GetTypeInfo, COMDAT
; _this$ = ecx

; 3544 : 	{

	push	ebp
	mov	ebp, esp
	push	ecx
	mov	DWORD PTR [ebp-4], -858993460		; ccccccccH
	mov	DWORD PTR _this$[ebp], ecx

; 3545 : 		return GetTI(lcid, pptinfo);

	mov	eax, DWORD PTR _pptinfo$[ebp]
	push	eax
	mov	ecx, DWORD PTR _lcid$[ebp]
	push	ecx
	mov	ecx, DWORD PTR _this$[ebp]
	call	?GetTI@CComTypeInfoHolder@ATL@@QAEJKPAPAUITypeInfo@@@Z ; ATL::CComTypeInfoHolder::GetTI

; 3546 : 	}

	add	esp, 4
	cmp	ebp, esp
	call	__RTC_CheckEsp
	mov	esp, ebp
	pop	ebp
	ret	12					; 0000000cH
?GetTypeInfo@CComTypeInfoHolder@ATL@@QAEJIKPAPAUITypeInfo@@@Z ENDP ; ATL::CComTypeInfoHolder::GetTypeInfo
_TEXT	ENDS
PUBLIC	?GetTI@CComTypeInfoHolder@ATL@@QAEJK@Z		; ATL::CComTypeInfoHolder::GetTI
PUBLIC	??_C@_0M@NNHBFKBG@ppInfo?5?$CB?$DN?50?$AA@	; `string'
;	COMDAT ??_C@_0M@NNHBFKBG@ppInfo?5?$CB?$DN?50?$AA@
CONST	SEGMENT
??_C@_0M@NNHBFKBG@ppInfo?5?$CB?$DN?50?$AA@ DB 'ppInfo != 0', 00H ; `string'
; Function compile flags: /Odt /RTCsu
CONST	ENDS
;	COMDAT ?GetTI@CComTypeInfoHolder@ATL@@QAEJKPAPAUITypeInfo@@@Z
_TEXT	SEGMENT
_hr$ = -8						; size = 4
_this$ = -4						; size = 4
_lcid$ = 8						; size = 4
_ppInfo$ = 12						; size = 4
?GetTI@CComTypeInfoHolder@ATL@@QAEJKPAPAUITypeInfo@@@Z PROC NEAR ; ATL::CComTypeInfoHolder::GetTI, COMDAT
; _this$ = ecx

; 3502 : 	{

	push	ebp
	mov	ebp, esp
	sub	esp, 8
	push	esi
	mov	DWORD PTR [ebp-8], -858993460		; ccccccccH
	mov	DWORD PTR [ebp-4], -858993460		; ccccccccH
	mov	DWORD PTR _this$[ebp], ecx

; 3503 : 		ATLASSERT(ppInfo != NULL);

	cmp	DWORD PTR _ppInfo$[ebp], 0
	jne	SHORT $L206200
	push	OFFSET FLAT:??_C@_0M@NNHBFKBG@ppInfo?5?$CB?$DN?50?$AA@
	push	0
	push	3503					; 00000dafH
	push	OFFSET FLAT:??_C@_0EP@FBJOMLAB@C?3?2Program?5Files?2Microsoft?5Visua@
	push	2
	call	__CrtDbgReport
	add	esp, 20					; 00000014H
	cmp	eax, 1
	jne	SHORT $L206200
	int	3
$L206200:

; 3504 : 		if (ppInfo == NULL)

	cmp	DWORD PTR _ppInfo$[ebp], 0
	jne	SHORT $L92117

; 3505 : 			return E_POINTER;

	mov	eax, -2147467261			; 80004003H
	jmp	SHORT $L92114
$L92117:

; 3506 : 
; 3507 : 		HRESULT hr = S_OK;

	mov	DWORD PTR _hr$[ebp], 0

; 3508 : 		if (m_pInfo == NULL)

	mov	ecx, DWORD PTR _this$[ebp]
	cmp	DWORD PTR [ecx+12], 0
	jne	SHORT $L92121

; 3509 : 			hr = GetTI(lcid);

	mov	edx, DWORD PTR _lcid$[ebp]
	push	edx
	mov	ecx, DWORD PTR _this$[ebp]
	call	?GetTI@CComTypeInfoHolder@ATL@@QAEJK@Z	; ATL::CComTypeInfoHolder::GetTI
	mov	DWORD PTR _hr$[ebp], eax
$L92121:

; 3510 : 		*ppInfo = m_pInfo;

	mov	eax, DWORD PTR _ppInfo$[ebp]
	mov	ecx, DWORD PTR _this$[ebp]
	mov	edx, DWORD PTR [ecx+12]
	mov	DWORD PTR [eax], edx

; 3511 : 		if (m_pInfo != NULL)

	mov	eax, DWORD PTR _this$[ebp]
	cmp	DWORD PTR [eax+12], 0
	je	SHORT $L92122

; 3512 : 		{
; 3513 : 			m_pInfo->AddRef();

	mov	ecx, DWORD PTR _this$[ebp]
	mov	edx, DWORD PTR [ecx+12]
	mov	eax, DWORD PTR _this$[ebp]
	mov	ecx, DWORD PTR [eax+12]
	mov	edx, DWORD PTR [edx]
	mov	esi, esp
	push	ecx
	call	DWORD PTR [edx+4]
	cmp	esi, esp
	call	__RTC_CheckEsp

; 3514 : 			hr = S_OK;

	mov	DWORD PTR _hr$[ebp], 0
$L92122:

; 3515 : 		}
; 3516 : 		return hr;

	mov	eax, DWORD PTR _hr$[ebp]
$L92114:

; 3517 : 	}

	pop	esi
	add	esp, 8
	cmp	ebp, esp
	call	__RTC_CheckEsp
	mov	esp, ebp
	pop	ebp
	ret	8
?GetTI@CComTypeInfoHolder@ATL@@QAEJKPAPAUITypeInfo@@@Z ENDP ; ATL::CComTypeInfoHolder::GetTI
_TEXT	ENDS
PUBLIC	??_C@_0BO@GHLKPFE@m_plibid?5?$CB?$DN?50?5?$CG?$CG?5m_pguid?5?$CB?$DN?50?$AA@ ; `string'
PUBLIC	??_C@_0DG@CJCBGKEH@Did?5you?5forget?5to?5pass?5the?5LIBID@ ; `string'
PUBLIC	??_C@_0GE@MNEAPMLF@?$CBInlineIsEqualGUID?$CI?$CKm_plibid?0?5GU@ ; `string'
PUBLIC	??_C@_0EG@JLAFHAGH@ERROR?5?3?5Unable?5to?5lock?5critical?5@ ; `string'
PUBLIC	?AddTermFunc@CAtlModule@ATL@@QAEJP6GXK@ZK@Z	; ATL::CAtlModule::AddTermFunc
PUBLIC	??I?$CComPtrBase@UITypeLib@@@ATL@@QAEPAPAUITypeLib@@XZ ; ATL::CComPtrBase<ITypeLib>::operator&
PUBLIC	??C?$CComPtrBase@UITypeLib@@@ATL@@QBEPAV?$_NoAddRefReleaseOnCComPtr@UITypeLib@@@1@XZ ; ATL::CComPtrBase<ITypeLib>::operator->
PUBLIC	??I?$CComPtrBase@UITypeInfo@@@ATL@@QAEPAPAUITypeInfo@@XZ ; ATL::CComPtrBase<ITypeInfo>::operator&
PUBLIC	??C?$CComPtrBase@UITypeInfo@@@ATL@@QBEPAV?$_NoAddRefReleaseOnCComPtr@UITypeInfo@@@1@XZ ; ATL::CComPtrBase<ITypeInfo>::operator->
PUBLIC	?Detach@?$CComPtrBase@UITypeInfo@@@ATL@@QAEPAUITypeInfo@@XZ ; ATL::CComPtrBase<ITypeInfo>::Detach
PUBLIC	??0?$CComPtr@UITypeLib@@@ATL@@QAE@XZ		; ATL::CComPtr<ITypeLib>::CComPtr<ITypeLib>
PUBLIC	??1?$CComPtr@UITypeLib@@@ATL@@QAE@XZ		; ATL::CComPtr<ITypeLib>::~CComPtr<ITypeLib>
PUBLIC	??0?$CComPtr@UITypeInfo@@@ATL@@QAE@XZ		; ATL::CComPtr<ITypeInfo>::CComPtr<ITypeInfo>
PUBLIC	??0?$CComPtr@UITypeInfo@@@ATL@@QAE@ABV01@@Z	; ATL::CComPtr<ITypeInfo>::CComPtr<ITypeInfo>
PUBLIC	??1?$CComPtr@UITypeInfo@@@ATL@@QAE@XZ		; ATL::CComPtr<ITypeInfo>::~CComPtr<ITypeInfo>
PUBLIC	??_C@_0GE@IPBGNBKO@Warning?5?3?5CComTypeInfoHolder?3?3Ge@ ; `string'
PUBLIC	??_C@_0DN@OOAEELGE@?7See?5IDispatchImpl?5overview?5help@ ; `string'
PUBLIC	??_C@_0DG@JANIJOBP@ERROR?5?3?5Unable?5to?5load?5Typelibra@ ; `string'
PUBLIC	??_C@_0DE@PFCDKHBK@?7Verify?5TypelibID?5and?5major?5vers@ ; `string'
PUBLIC	??_C@_0FB@GGFNIACC@?7IDispatchImpl?0?5CStockPropImpl?0?5@ ; `string'
PUBLIC	??I?$CComPtrBase@UITypeInfo2@@@ATL@@QAEPAPAUITypeInfo2@@XZ ; ATL::CComPtrBase<ITypeInfo2>::operator&
PUBLIC	??0?$CComPtr@UITypeInfo2@@@ATL@@QAE@XZ		; ATL::CComPtr<ITypeInfo2>::CComPtr<ITypeInfo2>
PUBLIC	??1?$CComPtr@UITypeInfo2@@@ATL@@QAE@XZ		; ATL::CComPtr<ITypeInfo2>::~CComPtr<ITypeInfo2>
PUBLIC	??$QueryInterface@UITypeInfo2@@@IUnknown@@QAGJPAPAUITypeInfo2@@@Z ; IUnknown::QueryInterface<ITypeInfo2>
PUBLIC	??$?4UITypeInfo2@@@?$CComPtr@UITypeInfo@@@ATL@@QAEPAUITypeInfo@@ABV?$CComPtr@UITypeInfo2@@@1@@Z ; ATL::CComPtr<ITypeInfo>::operator=<ITypeInfo2>
PUBLIC	?Cleanup@CComTypeInfoHolder@ATL@@SGXK@Z		; ATL::CComTypeInfoHolder::Cleanup
PUBLIC	?LoadNameCache@CComTypeInfoHolder@ATL@@QAEJPAUITypeInfo@@@Z ; ATL::CComTypeInfoHolder::LoadNameCache
EXTRN	_GUID_NULL:BYTE
EXTRN	__imp__LoadTypeLib@8:NEAR
EXTRN	__imp__LoadRegTypeLib@20:NEAR
;	COMDAT xdata$x
xdata$x	SEGMENT
$T206250 DD	0ffffffffH
	DD	FLAT:$L206226
	DD	00H
	DD	FLAT:$L206227
	DD	00H
	DD	FLAT:$L206228
	DD	02H
	DD	FLAT:$L206229
	DD	00H
	DD	FLAT:$L206230
	DD	04H
	DD	FLAT:$L206231
	DD	05H
	DD	FLAT:$L206232
$T206234 DD	019930520H
	DD	07H
	DD	FLAT:$T206250
	DD	2 DUP(00H)
	DD	2 DUP(00H)
xdata$x	ENDS
;	COMDAT ??_C@_0BO@GHLKPFE@m_plibid?5?$CB?$DN?50?5?$CG?$CG?5m_pguid?5?$CB?$DN?50?$AA@
CONST	SEGMENT
??_C@_0BO@GHLKPFE@m_plibid?5?$CB?$DN?50?5?$CG?$CG?5m_pguid?5?$CB?$DN?50?$AA@ DB 'm'
	DB	'_plibid != 0 && m_pguid != 0', 00H		; `string'
CONST	ENDS
;	COMDAT ??_C@_0DG@CJCBGKEH@Did?5you?5forget?5to?5pass?5the?5LIBID@
CONST	SEGMENT
??_C@_0DG@CJCBGKEH@Did?5you?5forget?5to?5pass?5the?5LIBID@ DB 'Did you fo'
	DB	'rget to pass the LIBID to CComModule::Init?', 00H ; `string'
CONST	ENDS
;	COMDAT ??_C@_0GE@MNEAPMLF@?$CBInlineIsEqualGUID?$CI?$CKm_plibid?0?5GU@
CONST	SEGMENT
??_C@_0GE@MNEAPMLF@?$CBInlineIsEqualGUID?$CI?$CKm_plibid?0?5GU@ DB '!Inli'
	DB	'neIsEqualGUID(*m_plibid, GUID_NULL) && "Did you forget to pas'
	DB	's the LIBID to CComModule::Init?"', 00H	; `string'
CONST	ENDS
;	COMDAT ??_C@_0EG@JLAFHAGH@ERROR?5?3?5Unable?5to?5lock?5critical?5@
CONST	SEGMENT
??_C@_0EG@JLAFHAGH@ERROR?5?3?5Unable?5to?5lock?5critical?5@ DB 'ERROR : U'
	DB	'nable to lock critical section in CComTypeInfoHolder::GetTI', 0aH
	DB	00H						; `string'
CONST	ENDS
;	COMDAT ??_C@_0GE@IPBGNBKO@Warning?5?3?5CComTypeInfoHolder?3?3Ge@
CONST	SEGMENT
??_C@_0GE@IPBGNBKO@Warning?5?3?5CComTypeInfoHolder?3?3Ge@ DB 'Warning : C'
	DB	'ComTypeInfoHolder::GetTI : Loaded typelib does not match the '
	DB	'typelib in the module : %s', 0aH, 00H	; `string'
CONST	ENDS
;	COMDAT ??_C@_0DN@OOAEELGE@?7See?5IDispatchImpl?5overview?5help@
CONST	SEGMENT
??_C@_0DN@OOAEELGE@?7See?5IDispatchImpl?5overview?5help@ DB 09H, 'See IDi'
	DB	'spatchImpl overview help topic for more information', 0aH, 00H ; `string'
CONST	ENDS
;	COMDAT ??_C@_0DG@JANIJOBP@ERROR?5?3?5Unable?5to?5load?5Typelibra@
CONST	SEGMENT
??_C@_0DG@JANIJOBP@ERROR?5?3?5Unable?5to?5load?5Typelibra@ DB 'ERROR : Un'
	DB	'able to load Typelibrary. (HRESULT = 0x%x)', 0aH, 00H ; `string'
CONST	ENDS
;	COMDAT ??_C@_0DE@PFCDKHBK@?7Verify?5TypelibID?5and?5major?5vers@
CONST	SEGMENT
??_C@_0DE@PFCDKHBK@?7Verify?5TypelibID?5and?5major?5vers@ DB 09H, 'Verify'
	DB	' TypelibID and major version specified with', 0aH, 00H ; `string'
CONST	ENDS
;	COMDAT ??_C@_0FB@GGFNIACC@?7IDispatchImpl?0?5CStockPropImpl?0?5@
CONST	SEGMENT
??_C@_0FB@GGFNIACC@?7IDispatchImpl?0?5CStockPropImpl?0?5@ DB 09H, 'IDispa'
	DB	'tchImpl, CStockPropImpl, IProvideClassInfoImpl or IProvideCLa'
	DB	'ssInfo2Impl', 0aH, 00H			; `string'
; Function compile flags: /Odt /RTCsu
CONST	ENDS
;	COMDAT ?GetTI@CComTypeInfoHolder@ATL@@QAEJK@Z
_TEXT	SEGMENT
tv315 = -816						; size = 4
tv269 = -812						; size = 4
tv256 = -808						; size = 4
tv249 = -804						; size = 4
tv258 = -800						; size = 4
tv201 = -796						; size = 4
tv194 = -792						; size = 4
tv203 = -788						; size = 4
$T206225 = -784						; size = 4
$T206224 = -780						; size = 8
$T206223 = -772						; size = 8
$T206222 = -764						; size = 8
$T206221 = -756						; size = 8
$T206220 = -748						; size = 8
$T206215 = -740						; size = 4
$T206210 = -736						; size = 4
$T206208 = -732						; size = 8
_spTypeInfo2$92445 = -720				; size = 4
_spInfo$92370 = -708					; size = 4
_spTypeInfo$92367 = -696				; size = 4
_pLibAttr$92338 = -684					; size = 4
_pszFile$92327 = -676					; size = 4
_hRes2$92325 = -672					; size = 4
_spTypeLibModule$92324 = -664				; size = 4
__AtlSafeAllocaManager$92249 = -652			; size = 4
__lpa_ex$92248 = -644					; size = 4
__lpw_ex$92247 = -640					; size = 4
__acp_ex$92246 = -636					; size = 4
__convert_ex$92245 = -632				; size = 4
_dwFLen$92243 = -628					; size = 4
_szFilePath$92242 = -620				; size = 260
_pszFile$92230 = -356					; size = 4
__AtlSafeAllocaManager$92229 = -348			; size = 4
__lpa_ex$92228 = -340					; size = 4
__lpw_ex$92227 = -336					; size = 4
__acp_ex$92226 = -332					; size = 4
__convert_ex$92225 = -328				; size = 4
_dwFLen$92223 = -324					; size = 4
_szFilePath$92222 = -316				; size = 260
_pTypeLib$92220 = -48					; size = 4
_hRes$ = -40						; size = 4
_lock$ = -32						; size = 8
_this$ = -20						; size = 4
__$ArrayPad$ = -16					; size = 4
__$EHRec$ = -12						; size = 12
__$ReturnAddr$ = 4					; size = 4
_lcid$ = 8						; size = 4
?GetTI@CComTypeInfoHolder@ATL@@QAEJK@Z PROC NEAR	; ATL::CComTypeInfoHolder::GetTI, COMDAT
; _this$ = ecx

; 3632 : {

	push	ebp
	mov	ebp, esp
	push	-1
	push	__ehhandler$?GetTI@CComTypeInfoHolder@ATL@@QAEJK@Z
	mov	eax, DWORD PTR fs:__except_list
	push	eax
	mov	DWORD PTR fs:__except_list, esp
	sub	esp, 804				; 00000324H
	push	esi
	push	edi
	push	ecx
	lea	edi, DWORD PTR [ebp-816]
	mov	ecx, 201				; 000000c9H
	mov	eax, -858993460				; ccccccccH
	rep stosd
	pop	ecx
	mov	eax, DWORD PTR ___security_cookie
	mov	DWORD PTR __$ArrayPad$[ebp], eax
	mov	DWORD PTR _this$[ebp], ecx

; 3633 : 	//If this assert occurs then most likely didn't initialize properly
; 3634 : 	ATLASSERT(m_plibid != NULL && m_pguid != NULL);

	mov	eax, DWORD PTR _this$[ebp]
	cmp	DWORD PTR [eax+4], 0
	je	SHORT $L206204
	mov	ecx, DWORD PTR _this$[ebp]
	cmp	DWORD PTR [ecx], 0
	jne	SHORT $L206205
$L206204:
	push	OFFSET FLAT:??_C@_0BO@GHLKPFE@m_plibid?5?$CB?$DN?50?5?$CG?$CG?5m_pguid?5?$CB?$DN?50?$AA@
	push	0
	push	3634					; 00000e32H
	push	OFFSET FLAT:??_C@_0EP@FBJOMLAB@C?3?2Program?5Files?2Microsoft?5Visua@
	push	2
	call	__CrtDbgReport
	add	esp, 20					; 00000014H
	cmp	eax, 1
	jne	SHORT $L206205
	int	3
$L206205:

; 3635 : 	ATLASSERT(!InlineIsEqualGUID(*m_plibid, GUID_NULL) && "Did you forget to pass the LIBID to CComModule::Init?");

	push	OFFSET FLAT:_GUID_NULL
	mov	eax, DWORD PTR _this$[ebp]
	mov	ecx, DWORD PTR [eax+4]
	push	ecx
	call	_InlineIsEqualGUID
	add	esp, 8
	test	eax, eax
	jne	SHORT $L206206
	mov	edx, OFFSET FLAT:??_C@_0DG@CJCBGKEH@Did?5you?5forget?5to?5pass?5the?5LIBID@
	test	edx, edx
	jne	SHORT $L206207
$L206206:
	push	OFFSET FLAT:??_C@_0GE@MNEAPMLF@?$CBInlineIsEqualGUID?$CI?$CKm_plibid?0?5GU@
	push	0
	push	3635					; 00000e33H
	push	OFFSET FLAT:??_C@_0EP@FBJOMLAB@C?3?2Program?5Files?2Microsoft?5Visua@
	push	2
	call	__CrtDbgReport
	add	esp, 20					; 00000014H
	cmp	eax, 1
	jne	SHORT $L206207
	int	3
$L206207:

; 3636 : 
; 3637 : 	if (m_pInfo != NULL && m_pMap != NULL)

	mov	ecx, DWORD PTR _this$[ebp]
	cmp	DWORD PTR [ecx+12], 0
	je	SHORT $L92208
	mov	edx, DWORD PTR _this$[ebp]
	cmp	DWORD PTR [edx+20], 0
	je	SHORT $L92208

; 3638 : 		return S_OK;

	xor	eax, eax
	jmp	$L92202
$L92208:

; 3639 : 
; 3640 : 	CComCritSecLock<CComCriticalSection> lock(_pAtlModule->m_csStaticDataInitAndTypeInfo, false);

	push	0
	mov	eax, DWORD PTR ?_pAtlModule@ATL@@3PAVCAtlModule@1@A ; ATL::_pAtlModule
	add	eax, 16					; 00000010H
	push	eax
	lea	ecx, DWORD PTR _lock$[ebp]
	call	??0?$CComCritSecLock@VCComCriticalSection@ATL@@@ATL@@QAE@AAVCComCriticalSection@1@_N@Z ; ATL::CComCritSecLock<ATL::CComCriticalSection>::CComCritSecLock<ATL::CComCriticalSection>
	mov	DWORD PTR __$EHRec$[ebp+8], 0

; 3641 : 	HRESULT hRes = lock.Lock();

	lea	ecx, DWORD PTR _lock$[ebp]
	call	?Lock@?$CComCritSecLock@VCComCriticalSection@ATL@@@ATL@@QAEJXZ ; ATL::CComCritSecLock<ATL::CComCriticalSection>::Lock
	mov	DWORD PTR _hRes$[ebp], eax

; 3642 : 	if (FAILED(hRes))

	cmp	DWORD PTR _hRes$[ebp], 0
	jge	SHORT $L92213

; 3643 : 	{
; 3644 : 		ATLTRACE(atlTraceCOM, 0, _T("ERROR : Unable to lock critical section in CComTypeInfoHolder::GetTI\n"));

	push	OFFSET FLAT:??_C@_0EG@JLAFHAGH@ERROR?5?3?5Unable?5to?5lock?5critical?5@
	push	0
	mov	ecx, OFFSET FLAT:?atlTraceCOM@ATL@@3VCTraceCategory@1@A ; ATL::atlTraceCOM
	call	??BCTraceCategory@ATL@@QBEKXZ		; ATL::CTraceCategory::operator unsigned long
	push	eax
	push	3644					; 00000e3cH
	push	OFFSET FLAT:??_C@_0EP@FBJOMLAB@C?3?2Program?5Files?2Microsoft?5Visua@
	lea	ecx, DWORD PTR $T206208[ebp]
	call	??0CTraceFileAndLineInfo@ATL@@QAE@PBDH@Z ; ATL::CTraceFileAndLineInfo::CTraceFileAndLineInfo
	push	eax
	call	??RCTraceFileAndLineInfo@ATL@@QBAXKIPBDZZ ; ATL::CTraceFileAndLineInfo::operator()
	add	esp, 16					; 00000010H

; 3645 : 		ATLASSERT(0);

	xor	ecx, ecx
	jne	SHORT $L206209
	push	OFFSET FLAT:??_C@_01GBGANLPD@0?$AA@
	push	0
	push	3645					; 00000e3dH
	push	OFFSET FLAT:??_C@_0EP@FBJOMLAB@C?3?2Program?5Files?2Microsoft?5Visua@
	push	2
	call	__CrtDbgReport
	add	esp, 20					; 00000014H
	cmp	eax, 1
	jne	SHORT $L206209
	int	3
$L206209:

; 3646 : 		return hRes;

	mov	eax, DWORD PTR _hRes$[ebp]
	mov	DWORD PTR $T206210[ebp], eax
	mov	DWORD PTR __$EHRec$[ebp+8], -1
	lea	ecx, DWORD PTR _lock$[ebp]
	call	??1?$CComCritSecLock@VCComCriticalSection@ATL@@@ATL@@QAE@XZ ; ATL::CComCritSecLock<ATL::CComCriticalSection>::~CComCritSecLock<ATL::CComCriticalSection>
	mov	eax, DWORD PTR $T206210[ebp]
	jmp	$L92202
$L92213:

; 3647 : 	}
; 3648 : 	hRes = E_FAIL;

	mov	DWORD PTR _hRes$[ebp], -2147467259	; 80004005H

; 3649 : 	if (m_pInfo == NULL)

	mov	ecx, DWORD PTR _this$[ebp]
	cmp	DWORD PTR [ecx+12], 0
	jne	$L92219

; 3650 : 	{
; 3651 : 		ITypeLib* pTypeLib = NULL;

	mov	DWORD PTR _pTypeLib$92220[ebp], 0

; 3652 : 		if (InlineIsEqualGUID(CAtlModule::m_libid, *m_plibid) && m_wMajor == 0xFFFF && m_wMinor == 0xFFFF)

	mov	edx, DWORD PTR _this$[ebp]
	mov	eax, DWORD PTR [edx+4]
	push	eax
	push	OFFSET FLAT:?m_libid@CAtlModule@ATL@@2U_GUID@@A ; ATL::CAtlModule::m_libid
	call	_InlineIsEqualGUID
	add	esp, 8
	test	eax, eax
	je	$L92221
	mov	ecx, DWORD PTR _this$[ebp]
	movzx	edx, WORD PTR [ecx+8]
	cmp	edx, 65535				; 0000ffffH
	jne	$L92221
	mov	eax, DWORD PTR _this$[ebp]
	movzx	ecx, WORD PTR [eax+10]
	cmp	ecx, 65535				; 0000ffffH
	jne	$L92221

; 3653 : 		{
; 3654 : 			TCHAR szFilePath[MAX_PATH];
; 3655 : 			DWORD dwFLen = ::GetModuleFileName(_AtlBaseModule.GetModuleInstance(), szFilePath, MAX_PATH);

	mov	esi, esp
	push	260					; 00000104H
	lea	edx, DWORD PTR _szFilePath$92222[ebp]
	push	edx
	mov	ecx, OFFSET FLAT:?_AtlBaseModule@ATL@@3VCAtlBaseModule@1@A
	call	?GetModuleInstance@CAtlBaseModule@ATL@@QAEPAUHINSTANCE__@@XZ ; ATL::CAtlBaseModule::GetModuleInstance
	push	eax
	call	DWORD PTR __imp__GetModuleFileNameA@12
	cmp	esi, esp
	call	__RTC_CheckEsp
	mov	DWORD PTR _dwFLen$92223[ebp], eax

; 3656 : 			if( dwFLen != 0 && dwFLen != MAX_PATH )

	cmp	DWORD PTR _dwFLen$92223[ebp], 0
	je	$L92224
	cmp	DWORD PTR _dwFLen$92223[ebp], 260	; 00000104H
	je	$L92224

; 3657 : 			{
; 3658 : 				USES_CONVERSION_EX;

	mov	DWORD PTR __convert_ex$92225[ebp], 0
	call	?_AtlGetConversionACP@ATL@@YGIXZ	; ATL::_AtlGetConversionACP
	mov	DWORD PTR __acp_ex$92226[ebp], eax
	mov	DWORD PTR __lpw_ex$92227[ebp], 0
	mov	DWORD PTR __lpa_ex$92228[ebp], 0
	lea	ecx, DWORD PTR __AtlSafeAllocaManager$92229[ebp]
	call	??0?$CAtlSafeAllocBufferManager@VCCRTAllocator@ATL@@@_ATL_SAFE_ALLOCA_IMPL@ATL@@QAE@XZ ; ATL::_ATL_SAFE_ALLOCA_IMPL::CAtlSafeAllocBufferManager<ATL::CCRTAllocator>::CAtlSafeAllocBufferManager<ATL::CCRTAllocator>
	mov	BYTE PTR __$EHRec$[ebp+8], 1

; 3659 : 				LPOLESTR pszFile = T2OLE_EX(szFilePath, _ATL_SAFE_ALLOCA_DEF_THRESHOLD);

	lea	eax, DWORD PTR _szFilePath$92222[ebp]
	mov	DWORD PTR __lpa_ex$92228[ebp], eax
	cmp	DWORD PTR __lpa_ex$92228[ebp], 0
	jne	SHORT $L206213
	mov	DWORD PTR tv203[ebp], 0
	jmp	$L206214
$L206213:
	mov	esi, esp
	mov	ecx, DWORD PTR __lpa_ex$92228[ebp]
	push	ecx
	call	DWORD PTR __imp__lstrlenA@4
	cmp	esi, esp
	call	__RTC_CheckEsp
	add	eax, 1
	mov	DWORD PTR __convert_ex$92225[ebp], eax
	mov	edx, DWORD PTR __convert_ex$92225[ebp]
	shl	edx, 1
	cmp	edx, 1024				; 00000400H
	ja	SHORT $L206211
	mov	eax, DWORD PTR __convert_ex$92225[ebp]
	shl	eax, 1
	push	eax
	call	?_AtlVerifyStackAvailable@_ATL_SAFE_ALLOCA_IMPL@ATL@@YA_NK@Z ; ATL::_ATL_SAFE_ALLOCA_IMPL::_AtlVerifyStackAvailable
	add	esp, 4
	movzx	ecx, al
	test	ecx, ecx
	je	SHORT $L206211
	mov	eax, DWORD PTR __convert_ex$92225[ebp]
	shl	eax, 1
	add	eax, 3
	and	eax, -4					; fffffffcH
	call	__alloca_probe
	mov	DWORD PTR tv194[ebp], esp
	mov	edx, DWORD PTR tv194[ebp]
	mov	DWORD PTR tv201[ebp], edx
	jmp	SHORT $L206212
$L206211:
	mov	eax, DWORD PTR __convert_ex$92225[ebp]
	shl	eax, 1
	push	eax
	lea	ecx, DWORD PTR __AtlSafeAllocaManager$92229[ebp]
	call	?Allocate@?$CAtlSafeAllocBufferManager@VCCRTAllocator@ATL@@@_ATL_SAFE_ALLOCA_IMPL@ATL@@QAEPAXK@Z ; ATL::_ATL_SAFE_ALLOCA_IMPL::CAtlSafeAllocBufferManager<ATL::CCRTAllocator>::Allocate
	mov	DWORD PTR tv201[ebp], eax
$L206212:
	mov	ecx, DWORD PTR __acp_ex$92226[ebp]
	push	ecx
	mov	edx, DWORD PTR __convert_ex$92225[ebp]
	push	edx
	mov	eax, DWORD PTR __lpa_ex$92228[ebp]
	push	eax
	mov	ecx, DWORD PTR tv201[ebp]
	push	ecx
	call	?AtlA2WHelper@@YGPAGPAGPBDHI@Z		; AtlA2WHelper
	mov	DWORD PTR tv203[ebp], eax
$L206214:
	mov	edx, DWORD PTR tv203[ebp]
	mov	DWORD PTR _pszFile$92230[ebp], edx

; 3660 : #ifndef _UNICODE
; 3661 : 				if (pszFile == NULL)

	cmp	DWORD PTR _pszFile$92230[ebp], 0
	jne	SHORT $L92236

; 3662 : 					return E_OUTOFMEMORY;

	mov	DWORD PTR $T206215[ebp], -2147024882	; 8007000eH
	mov	BYTE PTR __$EHRec$[ebp+8], 0
	lea	ecx, DWORD PTR __AtlSafeAllocaManager$92229[ebp]
	call	??1?$CAtlSafeAllocBufferManager@VCCRTAllocator@ATL@@@_ATL_SAFE_ALLOCA_IMPL@ATL@@QAE@XZ ; ATL::_ATL_SAFE_ALLOCA_IMPL::CAtlSafeAllocBufferManager<ATL::CCRTAllocator>::~CAtlSafeAllocBufferManager<ATL::CCRTAllocator>
	mov	DWORD PTR __$EHRec$[ebp+8], -1
	lea	ecx, DWORD PTR _lock$[ebp]
	call	??1?$CComCritSecLock@VCComCriticalSection@ATL@@@ATL@@QAE@XZ ; ATL::CComCritSecLock<ATL::CComCriticalSection>::~CComCritSecLock<ATL::CComCriticalSection>
	mov	eax, DWORD PTR $T206215[ebp]
	jmp	$L92202
$L92236:

; 3663 : #endif
; 3664 : 				hRes = LoadTypeLib(pszFile, &pTypeLib);

	mov	esi, esp
	lea	eax, DWORD PTR _pTypeLib$92220[ebp]
	push	eax
	mov	ecx, DWORD PTR _pszFile$92230[ebp]
	push	ecx
	call	DWORD PTR __imp__LoadTypeLib@8
	cmp	esi, esp
	call	__RTC_CheckEsp
	mov	DWORD PTR _hRes$[ebp], eax

; 3665 : 			}

	mov	BYTE PTR __$EHRec$[ebp+8], 0
	lea	ecx, DWORD PTR __AtlSafeAllocaManager$92229[ebp]
	call	??1?$CAtlSafeAllocBufferManager@VCCRTAllocator@ATL@@@_ATL_SAFE_ALLOCA_IMPL@ATL@@QAE@XZ ; ATL::_ATL_SAFE_ALLOCA_IMPL::CAtlSafeAllocBufferManager<ATL::CCRTAllocator>::~CAtlSafeAllocBufferManager<ATL::CCRTAllocator>
$L92224:

; 3666 : 		}
; 3667 : 		else

	jmp	$L92239
$L92221:

; 3668 : 		{
; 3669 : 			hRes = LoadRegTypeLib(*m_plibid, m_wMajor, m_wMinor, lcid, &pTypeLib);

	mov	esi, esp
	lea	edx, DWORD PTR _pTypeLib$92220[ebp]
	push	edx
	mov	eax, DWORD PTR _lcid$[ebp]
	push	eax
	mov	ecx, DWORD PTR _this$[ebp]
	mov	dx, WORD PTR [ecx+10]
	push	edx
	mov	eax, DWORD PTR _this$[ebp]
	mov	cx, WORD PTR [eax+8]
	push	ecx
	mov	edx, DWORD PTR _this$[ebp]
	mov	eax, DWORD PTR [edx+4]
	push	eax
	call	DWORD PTR __imp__LoadRegTypeLib@20
	cmp	esi, esp
	call	__RTC_CheckEsp
	mov	DWORD PTR _hRes$[ebp], eax

; 3670 : #ifdef _DEBUG			
; 3671 : 			if (SUCCEEDED(hRes))

	cmp	DWORD PTR _hRes$[ebp], 0
	jl	$L92241

; 3672 : 			{
; 3673 : 				// Trace out an warning if the requested TypelibID is the same as the modules TypelibID
; 3674 : 				// and versions do not match.
; 3675 : 				// 
; 3676 : 				// In most cases it is due to wrong version template parameters to IDispatchImpl, 
; 3677 : 				// IProvideClassInfoImpl or IProvideClassInfo2Impl.
; 3678 : 				// Set major and minor versions to 0xFFFF if the modules type lib has to be loaded
; 3679 : 				// irrespective of its version.
; 3680 : 				// 
; 3681 : 				// Get the module's file path
; 3682 : 				TCHAR szFilePath[MAX_PATH];
; 3683 : 				DWORD dwFLen = ::GetModuleFileName(_AtlBaseModule.GetModuleInstance(), szFilePath, MAX_PATH);

	mov	esi, esp
	push	260					; 00000104H
	lea	ecx, DWORD PTR _szFilePath$92242[ebp]
	push	ecx
	mov	ecx, OFFSET FLAT:?_AtlBaseModule@ATL@@3VCAtlBaseModule@1@A
	call	?GetModuleInstance@CAtlBaseModule@ATL@@QAEPAUHINSTANCE__@@XZ ; ATL::CAtlBaseModule::GetModuleInstance
	push	eax
	call	DWORD PTR __imp__GetModuleFileNameA@12
	cmp	esi, esp
	call	__RTC_CheckEsp
	mov	DWORD PTR _dwFLen$92243[ebp], eax

; 3684 : 				if( dwFLen != 0 && dwFLen != MAX_PATH )

	cmp	DWORD PTR _dwFLen$92243[ebp], 0
	je	$L92244
	cmp	DWORD PTR _dwFLen$92243[ebp], 260	; 00000104H
	je	$L92244

; 3685 : 				{
; 3686 : 					USES_CONVERSION_EX;

	mov	DWORD PTR __convert_ex$92245[ebp], 0
	call	?_AtlGetConversionACP@ATL@@YGIXZ	; ATL::_AtlGetConversionACP
	mov	DWORD PTR __acp_ex$92246[ebp], eax
	mov	DWORD PTR __lpw_ex$92247[ebp], 0
	mov	DWORD PTR __lpa_ex$92248[ebp], 0
	lea	ecx, DWORD PTR __AtlSafeAllocaManager$92249[ebp]
	call	??0?$CAtlSafeAllocBufferManager@VCCRTAllocator@ATL@@@_ATL_SAFE_ALLOCA_IMPL@ATL@@QAE@XZ ; ATL::_ATL_SAFE_ALLOCA_IMPL::CAtlSafeAllocBufferManager<ATL::CCRTAllocator>::CAtlSafeAllocBufferManager<ATL::CCRTAllocator>
	mov	BYTE PTR __$EHRec$[ebp+8], 2

; 3687 : 					CComPtr<ITypeLib> spTypeLibModule;

	lea	ecx, DWORD PTR _spTypeLibModule$92324[ebp]
	call	??0?$CComPtr@UITypeLib@@@ATL@@QAE@XZ	; ATL::CComPtr<ITypeLib>::CComPtr<ITypeLib>
	mov	BYTE PTR __$EHRec$[ebp+8], 3

; 3688 : 					HRESULT hRes2 = S_OK;

	mov	DWORD PTR _hRes2$92325[ebp], 0

; 3689 : 					LPOLESTR pszFile = T2OLE_EX(szFilePath, _ATL_SAFE_ALLOCA_DEF_THRESHOLD);

	lea	edx, DWORD PTR _szFilePath$92242[ebp]
	mov	DWORD PTR __lpa_ex$92248[ebp], edx
	cmp	DWORD PTR __lpa_ex$92248[ebp], 0
	jne	SHORT $L206218
	mov	DWORD PTR tv258[ebp], 0
	jmp	$L206219
$L206218:
	mov	esi, esp
	mov	eax, DWORD PTR __lpa_ex$92248[ebp]
	push	eax
	call	DWORD PTR __imp__lstrlenA@4
	cmp	esi, esp
	call	__RTC_CheckEsp
	add	eax, 1
	mov	DWORD PTR __convert_ex$92245[ebp], eax
	mov	ecx, DWORD PTR __convert_ex$92245[ebp]
	shl	ecx, 1
	cmp	ecx, 1024				; 00000400H
	ja	SHORT $L206216
	mov	edx, DWORD PTR __convert_ex$92245[ebp]
	shl	edx, 1
	push	edx
	call	?_AtlVerifyStackAvailable@_ATL_SAFE_ALLOCA_IMPL@ATL@@YA_NK@Z ; ATL::_ATL_SAFE_ALLOCA_IMPL::_AtlVerifyStackAvailable
	add	esp, 4
	movzx	eax, al
	test	eax, eax
	je	SHORT $L206216
	mov	eax, DWORD PTR __convert_ex$92245[ebp]
	shl	eax, 1
	add	eax, 3
	and	eax, -4					; fffffffcH
	call	__alloca_probe
	mov	DWORD PTR tv249[ebp], esp
	mov	ecx, DWORD PTR tv249[ebp]
	mov	DWORD PTR tv256[ebp], ecx
	jmp	SHORT $L206217
$L206216:
	mov	edx, DWORD PTR __convert_ex$92245[ebp]
	shl	edx, 1
	push	edx
	lea	ecx, DWORD PTR __AtlSafeAllocaManager$92249[ebp]
	call	?Allocate@?$CAtlSafeAllocBufferManager@VCCRTAllocator@ATL@@@_ATL_SAFE_ALLOCA_IMPL@ATL@@QAEPAXK@Z ; ATL::_ATL_SAFE_ALLOCA_IMPL::CAtlSafeAllocBufferManager<ATL::CCRTAllocator>::Allocate
	mov	DWORD PTR tv256[ebp], eax
$L206217:
	mov	eax, DWORD PTR __acp_ex$92246[ebp]
	push	eax
	mov	ecx, DWORD PTR __convert_ex$92245[ebp]
	push	ecx
	mov	edx, DWORD PTR __lpa_ex$92248[ebp]
	push	edx
	mov	eax, DWORD PTR tv256[ebp]
	push	eax
	call	?AtlA2WHelper@@YGPAGPAGPBDHI@Z		; AtlA2WHelper
	mov	DWORD PTR tv258[ebp], eax
$L206219:
	mov	ecx, DWORD PTR tv258[ebp]
	mov	DWORD PTR _pszFile$92327[ebp], ecx

; 3690 : 					if (pszFile == NULL)

	cmp	DWORD PTR _pszFile$92327[ebp], 0
	jne	SHORT $L92333

; 3691 : 						hRes2 = E_OUTOFMEMORY;

	mov	DWORD PTR _hRes2$92325[ebp], -2147024882 ; 8007000eH

; 3692 : 					else

	jmp	SHORT $L92335
$L92333:

; 3693 : 						hRes2 = LoadTypeLib(pszFile, &spTypeLibModule);

	lea	ecx, DWORD PTR _spTypeLibModule$92324[ebp]
	call	??I?$CComPtrBase@UITypeLib@@@ATL@@QAEPAPAUITypeLib@@XZ ; ATL::CComPtrBase<ITypeLib>::operator&
	mov	esi, esp
	push	eax
	mov	edx, DWORD PTR _pszFile$92327[ebp]
	push	edx
	call	DWORD PTR __imp__LoadTypeLib@8
	cmp	esi, esp
	call	__RTC_CheckEsp
	mov	DWORD PTR _hRes2$92325[ebp], eax
$L92335:

; 3694 : 					if (SUCCEEDED(hRes2))

	cmp	DWORD PTR _hRes2$92325[ebp], 0
	jl	$L92337

; 3695 : 					{
; 3696 : 						TLIBATTR* pLibAttr;
; 3697 : 						hRes2 = spTypeLibModule->GetLibAttr(&pLibAttr);

	lea	ecx, DWORD PTR _spTypeLibModule$92324[ebp]
	call	??C?$CComPtrBase@UITypeLib@@@ATL@@QBEPAV?$_NoAddRefReleaseOnCComPtr@UITypeLib@@@1@XZ ; ATL::CComPtrBase<ITypeLib>::operator->
	mov	DWORD PTR tv269[ebp], eax
	mov	esi, esp
	lea	eax, DWORD PTR _pLibAttr$92338[ebp]
	push	eax
	mov	ecx, DWORD PTR tv269[ebp]
	push	ecx
	mov	edx, DWORD PTR tv269[ebp]
	mov	eax, DWORD PTR [edx]
	call	DWORD PTR [eax+28]
	cmp	esi, esp
	call	__RTC_CheckEsp
	mov	DWORD PTR _hRes2$92325[ebp], eax

; 3698 : 						if (SUCCEEDED(hRes2))

	cmp	DWORD PTR _hRes2$92325[ebp], 0
	jl	$L92337

; 3699 : 						{
; 3700 : 							if (InlineIsEqualGUID(pLibAttr->guid, *m_plibid) &&
; 3701 : 								(pLibAttr->wMajorVerNum != m_wMajor ||
; 3702 : 								pLibAttr->wMinorVerNum != m_wMinor))

	mov	ecx, DWORD PTR _this$[ebp]
	mov	edx, DWORD PTR [ecx+4]
	push	edx
	mov	eax, DWORD PTR _pLibAttr$92338[ebp]
	push	eax
	call	_InlineIsEqualGUID
	add	esp, 8
	test	eax, eax
	je	$L92352
	mov	ecx, DWORD PTR _pLibAttr$92338[ebp]
	movzx	edx, WORD PTR [ecx+24]
	mov	eax, DWORD PTR _this$[ebp]
	movzx	ecx, WORD PTR [eax+8]
	cmp	edx, ecx
	jne	SHORT $L92353
	mov	edx, DWORD PTR _pLibAttr$92338[ebp]
	movzx	eax, WORD PTR [edx+26]
	mov	ecx, DWORD PTR _this$[ebp]
	movzx	edx, WORD PTR [ecx+10]
	cmp	eax, edx
	je	SHORT $L92352
$L92353:

; 3703 : 							{
; 3704 : 								ATLTRACE(atlTraceCOM, 0, _T("Warning : CComTypeInfoHolder::GetTI : Loaded typelib does not match the typelib in the module : %s\n"), szFilePath);

	lea	eax, DWORD PTR _szFilePath$92242[ebp]
	push	eax
	push	OFFSET FLAT:??_C@_0GE@IPBGNBKO@Warning?5?3?5CComTypeInfoHolder?3?3Ge@
	push	0
	mov	ecx, OFFSET FLAT:?atlTraceCOM@ATL@@3VCTraceCategory@1@A ; ATL::atlTraceCOM
	call	??BCTraceCategory@ATL@@QBEKXZ		; ATL::CTraceCategory::operator unsigned long
	push	eax
	push	3704					; 00000e78H
	push	OFFSET FLAT:??_C@_0EP@FBJOMLAB@C?3?2Program?5Files?2Microsoft?5Visua@
	lea	ecx, DWORD PTR $T206220[ebp]
	call	??0CTraceFileAndLineInfo@ATL@@QAE@PBDH@Z ; ATL::CTraceFileAndLineInfo::CTraceFileAndLineInfo
	push	eax
	call	??RCTraceFileAndLineInfo@ATL@@QBAXKIPBDZZ ; ATL::CTraceFileAndLineInfo::operator()
	add	esp, 20					; 00000014H

; 3705 : 								ATLTRACE(atlTraceCOM, 0, _T("\tSee IDispatchImpl overview help topic for more information\n"), szFilePath);							

	lea	ecx, DWORD PTR _szFilePath$92242[ebp]
	push	ecx
	push	OFFSET FLAT:??_C@_0DN@OOAEELGE@?7See?5IDispatchImpl?5overview?5help@
	push	0
	mov	ecx, OFFSET FLAT:?atlTraceCOM@ATL@@3VCTraceCategory@1@A ; ATL::atlTraceCOM
	call	??BCTraceCategory@ATL@@QBEKXZ		; ATL::CTraceCategory::operator unsigned long
	push	eax
	push	3705					; 00000e79H
	push	OFFSET FLAT:??_C@_0EP@FBJOMLAB@C?3?2Program?5Files?2Microsoft?5Visua@
	lea	ecx, DWORD PTR $T206221[ebp]
	call	??0CTraceFileAndLineInfo@ATL@@QAE@PBDH@Z ; ATL::CTraceFileAndLineInfo::CTraceFileAndLineInfo
	push	eax
	call	??RCTraceFileAndLineInfo@ATL@@QBAXKIPBDZZ ; ATL::CTraceFileAndLineInfo::operator()
	add	esp, 20					; 00000014H
$L92352:

; 3706 : 							}
; 3707 : 							spTypeLibModule->ReleaseTLibAttr(pLibAttr);

	lea	ecx, DWORD PTR _spTypeLibModule$92324[ebp]
	call	??C?$CComPtrBase@UITypeLib@@@ATL@@QBEPAV?$_NoAddRefReleaseOnCComPtr@UITypeLib@@@1@XZ ; ATL::CComPtrBase<ITypeLib>::operator->
	mov	DWORD PTR tv315[ebp], eax
	mov	esi, esp
	mov	edx, DWORD PTR _pLibAttr$92338[ebp]
	push	edx
	mov	eax, DWORD PTR tv315[ebp]
	push	eax
	mov	ecx, DWORD PTR tv315[ebp]
	mov	edx, DWORD PTR [ecx]
	call	DWORD PTR [edx+48]
	cmp	esi, esp
	call	__RTC_CheckEsp
$L92337:

; 3708 : 						}
; 3709 : 					}
; 3710 : 				}

	mov	BYTE PTR __$EHRec$[ebp+8], 2
	lea	ecx, DWORD PTR _spTypeLibModule$92324[ebp]
	call	??1?$CComPtr@UITypeLib@@@ATL@@QAE@XZ
	mov	BYTE PTR __$EHRec$[ebp+8], 0
	lea	ecx, DWORD PTR __AtlSafeAllocaManager$92249[ebp]
	call	??1?$CAtlSafeAllocBufferManager@VCCRTAllocator@ATL@@@_ATL_SAFE_ALLOCA_IMPL@ATL@@QAE@XZ ; ATL::_ATL_SAFE_ALLOCA_IMPL::CAtlSafeAllocBufferManager<ATL::CCRTAllocator>::~CAtlSafeAllocBufferManager<ATL::CCRTAllocator>
$L92244:

; 3711 : 			}
; 3712 : 			else

	jmp	$L92239
$L92241:

; 3713 : 			{
; 3714 : 				ATLTRACE(atlTraceCOM, 0, _T("ERROR : Unable to load Typelibrary. (HRESULT = 0x%x)\n"), hRes);

	mov	eax, DWORD PTR _hRes$[ebp]
	push	eax
	push	OFFSET FLAT:??_C@_0DG@JANIJOBP@ERROR?5?3?5Unable?5to?5load?5Typelibra@
	push	0
	mov	ecx, OFFSET FLAT:?atlTraceCOM@ATL@@3VCTraceCategory@1@A ; ATL::atlTraceCOM
	call	??BCTraceCategory@ATL@@QBEKXZ		; ATL::CTraceCategory::operator unsigned long
	push	eax
	push	3714					; 00000e82H
	push	OFFSET FLAT:??_C@_0EP@FBJOMLAB@C?3?2Program?5Files?2Microsoft?5Visua@
	lea	ecx, DWORD PTR $T206222[ebp]
	call	??0CTraceFileAndLineInfo@ATL@@QAE@PBDH@Z ; ATL::CTraceFileAndLineInfo::CTraceFileAndLineInfo
	push	eax
	call	??RCTraceFileAndLineInfo@ATL@@QBAXKIPBDZZ ; ATL::CTraceFileAndLineInfo::operator()
	add	esp, 20					; 00000014H

; 3715 : 				ATLTRACE(atlTraceCOM, 0, _T("\tVerify TypelibID and major version specified with\n"));

	push	OFFSET FLAT:??_C@_0DE@PFCDKHBK@?7Verify?5TypelibID?5and?5major?5vers@
	push	0
	mov	ecx, OFFSET FLAT:?atlTraceCOM@ATL@@3VCTraceCategory@1@A ; ATL::atlTraceCOM
	call	??BCTraceCategory@ATL@@QBEKXZ		; ATL::CTraceCategory::operator unsigned long
	push	eax
	push	3715					; 00000e83H
	push	OFFSET FLAT:??_C@_0EP@FBJOMLAB@C?3?2Program?5Files?2Microsoft?5Visua@
	lea	ecx, DWORD PTR $T206223[ebp]
	call	??0CTraceFileAndLineInfo@ATL@@QAE@PBDH@Z ; ATL::CTraceFileAndLineInfo::CTraceFileAndLineInfo
	push	eax
	call	??RCTraceFileAndLineInfo@ATL@@QBAXKIPBDZZ ; ATL::CTraceFileAndLineInfo::operator()
	add	esp, 16					; 00000010H

; 3716 : 				ATLTRACE(atlTraceCOM, 0, _T("\tIDispatchImpl, CStockPropImpl, IProvideClassInfoImpl or IProvideCLassInfo2Impl\n"));

	push	OFFSET FLAT:??_C@_0FB@GGFNIACC@?7IDispatchImpl?0?5CStockPropImpl?0?5@
	push	0
	mov	ecx, OFFSET FLAT:?atlTraceCOM@ATL@@3VCTraceCategory@1@A ; ATL::atlTraceCOM
	call	??BCTraceCategory@ATL@@QBEKXZ		; ATL::CTraceCategory::operator unsigned long
	push	eax
	push	3716					; 00000e84H
	push	OFFSET FLAT:??_C@_0EP@FBJOMLAB@C?3?2Program?5Files?2Microsoft?5Visua@
	lea	ecx, DWORD PTR $T206224[ebp]
	call	??0CTraceFileAndLineInfo@ATL@@QAE@PBDH@Z ; ATL::CTraceFileAndLineInfo::CTraceFileAndLineInfo
	push	eax
	call	??RCTraceFileAndLineInfo@ATL@@QBAXKIPBDZZ ; ATL::CTraceFileAndLineInfo::operator()
	add	esp, 16					; 00000010H
$L92239:

; 3717 : 			}
; 3718 : #endif		
; 3719 : 		}
; 3720 : 		if (SUCCEEDED(hRes))

	cmp	DWORD PTR _hRes$[ebp], 0
	jl	$L92366

; 3721 : 		{
; 3722 : 			CComPtr<ITypeInfo> spTypeInfo;

	lea	ecx, DWORD PTR _spTypeInfo$92367[ebp]
	call	??0?$CComPtr@UITypeInfo@@@ATL@@QAE@XZ	; ATL::CComPtr<ITypeInfo>::CComPtr<ITypeInfo>
	mov	BYTE PTR __$EHRec$[ebp+8], 4

; 3723 : 			hRes = pTypeLib->GetTypeInfoOfGuid(*m_pguid, &spTypeInfo);

	lea	ecx, DWORD PTR _spTypeInfo$92367[ebp]
	call	??I?$CComPtrBase@UITypeInfo@@@ATL@@QAEPAPAUITypeInfo@@XZ ; ATL::CComPtrBase<ITypeInfo>::operator&
	mov	esi, esp
	push	eax
	mov	ecx, DWORD PTR _this$[ebp]
	mov	edx, DWORD PTR [ecx]
	push	edx
	mov	eax, DWORD PTR _pTypeLib$92220[ebp]
	mov	ecx, DWORD PTR [eax]
	mov	edx, DWORD PTR _pTypeLib$92220[ebp]
	push	edx
	call	DWORD PTR [ecx+24]
	cmp	esi, esp
	call	__RTC_CheckEsp
	mov	DWORD PTR _hRes$[ebp], eax

; 3724 : 			if (SUCCEEDED(hRes))

	cmp	DWORD PTR _hRes$[ebp], 0
	jl	$L92369

; 3725 : 			{
; 3726 : 				CComPtr<ITypeInfo> spInfo(spTypeInfo);

	lea	eax, DWORD PTR _spTypeInfo$92367[ebp]
	push	eax
	lea	ecx, DWORD PTR _spInfo$92370[ebp]
	call	??0?$CComPtr@UITypeInfo@@@ATL@@QAE@ABV01@@Z ; ATL::CComPtr<ITypeInfo>::CComPtr<ITypeInfo>
	mov	BYTE PTR __$EHRec$[ebp+8], 5

; 3727 : 				CComPtr<ITypeInfo2> spTypeInfo2;

	lea	ecx, DWORD PTR _spTypeInfo2$92445[ebp]
	call	??0?$CComPtr@UITypeInfo2@@@ATL@@QAE@XZ	; ATL::CComPtr<ITypeInfo2>::CComPtr<ITypeInfo2>
	mov	BYTE PTR __$EHRec$[ebp+8], 6

; 3728 : 				if (SUCCEEDED(spTypeInfo->QueryInterface(&spTypeInfo2)))

	lea	ecx, DWORD PTR _spTypeInfo2$92445[ebp]
	call	??I?$CComPtrBase@UITypeInfo2@@@ATL@@QAEPAPAUITypeInfo2@@XZ ; ATL::CComPtrBase<ITypeInfo2>::operator&
	push	eax
	lea	ecx, DWORD PTR _spTypeInfo$92367[ebp]
	call	??C?$CComPtrBase@UITypeInfo@@@ATL@@QBEPAV?$_NoAddRefReleaseOnCComPtr@UITypeInfo@@@1@XZ ; ATL::CComPtrBase<ITypeInfo>::operator->
	push	eax
	call	??$QueryInterface@UITypeInfo2@@@IUnknown@@QAGJPAPAUITypeInfo2@@@Z ; IUnknown::QueryInterface<ITypeInfo2>
	test	eax, eax
	jl	SHORT $L92450

; 3729 : 					spInfo = spTypeInfo2;

	lea	ecx, DWORD PTR _spTypeInfo2$92445[ebp]
	push	ecx
	lea	ecx, DWORD PTR _spInfo$92370[ebp]
	call	??$?4UITypeInfo2@@@?$CComPtr@UITypeInfo@@@ATL@@QAEPAUITypeInfo@@ABV?$CComPtr@UITypeInfo2@@@1@@Z ; ATL::CComPtr<ITypeInfo>::operator=<ITypeInfo2>
$L92450:

; 3730 : 
; 3731 : 				m_pInfo = spInfo.Detach();

	lea	ecx, DWORD PTR _spInfo$92370[ebp]
	call	?Detach@?$CComPtrBase@UITypeInfo@@@ATL@@QAEPAUITypeInfo@@XZ ; ATL::CComPtrBase<ITypeInfo>::Detach
	mov	edx, DWORD PTR _this$[ebp]
	mov	DWORD PTR [edx+12], eax

; 3732 : #ifndef _ATL_DLL_IMPL
; 3733 : 				_pAtlModule->AddTermFunc(Cleanup, (DWORD_PTR)this);

	mov	eax, DWORD PTR _this$[ebp]
	push	eax
	push	OFFSET FLAT:?Cleanup@CComTypeInfoHolder@ATL@@SGXK@Z ; ATL::CComTypeInfoHolder::Cleanup
	mov	ecx, DWORD PTR ?_pAtlModule@ATL@@3PAVCAtlModule@1@A ; ATL::_pAtlModule
	call	?AddTermFunc@CAtlModule@ATL@@QAEJP6GXK@ZK@Z ; ATL::CAtlModule::AddTermFunc

; 3734 : #endif
; 3735 : 			}

	mov	BYTE PTR __$EHRec$[ebp+8], 5
	lea	ecx, DWORD PTR _spTypeInfo2$92445[ebp]
	call	??1?$CComPtr@UITypeInfo2@@@ATL@@QAE@XZ
	mov	BYTE PTR __$EHRec$[ebp+8], 4
	lea	ecx, DWORD PTR _spInfo$92370[ebp]
	call	??1?$CComPtr@UITypeInfo@@@ATL@@QAE@XZ
$L92369:

; 3736 : 			pTypeLib->Release();

	mov	ecx, DWORD PTR _pTypeLib$92220[ebp]
	mov	edx, DWORD PTR [ecx]
	mov	esi, esp
	mov	eax, DWORD PTR _pTypeLib$92220[ebp]
	push	eax
	call	DWORD PTR [edx+8]
	cmp	esi, esp
	call	__RTC_CheckEsp

; 3737 : 		}

	mov	BYTE PTR __$EHRec$[ebp+8], 0
	lea	ecx, DWORD PTR _spTypeInfo$92367[ebp]
	call	??1?$CComPtr@UITypeInfo@@@ATL@@QAE@XZ
$L92366:

; 3738 : 	}
; 3739 : 	else

	jmp	SHORT $L92455
$L92219:

; 3740 : 	{
; 3741 : 		// Another thread has loaded the typeinfo so we're OK.
; 3742 : 		hRes = S_OK;

	mov	DWORD PTR _hRes$[ebp], 0
$L92455:

; 3743 : 	}
; 3744 : 
; 3745 : 	if (m_pInfo != NULL && m_pMap == NULL)

	mov	ecx, DWORD PTR _this$[ebp]
	cmp	DWORD PTR [ecx+12], 0
	je	SHORT $L92457
	mov	edx, DWORD PTR _this$[ebp]
	cmp	DWORD PTR [edx+20], 0
	jne	SHORT $L92457

; 3746 : 		LoadNameCache(m_pInfo);

	mov	eax, DWORD PTR _this$[ebp]
	mov	ecx, DWORD PTR [eax+12]
	push	ecx
	mov	ecx, DWORD PTR _this$[ebp]
	call	?LoadNameCache@CComTypeInfoHolder@ATL@@QAEJPAUITypeInfo@@@Z ; ATL::CComTypeInfoHolder::LoadNameCache
$L92457:

; 3747 : 
; 3748 : 	return hRes;

	mov	edx, DWORD PTR _hRes$[ebp]
	mov	DWORD PTR $T206225[ebp], edx
	mov	DWORD PTR __$EHRec$[ebp+8], -1
	lea	ecx, DWORD PTR _lock$[ebp]
	call	??1?$CComCritSecLock@VCComCriticalSection@ATL@@@ATL@@QAE@XZ ; ATL::CComCritSecLock<ATL::CComCriticalSection>::~CComCritSecLock<ATL::CComCriticalSection>
	mov	eax, DWORD PTR $T206225[ebp]
$L92202:

; 3749 : }

	lea	esp, DWORD PTR [ebp-824]
	push	edx
	mov	ecx, ebp
	push	eax
	lea	edx, DWORD PTR $L206249
	call	@_RTC_CheckStackVars@8
	pop	eax
	pop	edx
	mov	ecx, DWORD PTR __$EHRec$[ebp]
	mov	DWORD PTR fs:__except_list, ecx
	mov	ecx, DWORD PTR __$ArrayPad$[ebp]
	call	@__security_check_cookie@4
	pop	edi
	pop	esi
	mov	esp, ebp
	pop	ebp
	ret	4
$L206249:
	DD	11					; 0000000bH
	DD	$L206248
$L206248:
	DD	-32					; ffffffe0H
	DD	8
	DD	$L206235
	DD	-48					; ffffffd0H
	DD	4
	DD	$L206236
	DD	-316					; fffffec4H
	DD	260					; 00000104H
	DD	$L206237
	DD	-348					; fffffea4H
	DD	4
	DD	$L206238
	DD	-620					; fffffd94H
	DD	260					; 00000104H
	DD	$L206239
	DD	-652					; fffffd74H
	DD	4
	DD	$L206240
	DD	-664					; fffffd68H
	DD	4
	DD	$L206241
	DD	-684					; fffffd54H
	DD	4
	DD	$L206242
	DD	-696					; fffffd48H
	DD	4
	DD	$L206243
	DD	-708					; fffffd3cH
	DD	4
	DD	$L206244
	DD	-720					; fffffd30H
	DD	4
	DD	$L206245
$L206245:
	DB	115					; 00000073H
	DB	112					; 00000070H
	DB	84					; 00000054H
	DB	121					; 00000079H
	DB	112					; 00000070H
	DB	101					; 00000065H
	DB	73					; 00000049H
	DB	110					; 0000006eH
	DB	102					; 00000066H
	DB	111					; 0000006fH
	DB	50					; 00000032H
	DB	0
$L206244:
	DB	115					; 00000073H
	DB	112					; 00000070H
	DB	73					; 00000049H
	DB	110					; 0000006eH
	DB	102					; 00000066H
	DB	111					; 0000006fH
	DB	0
$L206243:
	DB	115					; 00000073H
	DB	112					; 00000070H
	DB	84					; 00000054H
	DB	121					; 00000079H
	DB	112					; 00000070H
	DB	101					; 00000065H
	DB	73					; 00000049H
	DB	110					; 0000006eH
	DB	102					; 00000066H
	DB	111					; 0000006fH
	DB	0
$L206242:
	DB	112					; 00000070H
	DB	76					; 0000004cH
	DB	105					; 00000069H
	DB	98					; 00000062H
	DB	65					; 00000041H
	DB	116					; 00000074H
	DB	116					; 00000074H
	DB	114					; 00000072H
	DB	0
$L206241:
	DB	115					; 00000073H
	DB	112					; 00000070H
	DB	84					; 00000054H
	DB	121					; 00000079H
	DB	112					; 00000070H
	DB	101					; 00000065H
	DB	76					; 0000004cH
	DB	105					; 00000069H
	DB	98					; 00000062H
	DB	77					; 0000004dH
	DB	111					; 0000006fH
	DB	100					; 00000064H
	DB	117					; 00000075H
	DB	108					; 0000006cH
	DB	101					; 00000065H
	DB	0
$L206240:
	DB	95					; 0000005fH
	DB	65					; 00000041H
	DB	116					; 00000074H
	DB	108					; 0000006cH
	DB	83					; 00000053H
	DB	97					; 00000061H
	DB	102					; 00000066H
	DB	101					; 00000065H
	DB	65					; 00000041H
	DB	108					; 0000006cH
	DB	108					; 0000006cH
	DB	111					; 0000006fH
	DB	99					; 00000063H
	DB	97					; 00000061H
	DB	77					; 0000004dH
	DB	97					; 00000061H
	DB	110					; 0000006eH
	DB	97					; 00000061H
	DB	103					; 00000067H
	DB	101					; 00000065H
	DB	114					; 00000072H
	DB	0
$L206239:
	DB	115					; 00000073H
	DB	122					; 0000007aH
	DB	70					; 00000046H
	DB	105					; 00000069H
	DB	108					; 0000006cH
	DB	101					; 00000065H
	DB	80					; 00000050H
	DB	97					; 00000061H
	DB	116					; 00000074H
	DB	104					; 00000068H
	DB	0
$L206238:
	DB	95					; 0000005fH
	DB	65					; 00000041H
	DB	116					; 00000074H
	DB	108					; 0000006cH
	DB	83					; 00000053H
	DB	97					; 00000061H
	DB	102					; 00000066H
	DB	101					; 00000065H
	DB	65					; 00000041H
	DB	108					; 0000006cH
	DB	108					; 0000006cH
	DB	111					; 0000006fH
	DB	99					; 00000063H
	DB	97					; 00000061H
	DB	77					; 0000004dH
	DB	97					; 00000061H
	DB	110					; 0000006eH
	DB	97					; 00000061H
	DB	103					; 00000067H
	DB	101					; 00000065H
	DB	114					; 00000072H
	DB	0
$L206237:
	DB	115					; 00000073H
	DB	122					; 0000007aH
	DB	70					; 00000046H
	DB	105					; 00000069H
	DB	108					; 0000006cH
	DB	101					; 00000065H
	DB	80					; 00000050H
	DB	97					; 00000061H
	DB	116					; 00000074H
	DB	104					; 00000068H
	DB	0
$L206236:
	DB	112					; 00000070H
	DB	84					; 00000054H
	DB	121					; 00000079H
	DB	112					; 00000070H
	DB	101					; 00000065H
	DB	76					; 0000004cH
	DB	105					; 00000069H
	DB	98					; 00000062H
	DB	0
$L206235:
	DB	108					; 0000006cH
	DB	111					; 0000006fH
	DB	99					; 00000063H
	DB	107					; 0000006bH
	DB	0
_TEXT	ENDS
;	COMDAT text$x
text$x	SEGMENT
$L206226:
	lea	ecx, DWORD PTR _lock$[ebp]
	jmp	??1?$CComCritSecLock@VCComCriticalSection@ATL@@@ATL@@QAE@XZ ; ATL::CComCritSecLock<ATL::CComCriticalSection>::~CComCritSecLock<ATL::CComCriticalSection>
$L206227:
	lea	ecx, DWORD PTR __AtlSafeAllocaManager$92229[ebp]
	jmp	??1?$CAtlSafeAllocBufferManager@VCCRTAllocator@ATL@@@_ATL_SAFE_ALLOCA_IMPL@ATL@@QAE@XZ ; ATL::_ATL_SAFE_ALLOCA_IMPL::CAtlSafeAllocBufferManager<ATL::CCRTAllocator>::~CAtlSafeAllocBufferManager<ATL::CCRTAllocator>
$L206228:
	lea	ecx, DWORD PTR __AtlSafeAllocaManager$92249[ebp]
	jmp	??1?$CAtlSafeAllocBufferManager@VCCRTAllocator@ATL@@@_ATL_SAFE_ALLOCA_IMPL@ATL@@QAE@XZ ; ATL::_ATL_SAFE_ALLOCA_IMPL::CAtlSafeAllocBufferManager<ATL::CCRTAllocator>::~CAtlSafeAllocBufferManager<ATL::CCRTAllocator>
$L206229:
	lea	ecx, DWORD PTR _spTypeLibModule$92324[ebp]
	jmp	??1?$CComPtr@UITypeLib@@@ATL@@QAE@XZ
$L206230:
	lea	ecx, DWORD PTR _spTypeInfo$92367[ebp]
	jmp	??1?$CComPtr@UITypeInfo@@@ATL@@QAE@XZ
$L206231:
	lea	ecx, DWORD PTR _spInfo$92370[ebp]
	jmp	??1?$CComPtr@UITypeInfo@@@ATL@@QAE@XZ
$L206232:
	lea	ecx, DWORD PTR _spTypeInfo2$92445[ebp]
	jmp	??1?$CComPtr@UITypeInfo2@@@ATL@@QAE@XZ
__ehhandler$?GetTI@CComTypeInfoHolder@ATL@@QAEJK@Z:
	mov	eax, OFFSET FLAT:$T206234
	jmp	___CxxFrameHandler
text$x	ENDS
?GetTI@CComTypeInfoHolder@ATL@@QAEJK@Z ENDP		; ATL::CComTypeInfoHolder::GetTI
EXTRN	__imp__AtlModuleAddTermFunc@12:NEAR
; Function compile flags: /Odt /RTCsu
; File c:\program files\microsoft visual studio .net 2003\vc7\atlmfc\include\atlbase.h
;	COMDAT ?AddTermFunc@CAtlModule@ATL@@QAEJP6GXK@ZK@Z
_TEXT	SEGMENT
tv69 = -8						; size = 4
_this$ = -4						; size = 4
_pFunc$ = 8						; size = 4
_dw$ = 12						; size = 4
?AddTermFunc@CAtlModule@ATL@@QAEJP6GXK@ZK@Z PROC NEAR	; ATL::CAtlModule::AddTermFunc, COMDAT
; _this$ = ecx

; 2677 : 	{

	push	ebp
	mov	ebp, esp
	sub	esp, 8
	push	esi
	mov	DWORD PTR [ebp-8], -858993460		; ccccccccH
	mov	DWORD PTR [ebp-4], -858993460		; ccccccccH
	mov	DWORD PTR _this$[ebp], ecx

; 2678 : 		return AtlModuleAddTermFunc(this, pFunc, dw);

	cmp	DWORD PTR _this$[ebp], 0
	je	SHORT $L206255
	mov	eax, DWORD PTR _this$[ebp]
	add	eax, 4
	mov	DWORD PTR tv69[ebp], eax
	jmp	SHORT $L206256
$L206255:
	mov	DWORD PTR tv69[ebp], 0
$L206256:
	mov	esi, esp
	mov	ecx, DWORD PTR _dw$[ebp]
	push	ecx
	mov	edx, DWORD PTR _pFunc$[ebp]
	push	edx
	mov	eax, DWORD PTR tv69[ebp]
	push	eax
	call	DWORD PTR __imp__AtlModuleAddTermFunc@12
	cmp	esi, esp
	call	__RTC_CheckEsp

; 2679 : 	}

	pop	esi
	add	esp, 8
	cmp	ebp, esp
	call	__RTC_CheckEsp
	mov	esp, ebp
	pop	ebp
	ret	8
?AddTermFunc@CAtlModule@ATL@@QAEJP6GXK@ZK@Z ENDP	; ATL::CAtlModule::AddTermFunc
_TEXT	ENDS
PUBLIC	??1?$CComPtrBase@UITypeInfo@@@ATL@@QAE@XZ	; ATL::CComPtrBase<ITypeInfo>::~CComPtrBase<ITypeInfo>
; Function compile flags: /Odt /RTCsu
;	COMDAT ??1?$CComPtr@UITypeInfo@@@ATL@@QAE@XZ
_TEXT	SEGMENT
_this$ = -4						; size = 4
??1?$CComPtr@UITypeInfo@@@ATL@@QAE@XZ PROC NEAR		; ATL::CComPtr<ITypeInfo>::~CComPtr<ITypeInfo>, COMDAT
; _this$ = ecx
	push	ebp
	mov	ebp, esp
	push	ecx
	mov	DWORD PTR [ebp-4], -858993460		; ccccccccH
	mov	DWORD PTR _this$[ebp], ecx
	mov	ecx, DWORD PTR _this$[ebp]
	call	??1?$CComPtrBase@UITypeInfo@@@ATL@@QAE@XZ ; ATL::CComPtrBase<ITypeInfo>::~CComPtrBase<ITypeInfo>
	add	esp, 4
	cmp	ebp, esp
	call	__RTC_CheckEsp
	mov	esp, ebp
	pop	ebp
	ret	0
??1?$CComPtr@UITypeInfo@@@ATL@@QAE@XZ ENDP		; ATL::CComPtr<ITypeInfo>::~CComPtr<ITypeInfo>
_TEXT	ENDS
PUBLIC	??_C@_07PJPEDDJP@dw?5?$CB?$DN?50?$AA@		; `string'
;	COMDAT ??_C@_07PJPEDDJP@dw?5?$CB?$DN?50?$AA@
; File c:\program files\microsoft visual studio .net 2003\vc7\atlmfc\include\atlcom.h
CONST	SEGMENT
??_C@_07PJPEDDJP@dw?5?$CB?$DN?50?$AA@ DB 'dw != 0', 00H	; `string'
; Function compile flags: /Odt /RTCsu
CONST	ENDS
;	COMDAT ?Cleanup@CComTypeInfoHolder@ATL@@SGXK@Z
_TEXT	SEGMENT
tv89 = -16						; size = 4
$T206263 = -12						; size = 4
$T206262 = -8						; size = 4
_p$ = -4						; size = 4
_dw$ = 8						; size = 4
?Cleanup@CComTypeInfoHolder@ATL@@SGXK@Z PROC NEAR	; ATL::CComTypeInfoHolder::Cleanup, COMDAT

; 3530 : 	{

	push	ebp
	mov	ebp, esp
	sub	esp, 16					; 00000010H
	push	esi
	mov	eax, -858993460				; ccccccccH
	mov	DWORD PTR [ebp-16], eax
	mov	DWORD PTR [ebp-12], eax
	mov	DWORD PTR [ebp-8], eax
	mov	DWORD PTR [ebp-4], eax

; 3531 : 		ATLASSERT(dw != 0);

	cmp	DWORD PTR _dw$[ebp], 0
	jne	SHORT $L206261
	push	OFFSET FLAT:??_C@_07PJPEDDJP@dw?5?$CB?$DN?50?$AA@
	push	0
	push	3531					; 00000dcbH
	push	OFFSET FLAT:??_C@_0EP@FBJOMLAB@C?3?2Program?5Files?2Microsoft?5Visua@
	push	2
	call	__CrtDbgReport
	add	esp, 20					; 00000014H
	cmp	eax, 1
	jne	SHORT $L206261
	int	3
$L206261:

; 3532 : 		if (dw == 0)

	cmp	DWORD PTR _dw$[ebp], 0
	jne	SHORT $L92133

; 3533 : 			return;

	jmp	SHORT $L92130
$L92133:

; 3534 : 			
; 3535 : 		CComTypeInfoHolder* p = (CComTypeInfoHolder*) dw;

	mov	ecx, DWORD PTR _dw$[ebp]
	mov	DWORD PTR _p$[ebp], ecx

; 3536 : 		if (p->m_pInfo != NULL)

	mov	edx, DWORD PTR _p$[ebp]
	cmp	DWORD PTR [edx+12], 0
	je	SHORT $L92136

; 3537 : 			p->m_pInfo->Release();

	mov	eax, DWORD PTR _p$[ebp]
	mov	ecx, DWORD PTR [eax+12]
	mov	edx, DWORD PTR _p$[ebp]
	mov	eax, DWORD PTR [edx+12]
	mov	ecx, DWORD PTR [ecx]
	mov	esi, esp
	push	eax
	call	DWORD PTR [ecx+8]
	cmp	esi, esp
	call	__RTC_CheckEsp
$L92136:

; 3538 : 		p->m_pInfo = NULL;

	mov	edx, DWORD PTR _p$[ebp]
	mov	DWORD PTR [edx+12], 0

; 3539 : 		delete [] p->m_pMap;

	mov	eax, DWORD PTR _p$[ebp]
	mov	ecx, DWORD PTR [eax+20]
	mov	DWORD PTR $T206263[ebp], ecx
	mov	edx, DWORD PTR $T206263[ebp]
	mov	DWORD PTR $T206262[ebp], edx
	cmp	DWORD PTR $T206262[ebp], 0
	je	SHORT $L206264
	push	3
	mov	ecx, DWORD PTR $T206262[ebp]
	call	??_Estringdispid@CComTypeInfoHolder@ATL@@QAEPAXI@Z
	mov	DWORD PTR tv89[ebp], eax
	jmp	SHORT $L206265
$L206264:
	mov	DWORD PTR tv89[ebp], 0
$L206265:

; 3540 : 		p->m_pMap = NULL;

	mov	eax, DWORD PTR _p$[ebp]
	mov	DWORD PTR [eax+20], 0
$L92130:

; 3541 : 	}

	pop	esi
	add	esp, 16					; 00000010H
	cmp	ebp, esp
	call	__RTC_CheckEsp
	mov	esp, ebp
	pop	ebp
	ret	4
?Cleanup@CComTypeInfoHolder@ATL@@SGXK@Z ENDP		; ATL::CComTypeInfoHolder::Cleanup
_TEXT	ENDS
PUBLIC	??0CComBSTR@ATL@@QAE@XZ				; ATL::CComBSTR::CComBSTR
PUBLIC	??BCComBSTR@ATL@@QBEPAGXZ			; ATL::CComBSTR::operator unsigned short *
PUBLIC	??ICComBSTR@ATL@@QAEPAPAGXZ			; ATL::CComBSTR::operator&
PUBLIC	?Attach@CComBSTR@ATL@@QAEXPAG@Z			; ATL::CComBSTR::Attach
PUBLIC	?Detach@CComBSTR@ATL@@QAEPAGXZ			; ATL::CComBSTR::Detach
PUBLIC	??0stringdispid@CComTypeInfoHolder@ATL@@QAE@XZ	; ATL::CComTypeInfoHolder::stringdispid::stringdispid
EXTRN	??_L@YGXPAXIHP6EX0@Z1@Z:NEAR			; `eh vector constructor iterator'
EXTRN	__imp__SysStringLen@4:NEAR
EXTRN	??_U@YAPAXI@Z:NEAR				; operator new[]
;	COMDAT xdata$x
xdata$x	SEGMENT
$T206285 DD	0ffffffffH
	DD	00H
	DD	00H
	DD	FLAT:$L206275
	DD	0ffffffffH
	DD	00H
	DD	0ffffffffH
	DD	FLAT:$L206276
$T206287 DD	00H
	DD	00H
	DD	00H
	DD	FLAT:$L206274
$T206286 DD	00H
	DD	01H
	DD	02H
	DD	01H
	DD	FLAT:$T206287
$T206278 DD	019930520H
	DD	04H
	DD	FLAT:$T206285
	DD	01H
	DD	FLAT:$T206286
	DD	2 DUP(00H)
; Function compile flags: /Odt /RTCsu
xdata$x	ENDS
;	COMDAT ?LoadNameCache@CComTypeInfoHolder@ATL@@QAEJPAUITypeInfo@@@Z
_TEXT	SEGMENT
tv91 = -88						; size = 4
tv183 = -84						; size = 4
$T206270 = -80						; size = 4
$T206269 = -76						; size = 4
$T206268 = -72						; size = 4
_bstrName$92186 = -64					; size = 4
_pfd$92183 = -52					; size = 4
_i$92179 = -44						; size = 4
_pMap$92167 = -40					; size = 4
_hr$ = -36						; size = 4
_pta$ = -28						; size = 4
_this$ = -20						; size = 4
__$EHRec$ = -16						; size = 16
_pTypeInfo$ = 8						; size = 4
?LoadNameCache@CComTypeInfoHolder@ATL@@QAEJPAUITypeInfo@@@Z PROC NEAR ; ATL::CComTypeInfoHolder::LoadNameCache, COMDAT
; _this$ = ecx

; 3591 : 	{

	push	ebp
	mov	ebp, esp
	push	-1
	push	__ehhandler$?LoadNameCache@CComTypeInfoHolder@ATL@@QAEJPAUITypeInfo@@@Z
	mov	eax, DWORD PTR fs:__except_list
	push	eax
	mov	DWORD PTR fs:__except_list, esp
	push	ecx
	sub	esp, 72					; 00000048H
	push	ebx
	push	esi
	push	edi
	push	ecx
	lea	edi, DWORD PTR [ebp-88]
	mov	ecx, 18					; 00000012H
	mov	eax, -858993460				; ccccccccH
	rep stosd
	pop	ecx
	mov	DWORD PTR __$EHRec$[ebp], esp
	mov	DWORD PTR _this$[ebp], ecx

; 3592 : 		TYPEATTR* pta;
; 3593 : 		HRESULT hr = pTypeInfo->GetTypeAttr(&pta);

	mov	esi, esp
	lea	eax, DWORD PTR _pta$[ebp]
	push	eax
	mov	ecx, DWORD PTR _pTypeInfo$[ebp]
	push	ecx
	mov	edx, DWORD PTR _pTypeInfo$[ebp]
	mov	eax, DWORD PTR [edx]
	call	DWORD PTR [eax+12]
	cmp	esi, esp
	call	__RTC_CheckEsp
	mov	DWORD PTR _hr$[ebp], eax

; 3594 : 		if (SUCCEEDED(hr))

	cmp	DWORD PTR _hr$[ebp], 0
	jl	$L92166

; 3595 : 		{
; 3596 : 			stringdispid* pMap = NULL;

	mov	DWORD PTR _pMap$92167[ebp], 0

; 3597 : 			m_nCount = pta->cFuncs;

	mov	ecx, DWORD PTR _pta$[ebp]
	movzx	edx, WORD PTR [ecx+44]
	mov	eax, DWORD PTR _this$[ebp]
	mov	DWORD PTR [eax+24], edx

; 3598 : 			m_pMap = NULL;

	mov	ecx, DWORD PTR _this$[ebp]
	mov	DWORD PTR [ecx+20], 0

; 3599 : 			if (m_nCount != 0)

	mov	edx, DWORD PTR _this$[ebp]
	cmp	DWORD PTR [edx+24], 0
	je	$L92168

; 3600 : 			{
; 3601 : 				ATLTRY(pMap = new stringdispid[m_nCount]);

	mov	DWORD PTR __$EHRec$[ebp+12], 0
	mov	eax, DWORD PTR _this$[ebp]
	mov	ecx, DWORD PTR [eax+24]
	mov	DWORD PTR $T206268[ebp], ecx
	mov	edx, DWORD PTR $T206268[ebp]
	imul	edx, 12					; 0000000cH
	add	edx, 4
	push	edx
	call	??_U@YAPAXI@Z				; operator new[]
	add	esp, 4
	mov	DWORD PTR tv183[ebp], eax
	mov	eax, DWORD PTR tv183[ebp]
	mov	DWORD PTR $T206270[ebp], eax
	mov	BYTE PTR __$EHRec$[ebp+12], 1
	cmp	DWORD PTR $T206270[ebp], 0
	je	SHORT $L206271
	mov	ecx, DWORD PTR $T206270[ebp]
	mov	edx, DWORD PTR $T206268[ebp]
	mov	DWORD PTR [ecx], edx
	push	OFFSET FLAT:??1stringdispid@CComTypeInfoHolder@ATL@@QAE@XZ
	push	OFFSET FLAT:??0stringdispid@CComTypeInfoHolder@ATL@@QAE@XZ ; ATL::CComTypeInfoHolder::stringdispid::stringdispid
	mov	eax, DWORD PTR $T206268[ebp]
	push	eax
	push	12					; 0000000cH
	mov	ecx, DWORD PTR $T206270[ebp]
	add	ecx, 4
	push	ecx
	call	??_L@YGXPAXIHP6EX0@Z1@Z
	mov	edx, DWORD PTR $T206270[ebp]
	add	edx, 4
	mov	DWORD PTR tv91[ebp], edx
	jmp	SHORT $L206272
$L206271:
	mov	DWORD PTR tv91[ebp], 0
$L206272:
	mov	eax, DWORD PTR tv91[ebp]
	mov	DWORD PTR $T206269[ebp], eax
	mov	BYTE PTR __$EHRec$[ebp+12], 0
	mov	ecx, DWORD PTR $T206269[ebp]
	mov	DWORD PTR _pMap$92167[ebp], ecx
	jmp	SHORT $L206273
$L206274:
	mov	eax, $L206273
	ret	0
$L206273:
	mov	DWORD PTR __$EHRec$[ebp+12], -1

; 3602 : 				if (pMap == NULL)

	cmp	DWORD PTR _pMap$92167[ebp], 0
	jne	SHORT $L92168

; 3603 : 				{
; 3604 : 					pTypeInfo->ReleaseTypeAttr(pta);

	mov	esi, esp
	mov	edx, DWORD PTR _pta$[ebp]
	push	edx
	mov	eax, DWORD PTR _pTypeInfo$[ebp]
	push	eax
	mov	ecx, DWORD PTR _pTypeInfo$[ebp]
	mov	edx, DWORD PTR [ecx]
	call	DWORD PTR [edx+76]
	cmp	esi, esp
	call	__RTC_CheckEsp

; 3605 : 					return E_OUTOFMEMORY;

	mov	eax, -2147024882			; 8007000eH
	jmp	$L92162
$L92168:

; 3606 : 				}
; 3607 : 			}
; 3608 : 			for (int i=0; i<m_nCount; i++)

	mov	DWORD PTR _i$92179[ebp], 0
	jmp	SHORT $L92180
$L92181:
	mov	eax, DWORD PTR _i$92179[ebp]
	add	eax, 1
	mov	DWORD PTR _i$92179[ebp], eax
$L92180:
	mov	ecx, DWORD PTR _this$[ebp]
	mov	edx, DWORD PTR _i$92179[ebp]
	cmp	edx, DWORD PTR [ecx+24]
	jge	$L92182

; 3609 : 			{
; 3610 : 				FUNCDESC* pfd;
; 3611 : 				if (SUCCEEDED(pTypeInfo->GetFuncDesc(i, &pfd)))

	mov	esi, esp
	lea	eax, DWORD PTR _pfd$92183[ebp]
	push	eax
	mov	ecx, DWORD PTR _i$92179[ebp]
	push	ecx
	mov	edx, DWORD PTR _pTypeInfo$[ebp]
	push	edx
	mov	eax, DWORD PTR _pTypeInfo$[ebp]
	mov	ecx, DWORD PTR [eax]
	call	DWORD PTR [ecx+20]
	cmp	esi, esp
	call	__RTC_CheckEsp
	test	eax, eax
	jl	$L92185

; 3612 : 				{
; 3613 : 					CComBSTR bstrName;

	lea	ecx, DWORD PTR _bstrName$92186[ebp]
	call	??0CComBSTR@ATL@@QAE@XZ			; ATL::CComBSTR::CComBSTR
	mov	DWORD PTR __$EHRec$[ebp+12], 3

; 3614 : 					if (SUCCEEDED(pTypeInfo->GetDocumentation(pfd->memid, &bstrName, NULL, NULL, NULL)))

	mov	esi, esp
	push	0
	push	0
	push	0
	lea	ecx, DWORD PTR _bstrName$92186[ebp]
	call	??ICComBSTR@ATL@@QAEPAPAGXZ		; ATL::CComBSTR::operator&
	push	eax
	mov	edx, DWORD PTR _pfd$92183[ebp]
	mov	eax, DWORD PTR [edx]
	push	eax
	mov	ecx, DWORD PTR _pTypeInfo$[ebp]
	push	ecx
	mov	edx, DWORD PTR _pTypeInfo$[ebp]
	mov	eax, DWORD PTR [edx]
	call	DWORD PTR [eax+48]
	cmp	esi, esp
	call	__RTC_CheckEsp
	test	eax, eax
	jl	SHORT $L92188

; 3615 : 					{
; 3616 : 						pMap[i].bstr.Attach(bstrName.Detach());

	lea	ecx, DWORD PTR _bstrName$92186[ebp]
	call	?Detach@CComBSTR@ATL@@QAEPAGXZ		; ATL::CComBSTR::Detach
	push	eax
	mov	ecx, DWORD PTR _i$92179[ebp]
	imul	ecx, 12					; 0000000cH
	add	ecx, DWORD PTR _pMap$92167[ebp]
	call	?Attach@CComBSTR@ATL@@QAEXPAG@Z		; ATL::CComBSTR::Attach

; 3617 : 						pMap[i].nLen = SysStringLen(pMap[i].bstr);

	mov	esi, DWORD PTR _i$92179[ebp]
	imul	esi, 12					; 0000000cH
	mov	ecx, DWORD PTR _i$92179[ebp]
	imul	ecx, 12					; 0000000cH
	add	ecx, DWORD PTR _pMap$92167[ebp]
	call	??BCComBSTR@ATL@@QBEPAGXZ		; ATL::CComBSTR::operator unsigned short *
	mov	edi, esp
	push	eax
	call	DWORD PTR __imp__SysStringLen@4
	cmp	edi, esp
	call	__RTC_CheckEsp
	mov	ecx, DWORD PTR _pMap$92167[ebp]
	mov	DWORD PTR [ecx+esi+4], eax

; 3618 : 						pMap[i].id = pfd->memid;

	mov	edx, DWORD PTR _i$92179[ebp]
	imul	edx, 12					; 0000000cH
	mov	eax, DWORD PTR _pMap$92167[ebp]
	mov	ecx, DWORD PTR _pfd$92183[ebp]
	mov	ecx, DWORD PTR [ecx]
	mov	DWORD PTR [eax+edx+8], ecx
$L92188:

; 3619 : 					}
; 3620 : 					pTypeInfo->ReleaseFuncDesc(pfd);

	mov	esi, esp
	mov	edx, DWORD PTR _pfd$92183[ebp]
	push	edx
	mov	eax, DWORD PTR _pTypeInfo$[ebp]
	push	eax
	mov	ecx, DWORD PTR _pTypeInfo$[ebp]
	mov	edx, DWORD PTR [ecx]
	call	DWORD PTR [edx+80]
	cmp	esi, esp
	call	__RTC_CheckEsp

; 3621 : 				}

	mov	DWORD PTR __$EHRec$[ebp+12], -1
	lea	ecx, DWORD PTR _bstrName$92186[ebp]
	call	??1CComBSTR@ATL@@QAE@XZ			; ATL::CComBSTR::~CComBSTR
$L92185:

; 3622 : 			}

	jmp	$L92181
$L92182:

; 3623 : 			m_pMap = pMap;

	mov	eax, DWORD PTR _this$[ebp]
	mov	ecx, DWORD PTR _pMap$92167[ebp]
	mov	DWORD PTR [eax+20], ecx

; 3624 : 			pTypeInfo->ReleaseTypeAttr(pta);

	mov	esi, esp
	mov	edx, DWORD PTR _pta$[ebp]
	push	edx
	mov	eax, DWORD PTR _pTypeInfo$[ebp]
	push	eax
	mov	ecx, DWORD PTR _pTypeInfo$[ebp]
	mov	edx, DWORD PTR [ecx]
	call	DWORD PTR [edx+76]
	cmp	esi, esp
	call	__RTC_CheckEsp
$L92166:

; 3625 : 		}
; 3626 : 		return S_OK;

	xor	eax, eax
$L92162:

; 3627 : 	}

	push	edx
	mov	ecx, ebp
	push	eax
	lea	edx, DWORD PTR $L206284
	call	@_RTC_CheckStackVars@8
	pop	eax
	pop	edx
	mov	ecx, DWORD PTR __$EHRec$[ebp+4]
	mov	DWORD PTR fs:__except_list, ecx
	pop	edi
	pop	esi
	pop	ebx
	add	esp, 88					; 00000058H
	cmp	ebp, esp
	call	__RTC_CheckEsp
	mov	esp, ebp
	pop	ebp
	ret	4
$L206284:
	DD	3
	DD	$L206283
$L206283:
	DD	-28					; ffffffe4H
	DD	4
	DD	$L206279
	DD	-52					; ffffffccH
	DD	4
	DD	$L206280
	DD	-64					; ffffffc0H
	DD	4
	DD	$L206281
$L206281:
	DB	98					; 00000062H
	DB	115					; 00000073H
	DB	116					; 00000074H
	DB	114					; 00000072H
	DB	78					; 0000004eH
	DB	97					; 00000061H
	DB	109					; 0000006dH
	DB	101					; 00000065H
	DB	0
$L206280:
	DB	112					; 00000070H
	DB	102					; 00000066H
	DB	100					; 00000064H
	DB	0
$L206279:
	DB	112					; 00000070H
	DB	116					; 00000074H
	DB	97					; 00000061H
	DB	0
_TEXT	ENDS
;	COMDAT text$x
text$x	SEGMENT
$L206275:
	mov	eax, DWORD PTR $T206270[ebp]
	push	eax
	call	??_V@YAXPAX@Z				; operator delete[]
	pop	ecx
	ret	0
$L206276:
	lea	ecx, DWORD PTR _bstrName$92186[ebp]
	jmp	??1CComBSTR@ATL@@QAE@XZ			; ATL::CComBSTR::~CComBSTR
__ehhandler$?LoadNameCache@CComTypeInfoHolder@ATL@@QAEJPAUITypeInfo@@@Z:
	mov	eax, OFFSET FLAT:$T206278
	jmp	___CxxFrameHandler
text$x	ENDS
?LoadNameCache@CComTypeInfoHolder@ATL@@QAEJPAUITypeInfo@@@Z ENDP ; ATL::CComTypeInfoHolder::LoadNameCache
; Function compile flags: /Odt /RTCsu
; File c:\program files\microsoft visual studio .net 2003\vc7\atlmfc\include\atlcomcli.h
;	COMDAT ??0CComBSTR@ATL@@QAE@XZ
_TEXT	SEGMENT
_this$ = -4						; size = 4
??0CComBSTR@ATL@@QAE@XZ PROC NEAR			; ATL::CComBSTR::CComBSTR, COMDAT
; _this$ = ecx

; 545  : 	CComBSTR() throw()

	push	ebp
	mov	ebp, esp
	push	ecx
	mov	DWORD PTR [ebp-4], -858993460		; ccccccccH
	mov	DWORD PTR _this$[ebp], ecx

; 546  : 	{
; 547  : 		m_str = NULL;

	mov	eax, DWORD PTR _this$[ebp]
	mov	DWORD PTR [eax], 0

; 548  : 	}

	mov	eax, DWORD PTR _this$[ebp]
	mov	esp, ebp
	pop	ebp
	ret	0
??0CComBSTR@ATL@@QAE@XZ ENDP				; ATL::CComBSTR::CComBSTR
; Function compile flags: /Odt /RTCsu
_TEXT	ENDS
;	COMDAT ??BCComBSTR@ATL@@QBEPAGXZ
_TEXT	SEGMENT
_this$ = -4						; size = 4
??BCComBSTR@ATL@@QBEPAGXZ PROC NEAR			; ATL::CComBSTR::operator unsigned short *, COMDAT
; _this$ = ecx

; 640  : 	{

	push	ebp
	mov	ebp, esp
	push	ecx
	mov	DWORD PTR [ebp-4], -858993460		; ccccccccH
	mov	DWORD PTR _this$[ebp], ecx

; 641  : 		return m_str;

	mov	eax, DWORD PTR _this$[ebp]
	mov	eax, DWORD PTR [eax]

; 642  : 	}

	mov	esp, ebp
	pop	ebp
	ret	0
??BCComBSTR@ATL@@QBEPAGXZ ENDP				; ATL::CComBSTR::operator unsigned short *
; Function compile flags: /Odt /RTCsu
_TEXT	ENDS
;	COMDAT ??ICComBSTR@ATL@@QAEPAPAGXZ
_TEXT	SEGMENT
_this$ = -4						; size = 4
??ICComBSTR@ATL@@QAEPAPAGXZ PROC NEAR			; ATL::CComBSTR::operator&, COMDAT
; _this$ = ecx

; 644  : 	{

	push	ebp
	mov	ebp, esp
	push	ecx
	mov	DWORD PTR [ebp-4], -858993460		; ccccccccH
	mov	DWORD PTR _this$[ebp], ecx

; 645  : 		return &m_str;

	mov	eax, DWORD PTR _this$[ebp]

; 646  : 	}

	mov	esp, ebp
	pop	ebp
	ret	0
??ICComBSTR@ATL@@QAEPAPAGXZ ENDP			; ATL::CComBSTR::operator&
; Function compile flags: /Odt /RTCsu
_TEXT	ENDS
;	COMDAT ?Attach@CComBSTR@ATL@@QAEXPAG@Z
_TEXT	SEGMENT
_this$ = -4						; size = 4
_src$ = 8						; size = 4
?Attach@CComBSTR@ATL@@QAEXPAG@Z PROC NEAR		; ATL::CComBSTR::Attach, COMDAT
; _this$ = ecx

; 680  : 	{

	push	ebp
	mov	ebp, esp
	push	ecx
	push	esi
	mov	DWORD PTR [ebp-4], -858993460		; ccccccccH
	mov	DWORD PTR _this$[ebp], ecx

; 681  : 		if (m_str != src)

	mov	eax, DWORD PTR _this$[ebp]
	mov	ecx, DWORD PTR [eax]
	cmp	ecx, DWORD PTR _src$[ebp]
	je	SHORT $L81712

; 682  : 		{
; 683  : 			::SysFreeString(m_str);

	mov	esi, esp
	mov	edx, DWORD PTR _this$[ebp]
	mov	eax, DWORD PTR [edx]
	push	eax
	call	DWORD PTR __imp__SysFreeString@4
	cmp	esi, esp
	call	__RTC_CheckEsp

; 684  : 			m_str = src;

	mov	ecx, DWORD PTR _this$[ebp]
	mov	edx, DWORD PTR _src$[ebp]
	mov	DWORD PTR [ecx], edx
$L81712:

; 685  : 		}
; 686  : 	}

	pop	esi
	add	esp, 4
	cmp	ebp, esp
	call	__RTC_CheckEsp
	mov	esp, ebp
	pop	ebp
	ret	4
?Attach@CComBSTR@ATL@@QAEXPAG@Z ENDP			; ATL::CComBSTR::Attach
; Function compile flags: /Odt /RTCsu
_TEXT	ENDS
;	COMDAT ?Detach@CComBSTR@ATL@@QAEPAGXZ
_TEXT	SEGMENT
_s$ = -8						; size = 4
_this$ = -4						; size = 4
?Detach@CComBSTR@ATL@@QAEPAGXZ PROC NEAR		; ATL::CComBSTR::Detach, COMDAT
; _this$ = ecx

; 688  : 	{

	push	ebp
	mov	ebp, esp
	sub	esp, 8
	mov	DWORD PTR [ebp-8], -858993460		; ccccccccH
	mov	DWORD PTR [ebp-4], -858993460		; ccccccccH
	mov	DWORD PTR _this$[ebp], ecx

; 689  : 		BSTR s = m_str;

	mov	eax, DWORD PTR _this$[ebp]
	mov	ecx, DWORD PTR [eax]
	mov	DWORD PTR _s$[ebp], ecx

; 690  : 		m_str = NULL;

	mov	edx, DWORD PTR _this$[ebp]
	mov	DWORD PTR [edx], 0

; 691  : 		return s;

	mov	eax, DWORD PTR _s$[ebp]

; 692  : 	}

	mov	esp, ebp
	pop	ebp
	ret	0
?Detach@CComBSTR@ATL@@QAEPAGXZ ENDP			; ATL::CComBSTR::Detach
; Function compile flags: /Odt /RTCsu
; File c:\program files\microsoft visual studio .net 2003\vc7\atlmfc\include\atlcom.h
_TEXT	ENDS
;	COMDAT ??0stringdispid@CComTypeInfoHolder@ATL@@QAE@XZ
_TEXT	SEGMENT
_this$ = -4						; size = 4
??0stringdispid@CComTypeInfoHolder@ATL@@QAE@XZ PROC NEAR ; ATL::CComTypeInfoHolder::stringdispid::stringdispid, COMDAT
; _this$ = ecx

; 3477 : 		stringdispid() : nLen(0), id(DISPID_UNKNOWN){}

	push	ebp
	mov	ebp, esp
	push	ecx
	mov	DWORD PTR [ebp-4], -858993460		; ccccccccH
	mov	DWORD PTR _this$[ebp], ecx
	mov	ecx, DWORD PTR _this$[ebp]
	call	??0CComBSTR@ATL@@QAE@XZ			; ATL::CComBSTR::CComBSTR
	mov	eax, DWORD PTR _this$[ebp]
	mov	DWORD PTR [eax+4], 0
	mov	ecx, DWORD PTR _this$[ebp]
	mov	DWORD PTR [ecx+8], -1
	mov	eax, DWORD PTR _this$[ebp]
	add	esp, 4
	cmp	ebp, esp
	call	__RTC_CheckEsp
	mov	esp, ebp
	pop	ebp
	ret	0
??0stringdispid@CComTypeInfoHolder@ATL@@QAE@XZ ENDP	; ATL::CComTypeInfoHolder::stringdispid::stringdispid
_TEXT	ENDS
PUBLIC	??1?$CComPtrBase@UITypeLib@@@ATL@@QAE@XZ	; ATL::CComPtrBase<ITypeLib>::~CComPtrBase<ITypeLib>
; Function compile flags: /Odt /RTCsu
;	COMDAT ??1?$CComPtr@UITypeLib@@@ATL@@QAE@XZ
_TEXT	SEGMENT
_this$ = -4						; size = 4
??1?$CComPtr@UITypeLib@@@ATL@@QAE@XZ PROC NEAR		; ATL::CComPtr<ITypeLib>::~CComPtr<ITypeLib>, COMDAT
; _this$ = ecx
	push	ebp
	mov	ebp, esp
	push	ecx
	mov	DWORD PTR [ebp-4], -858993460		; ccccccccH
	mov	DWORD PTR _this$[ebp], ecx
	mov	ecx, DWORD PTR _this$[ebp]
	call	??1?$CComPtrBase@UITypeLib@@@ATL@@QAE@XZ ; ATL::CComPtrBase<ITypeLib>::~CComPtrBase<ITypeLib>
	add	esp, 4
	cmp	ebp, esp
	call	__RTC_CheckEsp
	mov	esp, ebp
	pop	ebp
	ret	0
??1?$CComPtr@UITypeLib@@@ATL@@QAE@XZ ENDP		; ATL::CComPtr<ITypeLib>::~CComPtr<ITypeLib>
_TEXT	ENDS
PUBLIC	??1?$CComPtrBase@UITypeInfo2@@@ATL@@QAE@XZ	; ATL::CComPtrBase<ITypeInfo2>::~CComPtrBase<ITypeInfo2>
; Function compile flags: /Odt /RTCsu
;	COMDAT ??1?$CComPtr@UITypeInfo2@@@ATL@@QAE@XZ
_TEXT	SEGMENT
_this$ = -4						; size = 4
??1?$CComPtr@UITypeInfo2@@@ATL@@QAE@XZ PROC NEAR	; ATL::CComPtr<ITypeInfo2>::~CComPtr<ITypeInfo2>, COMDAT
; _this$ = ecx
	push	ebp
	mov	ebp, esp
	push	ecx
	mov	DWORD PTR [ebp-4], -858993460		; ccccccccH
	mov	DWORD PTR _this$[ebp], ecx
	mov	ecx, DWORD PTR _this$[ebp]
	call	??1?$CComPtrBase@UITypeInfo2@@@ATL@@QAE@XZ ; ATL::CComPtrBase<ITypeInfo2>::~CComPtrBase<ITypeInfo2>
	add	esp, 4
	cmp	ebp, esp
	call	__RTC_CheckEsp
	mov	esp, ebp
	pop	ebp
	ret	0
??1?$CComPtr@UITypeInfo2@@@ATL@@QAE@XZ ENDP		; ATL::CComPtr<ITypeInfo2>::~CComPtr<ITypeInfo2>
_TEXT	ENDS
PUBLIC	?GetIDsOfNames@CComTypeInfoHolder@ATL@@QAEJABU_GUID@@PAPAGIKPAJ@Z ; ATL::CComTypeInfoHolder::GetIDsOfNames
; Function compile flags: /Odt /RTCsu
;	COMDAT ?GetIDsOfNames@?$IDispatchImpl@UISignature@@$1?IID_ISignature@@3U_GUID@@B$1?LIBID_XMLSIGNLib@@3U3@B$00$0A@VCComTypeInfoHolder@ATL@@@ATL@@UAGJABU_GUID@@PAPAGIKPAJ@Z
_TEXT	SEGMENT
_this$ = 8						; size = 4
_riid$ = 12						; size = 4
_rgszNames$ = 16					; size = 4
_cNames$ = 20						; size = 4
_lcid$ = 24						; size = 4
_rgdispid$ = 28						; size = 4
?GetIDsOfNames@?$IDispatchImpl@UISignature@@$1?IID_ISignature@@3U_GUID@@B$1?LIBID_XMLSIGNLib@@3U3@B$00$0A@VCComTypeInfoHolder@ATL@@@ATL@@UAGJABU_GUID@@PAPAGIKPAJ@Z PROC NEAR ; ATL::IDispatchImpl<ISignature,&IID_ISignature,&LIBID_XMLSIGNLib,1,0,ATL::CComTypeInfoHolder>::GetIDsOfNames, COMDAT

; 4403 : 	{

	push	ebp
	mov	ebp, esp

; 4404 : 		return _tih.GetIDsOfNames(riid, rgszNames, cNames, lcid, rgdispid);

	mov	eax, DWORD PTR _rgdispid$[ebp]
	push	eax
	mov	ecx, DWORD PTR _lcid$[ebp]
	push	ecx
	mov	edx, DWORD PTR _cNames$[ebp]
	push	edx
	mov	eax, DWORD PTR _rgszNames$[ebp]
	push	eax
	mov	ecx, DWORD PTR _riid$[ebp]
	push	ecx
	mov	ecx, OFFSET FLAT:?_tih@?$IDispatchImpl@UISignature@@$1?IID_ISignature@@3U_GUID@@B$1?LIBID_XMLSIGNLib@@3U3@B$00$0A@VCComTypeInfoHolder@ATL@@@ATL@@1VCComTypeInfoHolder@2@A
	call	?GetIDsOfNames@CComTypeInfoHolder@ATL@@QAEJABU_GUID@@PAPAGIKPAJ@Z ; ATL::CComTypeInfoHolder::GetIDsOfNames

; 4405 : 	}

	cmp	ebp, esp
	call	__RTC_CheckEsp
	pop	ebp
	ret	24					; 00000018H
?GetIDsOfNames@?$IDispatchImpl@UISignature@@$1?IID_ISignature@@3U_GUID@@B$1?LIBID_XMLSIGNLib@@3U3@B$00$0A@VCComTypeInfoHolder@ATL@@@ATL@@UAGJABU_GUID@@PAPAGIKPAJ@Z ENDP ; ATL::IDispatchImpl<ISignature,&IID_ISignature,&LIBID_XMLSIGNLib,1,0,ATL::CComTypeInfoHolder>::GetIDsOfNames
_TEXT	ENDS
PUBLIC	?ocslen@@YAHPBG@Z				; ocslen
PUBLIC	?EnsureTI@CComTypeInfoHolder@ATL@@QAEJK@Z	; ATL::CComTypeInfoHolder::EnsureTI
; Function compile flags: /Odt /RTCsu
;	COMDAT ?GetIDsOfNames@CComTypeInfoHolder@ATL@@QAEJABU_GUID@@PAPAGIKPAJ@Z
_TEXT	SEGMENT
_j$92148 = -16						; size = 4
_n$92147 = -12						; size = 4
_hRes$ = -8						; size = 4
_this$ = -4						; size = 4
___formal$ = 8						; size = 4
_rgszNames$ = 12					; size = 4
_cNames$ = 16						; size = 4
_lcid$ = 20						; size = 4
_rgdispid$ = 24						; size = 4
?GetIDsOfNames@CComTypeInfoHolder@ATL@@QAEJABU_GUID@@PAPAGIKPAJ@Z PROC NEAR ; ATL::CComTypeInfoHolder::GetIDsOfNames, COMDAT
; _this$ = ecx

; 3549 : 	{

	push	ebp
	mov	ebp, esp
	sub	esp, 16					; 00000010H
	push	esi
	mov	eax, -858993460				; ccccccccH
	mov	DWORD PTR [ebp-16], eax
	mov	DWORD PTR [ebp-12], eax
	mov	DWORD PTR [ebp-8], eax
	mov	DWORD PTR [ebp-4], eax
	mov	DWORD PTR _this$[ebp], ecx

; 3550 : 		HRESULT hRes = EnsureTI(lcid);

	mov	eax, DWORD PTR _lcid$[ebp]
	push	eax
	mov	ecx, DWORD PTR _this$[ebp]
	call	?EnsureTI@CComTypeInfoHolder@ATL@@QAEJK@Z ; ATL::CComTypeInfoHolder::EnsureTI
	mov	DWORD PTR _hRes$[ebp], eax

; 3551 : 		if (m_pInfo != NULL)

	mov	ecx, DWORD PTR _this$[ebp]
	cmp	DWORD PTR [ecx+12], 0
	je	$L92144

; 3552 : 		{
; 3553 : 			hRes = E_FAIL;

	mov	DWORD PTR _hRes$[ebp], -2147467259	; 80004005H

; 3554 : 			// Look in cache if
; 3555 : 			//	cache is populated
; 3556 : 			//	parameter names are not requested
; 3557 : 			if (m_pMap != NULL && cNames == 1)

	mov	edx, DWORD PTR _this$[ebp]
	cmp	DWORD PTR [edx+20], 0
	je	$L92146
	cmp	DWORD PTR _cNames$[ebp], 1
	jne	$L92146

; 3558 : 			{
; 3559 : 				int n = int( ocslen(rgszNames[0]) );

	mov	eax, DWORD PTR _rgszNames$[ebp]
	mov	ecx, DWORD PTR [eax]
	push	ecx
	call	?ocslen@@YAHPBG@Z			; ocslen
	add	esp, 4
	mov	DWORD PTR _n$92147[ebp], eax

; 3560 : 				for (int j=m_nCount-1; j>=0; j--)

	mov	edx, DWORD PTR _this$[ebp]
	mov	eax, DWORD PTR [edx+24]
	sub	eax, 1
	mov	DWORD PTR _j$92148[ebp], eax
	jmp	SHORT $L92149
$L92150:
	mov	ecx, DWORD PTR _j$92148[ebp]
	sub	ecx, 1
	mov	DWORD PTR _j$92148[ebp], ecx
$L92149:
	cmp	DWORD PTR _j$92148[ebp], 0
	jl	SHORT $L92146

; 3561 : 				{
; 3562 : 					if ((n == m_pMap[j].nLen) &&
; 3563 : 						(memcmp(m_pMap[j].bstr, rgszNames[0], m_pMap[j].nLen * sizeof(OLECHAR)) == 0))

	mov	edx, DWORD PTR _j$92148[ebp]
	imul	edx, 12					; 0000000cH
	mov	eax, DWORD PTR _this$[ebp]
	mov	ecx, DWORD PTR [eax+20]
	mov	eax, DWORD PTR _n$92147[ebp]
	cmp	eax, DWORD PTR [ecx+edx+4]
	jne	SHORT $L92153
	mov	ecx, DWORD PTR _j$92148[ebp]
	imul	ecx, 12					; 0000000cH
	mov	edx, DWORD PTR _this$[ebp]
	mov	eax, DWORD PTR [edx+20]
	mov	ecx, DWORD PTR [eax+ecx+4]
	shl	ecx, 1
	push	ecx
	mov	edx, DWORD PTR _rgszNames$[ebp]
	mov	eax, DWORD PTR [edx]
	push	eax
	mov	ecx, DWORD PTR _j$92148[ebp]
	imul	ecx, 12					; 0000000cH
	mov	edx, DWORD PTR _this$[ebp]
	add	ecx, DWORD PTR [edx+20]
	call	??BCComBSTR@ATL@@QBEPAGXZ		; ATL::CComBSTR::operator unsigned short *
	push	eax
	call	_memcmp
	add	esp, 12					; 0000000cH
	test	eax, eax
	jne	SHORT $L92153

; 3564 : 					{
; 3565 : 						rgdispid[0] = m_pMap[j].id;

	mov	eax, DWORD PTR _j$92148[ebp]
	imul	eax, 12					; 0000000cH
	mov	ecx, DWORD PTR _this$[ebp]
	mov	edx, DWORD PTR [ecx+20]
	mov	ecx, DWORD PTR _rgdispid$[ebp]
	mov	edx, DWORD PTR [edx+eax+8]
	mov	DWORD PTR [ecx], edx

; 3566 : 						hRes = S_OK;

	mov	DWORD PTR _hRes$[ebp], 0

; 3567 : 						break;

	jmp	SHORT $L92146
$L92153:

; 3568 : 					}
; 3569 : 				}

	jmp	SHORT $L92150
$L92146:

; 3570 : 			}
; 3571 : 			// if cache is empty or name not in cache or parameter names are requested,
; 3572 : 			// delegate to ITypeInfo::GetIDsOfNames
; 3573 : 			if (FAILED(hRes))

	cmp	DWORD PTR _hRes$[ebp], 0
	jge	SHORT $L92144

; 3574 : 			{
; 3575 : 				hRes = m_pInfo->GetIDsOfNames(rgszNames, cNames, rgdispid);

	mov	esi, esp
	mov	eax, DWORD PTR _rgdispid$[ebp]
	push	eax
	mov	ecx, DWORD PTR _cNames$[ebp]
	push	ecx
	mov	edx, DWORD PTR _rgszNames$[ebp]
	push	edx
	mov	eax, DWORD PTR _this$[ebp]
	mov	ecx, DWORD PTR [eax+12]
	mov	edx, DWORD PTR _this$[ebp]
	mov	eax, DWORD PTR [edx+12]
	mov	ecx, DWORD PTR [ecx]
	push	eax
	call	DWORD PTR [ecx+40]
	cmp	esi, esp
	call	__RTC_CheckEsp
	mov	DWORD PTR _hRes$[ebp], eax
$L92144:

; 3576 : 			}
; 3577 : 		}
; 3578 : 		return hRes;

	mov	eax, DWORD PTR _hRes$[ebp]

; 3579 : 	}

	pop	esi
	add	esp, 16					; 00000010H
	cmp	ebp, esp
	call	__RTC_CheckEsp
	mov	esp, ebp
	pop	ebp
	ret	20					; 00000014H
?GetIDsOfNames@CComTypeInfoHolder@ATL@@QAEJABU_GUID@@PAPAGIKPAJ@Z ENDP ; ATL::CComTypeInfoHolder::GetIDsOfNames
; Function compile flags: /Odt /RTCsu
; File c:\program files\microsoft visual studio .net 2003\vc7\atlmfc\include\atlconv.h
_TEXT	ENDS
;	COMDAT ?ocslen@@YAHPBG@Z
_TEXT	SEGMENT
_x$ = 8							; size = 4
?ocslen@@YAHPBG@Z PROC NEAR				; ocslen, COMDAT

; 679  : 	inline int ocslen(LPCOLESTR x) throw() { return lstrlenW(x); }

	push	ebp
	mov	ebp, esp
	push	esi
	mov	esi, esp
	mov	eax, DWORD PTR _x$[ebp]
	push	eax
	call	DWORD PTR __imp__lstrlenW@4
	cmp	esi, esp
	call	__RTC_CheckEsp
	pop	esi
	cmp	ebp, esp
	call	__RTC_CheckEsp
	pop	ebp
	ret	0
?ocslen@@YAHPBG@Z ENDP					; ocslen
; Function compile flags: /Odt /RTCsu
; File c:\program files\microsoft visual studio .net 2003\vc7\atlmfc\include\atlcom.h
_TEXT	ENDS
;	COMDAT ?EnsureTI@CComTypeInfoHolder@ATL@@QAEJK@Z
_TEXT	SEGMENT
_hr$ = -8						; size = 4
_this$ = -4						; size = 4
_lcid$ = 8						; size = 4
?EnsureTI@CComTypeInfoHolder@ATL@@QAEJK@Z PROC NEAR	; ATL::CComTypeInfoHolder::EnsureTI, COMDAT
; _this$ = ecx

; 3520 : 	{

	push	ebp
	mov	ebp, esp
	sub	esp, 8
	mov	DWORD PTR [ebp-8], -858993460		; ccccccccH
	mov	DWORD PTR [ebp-4], -858993460		; ccccccccH
	mov	DWORD PTR _this$[ebp], ecx

; 3521 : 		HRESULT hr = S_OK;

	mov	DWORD PTR _hr$[ebp], 0

; 3522 : 		if (m_pInfo == NULL || m_pMap == NULL)

	mov	eax, DWORD PTR _this$[ebp]
	cmp	DWORD PTR [eax+12], 0
	je	SHORT $L92129
	mov	ecx, DWORD PTR _this$[ebp]
	cmp	DWORD PTR [ecx+20], 0
	jne	SHORT $L92128
$L92129:

; 3523 : 			hr = GetTI(lcid);

	mov	edx, DWORD PTR _lcid$[ebp]
	push	edx
	mov	ecx, DWORD PTR _this$[ebp]
	call	?GetTI@CComTypeInfoHolder@ATL@@QAEJK@Z	; ATL::CComTypeInfoHolder::GetTI
	mov	DWORD PTR _hr$[ebp], eax
$L92128:

; 3524 : 		return hr;

	mov	eax, DWORD PTR _hr$[ebp]

; 3525 : 	}

	add	esp, 8
	cmp	ebp, esp
	call	__RTC_CheckEsp
	mov	esp, ebp
	pop	ebp
	ret	4
?EnsureTI@CComTypeInfoHolder@ATL@@QAEJK@Z ENDP		; ATL::CComTypeInfoHolder::EnsureTI
_TEXT	ENDS
PUBLIC	?Invoke@CComTypeInfoHolder@ATL@@QAEJPAUIDispatch@@JABU_GUID@@KGPAUtagDISPPARAMS@@PAUtagVARIANT@@PAUtagEXCEPINFO@@PAI@Z ; ATL::CComTypeInfoHolder::Invoke
; Function compile flags: /Odt /RTCsu
;	COMDAT ?Invoke@?$IDispatchImpl@UISignature@@$1?IID_ISignature@@3U_GUID@@B$1?LIBID_XMLSIGNLib@@3U3@B$00$0A@VCComTypeInfoHolder@ATL@@@ATL@@UAGJJABU_GUID@@KGPAUtagDISPPARAMS@@PAUtagVARIANT@@PAUtagEXCEPINFO@@PAI@Z
_TEXT	SEGMENT
_this$ = 8						; size = 4
_dispidMember$ = 12					; size = 4
_riid$ = 16						; size = 4
_lcid$ = 20						; size = 4
_wFlags$ = 24						; size = 2
_pdispparams$ = 28					; size = 4
_pvarResult$ = 32					; size = 4
_pexcepinfo$ = 36					; size = 4
_puArgErr$ = 40						; size = 4
?Invoke@?$IDispatchImpl@UISignature@@$1?IID_ISignature@@3U_GUID@@B$1?LIBID_XMLSIGNLib@@3U3@B$00$0A@VCComTypeInfoHolder@ATL@@@ATL@@UAGJJABU_GUID@@KGPAUtagDISPPARAMS@@PAUtagVARIANT@@PAUtagEXCEPINFO@@PAI@Z PROC NEAR ; ATL::IDispatchImpl<ISignature,&IID_ISignature,&LIBID_XMLSIGNLib,1,0,ATL::CComTypeInfoHolder>::Invoke, COMDAT

; 4409 : 	{

	push	ebp
	mov	ebp, esp

; 4410 : 		return _tih.Invoke((IDispatch*)this, dispidMember, riid, lcid,
; 4411 : 		wFlags, pdispparams, pvarResult, pexcepinfo, puArgErr);

	mov	eax, DWORD PTR _puArgErr$[ebp]
	push	eax
	mov	ecx, DWORD PTR _pexcepinfo$[ebp]
	push	ecx
	mov	edx, DWORD PTR _pvarResult$[ebp]
	push	edx
	mov	eax, DWORD PTR _pdispparams$[ebp]
	push	eax
	mov	cx, WORD PTR _wFlags$[ebp]
	push	ecx
	mov	edx, DWORD PTR _lcid$[ebp]
	push	edx
	mov	eax, DWORD PTR _riid$[ebp]
	push	eax
	mov	ecx, DWORD PTR _dispidMember$[ebp]
	push	ecx
	mov	edx, DWORD PTR _this$[ebp]
	push	edx
	mov	ecx, OFFSET FLAT:?_tih@?$IDispatchImpl@UISignature@@$1?IID_ISignature@@3U_GUID@@B$1?LIBID_XMLSIGNLib@@3U3@B$00$0A@VCComTypeInfoHolder@ATL@@@ATL@@1VCComTypeInfoHolder@2@A
	call	?Invoke@CComTypeInfoHolder@ATL@@QAEJPAUIDispatch@@JABU_GUID@@KGPAUtagDISPPARAMS@@PAUtagVARIANT@@PAUtagEXCEPINFO@@PAI@Z ; ATL::CComTypeInfoHolder::Invoke

; 4412 : 	}

	cmp	ebp, esp
	call	__RTC_CheckEsp
	pop	ebp
	ret	36					; 00000024H
?Invoke@?$IDispatchImpl@UISignature@@$1?IID_ISignature@@3U_GUID@@B$1?LIBID_XMLSIGNLib@@3U3@B$00$0A@VCComTypeInfoHolder@ATL@@@ATL@@UAGJJABU_GUID@@KGPAUtagDISPPARAMS@@PAUtagVARIANT@@PAUtagEXCEPINFO@@PAI@Z ENDP ; ATL::IDispatchImpl<ISignature,&IID_ISignature,&LIBID_XMLSIGNLib,1,0,ATL::CComTypeInfoHolder>::Invoke
; Function compile flags: /Odt /RTCsu
_TEXT	ENDS
;	COMDAT ?Invoke@CComTypeInfoHolder@ATL@@QAEJPAUIDispatch@@JABU_GUID@@KGPAUtagDISPPARAMS@@PAUtagVARIANT@@PAUtagEXCEPINFO@@PAI@Z
_TEXT	SEGMENT
_hRes$ = -8						; size = 4
_this$ = -4						; size = 4
_p$ = 8							; size = 4
_dispidMember$ = 12					; size = 4
___formal$ = 16						; size = 4
_lcid$ = 20						; size = 4
_wFlags$ = 24						; size = 2
_pdispparams$ = 28					; size = 4
_pvarResult$ = 32					; size = 4
_pexcepinfo$ = 36					; size = 4
_puArgErr$ = 40						; size = 4
?Invoke@CComTypeInfoHolder@ATL@@QAEJPAUIDispatch@@JABU_GUID@@KGPAUtagDISPPARAMS@@PAUtagVARIANT@@PAUtagEXCEPINFO@@PAI@Z PROC NEAR ; ATL::CComTypeInfoHolder::Invoke, COMDAT
; _this$ = ecx

; 3584 : 	{

	push	ebp
	mov	ebp, esp
	sub	esp, 8
	push	esi
	mov	DWORD PTR [ebp-8], -858993460		; ccccccccH
	mov	DWORD PTR [ebp-4], -858993460		; ccccccccH
	mov	DWORD PTR _this$[ebp], ecx

; 3585 : 		HRESULT hRes = EnsureTI(lcid);

	mov	eax, DWORD PTR _lcid$[ebp]
	push	eax
	mov	ecx, DWORD PTR _this$[ebp]
	call	?EnsureTI@CComTypeInfoHolder@ATL@@QAEJK@Z ; ATL::CComTypeInfoHolder::EnsureTI
	mov	DWORD PTR _hRes$[ebp], eax

; 3586 : 		if (m_pInfo != NULL)

	mov	ecx, DWORD PTR _this$[ebp]
	cmp	DWORD PTR [ecx+12], 0
	je	SHORT $L92160

; 3587 : 			hRes = m_pInfo->Invoke(p, dispidMember, wFlags, pdispparams, pvarResult, pexcepinfo, puArgErr);

	mov	esi, esp
	mov	edx, DWORD PTR _puArgErr$[ebp]
	push	edx
	mov	eax, DWORD PTR _pexcepinfo$[ebp]
	push	eax
	mov	ecx, DWORD PTR _pvarResult$[ebp]
	push	ecx
	mov	edx, DWORD PTR _pdispparams$[ebp]
	push	edx
	mov	ax, WORD PTR _wFlags$[ebp]
	push	eax
	mov	ecx, DWORD PTR _dispidMember$[ebp]
	push	ecx
	mov	edx, DWORD PTR _p$[ebp]
	push	edx
	mov	eax, DWORD PTR _this$[ebp]
	mov	ecx, DWORD PTR [eax+12]
	mov	edx, DWORD PTR _this$[ebp]
	mov	eax, DWORD PTR [edx+12]
	mov	ecx, DWORD PTR [ecx]
	push	eax
	call	DWORD PTR [ecx+44]
	cmp	esi, esp
	call	__RTC_CheckEsp
	mov	DWORD PTR _hRes$[ebp], eax
$L92160:

; 3588 : 		return hRes;

	mov	eax, DWORD PTR _hRes$[ebp]

; 3589 : 	}

	pop	esi
	add	esp, 8
	cmp	ebp, esp
	call	__RTC_CheckEsp
	mov	esp, ebp
	pop	ebp
	ret	36					; 00000024H
?Invoke@CComTypeInfoHolder@ATL@@QAEJPAUIDispatch@@JABU_GUID@@KGPAUtagDISPPARAMS@@PAUtagVARIANT@@PAUtagEXCEPINFO@@PAI@Z ENDP ; ATL::CComTypeInfoHolder::Invoke
; Function compile flags: /Odt /RTCsu
_TEXT	ENDS
;	COMDAT ?AddRef@?$CComObject@VCSignature@@@ATL@@UAGKXZ
_TEXT	SEGMENT
_this$ = 8						; size = 4
?AddRef@?$CComObject@VCSignature@@@ATL@@UAGKXZ PROC NEAR ; ATL::CComObject<CSignature>::AddRef, COMDAT

; 2506 : 	STDMETHOD_(ULONG, AddRef)() {return InternalAddRef();}

	push	ebp
	mov	ebp, esp
	mov	ecx, DWORD PTR _this$[ebp]
	add	ecx, 12					; 0000000cH
	call	?InternalAddRef@?$CComObjectRootEx@VCComSingleThreadModel@ATL@@@ATL@@QAEKXZ ; ATL::CComObjectRootEx<ATL::CComSingleThreadModel>::InternalAddRef
	cmp	ebp, esp
	call	__RTC_CheckEsp
	pop	ebp
	ret	4
?AddRef@?$CComObject@VCSignature@@@ATL@@UAGKXZ ENDP	; ATL::CComObject<CSignature>::AddRef
; Function compile flags: /Odt /RTCsu
_TEXT	ENDS
;	COMDAT ?Release@?$CComObject@VCSignature@@@ATL@@UAGKXZ
_TEXT	SEGMENT
tv74 = -16						; size = 4
$T206324 = -12						; size = 4
$T206323 = -8						; size = 4
_l$ = -4						; size = 4
_this$ = 8						; size = 4
?Release@?$CComObject@VCSignature@@@ATL@@UAGKXZ PROC NEAR ; ATL::CComObject<CSignature>::Release, COMDAT

; 2508 : 	{

	push	ebp
	mov	ebp, esp
	sub	esp, 16					; 00000010H
	push	esi
	mov	eax, -858993460				; ccccccccH
	mov	DWORD PTR [ebp-16], eax
	mov	DWORD PTR [ebp-12], eax
	mov	DWORD PTR [ebp-8], eax
	mov	DWORD PTR [ebp-4], eax

; 2509 : 		ULONG l = InternalRelease();

	mov	ecx, DWORD PTR _this$[ebp]
	add	ecx, 12					; 0000000cH
	call	?InternalRelease@?$CComObjectRootEx@VCComSingleThreadModel@ATL@@@ATL@@QAEKXZ ; ATL::CComObjectRootEx<ATL::CComSingleThreadModel>::InternalRelease
	mov	DWORD PTR _l$[ebp], eax

; 2510 : 		if (l == 0)

	cmp	DWORD PTR _l$[ebp], 0
	jne	SHORT $L203880

; 2511 : 			delete this;

	mov	eax, DWORD PTR _this$[ebp]
	mov	DWORD PTR $T206324[ebp], eax
	mov	ecx, DWORD PTR $T206324[ebp]
	mov	DWORD PTR $T206323[ebp], ecx
	cmp	DWORD PTR $T206323[ebp], 0
	je	SHORT $L206325
	mov	esi, esp
	push	1
	mov	edx, DWORD PTR $T206323[ebp]
	mov	eax, DWORD PTR [edx]
	mov	ecx, DWORD PTR $T206323[ebp]
	call	DWORD PTR [eax+900]
	cmp	esi, esp
	call	__RTC_CheckEsp
	mov	DWORD PTR tv74[ebp], eax
	jmp	SHORT $L203880
$L206325:
	mov	DWORD PTR tv74[ebp], 0
$L203880:

; 2512 : 		return l;

	mov	eax, DWORD PTR _l$[ebp]

; 2513 : 	}

	pop	esi
	add	esp, 16					; 00000010H
	cmp	ebp, esp
	call	__RTC_CheckEsp
	mov	esp, ebp
	pop	ebp
	ret	4
?Release@?$CComObject@VCSignature@@@ATL@@UAGKXZ ENDP	; ATL::CComObject<CSignature>::Release
_TEXT	ENDS
PUBLIC	?_InternalQueryInterface@CSignature@@QAEJABU_GUID@@PAPAX@Z ; CSignature::_InternalQueryInterface
; Function compile flags: /Odt /RTCsu
;	COMDAT ?QueryInterface@?$CComObject@VCSignature@@@ATL@@UAGJABU_GUID@@PAPAX@Z
_TEXT	SEGMENT
_this$ = 8						; size = 4
_iid$ = 12						; size = 4
_ppvObject$ = 16					; size = 4
?QueryInterface@?$CComObject@VCSignature@@@ATL@@UAGJABU_GUID@@PAPAX@Z PROC NEAR ; ATL::CComObject<CSignature>::QueryInterface, COMDAT

; 2516 : 	{return _InternalQueryInterface(iid, ppvObject);}

	push	ebp
	mov	ebp, esp
	mov	eax, DWORD PTR _ppvObject$[ebp]
	push	eax
	mov	ecx, DWORD PTR _iid$[ebp]
	push	ecx
	mov	ecx, DWORD PTR _this$[ebp]
	call	?_InternalQueryInterface@CSignature@@QAEJABU_GUID@@PAPAX@Z ; CSignature::_InternalQueryInterface
	cmp	ebp, esp
	call	__RTC_CheckEsp
	pop	ebp
	ret	12					; 0000000cH
?QueryInterface@?$CComObject@VCSignature@@@ATL@@UAGJABU_GUID@@PAPAX@Z ENDP ; ATL::CComObject<CSignature>::QueryInterface
_TEXT	ENDS
PUBLIC	?_GetEntries@CSignature@@SGPBU_ATL_INTMAP_ENTRY@ATL@@XZ ; CSignature::_GetEntries
; Function compile flags: /Odt /RTCsu
; File c:\activex\xmlsign\signature.h
;	COMDAT ?_InternalQueryInterface@CSignature@@QAEJABU_GUID@@PAPAX@Z
_TEXT	SEGMENT
_this$ = -4						; size = 4
_iid$ = 8						; size = 4
_ppvObject$ = 12					; size = 4
?_InternalQueryInterface@CSignature@@QAEJABU_GUID@@PAPAX@Z PROC NEAR ; CSignature::_InternalQueryInterface, COMDAT
; _this$ = ecx

; 304  : BEGIN_COM_MAP(CSignature)

	push	ebp
	mov	ebp, esp
	push	ecx
	mov	DWORD PTR [ebp-4], -858993460		; ccccccccH
	mov	DWORD PTR _this$[ebp], ecx
	mov	eax, DWORD PTR _ppvObject$[ebp]
	push	eax
	mov	ecx, DWORD PTR _iid$[ebp]
	push	ecx
	call	?_GetEntries@CSignature@@SGPBU_ATL_INTMAP_ENTRY@ATL@@XZ ; CSignature::_GetEntries
	push	eax
	mov	edx, DWORD PTR _this$[ebp]
	push	edx
	call	?InternalQueryInterface@CComObjectRootBase@ATL@@SGJPAXPBU_ATL_INTMAP_ENTRY@2@ABU_GUID@@PAPAX@Z ; ATL::CComObjectRootBase::InternalQueryInterface
	add	esp, 4
	cmp	ebp, esp
	call	__RTC_CheckEsp
	mov	esp, ebp
	pop	ebp
	ret	8
?_InternalQueryInterface@CSignature@@QAEJABU_GUID@@PAPAX@Z ENDP ; CSignature::_InternalQueryInterface
_TEXT	ENDS
PUBLIC	__GUID_b722bccb_4e68_101b_a2bc_00aa00404770
PUBLIC	__GUID_fc4801a3_2ba9_11cf_a229_00aa003d7352
PUBLIC	?_entries@?1??_GetEntries@CSignature@@SGPBU_ATL_INTMAP_ENTRY@ATL@@XZ@4QBU34@B ; `CSignature::_GetEntries'::`2'::_entries
PUBLIC	??_C@_0L@KEHCEMNB@CSignature?$AA@		; `string'
PUBLIC	__GUID_62ec64dc_b26d_46ce_9e33_24289bcf5f63
PUBLIC	__GUID_00020400_0000_0000_c000_000000000046
;	COMDAT ?_entries@?1??_GetEntries@CSignature@@SGPBU_ATL_INTMAP_ENTRY@ATL@@XZ@4QBU34@B
CONST	SEGMENT
?_entries@?1??_GetEntries@CSignature@@SGPBU_ATL_INTMAP_ENTRY@ATL@@XZ@4QBU34@B DD 00H ; `CSignature::_GetEntries'::`2'::_entries
	DD	FLAT:??_C@_0L@KEHCEMNB@CSignature?$AA@
	DD	00H
	DD	FLAT:__GUID_62ec64dc_b26d_46ce_9e33_24289bcf5f63
	DD	00H
	DD	01H
	DD	FLAT:__GUID_00020400_0000_0000_c000_000000000046
	DD	00H
	DD	01H
	DD	FLAT:__GUID_b722bccb_4e68_101b_a2bc_00aa00404770
	DD	04H
	DD	01H
	DD	FLAT:__GUID_fc4801a3_2ba9_11cf_a229_00aa003d7352
	DD	08H
	DD	01H
	DD	00H
	DD	00H
	DD	00H
CONST	ENDS
;	COMDAT ??_C@_0L@KEHCEMNB@CSignature?$AA@
CONST	SEGMENT
??_C@_0L@KEHCEMNB@CSignature?$AA@ DB 'CSignature', 00H	; `string'
CONST	ENDS
;	COMDAT __GUID_62ec64dc_b26d_46ce_9e33_24289bcf5f63
CONST	SEGMENT
__GUID_62ec64dc_b26d_46ce_9e33_24289bcf5f63 DD 062ec64dcH
	DW	0b26dH
	DW	046ceH
	DB	09eH
	DB	033H
	DB	024H
	DB	028H
	DB	09bH
	DB	0cfH
	DB	05fH
	DB	063H
CONST	ENDS
;	COMDAT __GUID_00020400_0000_0000_c000_000000000046
CONST	SEGMENT
__GUID_00020400_0000_0000_c000_000000000046 DD 020400H
	DW	00H
	DW	00H
	DB	0c0H
	DB	00H
	DB	00H
	DB	00H
	DB	00H
	DB	00H
	DB	00H
	DB	046H
CONST	ENDS
;	COMDAT __GUID_b722bccb_4e68_101b_a2bc_00aa00404770
CONST	SEGMENT
__GUID_b722bccb_4e68_101b_a2bc_00aa00404770 DD 0b722bccbH
	DW	04e68H
	DW	0101bH
	DB	0a2H
	DB	0bcH
	DB	00H
	DB	0aaH
	DB	00H
	DB	040H
	DB	047H
	DB	070H
CONST	ENDS
;	COMDAT __GUID_fc4801a3_2ba9_11cf_a229_00aa003d7352
CONST	SEGMENT
__GUID_fc4801a3_2ba9_11cf_a229_00aa003d7352 DD 0fc4801a3H
	DW	02ba9H
	DW	011cfH
	DB	0a2H
	DB	029H
	DB	00H
	DB	0aaH
	DB	00H
	DB	03dH
	DB	073H
	DB	052H
; Function compile flags: /Odt /RTCsu
CONST	ENDS
;	COMDAT ?_GetEntries@CSignature@@SGPBU_ATL_INTMAP_ENTRY@ATL@@XZ
_TEXT	SEGMENT
?_GetEntries@CSignature@@SGPBU_ATL_INTMAP_ENTRY@ATL@@XZ PROC NEAR ; CSignature::_GetEntries, COMDAT

; 304  : BEGIN_COM_MAP(CSignature)

	push	ebp
	mov	ebp, esp

; 305  : 	COM_INTERFACE_ENTRY(ISignature)
; 306  : 	COM_INTERFACE_ENTRY(IDispatch)
; 307  : 	COM_INTERFACE_ENTRY(IOleCommandTarget)
; 308  : 	COM_INTERFACE_ENTRY(IObjectWithSite)
; 309  : END_COM_MAP()

	mov	eax, OFFSET FLAT:?_entries@?1??_GetEntries@CSignature@@SGPBU_ATL_INTMAP_ENTRY@ATL@@XZ@4QBU34@B+12
	pop	ebp
	ret	0
?_GetEntries@CSignature@@SGPBU_ATL_INTMAP_ENTRY@ATL@@XZ ENDP ; CSignature::_GetEntries
_TEXT	ENDS
PUBLIC	??0?$CComObjectRootEx@VCComSingleThreadModel@ATL@@@ATL@@QAE@XZ ; ATL::CComObjectRootEx<ATL::CComSingleThreadModel>::CComObjectRootEx<ATL::CComSingleThreadModel>
PUBLIC	?AddRef@?$CComAggObject@VCSignature@@@ATL@@UAGKXZ ; ATL::CComAggObject<CSignature>::AddRef
PUBLIC	?Release@?$CComAggObject@VCSignature@@@ATL@@UAGKXZ ; ATL::CComAggObject<CSignature>::Release
PUBLIC	?QueryInterface@?$CComAggObject@VCSignature@@@ATL@@UAGJABU_GUID@@PAPAX@Z ; ATL::CComAggObject<CSignature>::QueryInterface
PUBLIC	??0?$CComContainedObject@VCSignature@@@ATL@@QAE@PAX@Z ; ATL::CComContainedObject<CSignature>::CComContainedObject<CSignature>
PUBLIC	??1?$CComContainedObject@VCSignature@@@ATL@@QAE@XZ ; ATL::CComContainedObject<CSignature>::~CComContainedObject<CSignature>
PUBLIC	??_7?$CComAggObject@VCSignature@@@ATL@@6B@	; ATL::CComAggObject<CSignature>::`vftable'
PUBLIC	??_G?$CComAggObject@VCSignature@@@ATL@@UAEPAXI@Z ; ATL::CComAggObject<CSignature>::`scalar deleting destructor'
EXTRN	??_E?$CComAggObject@VCSignature@@@ATL@@UAEPAXI@Z:NEAR ; ATL::CComAggObject<CSignature>::`vector deleting destructor'
;	COMDAT xdata$x
; File c:\program files\microsoft visual studio .net 2003\vc7\atlmfc\include\atlcom.h
xdata$x	SEGMENT
$T206339 DD	0ffffffffH
	DD	FLAT:$L206335
$T206337 DD	019930520H
	DD	01H
	DD	FLAT:$T206339
	DD	2 DUP(00H)
	DD	2 DUP(00H)
xdata$x	ENDS
;	COMDAT ??_7?$CComAggObject@VCSignature@@@ATL@@6B@
CONST	SEGMENT
??_7?$CComAggObject@VCSignature@@@ATL@@6B@ DD FLAT:?QueryInterface@?$CComAggObject@VCSignature@@@ATL@@UAGJABU_GUID@@PAPAX@Z ; ATL::CComAggObject<CSignature>::`vftable'
	DD	FLAT:?AddRef@?$CComAggObject@VCSignature@@@ATL@@UAGKXZ
	DD	FLAT:?Release@?$CComAggObject@VCSignature@@@ATL@@UAGKXZ
	DD	FLAT:??_E?$CComAggObject@VCSignature@@@ATL@@UAEPAXI@Z
; Function compile flags: /Odt /RTCsu
CONST	ENDS
;	COMDAT ??0?$CComAggObject@VCSignature@@@ATL@@QAE@PAX@Z
_TEXT	SEGMENT
_this$ = -16						; size = 4
__$EHRec$ = -12						; size = 12
_pv$ = 8						; size = 4
??0?$CComAggObject@VCSignature@@@ATL@@QAE@PAX@Z PROC NEAR ; ATL::CComAggObject<CSignature>::CComAggObject<CSignature>, COMDAT
; _this$ = ecx

; 2848 : 	{

	push	ebp
	mov	ebp, esp
	push	-1
	push	__ehhandler$??0?$CComAggObject@VCSignature@@@ATL@@QAE@PAX@Z
	mov	eax, DWORD PTR fs:__except_list
	push	eax
	mov	DWORD PTR fs:__except_list, esp
	push	ecx
	push	esi
	mov	DWORD PTR [ebp-16], -858993460		; ccccccccH
	mov	DWORD PTR _this$[ebp], ecx
	mov	ecx, DWORD PTR _this$[ebp]
	call	??0IUnknown@@QAE@XZ
	mov	ecx, DWORD PTR _this$[ebp]
	add	ecx, 4
	call	??0?$CComObjectRootEx@VCComSingleThreadModel@ATL@@@ATL@@QAE@XZ
	mov	eax, DWORD PTR _this$[ebp]
	mov	DWORD PTR [eax], OFFSET FLAT:??_7?$CComAggObject@VCSignature@@@ATL@@6B@
	mov	ecx, DWORD PTR _pv$[ebp]
	push	ecx
	mov	ecx, DWORD PTR _this$[ebp]
	add	ecx, 8
	call	??0?$CComContainedObject@VCSignature@@@ATL@@QAE@PAX@Z ; ATL::CComContainedObject<CSignature>::CComContainedObject<CSignature>
	mov	DWORD PTR __$EHRec$[ebp+8], 0

; 2849 : 		_pAtlModule->Lock();

	mov	edx, DWORD PTR ?_pAtlModule@ATL@@3PAVCAtlModule@1@A ; ATL::_pAtlModule
	mov	eax, DWORD PTR [edx]
	mov	esi, esp
	mov	ecx, DWORD PTR ?_pAtlModule@ATL@@3PAVCAtlModule@1@A ; ATL::_pAtlModule
	call	DWORD PTR [eax+4]
	cmp	esi, esp
	call	__RTC_CheckEsp

; 2850 : 	}

	mov	DWORD PTR __$EHRec$[ebp+8], -1
	mov	eax, DWORD PTR _this$[ebp]
	mov	ecx, DWORD PTR __$EHRec$[ebp]
	mov	DWORD PTR fs:__except_list, ecx
	pop	esi
	add	esp, 16					; 00000010H
	cmp	ebp, esp
	call	__RTC_CheckEsp
	mov	esp, ebp
	pop	ebp
	ret	4
_TEXT	ENDS
;	COMDAT text$x
text$x	SEGMENT
$L206335:
	mov	ecx, DWORD PTR _this$[ebp]
	add	ecx, 8
	jmp	??1?$CComContainedObject@VCSignature@@@ATL@@QAE@XZ
__ehhandler$??0?$CComAggObject@VCSignature@@@ATL@@QAE@PAX@Z:
	mov	eax, OFFSET FLAT:$T206337
	jmp	___CxxFrameHandler
text$x	ENDS
??0?$CComAggObject@VCSignature@@@ATL@@QAE@PAX@Z ENDP	; ATL::CComAggObject<CSignature>::CComAggObject<CSignature>
; Function compile flags: /Odt /RTCsu
;	COMDAT ??0?$CComObjectRootEx@VCComSingleThreadModel@ATL@@@ATL@@QAE@XZ
_TEXT	SEGMENT
_this$ = -4						; size = 4
??0?$CComObjectRootEx@VCComSingleThreadModel@ATL@@@ATL@@QAE@XZ PROC NEAR ; ATL::CComObjectRootEx<ATL::CComSingleThreadModel>::CComObjectRootEx<ATL::CComSingleThreadModel>, COMDAT
; _this$ = ecx
	push	ebp
	mov	ebp, esp
	push	ecx
	mov	DWORD PTR [ebp-4], -858993460		; ccccccccH
	mov	DWORD PTR _this$[ebp], ecx
	mov	ecx, DWORD PTR _this$[ebp]
	call	??0CComObjectRootBase@ATL@@QAE@XZ	; ATL::CComObjectRootBase::CComObjectRootBase
	mov	eax, DWORD PTR _this$[ebp]
	add	esp, 4
	cmp	ebp, esp
	call	__RTC_CheckEsp
	mov	esp, ebp
	pop	ebp
	ret	0
??0?$CComObjectRootEx@VCComSingleThreadModel@ATL@@@ATL@@QAE@XZ ENDP ; ATL::CComObjectRootEx<ATL::CComSingleThreadModel>::CComObjectRootEx<ATL::CComSingleThreadModel>
; Function compile flags: /Odt /RTCsu
_TEXT	ENDS
;	COMDAT ?FinalConstruct@?$CComAggObject@VCSignature@@@ATL@@QAEJXZ
_TEXT	SEGMENT
_this$ = -4						; size = 4
?FinalConstruct@?$CComAggObject@VCSignature@@@ATL@@QAEJXZ PROC NEAR ; ATL::CComAggObject<CSignature>::FinalConstruct, COMDAT
; _this$ = ecx

; 2854 : 	{

	push	ebp
	mov	ebp, esp
	push	ecx
	mov	DWORD PTR [ebp-4], -858993460		; ccccccccH
	mov	DWORD PTR _this$[ebp], ecx

; 2855 : 		CComObjectRootEx<contained::_ThreadModel::ThreadModelNoCS>::FinalConstruct();

	mov	ecx, DWORD PTR _this$[ebp]
	add	ecx, 4
	call	?FinalConstruct@CComObjectRootBase@ATL@@QAEJXZ ; ATL::CComObjectRootBase::FinalConstruct

; 2856 : 		return m_contained.FinalConstruct();

	mov	ecx, DWORD PTR _this$[ebp]
	add	ecx, 20					; 00000014H
	call	?FinalConstruct@CComObjectRootBase@ATL@@QAEJXZ ; ATL::CComObjectRootBase::FinalConstruct

; 2857 : 	}

	add	esp, 4
	cmp	ebp, esp
	call	__RTC_CheckEsp
	mov	esp, ebp
	pop	ebp
	ret	0
?FinalConstruct@?$CComAggObject@VCSignature@@@ATL@@QAEJXZ ENDP ; ATL::CComAggObject<CSignature>::FinalConstruct
; Function compile flags: /Odt /RTCsu
_TEXT	ENDS
;	COMDAT ?AddRef@?$CComAggObject@VCSignature@@@ATL@@UAGKXZ
_TEXT	SEGMENT
_this$ = 8						; size = 4
?AddRef@?$CComAggObject@VCSignature@@@ATL@@UAGKXZ PROC NEAR ; ATL::CComAggObject<CSignature>::AddRef, COMDAT

; 2875 : 	STDMETHOD_(ULONG, AddRef)() {return InternalAddRef();}

	push	ebp
	mov	ebp, esp
	mov	ecx, DWORD PTR _this$[ebp]
	add	ecx, 4
	call	?InternalAddRef@?$CComObjectRootEx@VCComSingleThreadModel@ATL@@@ATL@@QAEKXZ ; ATL::CComObjectRootEx<ATL::CComSingleThreadModel>::InternalAddRef
	cmp	ebp, esp
	call	__RTC_CheckEsp
	pop	ebp
	ret	4
?AddRef@?$CComAggObject@VCSignature@@@ATL@@UAGKXZ ENDP	; ATL::CComAggObject<CSignature>::AddRef
; Function compile flags: /Odt /RTCsu
_TEXT	ENDS
;	COMDAT ?Release@?$CComAggObject@VCSignature@@@ATL@@UAGKXZ
_TEXT	SEGMENT
tv74 = -16						; size = 4
$T206351 = -12						; size = 4
$T206350 = -8						; size = 4
_l$ = -4						; size = 4
_this$ = 8						; size = 4
?Release@?$CComAggObject@VCSignature@@@ATL@@UAGKXZ PROC NEAR ; ATL::CComAggObject<CSignature>::Release, COMDAT

; 2877 : 	{

	push	ebp
	mov	ebp, esp
	sub	esp, 16					; 00000010H
	push	esi
	mov	eax, -858993460				; ccccccccH
	mov	DWORD PTR [ebp-16], eax
	mov	DWORD PTR [ebp-12], eax
	mov	DWORD PTR [ebp-8], eax
	mov	DWORD PTR [ebp-4], eax

; 2878 : 		ULONG l = InternalRelease();

	mov	ecx, DWORD PTR _this$[ebp]
	add	ecx, 4
	call	?InternalRelease@?$CComObjectRootEx@VCComSingleThreadModel@ATL@@@ATL@@QAEKXZ ; ATL::CComObjectRootEx<ATL::CComSingleThreadModel>::InternalRelease
	mov	DWORD PTR _l$[ebp], eax

; 2879 : 		if (l == 0)

	cmp	DWORD PTR _l$[ebp], 0
	jne	SHORT $L203896

; 2880 : 			delete this;

	mov	eax, DWORD PTR _this$[ebp]
	mov	DWORD PTR $T206351[ebp], eax
	mov	ecx, DWORD PTR $T206351[ebp]
	mov	DWORD PTR $T206350[ebp], ecx
	cmp	DWORD PTR $T206350[ebp], 0
	je	SHORT $L206352
	mov	esi, esp
	push	1
	mov	edx, DWORD PTR $T206350[ebp]
	mov	eax, DWORD PTR [edx]
	mov	ecx, DWORD PTR $T206350[ebp]
	call	DWORD PTR [eax+12]
	cmp	esi, esp
	call	__RTC_CheckEsp
	mov	DWORD PTR tv74[ebp], eax
	jmp	SHORT $L203896
$L206352:
	mov	DWORD PTR tv74[ebp], 0
$L203896:

; 2881 : 		return l;

	mov	eax, DWORD PTR _l$[ebp]

; 2882 : 	}

	pop	esi
	add	esp, 16					; 00000010H
	cmp	ebp, esp
	call	__RTC_CheckEsp
	mov	esp, ebp
	pop	ebp
	ret	4
?Release@?$CComAggObject@VCSignature@@@ATL@@UAGKXZ ENDP	; ATL::CComAggObject<CSignature>::Release
; Function compile flags: /Odt /RTCsu
_TEXT	ENDS
;	COMDAT ?QueryInterface@?$CComAggObject@VCSignature@@@ATL@@UAGJABU_GUID@@PAPAX@Z
_TEXT	SEGMENT
_hRes$ = -4						; size = 4
_this$ = 8						; size = 4
_iid$ = 12						; size = 4
_ppvObject$ = 16					; size = 4
?QueryInterface@?$CComAggObject@VCSignature@@@ATL@@UAGJABU_GUID@@PAPAX@Z PROC NEAR ; ATL::CComAggObject<CSignature>::QueryInterface, COMDAT

; 2884 : 	{

	push	ebp
	mov	ebp, esp
	push	ecx
	push	esi
	mov	DWORD PTR [ebp-4], -858993460		; ccccccccH

; 2885 : 		ATLASSERT(ppvObject != NULL);

	cmp	DWORD PTR _ppvObject$[ebp], 0
	jne	SHORT $L206356
	push	OFFSET FLAT:??_C@_0P@BMHEGBAP@ppvObject?5?$CB?$DN?50?$AA@
	push	0
	push	2885					; 00000b45H
	push	OFFSET FLAT:??_C@_0EP@FBJOMLAB@C?3?2Program?5Files?2Microsoft?5Visua@
	push	2
	call	__CrtDbgReport
	add	esp, 20					; 00000014H
	cmp	eax, 1
	jne	SHORT $L206356
	int	3
$L206356:

; 2886 : 		if (ppvObject == NULL)

	cmp	DWORD PTR _ppvObject$[ebp], 0
	jne	SHORT $L203902

; 2887 : 			return E_POINTER;

	mov	eax, -2147467261			; 80004003H
	jmp	SHORT $L203900
$L203902:

; 2888 : 		*ppvObject = NULL;

	mov	ecx, DWORD PTR _ppvObject$[ebp]
	mov	DWORD PTR [ecx], 0

; 2889 : 
; 2890 : 		HRESULT hRes = S_OK;

	mov	DWORD PTR _hRes$[ebp], 0

; 2891 : 		if (InlineIsEqualUnknown(iid))

	mov	edx, DWORD PTR _iid$[ebp]
	push	edx
	call	?InlineIsEqualUnknown@ATL@@YGHABU_GUID@@@Z ; ATL::InlineIsEqualUnknown
	test	eax, eax
	je	SHORT $L203906

; 2892 : 		{
; 2893 : 			*ppvObject = (void*)(IUnknown*)this;

	mov	eax, DWORD PTR _ppvObject$[ebp]
	mov	ecx, DWORD PTR _this$[ebp]
	mov	DWORD PTR [eax], ecx

; 2894 : 			AddRef();

	mov	edx, DWORD PTR _this$[ebp]
	mov	eax, DWORD PTR [edx]
	mov	esi, esp
	mov	ecx, DWORD PTR _this$[ebp]
	push	ecx
	call	DWORD PTR [eax+4]
	cmp	esi, esp
	call	__RTC_CheckEsp

; 2895 : #ifdef _ATL_DEBUG_INTERFACES
; 2896 : 			_AtlDebugInterfacesModule.AddThunk((IUnknown**)ppvObject, (LPCTSTR)contained::_GetEntries()[-1].dw, iid);
; 2897 : #endif // _ATL_DEBUG_INTERFACES
; 2898 : 		}
; 2899 : 		else

	jmp	SHORT $L203909
$L203906:

; 2900 : 			hRes = m_contained._InternalQueryInterface(iid, ppvObject);

	mov	edx, DWORD PTR _ppvObject$[ebp]
	push	edx
	mov	eax, DWORD PTR _iid$[ebp]
	push	eax
	mov	ecx, DWORD PTR _this$[ebp]
	add	ecx, 8
	call	?_InternalQueryInterface@CSignature@@QAEJABU_GUID@@PAPAX@Z ; CSignature::_InternalQueryInterface
	mov	DWORD PTR _hRes$[ebp], eax
$L203909:

; 2901 : 		return hRes;

	mov	eax, DWORD PTR _hRes$[ebp]
$L203900:

; 2902 : 	}

	pop	esi
	add	esp, 4
	cmp	ebp, esp
	call	__RTC_CheckEsp
	mov	esp, ebp
	pop	ebp
	ret	12					; 0000000cH
?QueryInterface@?$CComAggObject@VCSignature@@@ATL@@UAGJABU_GUID@@PAPAX@Z ENDP ; ATL::CComAggObject<CSignature>::QueryInterface
_TEXT	ENDS
PUBLIC	??1?$CComObject@VCSignature@@@ATL@@UAE@XZ	; ATL::CComObject<CSignature>::~CComObject<CSignature>
; Function compile flags: /Odt /RTCsu
;	COMDAT ??_G?$CComObject@VCSignature@@@ATL@@UAEPAXI@Z
_TEXT	SEGMENT
_this$ = -4						; size = 4
___flags$ = 8						; size = 4
??_G?$CComObject@VCSignature@@@ATL@@UAEPAXI@Z PROC NEAR	; ATL::CComObject<CSignature>::`scalar deleting destructor', COMDAT
; _this$ = ecx
	push	ebp
	mov	ebp, esp
	push	ecx
	mov	DWORD PTR [ebp-4], -858993460		; ccccccccH
	mov	DWORD PTR _this$[ebp], ecx
	mov	ecx, DWORD PTR _this$[ebp]
	call	??1?$CComObject@VCSignature@@@ATL@@UAE@XZ ; ATL::CComObject<CSignature>::~CComObject<CSignature>
	mov	eax, DWORD PTR ___flags$[ebp]
	and	eax, 1
	je	SHORT $L203922
	mov	ecx, DWORD PTR _this$[ebp]
	push	ecx
	call	??3@YAXPAX@Z				; operator delete
	add	esp, 4
$L203922:
	mov	eax, DWORD PTR _this$[ebp]
	add	esp, 4
	cmp	ebp, esp
	call	__RTC_CheckEsp
	mov	esp, ebp
	pop	ebp
	ret	4
??_G?$CComObject@VCSignature@@@ATL@@UAEPAXI@Z ENDP	; ATL::CComObject<CSignature>::`scalar deleting destructor'
_TEXT	ENDS
EXTRN	??1CSignature@@QAE@XZ:NEAR			; CSignature::~CSignature
; Function compile flags: /Odt /RTCsu
;	COMDAT ??1?$CComObject@VCSignature@@@ATL@@UAE@XZ
_TEXT	SEGMENT
_this$ = -4						; size = 4
??1?$CComObject@VCSignature@@@ATL@@UAE@XZ PROC NEAR	; ATL::CComObject<CSignature>::~CComObject<CSignature>, COMDAT
; _this$ = ecx

; 2496 : 	{

	push	ebp
	mov	ebp, esp
	push	ecx
	push	esi
	mov	DWORD PTR [ebp-4], -858993460		; ccccccccH
	mov	DWORD PTR _this$[ebp], ecx
	mov	eax, DWORD PTR _this$[ebp]
	mov	DWORD PTR [eax], OFFSET FLAT:??_7?$CComObject@VCSignature@@@ATL@@6B?$IDispatchImpl@UISignature@@$1?IID_ISignature@@3U_GUID@@B$1?LIBID_XMLSIGNLib@@3U3@B$00$0A@VCComTypeInfoHolder@ATL@@@1@@
	mov	ecx, DWORD PTR _this$[ebp]
	mov	DWORD PTR [ecx+4], OFFSET FLAT:??_7?$CComObject@VCSignature@@@ATL@@6BIOleCommandTarget@@@
	mov	edx, DWORD PTR _this$[ebp]
	mov	DWORD PTR [edx+8], OFFSET FLAT:??_7?$CComObject@VCSignature@@@ATL@@6BIObjectWithSite@@@

; 2497 : 		m_dwRef = -(LONG_MAX/2);

	mov	eax, DWORD PTR _this$[ebp]
	mov	DWORD PTR [eax+12], -1073741823		; c0000001H

; 2498 : 		FinalRelease();

	mov	ecx, DWORD PTR _this$[ebp]
	add	ecx, 12					; 0000000cH
	call	?FinalRelease@CComObjectRootBase@ATL@@QAEXXZ ; ATL::CComObjectRootBase::FinalRelease

; 2499 : #ifdef _ATL_DEBUG_INTERFACES
; 2500 : 		_AtlDebugInterfacesModule.DeleteNonAddRefThunk(_GetRawUnknown());
; 2501 : #endif
; 2502 : 		_pAtlModule->Unlock();

	mov	ecx, DWORD PTR ?_pAtlModule@ATL@@3PAVCAtlModule@1@A ; ATL::_pAtlModule
	mov	edx, DWORD PTR [ecx]
	mov	esi, esp
	mov	ecx, DWORD PTR ?_pAtlModule@ATL@@3PAVCAtlModule@1@A ; ATL::_pAtlModule
	call	DWORD PTR [edx+8]
	cmp	esi, esp
	call	__RTC_CheckEsp

; 2503 : 	}

	mov	ecx, DWORD PTR _this$[ebp]
	call	??1CSignature@@QAE@XZ			; CSignature::~CSignature
	pop	esi
	add	esp, 4
	cmp	ebp, esp
	call	__RTC_CheckEsp
	mov	esp, ebp
	pop	ebp
	ret	0
??1?$CComObject@VCSignature@@@ATL@@UAE@XZ ENDP		; ATL::CComObject<CSignature>::~CComObject<CSignature>
_TEXT	ENDS
PUBLIC	??1?$CComAggObject@VCSignature@@@ATL@@UAE@XZ	; ATL::CComAggObject<CSignature>::~CComAggObject<CSignature>
; Function compile flags: /Odt /RTCsu
;	COMDAT ??_G?$CComAggObject@VCSignature@@@ATL@@UAEPAXI@Z
_TEXT	SEGMENT
_this$ = -4						; size = 4
___flags$ = 8						; size = 4
??_G?$CComAggObject@VCSignature@@@ATL@@UAEPAXI@Z PROC NEAR ; ATL::CComAggObject<CSignature>::`scalar deleting destructor', COMDAT
; _this$ = ecx
	push	ebp
	mov	ebp, esp
	push	ecx
	mov	DWORD PTR [ebp-4], -858993460		; ccccccccH
	mov	DWORD PTR _this$[ebp], ecx
	mov	ecx, DWORD PTR _this$[ebp]
	call	??1?$CComAggObject@VCSignature@@@ATL@@UAE@XZ ; ATL::CComAggObject<CSignature>::~CComAggObject<CSignature>
	mov	eax, DWORD PTR ___flags$[ebp]
	and	eax, 1
	je	SHORT $L203925
	mov	ecx, DWORD PTR _this$[ebp]
	push	ecx
	call	??3@YAXPAX@Z				; operator delete
	add	esp, 4
$L203925:
	mov	eax, DWORD PTR _this$[ebp]
	add	esp, 4
	cmp	ebp, esp
	call	__RTC_CheckEsp
	mov	esp, ebp
	pop	ebp
	ret	4
??_G?$CComAggObject@VCSignature@@@ATL@@UAEPAXI@Z ENDP	; ATL::CComAggObject<CSignature>::`scalar deleting destructor'
_TEXT	ENDS
PUBLIC	?FinalRelease@?$CComAggObject@VCSignature@@@ATL@@QAEXXZ ; ATL::CComAggObject<CSignature>::FinalRelease
;	COMDAT xdata$x
xdata$x	SEGMENT
$T206369 DD	0ffffffffH
	DD	FLAT:$L206365
$T206367 DD	019930520H
	DD	01H
	DD	FLAT:$T206369
	DD	2 DUP(00H)
	DD	2 DUP(00H)
; Function compile flags: /Odt /RTCsu
xdata$x	ENDS
;	COMDAT ??1?$CComAggObject@VCSignature@@@ATL@@UAE@XZ
_TEXT	SEGMENT
_this$ = -16						; size = 4
__$EHRec$ = -12						; size = 12
??1?$CComAggObject@VCSignature@@@ATL@@UAE@XZ PROC NEAR	; ATL::CComAggObject<CSignature>::~CComAggObject<CSignature>, COMDAT
; _this$ = ecx

; 2866 : 	{

	push	ebp
	mov	ebp, esp
	push	-1
	push	__ehhandler$??1?$CComAggObject@VCSignature@@@ATL@@UAE@XZ
	mov	eax, DWORD PTR fs:__except_list
	push	eax
	mov	DWORD PTR fs:__except_list, esp
	push	ecx
	push	esi
	mov	DWORD PTR [ebp-16], -858993460		; ccccccccH
	mov	DWORD PTR _this$[ebp], ecx
	mov	eax, DWORD PTR _this$[ebp]
	mov	DWORD PTR [eax], OFFSET FLAT:??_7?$CComAggObject@VCSignature@@@ATL@@6B@
	mov	DWORD PTR __$EHRec$[ebp+8], 0

; 2867 : 		m_dwRef = -(LONG_MAX/2);

	mov	ecx, DWORD PTR _this$[ebp]
	mov	DWORD PTR [ecx+4], -1073741823		; c0000001H

; 2868 : 		FinalRelease();

	mov	ecx, DWORD PTR _this$[ebp]
	call	?FinalRelease@?$CComAggObject@VCSignature@@@ATL@@QAEXXZ ; ATL::CComAggObject<CSignature>::FinalRelease

; 2869 : #ifdef _ATL_DEBUG_INTERFACES
; 2870 : 		_AtlDebugInterfacesModule.DeleteNonAddRefThunk(this);
; 2871 : #endif
; 2872 : 		_pAtlModule->Unlock();

	mov	edx, DWORD PTR ?_pAtlModule@ATL@@3PAVCAtlModule@1@A ; ATL::_pAtlModule
	mov	eax, DWORD PTR [edx]
	mov	esi, esp
	mov	ecx, DWORD PTR ?_pAtlModule@ATL@@3PAVCAtlModule@1@A ; ATL::_pAtlModule
	call	DWORD PTR [eax+8]
	cmp	esi, esp
	call	__RTC_CheckEsp

; 2873 : 	}

	mov	DWORD PTR __$EHRec$[ebp+8], -1
	mov	ecx, DWORD PTR _this$[ebp]
	add	ecx, 8
	call	??1?$CComContainedObject@VCSignature@@@ATL@@QAE@XZ
	mov	ecx, DWORD PTR __$EHRec$[ebp]
	mov	DWORD PTR fs:__except_list, ecx
	pop	esi
	add	esp, 16					; 00000010H
	cmp	ebp, esp
	call	__RTC_CheckEsp
	mov	esp, ebp
	pop	ebp
	ret	0
_TEXT	ENDS
;	COMDAT text$x
text$x	SEGMENT
$L206365:
	mov	ecx, DWORD PTR _this$[ebp]
	add	ecx, 8
	jmp	??1?$CComContainedObject@VCSignature@@@ATL@@QAE@XZ
__ehhandler$??1?$CComAggObject@VCSignature@@@ATL@@UAE@XZ:
	mov	eax, OFFSET FLAT:$T206367
	jmp	___CxxFrameHandler
text$x	ENDS
??1?$CComAggObject@VCSignature@@@ATL@@UAE@XZ ENDP	; ATL::CComAggObject<CSignature>::~CComAggObject<CSignature>
; Function compile flags: /Odt /RTCsu
;	COMDAT ??1?$CComContainedObject@VCSignature@@@ATL@@QAE@XZ
_TEXT	SEGMENT
_this$ = -4						; size = 4
??1?$CComContainedObject@VCSignature@@@ATL@@QAE@XZ PROC NEAR ; ATL::CComContainedObject<CSignature>::~CComContainedObject<CSignature>, COMDAT
; _this$ = ecx
	push	ebp
	mov	ebp, esp
	push	ecx
	mov	DWORD PTR [ebp-4], -858993460		; ccccccccH
	mov	DWORD PTR _this$[ebp], ecx
	mov	ecx, DWORD PTR _this$[ebp]
	call	??1CSignature@@QAE@XZ			; CSignature::~CSignature
	add	esp, 4
	cmp	ebp, esp
	call	__RTC_CheckEsp
	mov	esp, ebp
	pop	ebp
	ret	0
??1?$CComContainedObject@VCSignature@@@ATL@@QAE@XZ ENDP	; ATL::CComContainedObject<CSignature>::~CComContainedObject<CSignature>
; Function compile flags: /Odt /RTCsu
_TEXT	ENDS
;	COMDAT ?FinalRelease@?$CComAggObject@VCSignature@@@ATL@@QAEXXZ
_TEXT	SEGMENT
_this$ = -4						; size = 4
?FinalRelease@?$CComAggObject@VCSignature@@@ATL@@QAEXXZ PROC NEAR ; ATL::CComAggObject<CSignature>::FinalRelease, COMDAT
; _this$ = ecx

; 2859 : 	{

	push	ebp
	mov	ebp, esp
	push	ecx
	mov	DWORD PTR [ebp-4], -858993460		; ccccccccH
	mov	DWORD PTR _this$[ebp], ecx

; 2860 : 		CComObjectRootEx<contained::_ThreadModel::ThreadModelNoCS>::FinalRelease();

	mov	ecx, DWORD PTR _this$[ebp]
	add	ecx, 4
	call	?FinalRelease@CComObjectRootBase@ATL@@QAEXXZ ; ATL::CComObjectRootBase::FinalRelease

; 2861 : 		m_contained.FinalRelease();

	mov	ecx, DWORD PTR _this$[ebp]
	add	ecx, 20					; 00000014H
	call	?FinalRelease@CComObjectRootBase@ATL@@QAEXXZ ; ATL::CComObjectRootBase::FinalRelease

; 2862 : 	}

	add	esp, 4
	cmp	ebp, esp
	call	__RTC_CheckEsp
	mov	esp, ebp
	pop	ebp
	ret	0
?FinalRelease@?$CComAggObject@VCSignature@@@ATL@@QAEXXZ ENDP ; ATL::CComAggObject<CSignature>::FinalRelease
_TEXT	ENDS
PUBLIC	?QueryInterface@?$CComContainedObject@VCSignature@@@ATL@@W3AGJABU_GUID@@PAPAX@Z ; [thunk]:ATL::CComContainedObject<CSignature>::QueryInterface`adjustor{4}'
PUBLIC	?AddRef@?$CComContainedObject@VCSignature@@@ATL@@W3AGKXZ ; [thunk]:ATL::CComContainedObject<CSignature>::AddRef`adjustor{4}'
PUBLIC	?Release@?$CComContainedObject@VCSignature@@@ATL@@W3AGKXZ ; [thunk]:ATL::CComContainedObject<CSignature>::Release`adjustor{4}'
PUBLIC	?QueryInterface@?$CComContainedObject@VCSignature@@@ATL@@W7AGJABU_GUID@@PAPAX@Z ; [thunk]:ATL::CComContainedObject<CSignature>::QueryInterface`adjustor{8}'
PUBLIC	?AddRef@?$CComContainedObject@VCSignature@@@ATL@@W7AGKXZ ; [thunk]:ATL::CComContainedObject<CSignature>::AddRef`adjustor{8}'
PUBLIC	?Release@?$CComContainedObject@VCSignature@@@ATL@@W7AGKXZ ; [thunk]:ATL::CComContainedObject<CSignature>::Release`adjustor{8}'
PUBLIC	?AddRef@?$CComContainedObject@VCSignature@@@ATL@@UAGKXZ ; ATL::CComContainedObject<CSignature>::AddRef
PUBLIC	?Release@?$CComContainedObject@VCSignature@@@ATL@@UAGKXZ ; ATL::CComContainedObject<CSignature>::Release
PUBLIC	?QueryInterface@?$CComContainedObject@VCSignature@@@ATL@@UAGJABU_GUID@@PAPAX@Z ; ATL::CComContainedObject<CSignature>::QueryInterface
PUBLIC	??_7?$CComContainedObject@VCSignature@@@ATL@@6B?$IDispatchImpl@UISignature@@$1?IID_ISignature@@3U_GUID@@B$1?LIBID_XMLSIGNLib@@3U3@B$00$0A@VCComTypeInfoHolder@ATL@@@1@@ ; ATL::CComContainedObject<CSignature>::`vftable'
PUBLIC	??_7?$CComContainedObject@VCSignature@@@ATL@@6BIOleCommandTarget@@@ ; ATL::CComContainedObject<CSignature>::`vftable'
PUBLIC	??_7?$CComContainedObject@VCSignature@@@ATL@@6BIObjectWithSite@@@ ; ATL::CComContainedObject<CSignature>::`vftable'
;	COMDAT ??_7?$CComContainedObject@VCSignature@@@ATL@@6B?$IDispatchImpl@UISignature@@$1?IID_ISignature@@3U_GUID@@B$1?LIBID_XMLSIGNLib@@3U3@B$00$0A@VCComTypeInfoHolder@ATL@@@1@@
CONST	SEGMENT
??_7?$CComContainedObject@VCSignature@@@ATL@@6B?$IDispatchImpl@UISignature@@$1?IID_ISignature@@3U_GUID@@B$1?LIBID_XMLSIGNLib@@3U3@B$00$0A@VCComTypeInfoHolder@ATL@@@1@@ DD FLAT:?QueryInterface@?$CComContainedObject@VCSignature@@@ATL@@UAGJABU_GUID@@PAPAX@Z ; ATL::CComContainedObject<CSignature>::`vftable'
	DD	FLAT:?AddRef@?$CComContainedObject@VCSignature@@@ATL@@UAGKXZ
	DD	FLAT:?Release@?$CComContainedObject@VCSignature@@@ATL@@UAGKXZ
	DD	FLAT:?GetTypeInfoCount@?$IDispatchImpl@UISignature@@$1?IID_ISignature@@3U_GUID@@B$1?LIBID_XMLSIGNLib@@3U3@B$00$0A@VCComTypeInfoHolder@ATL@@@ATL@@UAGJPAI@Z
	DD	FLAT:?GetTypeInfo@?$IDispatchImpl@UISignature@@$1?IID_ISignature@@3U_GUID@@B$1?LIBID_XMLSIGNLib@@3U3@B$00$0A@VCComTypeInfoHolder@ATL@@@ATL@@UAGJIKPAPAUITypeInfo@@@Z
	DD	FLAT:?GetIDsOfNames@?$IDispatchImpl@UISignature@@$1?IID_ISignature@@3U_GUID@@B$1?LIBID_XMLSIGNLib@@3U3@B$00$0A@VCComTypeInfoHolder@ATL@@@ATL@@UAGJABU_GUID@@PAPAGIKPAJ@Z
	DD	FLAT:?Invoke@?$IDispatchImpl@UISignature@@$1?IID_ISignature@@3U_GUID@@B$1?LIBID_XMLSIGNLib@@3U3@B$00$0A@VCComTypeInfoHolder@ATL@@@ATL@@UAGJJABU_GUID@@KGPAUtagDISPPARAMS@@PAUtagVARIANT@@PAUtagEXCEPINFO@@PAI@Z
	DD	FLAT:?get_EnvelopingFlag@CSignature@@UAGJPAF@Z
	DD	FLAT:?put_EnvelopingFlag@CSignature@@UAGJF@Z
	DD	FLAT:?get_RecipientCertificateStore@CSignature@@UAGJPAPAG@Z
	DD	FLAT:?put_RecipientCertificateStore@CSignature@@UAGJPAG@Z
	DD	FLAT:?get_SignerCertificate@CSignature@@UAGJJPAPAG@Z
	DD	FLAT:?put_SignerCertificate@CSignature@@UAGJJPAG@Z
	DD	FLAT:?get_SignatureID@CSignature@@UAGJJPAPAG@Z
	DD	FLAT:?put_SignatureID@CSignature@@UAGJJPAG@Z
	DD	FLAT:?get_Properties@CSignature@@UAGJJJPAPAG@Z
	DD	FLAT:?put_Properties@CSignature@@UAGJJJPAG@Z
	DD	FLAT:?get_Base64EncodeXML@CSignature@@UAGJPAH@Z
	DD	FLAT:?put_Base64EncodeXML@CSignature@@UAGJH@Z
	DD	FLAT:?get_Base64DecodeXML@CSignature@@UAGJPAH@Z
	DD	FLAT:?put_Base64DecodeXML@CSignature@@UAGJH@Z
	DD	FLAT:?get_DocumentURI@CSignature@@UAGJJJPAPAG@Z
	DD	FLAT:?get_DigestObjectStatus@CSignature@@UAGJJJPAH@Z
	DD	FLAT:?get_Language@CSignature@@UAGJPAPAG@Z
	DD	FLAT:?put_Language@CSignature@@UAGJPAG@Z
	DD	FLAT:?get_SignatureStatus@CSignature@@UAGJJPAH@Z
	DD	FLAT:?get_PhysicalSignatureUsage@CSignature@@UAGJPAJ@Z
	DD	FLAT:?put_PhysicalSignatureUsage@CSignature@@UAGJJ@Z
	DD	FLAT:?get_PhysicalSignatureFile@CSignature@@UAGJPAPAG@Z
	DD	FLAT:?put_PhysicalSignatureFile@CSignature@@UAGJPAG@Z
	DD	FLAT:?get_CapturedSignatureFile@CSignature@@UAGJPAPAG@Z
	DD	FLAT:?Sign@CSignature@@UAGJPAGPAPAG@Z
	DD	FLAT:?get_IncludeCamResponse@CSignature@@UAGJPAH@Z
	DD	FLAT:?put_IncludeCamResponse@CSignature@@UAGJH@Z
	DD	FLAT:?SaveXMLSignature@CSignature@@UAGJPAG@Z
	DD	FLAT:?Verify@CSignature@@UAGJPAGPAH@Z
	DD	FLAT:?GetError@CSignature@@UAGJPAPAG@Z
	DD	FLAT:?put_OverwriteFile@CSignature@@UAGJH@Z
	DD	FLAT:?PFXExportCertificate@CSignature@@UAGJPAG0PAPAG@Z
	DD	FLAT:?VerifyDetached@CSignature@@UAGJPAGPAH@Z
	DD	FLAT:?GetLastError@CSignature@@UAGJPAJ@Z
	DD	FLAT:?GetX509Certificate@CSignature@@UAGJPAGPAPAG@Z
	DD	FLAT:?ViewCertificate@CSignature@@UAGJPAG@Z
	DD	FLAT:?get_CertificateCount@CSignature@@UAGJPAJ@Z
	DD	FLAT:?GetCertificateInfo@CSignature@@UAGJJJPAPAG@Z
	DD	FLAT:?SetActiveCertificate@CSignature@@UAGJPAGPAH@Z
	DD	FLAT:?get_SignedDocumentPath@CSignature@@UAGJJJPAPAG@Z
	DD	FLAT:?get_SignerSubject@CSignature@@UAGJPAGPAPAG@Z
	DD	FLAT:?get_CertIssuer@CSignature@@UAGJPAGPAPAG@Z
	DD	FLAT:?get_CertExpiry@CSignature@@UAGJPAGPAPAG@Z
	DD	FLAT:?get_CertSerialNumber@CSignature@@UAGJPAGPAPAG@Z
	DD	FLAT:?FileExists@CSignature@@UAGJPAGPAH@Z
	DD	FLAT:?get_FailedUriCount@CSignature@@UAGJPAJ@Z
	DD	FLAT:?get_TotalUriCount@CSignature@@UAGJPAJ@Z
	DD	FLAT:?get_FailedUriFullPath@CSignature@@UAGJJPAPAG@Z
	DD	FLAT:?put_FailedUriFullPath@CSignature@@UAGJJPAG@Z
	DD	FLAT:?get_FailedUri@CSignature@@UAGJJPAPAG@Z
	DD	FLAT:?get_SignatureCount@CSignature@@UAGJPAJ@Z
	DD	FLAT:?SignXMLStr@CSignature@@UAGJPAG0PAPAG@Z
	DD	FLAT:?ReadAll@CSignature@@UAGJPAGPAPAG@Z
	DD	FLAT:?SaveXMLStr@CSignature@@UAGJPAG0PAPAG@Z
	DD	FLAT:?SignHTML@CSignature@@UAGJPAUIDispatch@@PAPAG@Z
	DD	FLAT:?SecureXMLVerify@CSignature@@UAGJPAGPAPAG@Z
	DD	FLAT:?SetCSP@CSignature@@UAGJPAG@Z
	DD	FLAT:?GetSignedHTML@CSignature@@UAGJPAGPAPAG@Z
	DD	FLAT:?SignFile@CSignature@@UAGJPAG0@Z
	DD	FLAT:?GetSignedFileObject@CSignature@@UAGJPAG0PAPAG@Z
	DD	FLAT:?SetStoreName@CSignature@@UAGJPAG@Z
	DD	FLAT:?GetStoreName@CSignature@@UAGJPAPAG@Z
	DD	FLAT:?SignXMLEnveloped@CSignature@@UAGJPAG0PAPAG@Z
	DD	FLAT:?GetVersion@CSignature@@UAGJPAPAG@Z
	DD	FLAT:?GetLicenseStatus@CSignature@@UAGJPAJ@Z
	DD	FLAT:?GetPropertyCount@CSignature@@UAGJJPAJ@Z
	DD	FLAT:?ViewAnyCertificate@CSignature@@UAGJPAG@Z
	DD	FLAT:?SelectActiveCertificate@CSignature@@UAGJPAPAG@Z
	DD	FLAT:?VerifyXMLStr@CSignature@@UAGJPAGPAH@Z
	DD	FLAT:?SetActivePFXFileCert@CSignature@@UAGJPAG0PAPAG@Z
	DD	FLAT:?PFXExportActiveCertificate@CSignature@@UAGJPAGPAPAG@Z
	DD	FLAT:?get_HostName@CSignature@@UAGJPAPAG@Z
	DD	FLAT:?get_TimeStampURL@CSignature@@UAGJPAPAG@Z
	DD	FLAT:?put_TimeStampURL@CSignature@@UAGJPAG@Z
	DD	FLAT:?get_TimeStamping@CSignature@@UAGJPAH@Z
	DD	FLAT:?put_TimeStamping@CSignature@@UAGJH@Z
	DD	FLAT:?get_HostOsType@CSignature@@UAGJPAJ@Z
	DD	FLAT:?get_CrlChecking@CSignature@@UAGJPAH@Z
	DD	FLAT:?put_CrlChecking@CSignature@@UAGJH@Z
	DD	FLAT:?get_SigCertStatus@CSignature@@UAGJJPAGJPAJ@Z
	DD	FLAT:?VerifyX509CertCRL@CSignature@@UAGJPAG0JPAH@Z
	DD	FLAT:?VerifyPFXCertCRL@CSignature@@UAGJPAG00JPAH@Z
	DD	FLAT:?get_AddWindowImage@CSignature@@UAGJPAH@Z
	DD	FLAT:?put_AddWindowImage@CSignature@@UAGJH@Z
	DD	FLAT:?put_CRLLocation@CSignature@@UAGJUtagVARIANT@@@Z
	DD	FLAT:?VerifyActiveCertificate@CSignature@@UAGJPAH@Z
	DD	FLAT:?put_CertificatePolicy@CSignature@@UAGJUtagVARIANT@@@Z
	DD	FLAT:?get_AuthorityConstrainedPolicy@CSignature@@UAGJPAUtagVARIANT@@@Z
	DD	FLAT:?get_UserConstrainedPolicy@CSignature@@UAGJPAUtagVARIANT@@@Z
	DD	FLAT:?put_CertificatePolicyChecking@CSignature@@UAGJH@Z
	DD	FLAT:?put_CertificateChainValidation@CSignature@@UAGJH@Z
	DD	FLAT:?put_CertificatePathLengthChecking@CSignature@@UAGJH@Z
	DD	FLAT:?put_ConfigFileName@CSignature@@UAGJPAG@Z
	DD	FLAT:?put_DoDCompliance@CSignature@@UAGJH@Z
	DD	FLAT:?get_CertificatePolicyExplicit@CSignature@@UAGJPAH@Z
	DD	FLAT:?put_CertificatePolicyExplicit@CSignature@@UAGJH@Z
	DD	FLAT:?put_CertificateTrustExplicit@CSignature@@UAGJH@Z
	DD	FLAT:?SignXMLXpathStr@CSignature@@UAGJPAG00PAPAG@Z
	DD	FLAT:?get_UseHMAC@CSignature@@UAGJPAH@Z
	DD	FLAT:?put_UseHMAC@CSignature@@UAGJH@Z
	DD	FLAT:?get_HMACPassword@CSignature@@UAGJPAPAG@Z
	DD	FLAT:?put_HMACPassword@CSignature@@UAGJPAG@Z
	DD	FLAT:?ChangeOrAddProperty@CSignature@@UAGJPAG0@Z
	DD	FLAT:?put_DetailedVerificationFlag@CSignature@@UAGJH@Z
	DD	FLAT:?CaptureLiveSignature@CSignature@@UAGJPAPAG@Z
	DD	FLAT:?SignDataStr@CSignature@@UAGJPAGPAPAG@Z
	DD	FLAT:?put_ExcludeSignerCertificate@CSignature@@UAGJH@Z
	DD	FLAT:?CoSignXMLStr@CSignature@@UAGJPAGPAPAG@Z
	DD	FLAT:?CoSignFile@CSignature@@UAGJPAG0PAPAG@Z
	DD	FLAT:?SignFiles@CSignature@@UAGJUtagVARIANT@@PAGPAPAG@Z
	DD	FLAT:?put_RecipientCertificates@CSignature@@UAGJUtagVARIANT@@@Z
	DD	FLAT:?EncryptStr@CSignature@@UAGJPAGPAPAG@Z
	DD	FLAT:?DecryptStr@CSignature@@UAGJPAGPAPAG@Z
	DD	FLAT:?EncryptFileA@CSignature@@UAGJPAG0PAPAG@Z
	DD	FLAT:?DecryptFileA@CSignature@@UAGJPAG0PAPAG@Z
	DD	FLAT:?put_TrustedRoots@CSignature@@UAGJUtagVARIANT@@@Z
	DD	FLAT:?put_RecipientCertificateFiles@CSignature@@UAGJUtagVARIANT@@@Z
	DD	FLAT:?put_DetachedObjects@CSignature@@UAGJUtagVARIANT@@@Z
	DD	FLAT:?put_AttachedObjects@CSignature@@UAGJUtagVARIANT@@@Z
	DD	FLAT:?ReadAllBase64@CSignature@@UAGJPAGPAPAG@Z
	DD	FLAT:?put_DecryptionPFXCertFile@CSignature@@UAGJPAG@Z
	DD	FLAT:?put_DecryptUsingPFXFileCert@CSignature@@UAGJH@Z
	DD	FLAT:?put_DecryptionPFXPassword@CSignature@@UAGJPAG@Z
	DD	FLAT:?put_XpathNamespace@CSignature@@UAGJUtagVARIANT@@@Z
	DD	FLAT:?get_CamServerHost@CSignature@@UAGJPAPAG@Z
	DD	FLAT:?put_CamServerHost@CSignature@@UAGJPAG@Z
	DD	FLAT:?get_CamServerPort@CSignature@@UAGJPAG@Z
	DD	FLAT:?put_CamServerPort@CSignature@@UAGJG@Z
	DD	FLAT:?get_UseCam@CSignature@@UAGJPAH@Z
	DD	FLAT:?put_UseCam@CSignature@@UAGJH@Z
	DD	FLAT:?get_AgencyId@CSignature@@UAGJPAPAG@Z
	DD	FLAT:?put_AgencyId@CSignature@@UAGJPAG@Z
	DD	FLAT:?get_CamValidationResponse@CSignature@@UAGJPAPAG@Z
	DD	FLAT:?GetSigPropValueByName@CSignature@@UAGJJPAGPAPAG@Z
	DD	FLAT:?Base64DecodeBufferToFile@CSignature@@UAGJPAG0PAPAG@Z
	DD	FLAT:?Base64DecodeFileToFile@CSignature@@UAGJPAG0PAPAG@Z
	DD	FLAT:?GunZipFile@CSignature@@UAGJPAG0PAPAG@Z
	DD	FLAT:?get_CertSerialNumberFormat@CSignature@@UAGJPAJ@Z
	DD	FLAT:?put_CertSerialNumberFormat@CSignature@@UAGJJ@Z
	DD	FLAT:?SecureXMLVerifyFileToBuffer@CSignature@@UAGJPAGPAPAG@Z
	DD	FLAT:?SecureXMLVerifyFileToFile@CSignature@@UAGJPAG0PAPAG@Z
	DD	FLAT:?DeleteSignatureFromXMLStr@CSignature@@UAGJPAG0PAPAG@Z
	DD	FLAT:?DeleteSignatureFromFile@CSignature@@UAGJPAG00PAPAG@Z
	DD	FLAT:?put_AllowedCertIssuerNames@CSignature@@UAGJUtagVARIANT@@@Z
	DD	FLAT:?get_CRLCacheDbConnectionString@CSignature@@UAGJPAPAG@Z
	DD	FLAT:?put_CRLCacheDbConnectionString@CSignature@@UAGJPAG@Z
	DD	FLAT:?get_UseCRLCache@CSignature@@UAGJPAH@Z
	DD	FLAT:?put_UseCRLCache@CSignature@@UAGJH@Z
	DD	FLAT:?put_CRLCacheTimeoutInMinutes@CSignature@@UAGJJ@Z
	DD	FLAT:?put_CanonicalizationMethod@CSignature@@UAGJJ@Z
	DD	FLAT:?get_NetscapeStorePassword@CSignature@@UAGJPAPAG@Z
	DD	FLAT:?put_NetscapeStorePassword@CSignature@@UAGJPAG@Z
	DD	FLAT:?SetActivePEMFileCert@CSignature@@UAGJPAG0PAPAG@Z
	DD	FLAT:?get_SecureXMLPath@CSignature@@UAGJPAPAG@Z
	DD	FLAT:?get_SignedDocumentCount@CSignature@@UAGJJPAJ@Z
	DD	FLAT:?SignXMLByteArray@CSignature@@UAGJUtagVARIANT@@PAGPAU2@@Z
	DD	FLAT:?SaveXMLByteArray@CSignature@@UAGJUtagVARIANT@@PAGPAPAG@Z
	DD	FLAT:?ReadAllByteArray@CSignature@@UAGJPAGPAUtagVARIANT@@@Z
	DD	FLAT:?VerifyXMLByteArray@CSignature@@UAGJUtagVARIANT@@PAH@Z
	DD	FLAT:?SecureXMLVerifyByteArray@CSignature@@UAGJUtagVARIANT@@PAU2@@Z
	DD	FLAT:?SignXMLXpathByteArray@CSignature@@UAGJUtagVARIANT@@PAG1PAU2@@Z
	DD	FLAT:?SignXMLEnvelopedByteArray@CSignature@@UAGJUtagVARIANT@@PAGPAU2@@Z
	DD	FLAT:?Base64DecodeByteArrayToFile@CSignature@@UAGJUtagVARIANT@@PAGPAPAG@Z
	DD	FLAT:?Base64DecodeByteArrayToByteArray@CSignature@@UAGJUtagVARIANT@@PAU2@@Z
	DD	FLAT:?Base64EncodeByteArrayToByteArray@CSignature@@UAGJUtagVARIANT@@PAU2@@Z
	DD	FLAT:?Base64EncodeByteArrayToFile@CSignature@@UAGJUtagVARIANT@@PAGPAPAG@Z
	DD	FLAT:?Base64EncodeStrToFile@CSignature@@UAGJPAG0PAPAG@Z
	DD	FLAT:?Base64EncodeStrToStr@CSignature@@UAGJPAGPAPAG@Z
	DD	FLAT:?SetActivePFXB64Data@CSignature@@UAGJPAG0PAPAG@Z
	DD	FLAT:?get_FloatingLicense@CSignature@@UAGJPAPAG@Z
	DD	FLAT:?put_FloatingLicense@CSignature@@UAGJPAG@Z
	DD	FLAT:?get_LicensedUserCount@CSignature@@UAGJPAJ@Z
	DD	FLAT:?put_IncludeCRLInSignature@CSignature@@UAGJH@Z
	DD	FLAT:?get_UsedCRLList@CSignature@@UAGJPAUtagVARIANT@@@Z
	DD	FLAT:?GetErrorDetail@CSignature@@UAGJJPAPAG@Z
	DD	FLAT:?put_PhysicalSignatureB64Str@CSignature@@UAGJPAG@Z
	DD	FLAT:?GetSignedInfoDigest@CSignature@@UAGJPAG0PAPAG@Z
	DD	FLAT:?GetX509CertificateChain@CSignature@@UAGJPAGPAPAG@Z
	DD	FLAT:?put_SignerCertificateChain@CSignature@@UAGJPAG@Z
	DD	FLAT:?get_SignatureImageId@CSignature@@UAGJPAPAG@Z
	DD	FLAT:?put_SignatureImageId@CSignature@@UAGJPAG@Z
	DD	FLAT:?SignSignedInfoDigest@CSignature@@UAGJPAG0PAPAG@Z
	DD	FLAT:?ApplySignatureValue@CSignature@@UAGJPAGPAPAG@Z
	DD	FLAT:?GetSignedInfoDigestFromByteArray@CSignature@@UAGJUtagVARIANT@@PAGPAPAG@Z
	DD	FLAT:?ApplySignatureValueGetByteArray@CSignature@@UAGJPAGPAUtagVARIANT@@@Z
	DD	FLAT:?GetSignedDocumentB64Str@CSignature@@UAGJJJPAPAG@Z
	DD	FLAT:?GetSignedDocumentByteArray@CSignature@@UAGJJJPAUtagVARIANT@@@Z
	DD	FLAT:?get_CertValidationTransactionId@CSignature@@UAGJPAPAG@Z
	DD	FLAT:?put_CertValidationTransactionId@CSignature@@UAGJPAG@Z
	DD	FLAT:?get_IgnoreIncompleteSignature@CSignature@@UAGJPAH@Z
	DD	FLAT:?put_IgnoreIncompleteSignature@CSignature@@UAGJH@Z
	DD	FLAT:?get_SignatureIndexToVerify@CSignature@@UAGJPAJ@Z
	DD	FLAT:?put_SignatureIndexToVerify@CSignature@@UAGJJ@Z
	DD	FLAT:?get_UseOcsp@CSignature@@UAGJPAH@Z
	DD	FLAT:?put_UseOcsp@CSignature@@UAGJH@Z
	DD	FLAT:?get_OcspTrustedRespSignerCertPath@CSignature@@UAGJPAPAG@Z
	DD	FLAT:?put_OcspTrustedRespSignerCertPath@CSignature@@UAGJPAG@Z
	DD	FLAT:?get_OcspReqSignerPFXCertPath@CSignature@@UAGJPAPAG@Z
	DD	FLAT:?put_OcspReqSignerPFXCertPath@CSignature@@UAGJPAG@Z
	DD	FLAT:?get_OcspReqSignerPFXCertPassword@CSignature@@UAGJPAPAG@Z
	DD	FLAT:?put_OcspReqSignerPFXCertPassword@CSignature@@UAGJPAG@Z
	DD	FLAT:?get_OcspResponderURL@CSignature@@UAGJPAPAG@Z
	DD	FLAT:?put_OcspResponderURL@CSignature@@UAGJPAG@Z
	DD	FLAT:?get_OcspTextResponse@CSignature@@UAGJPAPAG@Z
	DD	FLAT:?get_OcspB64Response@CSignature@@UAGJPAPAG@Z
	DD	FLAT:?get_CertRevocationDate@CSignature@@UAGJPAPAG@Z
	DD	FLAT:?get_IncludeOcspResponse@CSignature@@UAGJPAJ@Z
	DD	FLAT:?put_IncludeOcspResponse@CSignature@@UAGJJ@Z
	DD	FLAT:?put_ProxyHost@CSignature@@UAGJPAG@Z
	DD	FLAT:?put_ProxyPort@CSignature@@UAGJG@Z
	DD	FLAT:?put_ProxyUserName@CSignature@@UAGJPAG@Z
	DD	FLAT:?put_ProxyPassword@CSignature@@UAGJPAG@Z
	DD	FLAT:?put_InclusiveNamespacePrefixList@CSignature@@UAGJUtagVARIANT@@@Z
	DD	FLAT:?get_TimeStampFormat@CSignature@@UAGJPAJ@Z
	DD	FLAT:?put_TimeStampFormat@CSignature@@UAGJJ@Z
	DD	FLAT:?get_TimeStampCritical@CSignature@@UAGJPAJ@Z
	DD	FLAT:?put_TimeStampCritical@CSignature@@UAGJJ@Z
	DD	FLAT:?put_SignedObjectId@CSignature@@UAGJUtagVARIANT@@@Z
CONST	ENDS
;	COMDAT ??_7?$CComContainedObject@VCSignature@@@ATL@@6BIOleCommandTarget@@@
CONST	SEGMENT
??_7?$CComContainedObject@VCSignature@@@ATL@@6BIOleCommandTarget@@@ DD FLAT:?QueryInterface@?$CComContainedObject@VCSignature@@@ATL@@W3AGJABU_GUID@@PAPAX@Z ; ATL::CComContainedObject<CSignature>::`vftable'
	DD	FLAT:?AddRef@?$CComContainedObject@VCSignature@@@ATL@@W3AGKXZ
	DD	FLAT:?Release@?$CComContainedObject@VCSignature@@@ATL@@W3AGKXZ
	DD	FLAT:?QueryStatus@CSignature@@UAGJPBU_GUID@@KQAU_tagOLECMD@@PAU_tagOLECMDTEXT@@@Z
	DD	FLAT:?Exec@CSignature@@UAGJPBU_GUID@@KKPAUtagVARIANT@@1@Z
CONST	ENDS
;	COMDAT ??_7?$CComContainedObject@VCSignature@@@ATL@@6BIObjectWithSite@@@
CONST	SEGMENT
??_7?$CComContainedObject@VCSignature@@@ATL@@6BIObjectWithSite@@@ DD FLAT:?QueryInterface@?$CComContainedObject@VCSignature@@@ATL@@W7AGJABU_GUID@@PAPAX@Z ; ATL::CComContainedObject<CSignature>::`vftable'
	DD	FLAT:?AddRef@?$CComContainedObject@VCSignature@@@ATL@@W7AGKXZ
	DD	FLAT:?Release@?$CComContainedObject@VCSignature@@@ATL@@W7AGKXZ
	DD	FLAT:?SetSite@CSignature@@UAGJPAUIUnknown@@@Z
	DD	FLAT:?GetSite@CSignature@@UAGJABU_GUID@@PAPAX@Z
; Function compile flags: /Odt /RTCsu
CONST	ENDS
;	COMDAT ??0?$CComContainedObject@VCSignature@@@ATL@@QAE@PAX@Z
_TEXT	SEGMENT
_this$ = -4						; size = 4
_pv$ = 8						; size = 4
??0?$CComContainedObject@VCSignature@@@ATL@@QAE@PAX@Z PROC NEAR ; ATL::CComContainedObject<CSignature>::CComContainedObject<CSignature>, COMDAT
; _this$ = ecx

; 2804 : 	CComContainedObject(void* pv) {m_pOuterUnknown = (IUnknown*)pv;}

	push	ebp
	mov	ebp, esp
	push	ecx
	mov	DWORD PTR [ebp-4], -858993460		; ccccccccH
	mov	DWORD PTR _this$[ebp], ecx
	mov	ecx, DWORD PTR _this$[ebp]
	call	??0CSignature@@QAE@XZ			; CSignature::CSignature
	mov	eax, DWORD PTR _this$[ebp]
	mov	DWORD PTR [eax], OFFSET FLAT:??_7?$CComContainedObject@VCSignature@@@ATL@@6B?$IDispatchImpl@UISignature@@$1?IID_ISignature@@3U_GUID@@B$1?LIBID_XMLSIGNLib@@3U3@B$00$0A@VCComTypeInfoHolder@ATL@@@1@@
	mov	ecx, DWORD PTR _this$[ebp]
	mov	DWORD PTR [ecx+4], OFFSET FLAT:??_7?$CComContainedObject@VCSignature@@@ATL@@6BIOleCommandTarget@@@
	mov	edx, DWORD PTR _this$[ebp]
	mov	DWORD PTR [edx+8], OFFSET FLAT:??_7?$CComContainedObject@VCSignature@@@ATL@@6BIObjectWithSite@@@
	mov	eax, DWORD PTR _this$[ebp]
	mov	ecx, DWORD PTR _pv$[ebp]
	mov	DWORD PTR [eax+12], ecx
	mov	eax, DWORD PTR _this$[ebp]
	add	esp, 4
	cmp	ebp, esp
	call	__RTC_CheckEsp
	mov	esp, ebp
	pop	ebp
	ret	4
??0?$CComContainedObject@VCSignature@@@ATL@@QAE@PAX@Z ENDP ; ATL::CComContainedObject<CSignature>::CComContainedObject<CSignature>
_TEXT	ENDS
PUBLIC	?OuterAddRef@CComObjectRootBase@ATL@@QAEKXZ	; ATL::CComObjectRootBase::OuterAddRef
; Function compile flags: /Odt /RTCsu
;	COMDAT ?AddRef@?$CComContainedObject@VCSignature@@@ATL@@UAGKXZ
_TEXT	SEGMENT
_this$ = 8						; size = 4
?AddRef@?$CComContainedObject@VCSignature@@@ATL@@UAGKXZ PROC NEAR ; ATL::CComContainedObject<CSignature>::AddRef, COMDAT

; 2813 : 	STDMETHOD_(ULONG, AddRef)() throw() {return OuterAddRef();}

	push	ebp
	mov	ebp, esp
	mov	ecx, DWORD PTR _this$[ebp]
	add	ecx, 12					; 0000000cH
	call	?OuterAddRef@CComObjectRootBase@ATL@@QAEKXZ ; ATL::CComObjectRootBase::OuterAddRef
	cmp	ebp, esp
	call	__RTC_CheckEsp
	pop	ebp
	ret	4
?AddRef@?$CComContainedObject@VCSignature@@@ATL@@UAGKXZ ENDP ; ATL::CComContainedObject<CSignature>::AddRef
; Function compile flags: /Odt /RTCsu
_TEXT	ENDS
;	COMDAT ?OuterAddRef@CComObjectRootBase@ATL@@QAEKXZ
_TEXT	SEGMENT
_this$ = -4						; size = 4
?OuterAddRef@CComObjectRootBase@ATL@@QAEKXZ PROC NEAR	; ATL::CComObjectRootBase::OuterAddRef, COMDAT
; _this$ = ecx

; 2180 : 	{

	push	ebp
	mov	ebp, esp
	push	ecx
	push	esi
	mov	DWORD PTR [ebp-4], -858993460		; ccccccccH
	mov	DWORD PTR _this$[ebp], ecx

; 2181 : 		return m_pOuterUnknown->AddRef();

	mov	eax, DWORD PTR _this$[ebp]
	mov	ecx, DWORD PTR [eax]
	mov	edx, DWORD PTR _this$[ebp]
	mov	eax, DWORD PTR [edx]
	mov	ecx, DWORD PTR [ecx]
	mov	esi, esp
	push	eax
	call	DWORD PTR [ecx+4]
	cmp	esi, esp
	call	__RTC_CheckEsp

; 2182 : 	}

	pop	esi
	add	esp, 4
	cmp	ebp, esp
	call	__RTC_CheckEsp
	mov	esp, ebp
	pop	ebp
	ret	0
?OuterAddRef@CComObjectRootBase@ATL@@QAEKXZ ENDP	; ATL::CComObjectRootBase::OuterAddRef
_TEXT	ENDS
PUBLIC	?OuterRelease@CComObjectRootBase@ATL@@QAEKXZ	; ATL::CComObjectRootBase::OuterRelease
; Function compile flags: /Odt /RTCsu
;	COMDAT ?Release@?$CComContainedObject@VCSignature@@@ATL@@UAGKXZ
_TEXT	SEGMENT
_this$ = 8						; size = 4
?Release@?$CComContainedObject@VCSignature@@@ATL@@UAGKXZ PROC NEAR ; ATL::CComContainedObject<CSignature>::Release, COMDAT

; 2814 : 	STDMETHOD_(ULONG, Release)() throw() {return OuterRelease();}

	push	ebp
	mov	ebp, esp
	mov	ecx, DWORD PTR _this$[ebp]
	add	ecx, 12					; 0000000cH
	call	?OuterRelease@CComObjectRootBase@ATL@@QAEKXZ ; ATL::CComObjectRootBase::OuterRelease
	cmp	ebp, esp
	call	__RTC_CheckEsp
	pop	ebp
	ret	4
?Release@?$CComContainedObject@VCSignature@@@ATL@@UAGKXZ ENDP ; ATL::CComContainedObject<CSignature>::Release
; Function compile flags: /Odt /RTCsu
_TEXT	ENDS
;	COMDAT ?OuterRelease@CComObjectRootBase@ATL@@QAEKXZ
_TEXT	SEGMENT
_this$ = -4						; size = 4
?OuterRelease@CComObjectRootBase@ATL@@QAEKXZ PROC NEAR	; ATL::CComObjectRootBase::OuterRelease, COMDAT
; _this$ = ecx

; 2184 : 	{

	push	ebp
	mov	ebp, esp
	push	ecx
	push	esi
	mov	DWORD PTR [ebp-4], -858993460		; ccccccccH
	mov	DWORD PTR _this$[ebp], ecx

; 2185 : 		return m_pOuterUnknown->Release();

	mov	eax, DWORD PTR _this$[ebp]
	mov	ecx, DWORD PTR [eax]
	mov	edx, DWORD PTR _this$[ebp]
	mov	eax, DWORD PTR [edx]
	mov	ecx, DWORD PTR [ecx]
	mov	esi, esp
	push	eax
	call	DWORD PTR [ecx+8]
	cmp	esi, esp
	call	__RTC_CheckEsp

; 2186 : 	}

	pop	esi
	add	esp, 4
	cmp	ebp, esp
	call	__RTC_CheckEsp
	mov	esp, ebp
	pop	ebp
	ret	0
?OuterRelease@CComObjectRootBase@ATL@@QAEKXZ ENDP	; ATL::CComObjectRootBase::OuterRelease
_TEXT	ENDS
PUBLIC	?OuterQueryInterface@CComObjectRootBase@ATL@@QAEJABU_GUID@@PAPAX@Z ; ATL::CComObjectRootBase::OuterQueryInterface
; Function compile flags: /Odt /RTCsu
;	COMDAT ?QueryInterface@?$CComContainedObject@VCSignature@@@ATL@@UAGJABU_GUID@@PAPAX@Z
_TEXT	SEGMENT
_this$ = 8						; size = 4
_iid$ = 12						; size = 4
_ppvObject$ = 16					; size = 4
?QueryInterface@?$CComContainedObject@VCSignature@@@ATL@@UAGJABU_GUID@@PAPAX@Z PROC NEAR ; ATL::CComContainedObject<CSignature>::QueryInterface, COMDAT

; 2816 : 	{

	push	ebp
	mov	ebp, esp

; 2817 : 		return OuterQueryInterface(iid, ppvObject);

	mov	eax, DWORD PTR _ppvObject$[ebp]
	push	eax
	mov	ecx, DWORD PTR _iid$[ebp]
	push	ecx
	mov	ecx, DWORD PTR _this$[ebp]
	add	ecx, 12					; 0000000cH
	call	?OuterQueryInterface@CComObjectRootBase@ATL@@QAEJABU_GUID@@PAPAX@Z ; ATL::CComObjectRootBase::OuterQueryInterface

; 2818 : 	}

	cmp	ebp, esp
	call	__RTC_CheckEsp
	pop	ebp
	ret	12					; 0000000cH
?QueryInterface@?$CComContainedObject@VCSignature@@@ATL@@UAGJABU_GUID@@PAPAX@Z ENDP ; ATL::CComContainedObject<CSignature>::QueryInterface
; Function compile flags: /Odt /RTCsu
_TEXT	ENDS
;	COMDAT ?OuterQueryInterface@CComObjectRootBase@ATL@@QAEJABU_GUID@@PAPAX@Z
_TEXT	SEGMENT
_this$ = -4						; size = 4
_iid$ = 8						; size = 4
_ppvObject$ = 12					; size = 4
?OuterQueryInterface@CComObjectRootBase@ATL@@QAEJABU_GUID@@PAPAX@Z PROC NEAR ; ATL::CComObjectRootBase::OuterQueryInterface, COMDAT
; _this$ = ecx

; 2188 : 	{

	push	ebp
	mov	ebp, esp
	push	ecx
	push	esi
	mov	DWORD PTR [ebp-4], -858993460		; ccccccccH
	mov	DWORD PTR _this$[ebp], ecx

; 2189 : 		return m_pOuterUnknown->QueryInterface(iid, ppvObject);

	mov	esi, esp
	mov	eax, DWORD PTR _ppvObject$[ebp]
	push	eax
	mov	ecx, DWORD PTR _iid$[ebp]
	push	ecx
	mov	edx, DWORD PTR _this$[ebp]
	mov	eax, DWORD PTR [edx]
	mov	ecx, DWORD PTR _this$[ebp]
	mov	edx, DWORD PTR [ecx]
	mov	eax, DWORD PTR [eax]
	push	edx
	call	DWORD PTR [eax]
	cmp	esi, esp
	call	__RTC_CheckEsp

; 2190 : 	}

	pop	esi
	add	esp, 4
	cmp	ebp, esp
	call	__RTC_CheckEsp
	mov	esp, ebp
	pop	ebp
	ret	8
?OuterQueryInterface@CComObjectRootBase@ATL@@QAEJABU_GUID@@PAPAX@Z ENDP ; ATL::CComObjectRootBase::OuterQueryInterface
; Function compile flags: /Odt /RTCsu
_TEXT	ENDS
;	COMDAT ?QueryInterface@?$CComObject@VCSignature@@@ATL@@W3AGJABU_GUID@@PAPAX@Z
_TEXT	SEGMENT
?QueryInterface@?$CComObject@VCSignature@@@ATL@@W3AGJABU_GUID@@PAPAX@Z PROC NEAR ; [thunk]:ATL::CComObject<CSignature>::QueryInterface`adjustor{4}', COMDAT
	sub	DWORD PTR [esp+4], 4
	jmp	?QueryInterface@?$CComObject@VCSignature@@@ATL@@UAGJABU_GUID@@PAPAX@Z ; ATL::CComObject<CSignature>::QueryInterface
?QueryInterface@?$CComObject@VCSignature@@@ATL@@W3AGJABU_GUID@@PAPAX@Z ENDP ; [thunk]:ATL::CComObject<CSignature>::QueryInterface`adjustor{4}'
; Function compile flags: /Odt /RTCsu
_TEXT	ENDS
;	COMDAT ?AddRef@?$CComObject@VCSignature@@@ATL@@W3AGKXZ
_TEXT	SEGMENT
?AddRef@?$CComObject@VCSignature@@@ATL@@W3AGKXZ PROC NEAR ; [thunk]:ATL::CComObject<CSignature>::AddRef`adjustor{4}', COMDAT
	sub	DWORD PTR [esp+4], 4
	jmp	?AddRef@?$CComObject@VCSignature@@@ATL@@UAGKXZ ; ATL::CComObject<CSignature>::AddRef
?AddRef@?$CComObject@VCSignature@@@ATL@@W3AGKXZ ENDP	; [thunk]:ATL::CComObject<CSignature>::AddRef`adjustor{4}'
; Function compile flags: /Odt /RTCsu
_TEXT	ENDS
;	COMDAT ?Release@?$CComObject@VCSignature@@@ATL@@W3AGKXZ
_TEXT	SEGMENT
?Release@?$CComObject@VCSignature@@@ATL@@W3AGKXZ PROC NEAR ; [thunk]:ATL::CComObject<CSignature>::Release`adjustor{4}', COMDAT
	sub	DWORD PTR [esp+4], 4
	jmp	?Release@?$CComObject@VCSignature@@@ATL@@UAGKXZ ; ATL::CComObject<CSignature>::Release
?Release@?$CComObject@VCSignature@@@ATL@@W3AGKXZ ENDP	; [thunk]:ATL::CComObject<CSignature>::Release`adjustor{4}'
; Function compile flags: /Odt /RTCsu
_TEXT	ENDS
;	COMDAT ?QueryInterface@?$CComObject@VCSignature@@@ATL@@W7AGJABU_GUID@@PAPAX@Z
_TEXT	SEGMENT
?QueryInterface@?$CComObject@VCSignature@@@ATL@@W7AGJABU_GUID@@PAPAX@Z PROC NEAR ; [thunk]:ATL::CComObject<CSignature>::QueryInterface`adjustor{8}', COMDAT
	sub	DWORD PTR [esp+4], 8
	jmp	?QueryInterface@?$CComObject@VCSignature@@@ATL@@UAGJABU_GUID@@PAPAX@Z ; ATL::CComObject<CSignature>::QueryInterface
?QueryInterface@?$CComObject@VCSignature@@@ATL@@W7AGJABU_GUID@@PAPAX@Z ENDP ; [thunk]:ATL::CComObject<CSignature>::QueryInterface`adjustor{8}'
; Function compile flags: /Odt /RTCsu
_TEXT	ENDS
;	COMDAT ?AddRef@?$CComObject@VCSignature@@@ATL@@W7AGKXZ
_TEXT	SEGMENT
?AddRef@?$CComObject@VCSignature@@@ATL@@W7AGKXZ PROC NEAR ; [thunk]:ATL::CComObject<CSignature>::AddRef`adjustor{8}', COMDAT
	sub	DWORD PTR [esp+4], 8
	jmp	?AddRef@?$CComObject@VCSignature@@@ATL@@UAGKXZ ; ATL::CComObject<CSignature>::AddRef
?AddRef@?$CComObject@VCSignature@@@ATL@@W7AGKXZ ENDP	; [thunk]:ATL::CComObject<CSignature>::AddRef`adjustor{8}'
; Function compile flags: /Odt /RTCsu
_TEXT	ENDS
;	COMDAT ?Release@?$CComObject@VCSignature@@@ATL@@W7AGKXZ
_TEXT	SEGMENT
?Release@?$CComObject@VCSignature@@@ATL@@W7AGKXZ PROC NEAR ; [thunk]:ATL::CComObject<CSignature>::Release`adjustor{8}', COMDAT
	sub	DWORD PTR [esp+4], 8
	jmp	?Release@?$CComObject@VCSignature@@@ATL@@UAGKXZ ; ATL::CComObject<CSignature>::Release
?Release@?$CComObject@VCSignature@@@ATL@@W7AGKXZ ENDP	; [thunk]:ATL::CComObject<CSignature>::Release`adjustor{8}'
; Function compile flags: /Odt /RTCsu
_TEXT	ENDS
;	COMDAT ?QueryInterface@?$CComContainedObject@VCSignature@@@ATL@@W3AGJABU_GUID@@PAPAX@Z
_TEXT	SEGMENT
?QueryInterface@?$CComContainedObject@VCSignature@@@ATL@@W3AGJABU_GUID@@PAPAX@Z PROC NEAR ; [thunk]:ATL::CComContainedObject<CSignature>::QueryInterface`adjustor{4}', COMDAT
	sub	DWORD PTR [esp+4], 4
	jmp	?QueryInterface@?$CComContainedObject@VCSignature@@@ATL@@UAGJABU_GUID@@PAPAX@Z ; ATL::CComContainedObject<CSignature>::QueryInterface
?QueryInterface@?$CComContainedObject@VCSignature@@@ATL@@W3AGJABU_GUID@@PAPAX@Z ENDP ; [thunk]:ATL::CComContainedObject<CSignature>::QueryInterface`adjustor{4}'
; Function compile flags: /Odt /RTCsu
_TEXT	ENDS
;	COMDAT ?AddRef@?$CComContainedObject@VCSignature@@@ATL@@W3AGKXZ
_TEXT	SEGMENT
?AddRef@?$CComContainedObject@VCSignature@@@ATL@@W3AGKXZ PROC NEAR ; [thunk]:ATL::CComContainedObject<CSignature>::AddRef`adjustor{4}', COMDAT
	sub	DWORD PTR [esp+4], 4
	jmp	?AddRef@?$CComContainedObject@VCSignature@@@ATL@@UAGKXZ ; ATL::CComContainedObject<CSignature>::AddRef
?AddRef@?$CComContainedObject@VCSignature@@@ATL@@W3AGKXZ ENDP ; [thunk]:ATL::CComContainedObject<CSignature>::AddRef`adjustor{4}'
; Function compile flags: /Odt /RTCsu
_TEXT	ENDS
;	COMDAT ?Release@?$CComContainedObject@VCSignature@@@ATL@@W3AGKXZ
_TEXT	SEGMENT
?Release@?$CComContainedObject@VCSignature@@@ATL@@W3AGKXZ PROC NEAR ; [thunk]:ATL::CComContainedObject<CSignature>::Release`adjustor{4}', COMDAT
	sub	DWORD PTR [esp+4], 4
	jmp	?Release@?$CComContainedObject@VCSignature@@@ATL@@UAGKXZ ; ATL::CComContainedObject<CSignature>::Release
?Release@?$CComContainedObject@VCSignature@@@ATL@@W3AGKXZ ENDP ; [thunk]:ATL::CComContainedObject<CSignature>::Release`adjustor{4}'
; Function compile flags: /Odt /RTCsu
_TEXT	ENDS
;	COMDAT ?QueryInterface@?$CComContainedObject@VCSignature@@@ATL@@W7AGJABU_GUID@@PAPAX@Z
_TEXT	SEGMENT
?QueryInterface@?$CComContainedObject@VCSignature@@@ATL@@W7AGJABU_GUID@@PAPAX@Z PROC NEAR ; [thunk]:ATL::CComContainedObject<CSignature>::QueryInterface`adjustor{8}', COMDAT
	sub	DWORD PTR [esp+4], 8
	jmp	?QueryInterface@?$CComContainedObject@VCSignature@@@ATL@@UAGJABU_GUID@@PAPAX@Z ; ATL::CComContainedObject<CSignature>::QueryInterface
?QueryInterface@?$CComContainedObject@VCSignature@@@ATL@@W7AGJABU_GUID@@PAPAX@Z ENDP ; [thunk]:ATL::CComContainedObject<CSignature>::QueryInterface`adjustor{8}'
; Function compile flags: /Odt /RTCsu
_TEXT	ENDS
;	COMDAT ?AddRef@?$CComContainedObject@VCSignature@@@ATL@@W7AGKXZ
_TEXT	SEGMENT
?AddRef@?$CComContainedObject@VCSignature@@@ATL@@W7AGKXZ PROC NEAR ; [thunk]:ATL::CComContainedObject<CSignature>::AddRef`adjustor{8}', COMDAT
	sub	DWORD PTR [esp+4], 8
	jmp	?AddRef@?$CComContainedObject@VCSignature@@@ATL@@UAGKXZ ; ATL::CComContainedObject<CSignature>::AddRef
?AddRef@?$CComContainedObject@VCSignature@@@ATL@@W7AGKXZ ENDP ; [thunk]:ATL::CComContainedObject<CSignature>::AddRef`adjustor{8}'
; Function compile flags: /Odt /RTCsu
_TEXT	ENDS
;	COMDAT ?Release@?$CComContainedObject@VCSignature@@@ATL@@W7AGKXZ
_TEXT	SEGMENT
?Release@?$CComContainedObject@VCSignature@@@ATL@@W7AGKXZ PROC NEAR ; [thunk]:ATL::CComContainedObject<CSignature>::Release`adjustor{8}', COMDAT
	sub	DWORD PTR [esp+4], 8
	jmp	?Release@?$CComContainedObject@VCSignature@@@ATL@@UAGKXZ ; ATL::CComContainedObject<CSignature>::Release
?Release@?$CComContainedObject@VCSignature@@@ATL@@W7AGKXZ ENDP ; [thunk]:ATL::CComContainedObject<CSignature>::Release`adjustor{8}'
; Function compile flags: /Odt /RTCsu
; File c:\program files\microsoft visual studio .net 2003\vc7\atlmfc\include\atlalloc.h
_TEXT	ENDS
;	COMDAT ??0?$CAtlSafeAllocBufferManager@VCCRTAllocator@ATL@@@_ATL_SAFE_ALLOCA_IMPL@ATL@@QAE@XZ
_TEXT	SEGMENT
_this$ = -4						; size = 4
??0?$CAtlSafeAllocBufferManager@VCCRTAllocator@ATL@@@_ATL_SAFE_ALLOCA_IMPL@ATL@@QAE@XZ PROC NEAR ; ATL::_ATL_SAFE_ALLOCA_IMPL::CAtlSafeAllocBufferManager<ATL::CCRTAllocator>::CAtlSafeAllocBufferManager<ATL::CCRTAllocator>, COMDAT
; _this$ = ecx

; 373  : 	CAtlSafeAllocBufferManager() : m_pHead(NULL) {};

	push	ebp
	mov	ebp, esp
	push	ecx
	mov	DWORD PTR [ebp-4], -858993460		; ccccccccH
	mov	DWORD PTR _this$[ebp], ecx
	mov	eax, DWORD PTR _this$[ebp]
	mov	DWORD PTR [eax], 0
	mov	eax, DWORD PTR _this$[ebp]
	mov	esp, ebp
	pop	ebp
	ret	0
??0?$CAtlSafeAllocBufferManager@VCCRTAllocator@ATL@@@_ATL_SAFE_ALLOCA_IMPL@ATL@@QAE@XZ ENDP ; ATL::_ATL_SAFE_ALLOCA_IMPL::CAtlSafeAllocBufferManager<ATL::CCRTAllocator>::CAtlSafeAllocBufferManager<ATL::CCRTAllocator>
_TEXT	ENDS
PUBLIC	?Allocate@CCRTAllocator@ATL@@SAPAXI@Z		; ATL::CCRTAllocator::Allocate
PUBLIC	?GetData@CAtlSafeAllocBufferNode@?$CAtlSafeAllocBufferManager@VCCRTAllocator@ATL@@@_ATL_SAFE_ALLOCA_IMPL@ATL@@QAEPAXXZ ; ATL::_ATL_SAFE_ALLOCA_IMPL::CAtlSafeAllocBufferManager<ATL::CCRTAllocator>::CAtlSafeAllocBufferNode::GetData
; Function compile flags: /Odt /RTCsu
;	COMDAT ?Allocate@?$CAtlSafeAllocBufferManager@VCCRTAllocator@ATL@@@_ATL_SAFE_ALLOCA_IMPL@ATL@@QAEPAXK@Z
_TEXT	SEGMENT
_p$ = -8						; size = 4
_this$ = -4						; size = 4
_nRequestedSize$ = 8					; size = 4
?Allocate@?$CAtlSafeAllocBufferManager@VCCRTAllocator@ATL@@@_ATL_SAFE_ALLOCA_IMPL@ATL@@QAEPAXK@Z PROC NEAR ; ATL::_ATL_SAFE_ALLOCA_IMPL::CAtlSafeAllocBufferManager<ATL::CCRTAllocator>::Allocate, COMDAT
; _this$ = ecx

; 375  : 	{

	push	ebp
	mov	ebp, esp
	sub	esp, 8
	mov	DWORD PTR [ebp-8], -858993460		; ccccccccH
	mov	DWORD PTR [ebp-4], -858993460		; ccccccccH
	mov	DWORD PTR _this$[ebp], ecx

; 376  : 		CAtlSafeAllocBufferNode *p = (CAtlSafeAllocBufferNode*)Allocator::Allocate(nRequestedSize + sizeof(CAtlSafeAllocBufferNode));

	mov	eax, DWORD PTR _nRequestedSize$[ebp]
	add	eax, 8
	push	eax
	call	?Allocate@CCRTAllocator@ATL@@SAPAXI@Z	; ATL::CCRTAllocator::Allocate
	add	esp, 4
	mov	DWORD PTR _p$[ebp], eax

; 377  : 		if (p == NULL)

	cmp	DWORD PTR _p$[ebp], 0
	jne	SHORT $L159703

; 378  : 			return NULL;

	xor	eax, eax
	jmp	SHORT $L159690
$L159703:

; 379  : 		
; 380  : 		// Add buffer to the list
; 381  : 		p->m_pNext = m_pHead;

	mov	ecx, DWORD PTR _p$[ebp]
	mov	edx, DWORD PTR _this$[ebp]
	mov	eax, DWORD PTR [edx]
	mov	DWORD PTR [ecx], eax

; 382  : 		m_pHead = p;

	mov	ecx, DWORD PTR _this$[ebp]
	mov	edx, DWORD PTR _p$[ebp]
	mov	DWORD PTR [ecx], edx

; 383  : 		
; 384  : 		return p->GetData();

	mov	ecx, DWORD PTR _p$[ebp]
	call	?GetData@CAtlSafeAllocBufferNode@?$CAtlSafeAllocBufferManager@VCCRTAllocator@ATL@@@_ATL_SAFE_ALLOCA_IMPL@ATL@@QAEPAXXZ ; ATL::_ATL_SAFE_ALLOCA_IMPL::CAtlSafeAllocBufferManager<ATL::CCRTAllocator>::CAtlSafeAllocBufferNode::GetData
$L159690:

; 385  : 	}

	add	esp, 8
	cmp	ebp, esp
	call	__RTC_CheckEsp
	mov	esp, ebp
	pop	ebp
	ret	4
?Allocate@?$CAtlSafeAllocBufferManager@VCCRTAllocator@ATL@@@_ATL_SAFE_ALLOCA_IMPL@ATL@@QAEPAXK@Z ENDP ; ATL::_ATL_SAFE_ALLOCA_IMPL::CAtlSafeAllocBufferManager<ATL::CCRTAllocator>::Allocate
; Function compile flags: /Odt /RTCsu
_TEXT	ENDS
;	COMDAT ?Allocate@CCRTAllocator@ATL@@SAPAXI@Z
_TEXT	SEGMENT
_nBytes$ = 8						; size = 4
?Allocate@CCRTAllocator@ATL@@SAPAXI@Z PROC NEAR		; ATL::CCRTAllocator::Allocate, COMDAT

; 30   : 	{

	push	ebp
	mov	ebp, esp

; 31   : 		return malloc(nBytes);

	mov	eax, DWORD PTR _nBytes$[ebp]
	push	eax
	call	_malloc
	add	esp, 4

; 32   : 	}

	cmp	ebp, esp
	call	__RTC_CheckEsp
	pop	ebp
	ret	0
?Allocate@CCRTAllocator@ATL@@SAPAXI@Z ENDP		; ATL::CCRTAllocator::Allocate
_TEXT	ENDS
PUBLIC	?Free@CCRTAllocator@ATL@@SAXPAX@Z		; ATL::CCRTAllocator::Free
; Function compile flags: /Odt /RTCsu
;	COMDAT ??1?$CAtlSafeAllocBufferManager@VCCRTAllocator@ATL@@@_ATL_SAFE_ALLOCA_IMPL@ATL@@QAE@XZ
_TEXT	SEGMENT
_p$159709 = -8						; size = 4
_this$ = -4						; size = 4
??1?$CAtlSafeAllocBufferManager@VCCRTAllocator@ATL@@@_ATL_SAFE_ALLOCA_IMPL@ATL@@QAE@XZ PROC NEAR ; ATL::_ATL_SAFE_ALLOCA_IMPL::CAtlSafeAllocBufferManager<ATL::CCRTAllocator>::~CAtlSafeAllocBufferManager<ATL::CCRTAllocator>, COMDAT
; _this$ = ecx

; 387  : 	{

	push	ebp
	mov	ebp, esp
	sub	esp, 8
	mov	DWORD PTR [ebp-8], -858993460		; ccccccccH
	mov	DWORD PTR [ebp-4], -858993460		; ccccccccH
	mov	DWORD PTR _this$[ebp], ecx
$L159707:

; 388  : 		// Walk the list and free the buffers
; 389  : 		while (m_pHead != NULL)

	mov	eax, DWORD PTR _this$[ebp]
	cmp	DWORD PTR [eax], 0
	je	SHORT $L159705

; 390  : 		{
; 391  : 			CAtlSafeAllocBufferNode* p = m_pHead;

	mov	ecx, DWORD PTR _this$[ebp]
	mov	edx, DWORD PTR [ecx]
	mov	DWORD PTR _p$159709[ebp], edx

; 392  : 			m_pHead = m_pHead->m_pNext;

	mov	eax, DWORD PTR _this$[ebp]
	mov	ecx, DWORD PTR [eax]
	mov	edx, DWORD PTR _this$[ebp]
	mov	eax, DWORD PTR [ecx]
	mov	DWORD PTR [edx], eax

; 393  : 			Allocator::Free(p);

	mov	ecx, DWORD PTR _p$159709[ebp]
	push	ecx
	call	?Free@CCRTAllocator@ATL@@SAXPAX@Z	; ATL::CCRTAllocator::Free
	add	esp, 4

; 394  : 		}

	jmp	SHORT $L159707
$L159705:

; 395  : 	}

	add	esp, 8
	cmp	ebp, esp
	call	__RTC_CheckEsp
	mov	esp, ebp
	pop	ebp
	ret	0
??1?$CAtlSafeAllocBufferManager@VCCRTAllocator@ATL@@@_ATL_SAFE_ALLOCA_IMPL@ATL@@QAE@XZ ENDP ; ATL::_ATL_SAFE_ALLOCA_IMPL::CAtlSafeAllocBufferManager<ATL::CCRTAllocator>::~CAtlSafeAllocBufferManager<ATL::CCRTAllocator>
; Function compile flags: /Odt /RTCsu
_TEXT	ENDS
;	COMDAT ?Free@CCRTAllocator@ATL@@SAXPAX@Z
_TEXT	SEGMENT
_p$ = 8							; size = 4
?Free@CCRTAllocator@ATL@@SAXPAX@Z PROC NEAR		; ATL::CCRTAllocator::Free, COMDAT

; 35   : 	{

	push	ebp
	mov	ebp, esp

; 36   : 		free(p);

	mov	eax, DWORD PTR _p$[ebp]
	push	eax
	call	_free
	add	esp, 4

; 37   : 	}

	cmp	ebp, esp
	call	__RTC_CheckEsp
	pop	ebp
	ret	0
?Free@CCRTAllocator@ATL@@SAXPAX@Z ENDP			; ATL::CCRTAllocator::Free
; Function compile flags: /Odt /RTCsu
_TEXT	ENDS
;	COMDAT ??0?$CTempBuffer@D$0IA@VCCRTAllocator@ATL@@@ATL@@QAE@XZ
_TEXT	SEGMENT
_this$ = -4						; size = 4
??0?$CTempBuffer@D$0IA@VCCRTAllocator@ATL@@@ATL@@QAE@XZ PROC NEAR ; ATL::CTempBuffer<char,128,ATL::CCRTAllocator>::CTempBuffer<char,128,ATL::CCRTAllocator>, COMDAT
; _this$ = ecx

; 216  : 	{

	push	ebp
	mov	ebp, esp
	push	ecx
	mov	DWORD PTR [ebp-4], -858993460		; ccccccccH
	mov	DWORD PTR _this$[ebp], ecx
	mov	eax, DWORD PTR _this$[ebp]
	mov	DWORD PTR [eax], 0

; 217  : 	}

	mov	eax, DWORD PTR _this$[ebp]
	mov	esp, ebp
	pop	ebp
	ret	0
??0?$CTempBuffer@D$0IA@VCCRTAllocator@ATL@@@ATL@@QAE@XZ ENDP ; ATL::CTempBuffer<char,128,ATL::CCRTAllocator>::CTempBuffer<char,128,ATL::CCRTAllocator>
_TEXT	ENDS
PUBLIC	?FreeHeap@?$CTempBuffer@D$0IA@VCCRTAllocator@ATL@@@ATL@@AAEXXZ ; ATL::CTempBuffer<char,128,ATL::CCRTAllocator>::FreeHeap
; Function compile flags: /Odt /RTCsu
;	COMDAT ??1?$CTempBuffer@D$0IA@VCCRTAllocator@ATL@@@ATL@@QAE@XZ
_TEXT	SEGMENT
_this$ = -4						; size = 4
??1?$CTempBuffer@D$0IA@VCCRTAllocator@ATL@@@ATL@@QAE@XZ PROC NEAR ; ATL::CTempBuffer<char,128,ATL::CCRTAllocator>::~CTempBuffer<char,128,ATL::CCRTAllocator>, COMDAT
; _this$ = ecx

; 225  : 	{

	push	ebp
	mov	ebp, esp
	push	ecx
	mov	DWORD PTR [ebp-4], -858993460		; ccccccccH
	mov	DWORD PTR _this$[ebp], ecx

; 226  : 		if( m_p != reinterpret_cast< T* >( m_abFixedBuffer ) )

	mov	eax, DWORD PTR _this$[ebp]
	add	eax, 4
	mov	ecx, DWORD PTR _this$[ebp]
	cmp	DWORD PTR [ecx], eax
	je	SHORT $L159763

; 227  : 		{
; 228  : 			FreeHeap();

	mov	ecx, DWORD PTR _this$[ebp]
	call	?FreeHeap@?$CTempBuffer@D$0IA@VCCRTAllocator@ATL@@@ATL@@AAEXXZ ; ATL::CTempBuffer<char,128,ATL::CCRTAllocator>::FreeHeap
$L159763:

; 229  : 		}
; 230  : 	}

	add	esp, 4
	cmp	ebp, esp
	call	__RTC_CheckEsp
	mov	esp, ebp
	pop	ebp
	ret	0
??1?$CTempBuffer@D$0IA@VCCRTAllocator@ATL@@@ATL@@QAE@XZ ENDP ; ATL::CTempBuffer<char,128,ATL::CCRTAllocator>::~CTempBuffer<char,128,ATL::CCRTAllocator>
; Function compile flags: /Odt /RTCsu
_TEXT	ENDS
;	COMDAT ??B?$CTempBuffer@D$0IA@VCCRTAllocator@ATL@@@ATL@@QBEPADXZ
_TEXT	SEGMENT
_this$ = -4						; size = 4
??B?$CTempBuffer@D$0IA@VCCRTAllocator@ATL@@@ATL@@QBEPADXZ PROC NEAR ; ATL::CTempBuffer<char,128,ATL::CCRTAllocator>::operator char *, COMDAT
; _this$ = ecx

; 233  : 	{

	push	ebp
	mov	ebp, esp
	push	ecx
	mov	DWORD PTR [ebp-4], -858993460		; ccccccccH
	mov	DWORD PTR _this$[ebp], ecx

; 234  : 		return( m_p );

	mov	eax, DWORD PTR _this$[ebp]
	mov	eax, DWORD PTR [eax]

; 235  : 	}

	mov	esp, ebp
	pop	ebp
	ret	0
??B?$CTempBuffer@D$0IA@VCCRTAllocator@ATL@@@ATL@@QBEPADXZ ENDP ; ATL::CTempBuffer<char,128,ATL::CCRTAllocator>::operator char *
_TEXT	ENDS
PUBLIC	?AllocateBytes@?$CTempBuffer@D$0IA@VCCRTAllocator@ATL@@@ATL@@QAEPADI@Z ; ATL::CTempBuffer<char,128,ATL::CCRTAllocator>::AllocateBytes
; Function compile flags: /Odt /RTCsu
;	COMDAT ?Allocate@?$CTempBuffer@D$0IA@VCCRTAllocator@ATL@@@ATL@@QAEPADI@Z
_TEXT	SEGMENT
_this$ = -4						; size = 4
_nElements$ = 8						; size = 4
?Allocate@?$CTempBuffer@D$0IA@VCCRTAllocator@ATL@@@ATL@@QAEPADI@Z PROC NEAR ; ATL::CTempBuffer<char,128,ATL::CCRTAllocator>::Allocate, COMDAT
; _this$ = ecx

; 243  : 	{

	push	ebp
	mov	ebp, esp
	push	ecx
	mov	DWORD PTR [ebp-4], -858993460		; ccccccccH
	mov	DWORD PTR _this$[ebp], ecx

; 244  : 		return( AllocateBytes( nElements*sizeof( T ) ) );

	mov	eax, DWORD PTR _nElements$[ebp]
	push	eax
	mov	ecx, DWORD PTR _this$[ebp]
	call	?AllocateBytes@?$CTempBuffer@D$0IA@VCCRTAllocator@ATL@@@ATL@@QAEPADI@Z ; ATL::CTempBuffer<char,128,ATL::CCRTAllocator>::AllocateBytes

; 245  : 	}

	add	esp, 4
	cmp	ebp, esp
	call	__RTC_CheckEsp
	mov	esp, ebp
	pop	ebp
	ret	4
?Allocate@?$CTempBuffer@D$0IA@VCCRTAllocator@ATL@@@ATL@@QAEPADI@Z ENDP ; ATL::CTempBuffer<char,128,ATL::CCRTAllocator>::Allocate
_TEXT	ENDS
PUBLIC	??0?$CComPtrBase@UIRegistrar@@@ATL@@IAE@XZ	; ATL::CComPtrBase<IRegistrar>::CComPtrBase<IRegistrar>
; Function compile flags: /Odt /RTCsu
; File c:\program files\microsoft visual studio .net 2003\vc7\atlmfc\include\atlcomcli.h
;	COMDAT ??0?$CComPtr@UIRegistrar@@@ATL@@QAE@XZ
_TEXT	SEGMENT
_this$ = -4						; size = 4
??0?$CComPtr@UIRegistrar@@@ATL@@QAE@XZ PROC NEAR	; ATL::CComPtr<IRegistrar>::CComPtr<IRegistrar>, COMDAT
; _this$ = ecx

; 248  : 	CComPtr() throw()

	push	ebp
	mov	ebp, esp
	push	ecx
	mov	DWORD PTR [ebp-4], -858993460		; ccccccccH
	mov	DWORD PTR _this$[ebp], ecx
	mov	ecx, DWORD PTR _this$[ebp]
	call	??0?$CComPtrBase@UIRegistrar@@@ATL@@IAE@XZ ; ATL::CComPtrBase<IRegistrar>::CComPtrBase<IRegistrar>

; 249  : 	{
; 250  : 	}

	mov	eax, DWORD PTR _this$[ebp]
	add	esp, 4
	cmp	ebp, esp
	call	__RTC_CheckEsp
	mov	esp, ebp
	pop	ebp
	ret	0
??0?$CComPtr@UIRegistrar@@@ATL@@QAE@XZ ENDP		; ATL::CComPtr<IRegistrar>::CComPtr<IRegistrar>
; Function compile flags: /Odt /RTCsu
_TEXT	ENDS
;	COMDAT ??1?$CComPtrBase@UIRegistrar@@@ATL@@QAE@XZ
_TEXT	SEGMENT
_this$ = -4						; size = 4
??1?$CComPtrBase@UIRegistrar@@@ATL@@QAE@XZ PROC NEAR	; ATL::CComPtrBase<IRegistrar>::~CComPtrBase<IRegistrar>, COMDAT
; _this$ = ecx

; 126  : 	{

	push	ebp
	mov	ebp, esp
	push	ecx
	push	esi
	mov	DWORD PTR [ebp-4], -858993460		; ccccccccH
	mov	DWORD PTR _this$[ebp], ecx

; 127  : 		if (p)

	mov	eax, DWORD PTR _this$[ebp]
	cmp	DWORD PTR [eax], 0
	je	SHORT $L159803

; 128  : 			p->Release();

	mov	ecx, DWORD PTR _this$[ebp]
	mov	edx, DWORD PTR [ecx]
	mov	eax, DWORD PTR _this$[ebp]
	mov	ecx, DWORD PTR [eax]
	mov	edx, DWORD PTR [edx]
	mov	esi, esp
	push	ecx
	call	DWORD PTR [edx+8]
	cmp	esi, esp
	call	__RTC_CheckEsp
$L159803:

; 129  : 	}

	pop	esi
	add	esp, 4
	cmp	ebp, esp
	call	__RTC_CheckEsp
	mov	esp, ebp
	pop	ebp
	ret	0
??1?$CComPtrBase@UIRegistrar@@@ATL@@QAE@XZ ENDP		; ATL::CComPtrBase<IRegistrar>::~CComPtrBase<IRegistrar>
; Function compile flags: /Odt /RTCsu
_TEXT	ENDS
;	COMDAT ??B?$CComPtrBase@UIRegistrar@@@ATL@@QBEPAUIRegistrar@@XZ
_TEXT	SEGMENT
_this$ = -4						; size = 4
??B?$CComPtrBase@UIRegistrar@@@ATL@@QBEPAUIRegistrar@@XZ PROC NEAR ; ATL::CComPtrBase<IRegistrar>::operator IRegistrar *, COMDAT
; _this$ = ecx

; 131  : 	{

	push	ebp
	mov	ebp, esp
	push	ecx
	mov	DWORD PTR [ebp-4], -858993460		; ccccccccH
	mov	DWORD PTR _this$[ebp], ecx

; 132  : 		return p;

	mov	eax, DWORD PTR _this$[ebp]
	mov	eax, DWORD PTR [eax]

; 133  : 	}

	mov	esp, ebp
	pop	ebp
	ret	0
??B?$CComPtrBase@UIRegistrar@@@ATL@@QBEPAUIRegistrar@@XZ ENDP ; ATL::CComPtrBase<IRegistrar>::operator IRegistrar *
_TEXT	ENDS
PUBLIC	??_C@_04DBLLIIGB@p?$DN?$DN0?$AA@		; `string'
PUBLIC	??_C@_0FC@KBOEFHBO@C?3?2Program?5Files?2Microsoft?5Visua@ ; `string'
;	COMDAT ??_C@_04DBLLIIGB@p?$DN?$DN0?$AA@
CONST	SEGMENT
??_C@_04DBLLIIGB@p?$DN?$DN0?$AA@ DB 'p==0', 00H		; `string'
CONST	ENDS
;	COMDAT ??_C@_0FC@KBOEFHBO@C?3?2Program?5Files?2Microsoft?5Visua@
CONST	SEGMENT
??_C@_0FC@KBOEFHBO@C?3?2Program?5Files?2Microsoft?5Visua@ DB 'C:\Program '
	DB	'Files\Microsoft Visual Studio .NET 2003\Vc7\atlmfc\include\at'
	DB	'lcomcli.h', 00H				; `string'
; Function compile flags: /Odt /RTCsu
CONST	ENDS
;	COMDAT ??I?$CComPtrBase@UIRegistrar@@@ATL@@QAEPAPAUIRegistrar@@XZ
_TEXT	SEGMENT
_this$ = -4						; size = 4
??I?$CComPtrBase@UIRegistrar@@@ATL@@QAEPAPAUIRegistrar@@XZ PROC NEAR ; ATL::CComPtrBase<IRegistrar>::operator&, COMDAT
; _this$ = ecx

; 142  : 	{

	push	ebp
	mov	ebp, esp
	push	ecx
	mov	DWORD PTR [ebp-4], -858993460		; ccccccccH
	mov	DWORD PTR _this$[ebp], ecx

; 143  : 		ATLASSERT(p==NULL);

	mov	eax, DWORD PTR _this$[ebp]
	cmp	DWORD PTR [eax], 0
	je	SHORT $L206442
	push	OFFSET FLAT:??_C@_04DBLLIIGB@p?$DN?$DN0?$AA@
	push	0
	push	143					; 0000008fH
	push	OFFSET FLAT:??_C@_0FC@KBOEFHBO@C?3?2Program?5Files?2Microsoft?5Visua@
	push	2
	call	__CrtDbgReport
	add	esp, 20					; 00000014H
	cmp	eax, 1
	jne	SHORT $L206442
	int	3
$L206442:

; 144  : 		return &p;

	mov	eax, DWORD PTR _this$[ebp]

; 145  : 	}

	add	esp, 4
	cmp	ebp, esp
	call	__RTC_CheckEsp
	mov	esp, ebp
	pop	ebp
	ret	0
??I?$CComPtrBase@UIRegistrar@@@ATL@@QAEPAPAUIRegistrar@@XZ ENDP ; ATL::CComPtrBase<IRegistrar>::operator&
_TEXT	ENDS
PUBLIC	??_C@_04CLHEGAEG@p?$CB?$DN0?$AA@		; `string'
;	COMDAT ??_C@_04CLHEGAEG@p?$CB?$DN0?$AA@
CONST	SEGMENT
??_C@_04CLHEGAEG@p?$CB?$DN0?$AA@ DB 'p!=0', 00H		; `string'
; Function compile flags: /Odt /RTCsu
CONST	ENDS
;	COMDAT ??C?$CComPtrBase@UIRegistrar@@@ATL@@QBEPAV?$_NoAddRefReleaseOnCComPtr@UIRegistrar@@@1@XZ
_TEXT	SEGMENT
_this$ = -4						; size = 4
??C?$CComPtrBase@UIRegistrar@@@ATL@@QBEPAV?$_NoAddRefReleaseOnCComPtr@UIRegistrar@@@1@XZ PROC NEAR ; ATL::CComPtrBase<IRegistrar>::operator->, COMDAT
; _this$ = ecx

; 147  : 	{

	push	ebp
	mov	ebp, esp
	push	ecx
	mov	DWORD PTR [ebp-4], -858993460		; ccccccccH
	mov	DWORD PTR _this$[ebp], ecx

; 148  : 		ATLASSERT(p!=NULL);

	mov	eax, DWORD PTR _this$[ebp]
	cmp	DWORD PTR [eax], 0
	jne	SHORT $L206445
	push	OFFSET FLAT:??_C@_04CLHEGAEG@p?$CB?$DN0?$AA@
	push	0
	push	148					; 00000094H
	push	OFFSET FLAT:??_C@_0FC@KBOEFHBO@C?3?2Program?5Files?2Microsoft?5Visua@
	push	2
	call	__CrtDbgReport
	add	esp, 20					; 00000014H
	cmp	eax, 1
	jne	SHORT $L206445
	int	3
$L206445:

; 149  : 		return (_NoAddRefReleaseOnCComPtr<T>*)p;

	mov	edx, DWORD PTR _this$[ebp]
	mov	eax, DWORD PTR [edx]

; 150  : 	}

	add	esp, 4
	cmp	ebp, esp
	call	__RTC_CheckEsp
	mov	esp, ebp
	pop	ebp
	ret	0
??C?$CComPtrBase@UIRegistrar@@@ATL@@QBEPAV?$_NoAddRefReleaseOnCComPtr@UIRegistrar@@@1@XZ ENDP ; ATL::CComPtrBase<IRegistrar>::operator->
_TEXT	ENDS
PUBLIC	?RegisterServer@CAtlComModule@ATL@@QAEJHPBU_GUID@@@Z ; ATL::CAtlComModule::RegisterServer
; Function compile flags: /Odt /RTCsu
; File c:\program files\microsoft visual studio .net 2003\vc7\atlmfc\include\atlbase.h
;	COMDAT ?RegisterServer@?$CAtlModuleT@VCComModule@ATL@@@ATL@@QAEJHPBU_GUID@@@Z
_TEXT	SEGMENT
_hr$ = -8						; size = 4
_this$ = -4						; size = 4
_bRegTypeLib$ = 8					; size = 4
_pCLSID$ = 12						; size = 4
?RegisterServer@?$CAtlModuleT@VCComModule@ATL@@@ATL@@QAEJHPBU_GUID@@@Z PROC NEAR ; ATL::CAtlModuleT<ATL::CComModule>::RegisterServer, COMDAT
; _this$ = ecx

; 2873 : 	{

	push	ebp
	mov	ebp, esp
	sub	esp, 8
	push	esi
	mov	DWORD PTR [ebp-8], -858993460		; ccccccccH
	mov	DWORD PTR [ebp-4], -858993460		; ccccccccH
	mov	DWORD PTR _this$[ebp], ecx

; 2874 : 		(pCLSID);
; 2875 : 		(bRegTypeLib);
; 2876 : 
; 2877 : 		HRESULT hr = S_OK;

	mov	DWORD PTR _hr$[ebp], 0

; 2878 : 
; 2879 : #ifndef _ATL_NO_COM_SUPPORT
; 2880 : 
; 2881 : 		hr = _AtlComModule.RegisterServer(bRegTypeLib, pCLSID);

	mov	eax, DWORD PTR _pCLSID$[ebp]
	push	eax
	mov	ecx, DWORD PTR _bRegTypeLib$[ebp]
	push	ecx
	mov	ecx, OFFSET FLAT:?_AtlComModule@ATL@@3VCAtlComModule@1@A
	call	?RegisterServer@CAtlComModule@ATL@@QAEJHPBU_GUID@@@Z ; ATL::CAtlComModule::RegisterServer
	mov	DWORD PTR _hr$[ebp], eax

; 2882 : 
; 2883 : #endif	// _ATL_NO_COM_SUPPORT
; 2884 : 
; 2885 : 
; 2886 : #ifndef _ATL_NO_PERF_SUPPORT
; 2887 : 
; 2888 : 		if (SUCCEEDED(hr) && _pPerfRegFunc != NULL)

	cmp	DWORD PTR _hr$[ebp], 0
	jl	SHORT $L159821
	cmp	DWORD PTR ?_pPerfRegFunc@ATL@@3P6AJPAUHINSTANCE__@@@ZA, 0 ; ATL::_pPerfRegFunc
	je	SHORT $L159821

; 2889 : 			hr = (*_pPerfRegFunc)(_AtlBaseModule.m_hInst);

	mov	esi, esp
	mov	edx, DWORD PTR ?_AtlBaseModule@ATL@@3VCAtlBaseModule@1@A+4
	push	edx
	call	DWORD PTR ?_pPerfRegFunc@ATL@@3P6AJPAUHINSTANCE__@@@ZA ; ATL::_pPerfRegFunc
	add	esp, 4
	cmp	esi, esp
	call	__RTC_CheckEsp
	mov	DWORD PTR _hr$[ebp], eax
$L159821:

; 2890 : 
; 2891 : #endif
; 2892 : 
; 2893 : 		return hr;

	mov	eax, DWORD PTR _hr$[ebp]

; 2894 : 	}

	pop	esi
	add	esp, 8
	cmp	ebp, esp
	call	__RTC_CheckEsp
	mov	esp, ebp
	pop	ebp
	ret	8
?RegisterServer@?$CAtlModuleT@VCComModule@ATL@@@ATL@@QAEJHPBU_GUID@@@Z ENDP ; ATL::CAtlModuleT<ATL::CComModule>::RegisterServer
_TEXT	ENDS
EXTRN	__imp__AtlComModuleRegisterServer@12:NEAR
; Function compile flags: /Odt /RTCsu
;	COMDAT ?RegisterServer@CAtlComModule@ATL@@QAEJHPBU_GUID@@@Z
_TEXT	SEGMENT
_this$ = -4						; size = 4
_bRegTypeLib$ = 8					; size = 4
_pCLSID$ = 12						; size = 4
?RegisterServer@CAtlComModule@ATL@@QAEJHPBU_GUID@@@Z PROC NEAR ; ATL::CAtlComModule::RegisterServer, COMDAT
; _this$ = ecx

; 2335 : 	{

	push	ebp
	mov	ebp, esp
	push	ecx
	push	esi
	mov	DWORD PTR [ebp-4], -858993460		; ccccccccH
	mov	DWORD PTR _this$[ebp], ecx

; 2336 : 		return AtlComModuleRegisterServer(this, bRegTypeLib, pCLSID);

	mov	esi, esp
	mov	eax, DWORD PTR _pCLSID$[ebp]
	push	eax
	mov	ecx, DWORD PTR _bRegTypeLib$[ebp]
	push	ecx
	mov	edx, DWORD PTR _this$[ebp]
	push	edx
	call	DWORD PTR __imp__AtlComModuleRegisterServer@12
	cmp	esi, esp
	call	__RTC_CheckEsp

; 2337 : 	}

	pop	esi
	add	esp, 4
	cmp	ebp, esp
	call	__RTC_CheckEsp
	mov	esp, ebp
	pop	ebp
	ret	8
?RegisterServer@CAtlComModule@ATL@@QAEJHPBU_GUID@@@Z ENDP ; ATL::CAtlComModule::RegisterServer
_TEXT	ENDS
PUBLIC	?UnregisterServer@CAtlComModule@ATL@@QAEJHPBU_GUID@@@Z ; ATL::CAtlComModule::UnregisterServer
; Function compile flags: /Odt /RTCsu
;	COMDAT ?UnregisterServer@?$CAtlModuleT@VCComModule@ATL@@@ATL@@QAEJHPBU_GUID@@@Z
_TEXT	SEGMENT
_hr$ = -8						; size = 4
_this$ = -4						; size = 4
_bUnRegTypeLib$ = 8					; size = 4
_pCLSID$ = 12						; size = 4
?UnregisterServer@?$CAtlModuleT@VCComModule@ATL@@@ATL@@QAEJHPBU_GUID@@@Z PROC NEAR ; ATL::CAtlModuleT<ATL::CComModule>::UnregisterServer, COMDAT
; _this$ = ecx

; 2897 : 	{

	push	ebp
	mov	ebp, esp
	sub	esp, 8
	push	esi
	mov	DWORD PTR [ebp-8], -858993460		; ccccccccH
	mov	DWORD PTR [ebp-4], -858993460		; ccccccccH
	mov	DWORD PTR _this$[ebp], ecx

; 2898 : 		(bUnRegTypeLib);
; 2899 : 		(pCLSID);
; 2900 : 
; 2901 : 		HRESULT hr = S_OK;

	mov	DWORD PTR _hr$[ebp], 0

; 2902 : 
; 2903 : #ifndef _ATL_NO_PERF_SUPPORT
; 2904 : 
; 2905 : 		if (_pPerfUnRegFunc != NULL)

	cmp	DWORD PTR ?_pPerfUnRegFunc@ATL@@3P6AJXZA, 0 ; ATL::_pPerfUnRegFunc
	je	SHORT $L159826

; 2906 : 			hr = (*_pPerfUnRegFunc)();

	mov	esi, esp
	call	DWORD PTR ?_pPerfUnRegFunc@ATL@@3P6AJXZA ; ATL::_pPerfUnRegFunc
	cmp	esi, esp
	call	__RTC_CheckEsp
	mov	DWORD PTR _hr$[ebp], eax
$L159826:

; 2907 : 
; 2908 : #endif
; 2909 : 
; 2910 : #ifndef _ATL_NO_COM_SUPPORT
; 2911 : 
; 2912 : 		if (SUCCEEDED(hr))

	cmp	DWORD PTR _hr$[ebp], 0
	jl	SHORT $L159828

; 2913 : 			hr = _AtlComModule.UnregisterServer(bUnRegTypeLib, pCLSID);

	mov	eax, DWORD PTR _pCLSID$[ebp]
	push	eax
	mov	ecx, DWORD PTR _bUnRegTypeLib$[ebp]
	push	ecx
	mov	ecx, OFFSET FLAT:?_AtlComModule@ATL@@3VCAtlComModule@1@A
	call	?UnregisterServer@CAtlComModule@ATL@@QAEJHPBU_GUID@@@Z ; ATL::CAtlComModule::UnregisterServer
	mov	DWORD PTR _hr$[ebp], eax
$L159828:

; 2914 : 
; 2915 : #endif	// _ATL_NO_COM_SUPPORT
; 2916 : 
; 2917 : 		return hr;

	mov	eax, DWORD PTR _hr$[ebp]

; 2918 : 
; 2919 : 	}

	pop	esi
	add	esp, 8
	cmp	ebp, esp
	call	__RTC_CheckEsp
	mov	esp, ebp
	pop	ebp
	ret	8
?UnregisterServer@?$CAtlModuleT@VCComModule@ATL@@@ATL@@QAEJHPBU_GUID@@@Z ENDP ; ATL::CAtlModuleT<ATL::CComModule>::UnregisterServer
_TEXT	ENDS
EXTRN	__imp__AtlComModuleUnregisterServer@12:NEAR
; Function compile flags: /Odt /RTCsu
;	COMDAT ?UnregisterServer@CAtlComModule@ATL@@QAEJHPBU_GUID@@@Z
_TEXT	SEGMENT
_this$ = -4						; size = 4
_bRegTypeLib$ = 8					; size = 4
_pCLSID$ = 12						; size = 4
?UnregisterServer@CAtlComModule@ATL@@QAEJHPBU_GUID@@@Z PROC NEAR ; ATL::CAtlComModule::UnregisterServer, COMDAT
; _this$ = ecx

; 2343 : 	{

	push	ebp
	mov	ebp, esp
	push	ecx
	push	esi
	mov	DWORD PTR [ebp-4], -858993460		; ccccccccH
	mov	DWORD PTR _this$[ebp], ecx

; 2344 : 		return AtlComModuleUnregisterServer(this, bRegTypeLib, pCLSID);

	mov	esi, esp
	mov	eax, DWORD PTR _pCLSID$[ebp]
	push	eax
	mov	ecx, DWORD PTR _bRegTypeLib$[ebp]
	push	ecx
	mov	edx, DWORD PTR _this$[ebp]
	push	edx
	call	DWORD PTR __imp__AtlComModuleUnregisterServer@12
	cmp	esi, esp
	call	__RTC_CheckEsp

; 2345 : 	}

	pop	esi
	add	esp, 4
	cmp	ebp, esp
	call	__RTC_CheckEsp
	mov	esp, ebp
	pop	ebp
	ret	8
?UnregisterServer@CAtlComModule@ATL@@QAEJHPBU_GUID@@@Z ENDP ; ATL::CAtlComModule::UnregisterServer
_TEXT	ENDS
PUBLIC	??0?$CComPtrBase@UITypeInfo@@@ATL@@IAE@XZ	; ATL::CComPtrBase<ITypeInfo>::CComPtrBase<ITypeInfo>
; Function compile flags: /Odt /RTCsu
; File c:\program files\microsoft visual studio .net 2003\vc7\atlmfc\include\atlcomcli.h
;	COMDAT ??0?$CComPtr@UITypeInfo@@@ATL@@QAE@XZ
_TEXT	SEGMENT
_this$ = -4						; size = 4
??0?$CComPtr@UITypeInfo@@@ATL@@QAE@XZ PROC NEAR		; ATL::CComPtr<ITypeInfo>::CComPtr<ITypeInfo>, COMDAT
; _this$ = ecx

; 248  : 	CComPtr() throw()

	push	ebp
	mov	ebp, esp
	push	ecx
	mov	DWORD PTR [ebp-4], -858993460		; ccccccccH
	mov	DWORD PTR _this$[ebp], ecx
	mov	ecx, DWORD PTR _this$[ebp]
	call	??0?$CComPtrBase@UITypeInfo@@@ATL@@IAE@XZ ; ATL::CComPtrBase<ITypeInfo>::CComPtrBase<ITypeInfo>

; 249  : 	{
; 250  : 	}

	mov	eax, DWORD PTR _this$[ebp]
	add	esp, 4
	cmp	ebp, esp
	call	__RTC_CheckEsp
	mov	esp, ebp
	pop	ebp
	ret	0
??0?$CComPtr@UITypeInfo@@@ATL@@QAE@XZ ENDP		; ATL::CComPtr<ITypeInfo>::CComPtr<ITypeInfo>
_TEXT	ENDS
PUBLIC	??0?$CComPtrBase@UITypeInfo@@@ATL@@IAE@PAUITypeInfo@@@Z ; ATL::CComPtrBase<ITypeInfo>::CComPtrBase<ITypeInfo>
; Function compile flags: /Odt /RTCsu
;	COMDAT ??0?$CComPtr@UITypeInfo@@@ATL@@QAE@ABV01@@Z
_TEXT	SEGMENT
_this$ = -4						; size = 4
_lp$ = 8						; size = 4
??0?$CComPtr@UITypeInfo@@@ATL@@QAE@ABV01@@Z PROC NEAR	; ATL::CComPtr<ITypeInfo>::CComPtr<ITypeInfo>, COMDAT
; _this$ = ecx

; 273  : 	{

	push	ebp
	mov	ebp, esp
	push	ecx
	mov	DWORD PTR [ebp-4], -858993460		; ccccccccH
	mov	DWORD PTR _this$[ebp], ecx
	mov	eax, DWORD PTR _lp$[ebp]
	mov	ecx, DWORD PTR [eax]
	push	ecx
	mov	ecx, DWORD PTR _this$[ebp]
	call	??0?$CComPtrBase@UITypeInfo@@@ATL@@IAE@PAUITypeInfo@@@Z ; ATL::CComPtrBase<ITypeInfo>::CComPtrBase<ITypeInfo>

; 274  : 	}

	mov	eax, DWORD PTR _this$[ebp]
	add	esp, 4
	cmp	ebp, esp
	call	__RTC_CheckEsp
	mov	esp, ebp
	pop	ebp
	ret	4
??0?$CComPtr@UITypeInfo@@@ATL@@QAE@ABV01@@Z ENDP	; ATL::CComPtr<ITypeInfo>::CComPtr<ITypeInfo>
; Function compile flags: /Odt /RTCsu
_TEXT	ENDS
;	COMDAT ??1?$CComPtrBase@UITypeInfo@@@ATL@@QAE@XZ
_TEXT	SEGMENT
_this$ = -4						; size = 4
??1?$CComPtrBase@UITypeInfo@@@ATL@@QAE@XZ PROC NEAR	; ATL::CComPtrBase<ITypeInfo>::~CComPtrBase<ITypeInfo>, COMDAT
; _this$ = ecx

; 126  : 	{

	push	ebp
	mov	ebp, esp
	push	ecx
	push	esi
	mov	DWORD PTR [ebp-4], -858993460		; ccccccccH
	mov	DWORD PTR _this$[ebp], ecx

; 127  : 		if (p)

	mov	eax, DWORD PTR _this$[ebp]
	cmp	DWORD PTR [eax], 0
	je	SHORT $L159876

; 128  : 			p->Release();

	mov	ecx, DWORD PTR _this$[ebp]
	mov	edx, DWORD PTR [ecx]
	mov	eax, DWORD PTR _this$[ebp]
	mov	ecx, DWORD PTR [eax]
	mov	edx, DWORD PTR [edx]
	mov	esi, esp
	push	ecx
	call	DWORD PTR [edx+8]
	cmp	esi, esp
	call	__RTC_CheckEsp
$L159876:

; 129  : 	}

	pop	esi
	add	esp, 4
	cmp	ebp, esp
	call	__RTC_CheckEsp
	mov	esp, ebp
	pop	ebp
	ret	0
??1?$CComPtrBase@UITypeInfo@@@ATL@@QAE@XZ ENDP		; ATL::CComPtrBase<ITypeInfo>::~CComPtrBase<ITypeInfo>
; Function compile flags: /Odt /RTCsu
_TEXT	ENDS
;	COMDAT ??I?$CComPtrBase@UITypeInfo@@@ATL@@QAEPAPAUITypeInfo@@XZ
_TEXT	SEGMENT
_this$ = -4						; size = 4
??I?$CComPtrBase@UITypeInfo@@@ATL@@QAEPAPAUITypeInfo@@XZ PROC NEAR ; ATL::CComPtrBase<ITypeInfo>::operator&, COMDAT
; _this$ = ecx

; 142  : 	{

	push	ebp
	mov	ebp, esp
	push	ecx
	mov	DWORD PTR [ebp-4], -858993460		; ccccccccH
	mov	DWORD PTR _this$[ebp], ecx

; 143  : 		ATLASSERT(p==NULL);

	mov	eax, DWORD PTR _this$[ebp]
	cmp	DWORD PTR [eax], 0
	je	SHORT $L206462
	push	OFFSET FLAT:??_C@_04DBLLIIGB@p?$DN?$DN0?$AA@
	push	0
	push	143					; 0000008fH
	push	OFFSET FLAT:??_C@_0FC@KBOEFHBO@C?3?2Program?5Files?2Microsoft?5Visua@
	push	2
	call	__CrtDbgReport
	add	esp, 20					; 00000014H
	cmp	eax, 1
	jne	SHORT $L206462
	int	3
$L206462:

; 144  : 		return &p;

	mov	eax, DWORD PTR _this$[ebp]

; 145  : 	}

	add	esp, 4
	cmp	ebp, esp
	call	__RTC_CheckEsp
	mov	esp, ebp
	pop	ebp
	ret	0
??I?$CComPtrBase@UITypeInfo@@@ATL@@QAEPAPAUITypeInfo@@XZ ENDP ; ATL::CComPtrBase<ITypeInfo>::operator&
; Function compile flags: /Odt /RTCsu
_TEXT	ENDS
;	COMDAT ??C?$CComPtrBase@UITypeInfo@@@ATL@@QBEPAV?$_NoAddRefReleaseOnCComPtr@UITypeInfo@@@1@XZ
_TEXT	SEGMENT
_this$ = -4						; size = 4
??C?$CComPtrBase@UITypeInfo@@@ATL@@QBEPAV?$_NoAddRefReleaseOnCComPtr@UITypeInfo@@@1@XZ PROC NEAR ; ATL::CComPtrBase<ITypeInfo>::operator->, COMDAT
; _this$ = ecx

; 147  : 	{

	push	ebp
	mov	ebp, esp
	push	ecx
	mov	DWORD PTR [ebp-4], -858993460		; ccccccccH
	mov	DWORD PTR _this$[ebp], ecx

; 148  : 		ATLASSERT(p!=NULL);

	mov	eax, DWORD PTR _this$[ebp]
	cmp	DWORD PTR [eax], 0
	jne	SHORT $L206465
	push	OFFSET FLAT:??_C@_04CLHEGAEG@p?$CB?$DN0?$AA@
	push	0
	push	148					; 00000094H
	push	OFFSET FLAT:??_C@_0FC@KBOEFHBO@C?3?2Program?5Files?2Microsoft?5Visua@
	push	2
	call	__CrtDbgReport
	add	esp, 20					; 00000014H
	cmp	eax, 1
	jne	SHORT $L206465
	int	3
$L206465:

; 149  : 		return (_NoAddRefReleaseOnCComPtr<T>*)p;

	mov	edx, DWORD PTR _this$[ebp]
	mov	eax, DWORD PTR [edx]

; 150  : 	}

	add	esp, 4
	cmp	ebp, esp
	call	__RTC_CheckEsp
	mov	esp, ebp
	pop	ebp
	ret	0
??C?$CComPtrBase@UITypeInfo@@@ATL@@QBEPAV?$_NoAddRefReleaseOnCComPtr@UITypeInfo@@@1@XZ ENDP ; ATL::CComPtrBase<ITypeInfo>::operator->
; Function compile flags: /Odt /RTCsu
_TEXT	ENDS
;	COMDAT ?Detach@?$CComPtrBase@UITypeInfo@@@ATL@@QAEPAUITypeInfo@@XZ
_TEXT	SEGMENT
_pt$ = -8						; size = 4
_this$ = -4						; size = 4
?Detach@?$CComPtrBase@UITypeInfo@@@ATL@@QAEPAUITypeInfo@@XZ PROC NEAR ; ATL::CComPtrBase<ITypeInfo>::Detach, COMDAT
; _this$ = ecx

; 198  : 	{

	push	ebp
	mov	ebp, esp
	sub	esp, 8
	mov	DWORD PTR [ebp-8], -858993460		; ccccccccH
	mov	DWORD PTR [ebp-4], -858993460		; ccccccccH
	mov	DWORD PTR _this$[ebp], ecx

; 199  : 		T* pt = p;

	mov	eax, DWORD PTR _this$[ebp]
	mov	ecx, DWORD PTR [eax]
	mov	DWORD PTR _pt$[ebp], ecx

; 200  : 		p = NULL;

	mov	edx, DWORD PTR _this$[ebp]
	mov	DWORD PTR [edx], 0

; 201  : 		return pt;

	mov	eax, DWORD PTR _pt$[ebp]

; 202  : 	}

	mov	esp, ebp
	pop	ebp
	ret	0
?Detach@?$CComPtrBase@UITypeInfo@@@ATL@@QAEPAUITypeInfo@@XZ ENDP ; ATL::CComPtrBase<ITypeInfo>::Detach
_TEXT	ENDS
PUBLIC	??0?$CComPtrBase@UITypeLib@@@ATL@@IAE@XZ	; ATL::CComPtrBase<ITypeLib>::CComPtrBase<ITypeLib>
; Function compile flags: /Odt /RTCsu
;	COMDAT ??0?$CComPtr@UITypeLib@@@ATL@@QAE@XZ
_TEXT	SEGMENT
_this$ = -4						; size = 4
??0?$CComPtr@UITypeLib@@@ATL@@QAE@XZ PROC NEAR		; ATL::CComPtr<ITypeLib>::CComPtr<ITypeLib>, COMDAT
; _this$ = ecx

; 248  : 	CComPtr() throw()

	push	ebp
	mov	ebp, esp
	push	ecx
	mov	DWORD PTR [ebp-4], -858993460		; ccccccccH
	mov	DWORD PTR _this$[ebp], ecx
	mov	ecx, DWORD PTR _this$[ebp]
	call	??0?$CComPtrBase@UITypeLib@@@ATL@@IAE@XZ ; ATL::CComPtrBase<ITypeLib>::CComPtrBase<ITypeLib>

; 249  : 	{
; 250  : 	}

	mov	eax, DWORD PTR _this$[ebp]
	add	esp, 4
	cmp	ebp, esp
	call	__RTC_CheckEsp
	mov	esp, ebp
	pop	ebp
	ret	0
??0?$CComPtr@UITypeLib@@@ATL@@QAE@XZ ENDP		; ATL::CComPtr<ITypeLib>::CComPtr<ITypeLib>
; Function compile flags: /Odt /RTCsu
_TEXT	ENDS
;	COMDAT ??1?$CComPtrBase@UITypeLib@@@ATL@@QAE@XZ
_TEXT	SEGMENT
_this$ = -4						; size = 4
??1?$CComPtrBase@UITypeLib@@@ATL@@QAE@XZ PROC NEAR	; ATL::CComPtrBase<ITypeLib>::~CComPtrBase<ITypeLib>, COMDAT
; _this$ = ecx

; 126  : 	{

	push	ebp
	mov	ebp, esp
	push	ecx
	push	esi
	mov	DWORD PTR [ebp-4], -858993460		; ccccccccH
	mov	DWORD PTR _this$[ebp], ecx

; 127  : 		if (p)

	mov	eax, DWORD PTR _this$[ebp]
	cmp	DWORD PTR [eax], 0
	je	SHORT $L159897

; 128  : 			p->Release();

	mov	ecx, DWORD PTR _this$[ebp]
	mov	edx, DWORD PTR [ecx]
	mov	eax, DWORD PTR _this$[ebp]
	mov	ecx, DWORD PTR [eax]
	mov	edx, DWORD PTR [edx]
	mov	esi, esp
	push	ecx
	call	DWORD PTR [edx+8]
	cmp	esi, esp
	call	__RTC_CheckEsp
$L159897:

; 129  : 	}

	pop	esi
	add	esp, 4
	cmp	ebp, esp
	call	__RTC_CheckEsp
	mov	esp, ebp
	pop	ebp
	ret	0
??1?$CComPtrBase@UITypeLib@@@ATL@@QAE@XZ ENDP		; ATL::CComPtrBase<ITypeLib>::~CComPtrBase<ITypeLib>
; Function compile flags: /Odt /RTCsu
_TEXT	ENDS
;	COMDAT ??I?$CComPtrBase@UITypeLib@@@ATL@@QAEPAPAUITypeLib@@XZ
_TEXT	SEGMENT
_this$ = -4						; size = 4
??I?$CComPtrBase@UITypeLib@@@ATL@@QAEPAPAUITypeLib@@XZ PROC NEAR ; ATL::CComPtrBase<ITypeLib>::operator&, COMDAT
; _this$ = ecx

; 142  : 	{

	push	ebp
	mov	ebp, esp
	push	ecx
	mov	DWORD PTR [ebp-4], -858993460		; ccccccccH
	mov	DWORD PTR _this$[ebp], ecx

; 143  : 		ATLASSERT(p==NULL);

	mov	eax, DWORD PTR _this$[ebp]
	cmp	DWORD PTR [eax], 0
	je	SHORT $L206474
	push	OFFSET FLAT:??_C@_04DBLLIIGB@p?$DN?$DN0?$AA@
	push	0
	push	143					; 0000008fH
	push	OFFSET FLAT:??_C@_0FC@KBOEFHBO@C?3?2Program?5Files?2Microsoft?5Visua@
	push	2
	call	__CrtDbgReport
	add	esp, 20					; 00000014H
	cmp	eax, 1
	jne	SHORT $L206474
	int	3
$L206474:

; 144  : 		return &p;

	mov	eax, DWORD PTR _this$[ebp]

; 145  : 	}

	add	esp, 4
	cmp	ebp, esp
	call	__RTC_CheckEsp
	mov	esp, ebp
	pop	ebp
	ret	0
??I?$CComPtrBase@UITypeLib@@@ATL@@QAEPAPAUITypeLib@@XZ ENDP ; ATL::CComPtrBase<ITypeLib>::operator&
; Function compile flags: /Odt /RTCsu
_TEXT	ENDS
;	COMDAT ??C?$CComPtrBase@UITypeLib@@@ATL@@QBEPAV?$_NoAddRefReleaseOnCComPtr@UITypeLib@@@1@XZ
_TEXT	SEGMENT
_this$ = -4						; size = 4
??C?$CComPtrBase@UITypeLib@@@ATL@@QBEPAV?$_NoAddRefReleaseOnCComPtr@UITypeLib@@@1@XZ PROC NEAR ; ATL::CComPtrBase<ITypeLib>::operator->, COMDAT
; _this$ = ecx

; 147  : 	{

	push	ebp
	mov	ebp, esp
	push	ecx
	mov	DWORD PTR [ebp-4], -858993460		; ccccccccH
	mov	DWORD PTR _this$[ebp], ecx

; 148  : 		ATLASSERT(p!=NULL);

	mov	eax, DWORD PTR _this$[ebp]
	cmp	DWORD PTR [eax], 0
	jne	SHORT $L206477
	push	OFFSET FLAT:??_C@_04CLHEGAEG@p?$CB?$DN0?$AA@
	push	0
	push	148					; 00000094H
	push	OFFSET FLAT:??_C@_0FC@KBOEFHBO@C?3?2Program?5Files?2Microsoft?5Visua@
	push	2
	call	__CrtDbgReport
	add	esp, 20					; 00000014H
	cmp	eax, 1
	jne	SHORT $L206477
	int	3
$L206477:

; 149  : 		return (_NoAddRefReleaseOnCComPtr<T>*)p;

	mov	edx, DWORD PTR _this$[ebp]
	mov	eax, DWORD PTR [edx]

; 150  : 	}

	add	esp, 4
	cmp	ebp, esp
	call	__RTC_CheckEsp
	mov	esp, ebp
	pop	ebp
	ret	0
??C?$CComPtrBase@UITypeLib@@@ATL@@QBEPAV?$_NoAddRefReleaseOnCComPtr@UITypeLib@@@1@XZ ENDP ; ATL::CComPtrBase<ITypeLib>::operator->
_TEXT	ENDS
PUBLIC	??0?$CComPtrBase@UITypeInfo2@@@ATL@@IAE@XZ	; ATL::CComPtrBase<ITypeInfo2>::CComPtrBase<ITypeInfo2>
; Function compile flags: /Odt /RTCsu
;	COMDAT ??0?$CComPtr@UITypeInfo2@@@ATL@@QAE@XZ
_TEXT	SEGMENT
_this$ = -4						; size = 4
??0?$CComPtr@UITypeInfo2@@@ATL@@QAE@XZ PROC NEAR	; ATL::CComPtr<ITypeInfo2>::CComPtr<ITypeInfo2>, COMDAT
; _this$ = ecx

; 248  : 	CComPtr() throw()

	push	ebp
	mov	ebp, esp
	push	ecx
	mov	DWORD PTR [ebp-4], -858993460		; ccccccccH
	mov	DWORD PTR _this$[ebp], ecx
	mov	ecx, DWORD PTR _this$[ebp]
	call	??0?$CComPtrBase@UITypeInfo2@@@ATL@@IAE@XZ ; ATL::CComPtrBase<ITypeInfo2>::CComPtrBase<ITypeInfo2>

; 249  : 	{
; 250  : 	}

	mov	eax, DWORD PTR _this$[ebp]
	add	esp, 4
	cmp	ebp, esp
	call	__RTC_CheckEsp
	mov	esp, ebp
	pop	ebp
	ret	0
??0?$CComPtr@UITypeInfo2@@@ATL@@QAE@XZ ENDP		; ATL::CComPtr<ITypeInfo2>::CComPtr<ITypeInfo2>
; Function compile flags: /Odt /RTCsu
_TEXT	ENDS
;	COMDAT ??1?$CComPtrBase@UITypeInfo2@@@ATL@@QAE@XZ
_TEXT	SEGMENT
_this$ = -4						; size = 4
??1?$CComPtrBase@UITypeInfo2@@@ATL@@QAE@XZ PROC NEAR	; ATL::CComPtrBase<ITypeInfo2>::~CComPtrBase<ITypeInfo2>, COMDAT
; _this$ = ecx

; 126  : 	{

	push	ebp
	mov	ebp, esp
	push	ecx
	push	esi
	mov	DWORD PTR [ebp-4], -858993460		; ccccccccH
	mov	DWORD PTR _this$[ebp], ecx

; 127  : 		if (p)

	mov	eax, DWORD PTR _this$[ebp]
	cmp	DWORD PTR [eax], 0
	je	SHORT $L159909

; 128  : 			p->Release();

	mov	ecx, DWORD PTR _this$[ebp]
	mov	edx, DWORD PTR [ecx]
	mov	eax, DWORD PTR _this$[ebp]
	mov	ecx, DWORD PTR [eax]
	mov	edx, DWORD PTR [edx]
	mov	esi, esp
	push	ecx
	call	DWORD PTR [edx+8]
	cmp	esi, esp
	call	__RTC_CheckEsp
$L159909:

; 129  : 	}

	pop	esi
	add	esp, 4
	cmp	ebp, esp
	call	__RTC_CheckEsp
	mov	esp, ebp
	pop	ebp
	ret	0
??1?$CComPtrBase@UITypeInfo2@@@ATL@@QAE@XZ ENDP		; ATL::CComPtrBase<ITypeInfo2>::~CComPtrBase<ITypeInfo2>
; Function compile flags: /Odt /RTCsu
_TEXT	ENDS
;	COMDAT ??I?$CComPtrBase@UITypeInfo2@@@ATL@@QAEPAPAUITypeInfo2@@XZ
_TEXT	SEGMENT
_this$ = -4						; size = 4
??I?$CComPtrBase@UITypeInfo2@@@ATL@@QAEPAPAUITypeInfo2@@XZ PROC NEAR ; ATL::CComPtrBase<ITypeInfo2>::operator&, COMDAT
; _this$ = ecx

; 142  : 	{

	push	ebp
	mov	ebp, esp
	push	ecx
	mov	DWORD PTR [ebp-4], -858993460		; ccccccccH
	mov	DWORD PTR _this$[ebp], ecx

; 143  : 		ATLASSERT(p==NULL);

	mov	eax, DWORD PTR _this$[ebp]
	cmp	DWORD PTR [eax], 0
	je	SHORT $L206484
	push	OFFSET FLAT:??_C@_04DBLLIIGB@p?$DN?$DN0?$AA@
	push	0
	push	143					; 0000008fH
	push	OFFSET FLAT:??_C@_0FC@KBOEFHBO@C?3?2Program?5Files?2Microsoft?5Visua@
	push	2
	call	__CrtDbgReport
	add	esp, 20					; 00000014H
	cmp	eax, 1
	jne	SHORT $L206484
	int	3
$L206484:

; 144  : 		return &p;

	mov	eax, DWORD PTR _this$[ebp]

; 145  : 	}

	add	esp, 4
	cmp	ebp, esp
	call	__RTC_CheckEsp
	mov	esp, ebp
	pop	ebp
	ret	0
??I?$CComPtrBase@UITypeInfo2@@@ATL@@QAEPAPAUITypeInfo2@@XZ ENDP ; ATL::CComPtrBase<ITypeInfo2>::operator&
_TEXT	ENDS
PUBLIC	??_C@_08GPODJFIN@m_p?5?$DN?$DN?50?$AA@		; `string'
PUBLIC	??_C@_0FB@IAFJMJBP@C?3?2Program?5Files?2Microsoft?5Visua@ ; `string'
PUBLIC	?AllocateHeap@?$CTempBuffer@D$0IA@VCCRTAllocator@ATL@@@ATL@@AAEXI@Z ; ATL::CTempBuffer<char,128,ATL::CCRTAllocator>::AllocateHeap
;	COMDAT ??_C@_08GPODJFIN@m_p?5?$DN?$DN?50?$AA@
; File c:\program files\microsoft visual studio .net 2003\vc7\atlmfc\include\atlalloc.h
CONST	SEGMENT
??_C@_08GPODJFIN@m_p?5?$DN?$DN?50?$AA@ DB 'm_p == 0', 00H ; `string'
CONST	ENDS
;	COMDAT ??_C@_0FB@IAFJMJBP@C?3?2Program?5Files?2Microsoft?5Visua@
CONST	SEGMENT
??_C@_0FB@IAFJMJBP@C?3?2Program?5Files?2Microsoft?5Visua@ DB 'C:\Program '
	DB	'Files\Microsoft Visual Studio .NET 2003\Vc7\atlmfc\include\at'
	DB	'lalloc.h', 00H				; `string'
; Function compile flags: /Odt /RTCsu
CONST	ENDS
;	COMDAT ?AllocateBytes@?$CTempBuffer@D$0IA@VCCRTAllocator@ATL@@@ATL@@QAEPADI@Z
_TEXT	SEGMENT
_this$ = -4						; size = 4
_nBytes$ = 8						; size = 4
?AllocateBytes@?$CTempBuffer@D$0IA@VCCRTAllocator@ATL@@@ATL@@QAEPADI@Z PROC NEAR ; ATL::CTempBuffer<char,128,ATL::CCRTAllocator>::AllocateBytes, COMDAT
; _this$ = ecx

; 276  : 	{

	push	ebp
	mov	ebp, esp
	push	ecx
	mov	DWORD PTR [ebp-4], -858993460		; ccccccccH
	mov	DWORD PTR _this$[ebp], ecx

; 277  : 		ATLASSERT( m_p == NULL );

	mov	eax, DWORD PTR _this$[ebp]
	cmp	DWORD PTR [eax], 0
	je	SHORT $L206487
	push	OFFSET FLAT:??_C@_08GPODJFIN@m_p?5?$DN?$DN?50?$AA@
	push	0
	push	277					; 00000115H
	push	OFFSET FLAT:??_C@_0FB@IAFJMJBP@C?3?2Program?5Files?2Microsoft?5Visua@
	push	2
	call	__CrtDbgReport
	add	esp, 20					; 00000014H
	cmp	eax, 1
	jne	SHORT $L206487
	int	3
$L206487:

; 278  : 		if( nBytes > t_nFixedBytes )

	cmp	DWORD PTR _nBytes$[ebp], 128		; 00000080H
	jbe	SHORT $L160415

; 279  : 		{
; 280  : 			AllocateHeap( nBytes );

	mov	edx, DWORD PTR _nBytes$[ebp]
	push	edx
	mov	ecx, DWORD PTR _this$[ebp]
	call	?AllocateHeap@?$CTempBuffer@D$0IA@VCCRTAllocator@ATL@@@ATL@@AAEXI@Z ; ATL::CTempBuffer<char,128,ATL::CCRTAllocator>::AllocateHeap

; 281  : 		}
; 282  : 		else

	jmp	SHORT $L160416
$L160415:

; 283  : 		{
; 284  : 			m_p = reinterpret_cast< T* >( m_abFixedBuffer );

	mov	eax, DWORD PTR _this$[ebp]
	add	eax, 4
	mov	ecx, DWORD PTR _this$[ebp]
	mov	DWORD PTR [ecx], eax
$L160416:

; 285  : 		}
; 286  : 
; 287  : 		return( m_p );

	mov	edx, DWORD PTR _this$[ebp]
	mov	eax, DWORD PTR [edx]

; 288  : 	}

	add	esp, 4
	cmp	ebp, esp
	call	__RTC_CheckEsp
	mov	esp, ebp
	pop	ebp
	ret	4
?AllocateBytes@?$CTempBuffer@D$0IA@VCCRTAllocator@ATL@@@ATL@@QAEPADI@Z ENDP ; ATL::CTempBuffer<char,128,ATL::CCRTAllocator>::AllocateBytes
; Function compile flags: /Odt /RTCsu
_TEXT	ENDS
;	COMDAT ?FreeHeap@?$CTempBuffer@D$0IA@VCCRTAllocator@ATL@@@ATL@@AAEXXZ
_TEXT	SEGMENT
_this$ = -4						; size = 4
?FreeHeap@?$CTempBuffer@D$0IA@VCCRTAllocator@ATL@@@ATL@@AAEXXZ PROC NEAR ; ATL::CTempBuffer<char,128,ATL::CCRTAllocator>::FreeHeap, COMDAT
; _this$ = ecx

; 312  : 	{

	push	ebp
	mov	ebp, esp
	push	ecx
	mov	DWORD PTR [ebp-4], -858993460		; ccccccccH
	mov	DWORD PTR _this$[ebp], ecx

; 313  : 		Allocator::Free( m_p );

	mov	eax, DWORD PTR _this$[ebp]
	mov	ecx, DWORD PTR [eax]
	push	ecx
	call	?Free@CCRTAllocator@ATL@@SAXPAX@Z	; ATL::CCRTAllocator::Free
	add	esp, 4

; 314  : 	}

	add	esp, 4
	cmp	ebp, esp
	call	__RTC_CheckEsp
	mov	esp, ebp
	pop	ebp
	ret	0
?FreeHeap@?$CTempBuffer@D$0IA@VCCRTAllocator@ATL@@@ATL@@AAEXXZ ENDP ; ATL::CTempBuffer<char,128,ATL::CCRTAllocator>::FreeHeap
; Function compile flags: /Odt /RTCsu
; File c:\program files\microsoft visual studio .net 2003\vc7\atlmfc\include\atlcomcli.h
_TEXT	ENDS
;	COMDAT ??0?$CComPtrBase@UIRegistrar@@@ATL@@IAE@XZ
_TEXT	SEGMENT
_this$ = -4						; size = 4
??0?$CComPtrBase@UIRegistrar@@@ATL@@IAE@XZ PROC NEAR	; ATL::CComPtrBase<IRegistrar>::CComPtrBase<IRegistrar>, COMDAT
; _this$ = ecx

; 107  : 	CComPtrBase() throw()

	push	ebp
	mov	ebp, esp
	push	ecx
	mov	DWORD PTR [ebp-4], -858993460		; ccccccccH
	mov	DWORD PTR _this$[ebp], ecx

; 108  : 	{
; 109  : 		p = NULL;

	mov	eax, DWORD PTR _this$[ebp]
	mov	DWORD PTR [eax], 0

; 110  : 	}

	mov	eax, DWORD PTR _this$[ebp]
	mov	esp, ebp
	pop	ebp
	ret	0
??0?$CComPtrBase@UIRegistrar@@@ATL@@IAE@XZ ENDP		; ATL::CComPtrBase<IRegistrar>::CComPtrBase<IRegistrar>
; Function compile flags: /Odt /RTCsu
_TEXT	ENDS
;	COMDAT ??0?$CComPtrBase@UITypeInfo@@@ATL@@IAE@XZ
_TEXT	SEGMENT
_this$ = -4						; size = 4
??0?$CComPtrBase@UITypeInfo@@@ATL@@IAE@XZ PROC NEAR	; ATL::CComPtrBase<ITypeInfo>::CComPtrBase<ITypeInfo>, COMDAT
; _this$ = ecx

; 107  : 	CComPtrBase() throw()

	push	ebp
	mov	ebp, esp
	push	ecx
	mov	DWORD PTR [ebp-4], -858993460		; ccccccccH
	mov	DWORD PTR _this$[ebp], ecx

; 108  : 	{
; 109  : 		p = NULL;

	mov	eax, DWORD PTR _this$[ebp]
	mov	DWORD PTR [eax], 0

; 110  : 	}

	mov	eax, DWORD PTR _this$[ebp]
	mov	esp, ebp
	pop	ebp
	ret	0
??0?$CComPtrBase@UITypeInfo@@@ATL@@IAE@XZ ENDP		; ATL::CComPtrBase<ITypeInfo>::CComPtrBase<ITypeInfo>
; Function compile flags: /Odt /RTCsu
_TEXT	ENDS
;	COMDAT ??0?$CComPtrBase@UITypeInfo@@@ATL@@IAE@PAUITypeInfo@@@Z
_TEXT	SEGMENT
_this$ = -4						; size = 4
_lp$ = 8						; size = 4
??0?$CComPtrBase@UITypeInfo@@@ATL@@IAE@PAUITypeInfo@@@Z PROC NEAR ; ATL::CComPtrBase<ITypeInfo>::CComPtrBase<ITypeInfo>, COMDAT
; _this$ = ecx

; 117  : 	CComPtrBase(T* lp) throw()

	push	ebp
	mov	ebp, esp
	push	ecx
	push	esi
	mov	DWORD PTR [ebp-4], -858993460		; ccccccccH
	mov	DWORD PTR _this$[ebp], ecx

; 118  : 	{
; 119  : 		p = lp;

	mov	eax, DWORD PTR _this$[ebp]
	mov	ecx, DWORD PTR _lp$[ebp]
	mov	DWORD PTR [eax], ecx

; 120  : 		if (p != NULL)

	mov	edx, DWORD PTR _this$[ebp]
	cmp	DWORD PTR [edx], 0
	je	SHORT $L160444

; 121  : 			p->AddRef();

	mov	eax, DWORD PTR _this$[ebp]
	mov	ecx, DWORD PTR [eax]
	mov	edx, DWORD PTR _this$[ebp]
	mov	eax, DWORD PTR [edx]
	mov	ecx, DWORD PTR [ecx]
	mov	esi, esp
	push	eax
	call	DWORD PTR [ecx+4]
	cmp	esi, esp
	call	__RTC_CheckEsp
$L160444:

; 122  : 	}

	mov	eax, DWORD PTR _this$[ebp]
	pop	esi
	add	esp, 4
	cmp	ebp, esp
	call	__RTC_CheckEsp
	mov	esp, ebp
	pop	ebp
	ret	4
??0?$CComPtrBase@UITypeInfo@@@ATL@@IAE@PAUITypeInfo@@@Z ENDP ; ATL::CComPtrBase<ITypeInfo>::CComPtrBase<ITypeInfo>
; Function compile flags: /Odt /RTCsu
_TEXT	ENDS
;	COMDAT ??0?$CComPtrBase@UITypeLib@@@ATL@@IAE@XZ
_TEXT	SEGMENT
_this$ = -4						; size = 4
??0?$CComPtrBase@UITypeLib@@@ATL@@IAE@XZ PROC NEAR	; ATL::CComPtrBase<ITypeLib>::CComPtrBase<ITypeLib>, COMDAT
; _this$ = ecx

; 107  : 	CComPtrBase() throw()

	push	ebp
	mov	ebp, esp
	push	ecx
	mov	DWORD PTR [ebp-4], -858993460		; ccccccccH
	mov	DWORD PTR _this$[ebp], ecx

; 108  : 	{
; 109  : 		p = NULL;

	mov	eax, DWORD PTR _this$[ebp]
	mov	DWORD PTR [eax], 0

; 110  : 	}

	mov	eax, DWORD PTR _this$[ebp]
	mov	esp, ebp
	pop	ebp
	ret	0
??0?$CComPtrBase@UITypeLib@@@ATL@@IAE@XZ ENDP		; ATL::CComPtrBase<ITypeLib>::CComPtrBase<ITypeLib>
; Function compile flags: /Odt /RTCsu
_TEXT	ENDS
;	COMDAT ??0?$CComPtrBase@UITypeInfo2@@@ATL@@IAE@XZ
_TEXT	SEGMENT
_this$ = -4						; size = 4
??0?$CComPtrBase@UITypeInfo2@@@ATL@@IAE@XZ PROC NEAR	; ATL::CComPtrBase<ITypeInfo2>::CComPtrBase<ITypeInfo2>, COMDAT
; _this$ = ecx

; 107  : 	CComPtrBase() throw()

	push	ebp
	mov	ebp, esp
	push	ecx
	mov	DWORD PTR [ebp-4], -858993460		; ccccccccH
	mov	DWORD PTR _this$[ebp], ecx

; 108  : 	{
; 109  : 		p = NULL;

	mov	eax, DWORD PTR _this$[ebp]
	mov	DWORD PTR [eax], 0

; 110  : 	}

	mov	eax, DWORD PTR _this$[ebp]
	mov	esp, ebp
	pop	ebp
	ret	0
??0?$CComPtrBase@UITypeInfo2@@@ATL@@IAE@XZ ENDP		; ATL::CComPtrBase<ITypeInfo2>::CComPtrBase<ITypeInfo2>
; Function compile flags: /Odt /RTCsu
; File c:\program files\microsoft visual studio .net 2003\vc7\atlmfc\include\atlalloc.h
_TEXT	ENDS
;	COMDAT ?GetData@CAtlSafeAllocBufferNode@?$CAtlSafeAllocBufferManager@VCCRTAllocator@ATL@@@_ATL_SAFE_ALLOCA_IMPL@ATL@@QAEPAXXZ
_TEXT	SEGMENT
_this$ = -4						; size = 4
?GetData@CAtlSafeAllocBufferNode@?$CAtlSafeAllocBufferManager@VCCRTAllocator@ATL@@@_ATL_SAFE_ALLOCA_IMPL@ATL@@QAEPAXXZ PROC NEAR ; ATL::_ATL_SAFE_ALLOCA_IMPL::CAtlSafeAllocBufferManager<ATL::CCRTAllocator>::CAtlSafeAllocBufferNode::GetData, COMDAT
; _this$ = ecx

; 365  : 		{

	push	ebp
	mov	ebp, esp
	push	ecx
	mov	DWORD PTR [ebp-4], -858993460		; ccccccccH
	mov	DWORD PTR _this$[ebp], ecx

; 366  : 			return (this + 1);

	mov	eax, DWORD PTR _this$[ebp]
	add	eax, 8

; 367  : 		}

	mov	esp, ebp
	pop	ebp
	ret	0
?GetData@CAtlSafeAllocBufferNode@?$CAtlSafeAllocBufferManager@VCCRTAllocator@ATL@@@_ATL_SAFE_ALLOCA_IMPL@ATL@@QAEPAXXZ ENDP ; ATL::_ATL_SAFE_ALLOCA_IMPL::CAtlSafeAllocBufferManager<ATL::CCRTAllocator>::CAtlSafeAllocBufferNode::GetData
; Function compile flags: /Odt /RTCsu
_TEXT	ENDS
;	COMDAT ?AllocateHeap@?$CTempBuffer@D$0IA@VCCRTAllocator@ATL@@@ATL@@AAEXI@Z
_TEXT	SEGMENT
_p$ = -8						; size = 4
_this$ = -4						; size = 4
_nBytes$ = 8						; size = 4
?AllocateHeap@?$CTempBuffer@D$0IA@VCCRTAllocator@ATL@@@ATL@@AAEXI@Z PROC NEAR ; ATL::CTempBuffer<char,128,ATL::CCRTAllocator>::AllocateHeap, COMDAT
; _this$ = ecx

; 292  : 	{

	push	ebp
	mov	ebp, esp
	sub	esp, 8
	mov	DWORD PTR [ebp-8], -858993460		; ccccccccH
	mov	DWORD PTR [ebp-4], -858993460		; ccccccccH
	mov	DWORD PTR _this$[ebp], ecx

; 293  : 		T* p = static_cast< T* >( Allocator::Allocate( nBytes ) );

	mov	eax, DWORD PTR _nBytes$[ebp]
	push	eax
	call	?Allocate@CCRTAllocator@ATL@@SAPAXI@Z	; ATL::CCRTAllocator::Allocate
	add	esp, 4
	mov	DWORD PTR _p$[ebp], eax

; 294  : 		if( p == NULL )

	cmp	DWORD PTR _p$[ebp], 0
	jne	SHORT $L160603

; 295  : 		{
; 296  : 			AtlThrow( E_OUTOFMEMORY );

	push	-2147024882				; 8007000eH
	call	?AtlThrow@ATL@@YGXJ@Z			; ATL::AtlThrow
$L160603:

; 297  : 		}
; 298  : 		m_p = p;

	mov	ecx, DWORD PTR _this$[ebp]
	mov	edx, DWORD PTR _p$[ebp]
	mov	DWORD PTR [ecx], edx
$L206503:

; 299  : 	}

	add	esp, 8
	cmp	ebp, esp
	call	__RTC_CheckEsp
	mov	esp, ebp
	pop	ebp
	ret	4
?AllocateHeap@?$CTempBuffer@D$0IA@VCCRTAllocator@ATL@@@ATL@@AAEXI@Z ENDP ; ATL::CTempBuffer<char,128,ATL::CCRTAllocator>::AllocateHeap
; Function compile flags: /Odt /RTCsu
; File c:\program files\microsoft visual studio .net 2003\vc7\atlmfc\include\atlbase.h
_TEXT	ENDS
;	COMDAT ??0?$CComCritSecLock@VCComCriticalSection@ATL@@@ATL@@QAE@AAVCComCriticalSection@1@_N@Z
_TEXT	SEGMENT
_hr$160668 = -8						; size = 4
_this$ = -4						; size = 4
_cs$ = 8						; size = 4
_bInitialLock$ = 12					; size = 1
??0?$CComCritSecLock@VCComCriticalSection@ATL@@@ATL@@QAE@AAVCComCriticalSection@1@_N@Z PROC NEAR ; ATL::CComCritSecLock<ATL::CComCriticalSection>::CComCritSecLock<ATL::CComCriticalSection>, COMDAT
; _this$ = ecx

; 288  : {

	push	ebp
	mov	ebp, esp
	sub	esp, 8
	mov	DWORD PTR [ebp-8], -858993460		; ccccccccH
	mov	DWORD PTR [ebp-4], -858993460		; ccccccccH
	mov	DWORD PTR _this$[ebp], ecx
	mov	eax, DWORD PTR _this$[ebp]
	mov	ecx, DWORD PTR _cs$[ebp]
	mov	DWORD PTR [eax], ecx
	mov	edx, DWORD PTR _this$[ebp]
	mov	BYTE PTR [edx+4], 0

; 289  : 	if( bInitialLock )

	movzx	eax, BYTE PTR _bInitialLock$[ebp]
	test	eax, eax
	je	SHORT $L160666

; 290  : 	{
; 291  : 		HRESULT hr;
; 292  : 
; 293  : 		hr = Lock();

	mov	ecx, DWORD PTR _this$[ebp]
	call	?Lock@?$CComCritSecLock@VCComCriticalSection@ATL@@@ATL@@QAEJXZ ; ATL::CComCritSecLock<ATL::CComCriticalSection>::Lock
	mov	DWORD PTR _hr$160668[ebp], eax

; 294  : 		if( FAILED( hr ) )

	cmp	DWORD PTR _hr$160668[ebp], 0
	jge	SHORT $L160666

; 295  : 		{
; 296  : 			AtlThrow( hr );

	mov	ecx, DWORD PTR _hr$160668[ebp]
	push	ecx
	call	?AtlThrow@ATL@@YGXJ@Z			; ATL::AtlThrow
$L160666:

; 297  : 		}
; 298  : 	}
; 299  : }

	mov	eax, DWORD PTR _this$[ebp]
$L206505:
	add	esp, 8
	cmp	ebp, esp
	call	__RTC_CheckEsp
	mov	esp, ebp
	pop	ebp
	ret	8
??0?$CComCritSecLock@VCComCriticalSection@ATL@@@ATL@@QAE@AAVCComCriticalSection@1@_N@Z ENDP ; ATL::CComCritSecLock<ATL::CComCriticalSection>::CComCritSecLock<ATL::CComCriticalSection>
_TEXT	ENDS
PUBLIC	?Unlock@?$CComCritSecLock@VCComCriticalSection@ATL@@@ATL@@QAEXXZ ; ATL::CComCritSecLock<ATL::CComCriticalSection>::Unlock
; Function compile flags: /Odt /RTCsu
;	COMDAT ??1?$CComCritSecLock@VCComCriticalSection@ATL@@@ATL@@QAE@XZ
_TEXT	SEGMENT
_this$ = -4						; size = 4
??1?$CComCritSecLock@VCComCriticalSection@ATL@@@ATL@@QAE@XZ PROC NEAR ; ATL::CComCritSecLock<ATL::CComCriticalSection>::~CComCritSecLock<ATL::CComCriticalSection>, COMDAT
; _this$ = ecx

; 303  : {

	push	ebp
	mov	ebp, esp
	push	ecx
	mov	DWORD PTR [ebp-4], -858993460		; ccccccccH
	mov	DWORD PTR _this$[ebp], ecx

; 304  : 	if( m_bLocked )

	mov	eax, DWORD PTR _this$[ebp]
	movzx	ecx, BYTE PTR [eax+4]
	test	ecx, ecx
	je	SHORT $L160674

; 305  : 	{
; 306  : 		Unlock();

	mov	ecx, DWORD PTR _this$[ebp]
	call	?Unlock@?$CComCritSecLock@VCComCriticalSection@ATL@@@ATL@@QAEXXZ ; ATL::CComCritSecLock<ATL::CComCriticalSection>::Unlock
$L160674:

; 307  : 	}
; 308  : }

	add	esp, 4
	cmp	ebp, esp
	call	__RTC_CheckEsp
	mov	esp, ebp
	pop	ebp
	ret	0
??1?$CComCritSecLock@VCComCriticalSection@ATL@@@ATL@@QAE@XZ ENDP ; ATL::CComCritSecLock<ATL::CComCriticalSection>::~CComCritSecLock<ATL::CComCriticalSection>
_TEXT	ENDS
PUBLIC	??_C@_09HIEJFN@m_bLocked?$AA@			; `string'
;	COMDAT ??_C@_09HIEJFN@m_bLocked?$AA@
CONST	SEGMENT
??_C@_09HIEJFN@m_bLocked?$AA@ DB 'm_bLocked', 00H	; `string'
; Function compile flags: /Odt /RTCsu
CONST	ENDS
;	COMDAT ?Unlock@?$CComCritSecLock@VCComCriticalSection@ATL@@@ATL@@QAEXXZ
_TEXT	SEGMENT
_this$ = -4						; size = 4
?Unlock@?$CComCritSecLock@VCComCriticalSection@ATL@@@ATL@@QAEXXZ PROC NEAR ; ATL::CComCritSecLock<ATL::CComCriticalSection>::Unlock, COMDAT
; _this$ = ecx

; 328  : {

	push	ebp
	mov	ebp, esp
	push	ecx
	mov	DWORD PTR [ebp-4], -858993460		; ccccccccH
	mov	DWORD PTR _this$[ebp], ecx

; 329  : 	ATLASSERT( m_bLocked );

	mov	eax, DWORD PTR _this$[ebp]
	movzx	ecx, BYTE PTR [eax+4]
	test	ecx, ecx
	jne	SHORT $L206510
	push	OFFSET FLAT:??_C@_09HIEJFN@m_bLocked?$AA@
	push	0
	push	329					; 00000149H
	push	OFFSET FLAT:??_C@_0FA@KBNNCCJL@C?3?2Program?5Files?2Microsoft?5Visua@
	push	2
	call	__CrtDbgReport
	add	esp, 20					; 00000014H
	cmp	eax, 1
	jne	SHORT $L206510
	int	3
$L206510:

; 330  : 	m_cs.Unlock();

	mov	eax, DWORD PTR _this$[ebp]
	mov	ecx, DWORD PTR [eax]
	call	?Unlock@CComCriticalSection@ATL@@QAEJXZ	; ATL::CComCriticalSection::Unlock

; 331  : 	m_bLocked = false;

	mov	ecx, DWORD PTR _this$[ebp]
	mov	BYTE PTR [ecx+4], 0

; 332  : }

	add	esp, 4
	cmp	ebp, esp
	call	__RTC_CheckEsp
	mov	esp, ebp
	pop	ebp
	ret	0
?Unlock@?$CComCritSecLock@VCComCriticalSection@ATL@@@ATL@@QAEXXZ ENDP ; ATL::CComCritSecLock<ATL::CComCriticalSection>::Unlock
_TEXT	ENDS
PUBLIC	??_C@_0L@MPGHMANA@?$CBm_bLocked?$AA@		; `string'
;	COMDAT ??_C@_0L@MPGHMANA@?$CBm_bLocked?$AA@
CONST	SEGMENT
??_C@_0L@MPGHMANA@?$CBm_bLocked?$AA@ DB '!m_bLocked', 00H ; `string'
; Function compile flags: /Odt /RTCsu
CONST	ENDS
;	COMDAT ?Lock@?$CComCritSecLock@VCComCriticalSection@ATL@@@ATL@@QAEJXZ
_TEXT	SEGMENT
_hr$ = -8						; size = 4
_this$ = -4						; size = 4
?Lock@?$CComCritSecLock@VCComCriticalSection@ATL@@@ATL@@QAEJXZ PROC NEAR ; ATL::CComCritSecLock<ATL::CComCriticalSection>::Lock, COMDAT
; _this$ = ecx

; 312  : {

	push	ebp
	mov	ebp, esp
	sub	esp, 8
	mov	DWORD PTR [ebp-8], -858993460		; ccccccccH
	mov	DWORD PTR [ebp-4], -858993460		; ccccccccH
	mov	DWORD PTR _this$[ebp], ecx

; 313  : 	HRESULT hr;
; 314  : 
; 315  : 	ATLASSERT( !m_bLocked );

	mov	eax, DWORD PTR _this$[ebp]
	movzx	ecx, BYTE PTR [eax+4]
	test	ecx, ecx
	je	SHORT $L206513
	push	OFFSET FLAT:??_C@_0L@MPGHMANA@?$CBm_bLocked?$AA@
	push	0
	push	315					; 0000013bH
	push	OFFSET FLAT:??_C@_0FA@KBNNCCJL@C?3?2Program?5Files?2Microsoft?5Visua@
	push	2
	call	__CrtDbgReport
	add	esp, 20					; 00000014H
	cmp	eax, 1
	jne	SHORT $L206513
	int	3
$L206513:

; 316  : 	hr = m_cs.Lock();

	mov	eax, DWORD PTR _this$[ebp]
	mov	ecx, DWORD PTR [eax]
	call	?Lock@CComCriticalSection@ATL@@QAEJXZ	; ATL::CComCriticalSection::Lock
	mov	DWORD PTR _hr$[ebp], eax

; 317  : 	if( FAILED( hr ) )

	cmp	DWORD PTR _hr$[ebp], 0
	jge	SHORT $L160683

; 318  : 	{
; 319  : 		return( hr );

	mov	eax, DWORD PTR _hr$[ebp]
	jmp	SHORT $L160679
$L160683:

; 320  : 	}
; 321  : 	m_bLocked = true;

	mov	ecx, DWORD PTR _this$[ebp]
	mov	BYTE PTR [ecx+4], 1

; 322  : 
; 323  : 	return( S_OK );

	xor	eax, eax
$L160679:

; 324  : }

	add	esp, 8
	cmp	ebp, esp
	call	__RTC_CheckEsp
	mov	esp, ebp
	pop	ebp
	ret	0
?Lock@?$CComCritSecLock@VCComCriticalSection@ATL@@@ATL@@QAEJXZ ENDP ; ATL::CComCritSecLock<ATL::CComCriticalSection>::Lock
_TEXT	ENDS
PUBLIC	__GUID_00020412_0000_0000_c000_000000000046
;	COMDAT __GUID_00020412_0000_0000_c000_000000000046
; File c:\program files\microsoft visual studio .net 2003\vc7\platformsdk\include\unknwn.h
CONST	SEGMENT
__GUID_00020412_0000_0000_c000_000000000046 DD 020412H
	DW	00H
	DW	00H
	DB	0c0H
	DB	00H
	DB	00H
	DB	00H
	DB	00H
	DB	00H
	DB	00H
	DB	046H
; Function compile flags: /Odt /RTCsu
CONST	ENDS
;	COMDAT ??$QueryInterface@UITypeInfo2@@@IUnknown@@QAGJPAPAUITypeInfo2@@@Z
_TEXT	SEGMENT
_this$ = 8						; size = 4
_pp$ = 12						; size = 4
??$QueryInterface@UITypeInfo2@@@IUnknown@@QAGJPAPAUITypeInfo2@@@Z PROC NEAR ; IUnknown::QueryInterface<ITypeInfo2>, COMDAT

; 123  :     	{

	push	ebp
	mov	ebp, esp
	push	esi

; 124  :     	    return QueryInterface(__uuidof(Q), (void **)pp);

	mov	esi, esp
	mov	eax, DWORD PTR _pp$[ebp]
	push	eax
	push	OFFSET FLAT:__GUID_00020412_0000_0000_c000_000000000046
	mov	ecx, DWORD PTR _this$[ebp]
	mov	edx, DWORD PTR [ecx]
	mov	eax, DWORD PTR _this$[ebp]
	push	eax
	call	DWORD PTR [edx]
	cmp	esi, esp
	call	__RTC_CheckEsp

; 125  :     	}

	pop	esi
	cmp	ebp, esp
	call	__RTC_CheckEsp
	pop	ebp
	ret	8
??$QueryInterface@UITypeInfo2@@@IUnknown@@QAGJPAPAUITypeInfo2@@@Z ENDP ; IUnknown::QueryInterface<ITypeInfo2>
_TEXT	ENDS
PUBLIC	??B?$CComPtrBase@UITypeInfo2@@@ATL@@QBEPAUITypeInfo2@@XZ ; ATL::CComPtrBase<ITypeInfo2>::operator ITypeInfo2 *
PUBLIC	__GUID_00020401_0000_0000_c000_000000000046
EXTRN	__imp__AtlComQIPtrAssign@12:NEAR
;	COMDAT __GUID_00020401_0000_0000_c000_000000000046
; File c:\program files\microsoft visual studio .net 2003\vc7\atlmfc\include\atlcomcli.h
CONST	SEGMENT
__GUID_00020401_0000_0000_c000_000000000046 DD 020401H
	DW	00H
	DW	00H
	DB	0c0H
	DB	00H
	DB	00H
	DB	00H
	DB	00H
	DB	00H
	DB	00H
	DB	046H
; Function compile flags: /Odt /RTCsu
CONST	ENDS
;	COMDAT ??$?4UITypeInfo2@@@?$CComPtr@UITypeInfo@@@ATL@@QAEPAUITypeInfo@@ABV?$CComPtr@UITypeInfo2@@@1@@Z
_TEXT	SEGMENT
_this$ = -4						; size = 4
_lp$ = 8						; size = 4
??$?4UITypeInfo2@@@?$CComPtr@UITypeInfo@@@ATL@@QAEPAUITypeInfo@@ABV?$CComPtr@UITypeInfo2@@@1@@Z PROC NEAR ; ATL::CComPtr<ITypeInfo>::operator=<ITypeInfo2>, COMDAT
; _this$ = ecx

; 295  : 	T* operator=(const CComPtr<Q>& lp) throw()

	push	ebp
	mov	ebp, esp
	push	ecx
	push	esi
	mov	DWORD PTR [ebp-4], -858993460		; ccccccccH
	mov	DWORD PTR _this$[ebp], ecx

; 296  : 	{
; 297  : 		return static_cast<T*>(AtlComQIPtrAssign((IUnknown**)&p, lp, __uuidof(T)));

	mov	esi, esp
	push	OFFSET FLAT:__GUID_00020401_0000_0000_c000_000000000046
	mov	ecx, DWORD PTR _lp$[ebp]
	call	??B?$CComPtrBase@UITypeInfo2@@@ATL@@QBEPAUITypeInfo2@@XZ ; ATL::CComPtrBase<ITypeInfo2>::operator ITypeInfo2 *
	push	eax
	mov	eax, DWORD PTR _this$[ebp]
	push	eax
	call	DWORD PTR __imp__AtlComQIPtrAssign@12
	cmp	esi, esp
	call	__RTC_CheckEsp

; 298  : 	}

	pop	esi
	add	esp, 4
	cmp	ebp, esp
	call	__RTC_CheckEsp
	mov	esp, ebp
	pop	ebp
	ret	4
??$?4UITypeInfo2@@@?$CComPtr@UITypeInfo@@@ATL@@QAEPAUITypeInfo@@ABV?$CComPtr@UITypeInfo2@@@1@@Z ENDP ; ATL::CComPtr<ITypeInfo>::operator=<ITypeInfo2>
; Function compile flags: /Odt /RTCsu
_TEXT	ENDS
;	COMDAT ??B?$CComPtrBase@UITypeInfo2@@@ATL@@QBEPAUITypeInfo2@@XZ
_TEXT	SEGMENT
_this$ = -4						; size = 4
??B?$CComPtrBase@UITypeInfo2@@@ATL@@QBEPAUITypeInfo2@@XZ PROC NEAR ; ATL::CComPtrBase<ITypeInfo2>::operator ITypeInfo2 *, COMDAT
; _this$ = ecx

; 131  : 	{

	push	ebp
	mov	ebp, esp
	push	ecx
	mov	DWORD PTR [ebp-4], -858993460		; ccccccccH
	mov	DWORD PTR _this$[ebp], ecx

; 132  : 		return p;

	mov	eax, DWORD PTR _this$[ebp]
	mov	eax, DWORD PTR [eax]

; 133  : 	}

	mov	esp, ebp
	pop	ebp
	ret	0
??B?$CComPtrBase@UITypeInfo2@@@ATL@@QBEPAUITypeInfo2@@XZ ENDP ; ATL::CComPtrBase<ITypeInfo2>::operator ITypeInfo2 *
_TEXT	ENDS
PUBLIC	??0CAtlWinModule@ATL@@QAE@XZ			; ATL::CAtlWinModule::CAtlWinModule
EXTRN	_atexit:NEAR
;	COMDAT CRT$XCU
; File c:\program files\microsoft visual studio .net 2003\vc7\atlmfc\include\atlbase.h
CRT$XCU	SEGMENT
_$S3	DD	FLAT:_$E1
; Function compile flags: /Odt /RTCsu
CRT$XCU	ENDS
;	COMDAT _$E1
text$yc	SEGMENT
_$E1	PROC NEAR					; COMDAT

; 2602 : __declspec(selectany) CAtlWinModule _AtlWinModule;

	push	ebp
	mov	ebp, esp
	mov	ecx, OFFSET FLAT:?_AtlWinModule@ATL@@3VCAtlWinModule@1@A
	call	??0CAtlWinModule@ATL@@QAE@XZ		; ATL::CAtlWinModule::CAtlWinModule
	push	OFFSET FLAT:_$E2
	call	_atexit
	add	esp, 4
	cmp	ebp, esp
	call	__RTC_CheckEsp
	pop	ebp
	ret	0
_$E1	ENDP
text$yc	ENDS
PUBLIC	??0_ATL_WIN_MODULE70@ATL@@QAE@XZ		; ATL::_ATL_WIN_MODULE70::_ATL_WIN_MODULE70
EXTRN	__imp__AtlWinModuleInit@4:NEAR
; Function compile flags: /Odt /RTCsu
;	COMDAT ??0CAtlWinModule@ATL@@QAE@XZ
_TEXT	SEGMENT
_hr$ = -8						; size = 4
_this$ = -4						; size = 4
??0CAtlWinModule@ATL@@QAE@XZ PROC NEAR			; ATL::CAtlWinModule::CAtlWinModule, COMDAT
; _this$ = ecx

; 2573 : 	CAtlWinModule()

	push	ebp
	mov	ebp, esp
	sub	esp, 8
	push	esi
	mov	DWORD PTR [ebp-8], -858993460		; ccccccccH
	mov	DWORD PTR [ebp-4], -858993460		; ccccccccH
	mov	DWORD PTR _this$[ebp], ecx
	mov	ecx, DWORD PTR _this$[ebp]
	call	??0_ATL_WIN_MODULE70@ATL@@QAE@XZ

; 2574 : 	{
; 2575 : 		cbSize = sizeof(_ATL_WIN_MODULE);

	mov	eax, DWORD PTR _this$[ebp]
	mov	DWORD PTR [eax], 44			; 0000002cH

; 2576 : 		HRESULT hr = AtlWinModuleInit(this);

	mov	esi, esp
	mov	ecx, DWORD PTR _this$[ebp]
	push	ecx
	call	DWORD PTR __imp__AtlWinModuleInit@4
	cmp	esi, esp
	call	__RTC_CheckEsp
	mov	DWORD PTR _hr$[ebp], eax

; 2577 : 		if (FAILED(hr))

	cmp	DWORD PTR _hr$[ebp], 0
	jge	SHORT $L88081

; 2578 : 			CAtlBaseModule::m_bInitFailed = true;

	mov	BYTE PTR ?m_bInitFailed@CAtlBaseModule@ATL@@2_NA, 1 ; ATL::CAtlBaseModule::m_bInitFailed
$L88081:

; 2579 : 	}

	mov	eax, DWORD PTR _this$[ebp]
	pop	esi
	add	esp, 8
	cmp	ebp, esp
	call	__RTC_CheckEsp
	mov	esp, ebp
	pop	ebp
	ret	0
??0CAtlWinModule@ATL@@QAE@XZ ENDP			; ATL::CAtlWinModule::CAtlWinModule
_TEXT	ENDS
PUBLIC	??0?$CSimpleArray@GV?$CSimpleArrayEqualHelper@G@ATL@@@ATL@@QAE@XZ ; ATL::CSimpleArray<unsigned short,ATL::CSimpleArrayEqualHelper<unsigned short> >::CSimpleArray<unsigned short,ATL::CSimpleArrayEqualHelper<unsigned short> >
; Function compile flags: /Odt /RTCsu
;	COMDAT ??0_ATL_WIN_MODULE70@ATL@@QAE@XZ
_TEXT	SEGMENT
_this$ = -4						; size = 4
??0_ATL_WIN_MODULE70@ATL@@QAE@XZ PROC NEAR		; ATL::_ATL_WIN_MODULE70::_ATL_WIN_MODULE70, COMDAT
; _this$ = ecx
	push	ebp
	mov	ebp, esp
	push	ecx
	mov	DWORD PTR [ebp-4], -858993460		; ccccccccH
	mov	DWORD PTR _this$[ebp], ecx
	mov	ecx, DWORD PTR _this$[ebp]
	add	ecx, 4
	call	??0CComCriticalSection@ATL@@QAE@XZ	; ATL::CComCriticalSection::CComCriticalSection
	mov	ecx, DWORD PTR _this$[ebp]
	add	ecx, 32					; 00000020H
	call	??0?$CSimpleArray@GV?$CSimpleArrayEqualHelper@G@ATL@@@ATL@@QAE@XZ ; ATL::CSimpleArray<unsigned short,ATL::CSimpleArrayEqualHelper<unsigned short> >::CSimpleArray<unsigned short,ATL::CSimpleArrayEqualHelper<unsigned short> >
	mov	eax, DWORD PTR _this$[ebp]
	add	esp, 4
	cmp	ebp, esp
	call	__RTC_CheckEsp
	mov	esp, ebp
	pop	ebp
	ret	0
??0_ATL_WIN_MODULE70@ATL@@QAE@XZ ENDP			; ATL::_ATL_WIN_MODULE70::_ATL_WIN_MODULE70
; Function compile flags: /Odt /RTCsu
; File c:\program files\microsoft visual studio .net 2003\vc7\atlmfc\include\atlsimpcoll.h
_TEXT	ENDS
;	COMDAT ??0?$CSimpleArray@GV?$CSimpleArrayEqualHelper@G@ATL@@@ATL@@QAE@XZ
_TEXT	SEGMENT
_this$ = -4						; size = 4
??0?$CSimpleArray@GV?$CSimpleArrayEqualHelper@G@ATL@@@ATL@@QAE@XZ PROC NEAR ; ATL::CSimpleArray<unsigned short,ATL::CSimpleArrayEqualHelper<unsigned short> >::CSimpleArray<unsigned short,ATL::CSimpleArrayEqualHelper<unsigned short> >, COMDAT
; _this$ = ecx

; 97   : 	{ }

	push	ebp
	mov	ebp, esp
	push	ecx
	mov	DWORD PTR [ebp-4], -858993460		; ccccccccH
	mov	DWORD PTR _this$[ebp], ecx
	mov	eax, DWORD PTR _this$[ebp]
	mov	DWORD PTR [eax], 0
	mov	ecx, DWORD PTR _this$[ebp]
	mov	DWORD PTR [ecx+4], 0
	mov	edx, DWORD PTR _this$[ebp]
	mov	DWORD PTR [edx+8], 0
	mov	eax, DWORD PTR _this$[ebp]
	mov	esp, ebp
	pop	ebp
	ret	0
??0?$CSimpleArray@GV?$CSimpleArrayEqualHelper@G@ATL@@@ATL@@QAE@XZ ENDP ; ATL::CSimpleArray<unsigned short,ATL::CSimpleArrayEqualHelper<unsigned short> >::CSimpleArray<unsigned short,ATL::CSimpleArrayEqualHelper<unsigned short> >
_TEXT	ENDS
PUBLIC	??0CComModule@ATL@@QAE@XZ			; ATL::CComModule::CComModule
CRT$XCU	SEGMENT
_$S6	DD	FLAT:_$E4
; Function compile flags: /Odt /RTCsu
; File c:\activex\xmlsign\xmlsign.cpp
CRT$XCU	ENDS
;	COMDAT _$E4
text$yc	SEGMENT
_$E4	PROC NEAR					; COMDAT

; 51   : CComModule _Module;

	push	ebp
	mov	ebp, esp
	mov	ecx, OFFSET FLAT:?_Module@@3VCComModule@ATL@@A
	call	??0CComModule@ATL@@QAE@XZ		; ATL::CComModule::CComModule
	push	OFFSET FLAT:_$E5
	call	_atexit
	add	esp, 4
	cmp	ebp, esp
	call	__RTC_CheckEsp
	pop	ebp
	ret	0
_$E4	ENDP
text$yc	ENDS
PUBLIC	?Lock@CAtlModule@ATL@@UAEJXZ			; ATL::CAtlModule::Lock
PUBLIC	?Unlock@CAtlModule@ATL@@UAEJXZ			; ATL::CAtlModule::Unlock
PUBLIC	?GetGITPtr@CAtlModule@ATL@@UAEJPAPAUIGlobalInterfaceTable@@@Z ; ATL::CAtlModule::GetGITPtr
PUBLIC	??0?$CAtlModuleT@VCComModule@ATL@@@ATL@@QAE@XZ	; ATL::CAtlModuleT<ATL::CComModule>::CAtlModuleT<ATL::CComModule>
PUBLIC	?AddCommonRGSReplacements@?$CAtlModuleT@VCComModule@ATL@@@ATL@@UAEJPAUIRegistrarBase@@@Z ; ATL::CAtlModuleT<ATL::CComModule>::AddCommonRGSReplacements
PUBLIC	?UpdateRegistryFromResourceD@CComModule@ATL@@UAGJPBDHPAU_ATL_REGMAP_ENTRY@2@@Z ; ATL::CComModule::UpdateRegistryFromResourceD
PUBLIC	?UpdateRegistryFromResourceS@CComModule@ATL@@UAGJPBDHPAU_ATL_REGMAP_ENTRY@2@@Z ; ATL::CComModule::UpdateRegistryFromResourceS
PUBLIC	?UpdateRegistryFromResourceS@CComModule@ATL@@UAGJIHPAU_ATL_REGMAP_ENTRY@2@@Z ; ATL::CComModule::UpdateRegistryFromResourceS
PUBLIC	??_7CComModule@ATL@@6B@				; ATL::CComModule::`vftable'
PUBLIC	??_GCComModule@ATL@@UAEPAXI@Z			; ATL::CComModule::`scalar deleting destructor'
PUBLIC	??_C@_0O@PGKIMHP@_pModule?5?$DN?$DN?50?$AA@	; `string'
EXTRN	??_ECComModule@ATL@@UAEPAXI@Z:NEAR		; ATL::CComModule::`vector deleting destructor'
;	COMDAT ??_7CComModule@ATL@@6B@
; File c:\program files\microsoft visual studio .net 2003\vc7\atlmfc\include\atlbase.h
CONST	SEGMENT
??_7CComModule@ATL@@6B@ DD FLAT:??_ECComModule@ATL@@UAEPAXI@Z ; ATL::CComModule::`vftable'
	DD	FLAT:?Lock@CAtlModule@ATL@@UAEJXZ
	DD	FLAT:?Unlock@CAtlModule@ATL@@UAEJXZ
	DD	FLAT:?GetLockCount@CAtlModule@ATL@@UAEJXZ
	DD	FLAT:?GetGITPtr@CAtlModule@ATL@@UAEJPAPAUIGlobalInterfaceTable@@@Z
	DD	FLAT:?AddCommonRGSReplacements@?$CAtlModuleT@VCComModule@ATL@@@ATL@@UAEJPAUIRegistrarBase@@@Z
	DD	FLAT:?UpdateRegistryFromResourceD@CComModule@ATL@@UAGJIHPAU_ATL_REGMAP_ENTRY@2@@Z
	DD	FLAT:?UpdateRegistryFromResourceD@CComModule@ATL@@UAGJPBDHPAU_ATL_REGMAP_ENTRY@2@@Z
	DD	FLAT:?UpdateRegistryFromResourceS@CComModule@ATL@@UAGJIHPAU_ATL_REGMAP_ENTRY@2@@Z
	DD	FLAT:?UpdateRegistryFromResourceS@CComModule@ATL@@UAGJPBDHPAU_ATL_REGMAP_ENTRY@2@@Z
CONST	ENDS
;	COMDAT ??_C@_0O@PGKIMHP@_pModule?5?$DN?$DN?50?$AA@
CONST	SEGMENT
??_C@_0O@PGKIMHP@_pModule?5?$DN?$DN?50?$AA@ DB '_pModule == 0', 00H ; `string'
; Function compile flags: /Odt /RTCsu
CONST	ENDS
;	COMDAT ??0CComModule@ATL@@QAE@XZ
_TEXT	SEGMENT
_this$ = -4						; size = 4
??0CComModule@ATL@@QAE@XZ PROC NEAR			; ATL::CComModule::CComModule, COMDAT
; _this$ = ecx

; 3958 : 	CComModule()

	push	ebp
	mov	ebp, esp
	push	ecx
	mov	DWORD PTR [ebp-4], -858993460		; ccccccccH
	mov	DWORD PTR _this$[ebp], ecx
	mov	ecx, DWORD PTR _this$[ebp]
	call	??0?$CAtlModuleT@VCComModule@ATL@@@ATL@@QAE@XZ ; ATL::CAtlModuleT<ATL::CComModule>::CAtlModuleT<ATL::CComModule>
	mov	eax, DWORD PTR _this$[ebp]
	mov	DWORD PTR [eax], OFFSET FLAT:??_7CComModule@ATL@@6B@

; 3959 : 	{
; 3960 : 		// Should have only one instance of a class 
; 3961 : 		// derived from CComModule in a project.
; 3962 : 		ATLASSERT(_pModule == NULL);

	cmp	DWORD PTR ?_pModule@ATL@@3PAVCComModule@1@A, 0 ; ATL::_pModule
	je	SHORT $L206534
	push	OFFSET FLAT:??_C@_0O@PGKIMHP@_pModule?5?$DN?$DN?50?$AA@
	push	0
	push	3962					; 00000f7aH
	push	OFFSET FLAT:??_C@_0FA@KBNNCCJL@C?3?2Program?5Files?2Microsoft?5Visua@
	push	2
	call	__CrtDbgReport
	add	esp, 20					; 00000014H
	cmp	eax, 1
	jne	SHORT $L206534
	int	3
$L206534:

; 3963 : 		_pModule = this;

	mov	edx, DWORD PTR _this$[ebp]
	mov	DWORD PTR ?_pModule@ATL@@3PAVCComModule@1@A, edx ; ATL::_pModule

; 3964 : 	}

	mov	eax, DWORD PTR _this$[ebp]
	add	esp, 4
	cmp	ebp, esp
	call	__RTC_CheckEsp
	mov	esp, ebp
	pop	ebp
	ret	0
??0CComModule@ATL@@QAE@XZ ENDP				; ATL::CComModule::CComModule
; Function compile flags: /Odt /RTCsu
_TEXT	ENDS
;	COMDAT ?Lock@CAtlModule@ATL@@UAEJXZ
_TEXT	SEGMENT
_this$ = -4						; size = 4
?Lock@CAtlModule@ATL@@UAEJXZ PROC NEAR			; ATL::CAtlModule::Lock, COMDAT
; _this$ = ecx

; 2662 : 	{

	push	ebp
	mov	ebp, esp
	push	ecx
	mov	DWORD PTR [ebp-4], -858993460		; ccccccccH
	mov	DWORD PTR _this$[ebp], ecx

; 2663 : 		return CComGlobalsThreadModel::Increment(&m_nLockCnt);

	mov	eax, DWORD PTR _this$[ebp]
	add	eax, 8
	push	eax
	call	?Increment@CComMultiThreadModel@ATL@@SGKPAJ@Z ; ATL::CComMultiThreadModel::Increment

; 2664 : 	}

	add	esp, 4
	cmp	ebp, esp
	call	__RTC_CheckEsp
	mov	esp, ebp
	pop	ebp
	ret	0
?Lock@CAtlModule@ATL@@UAEJXZ ENDP			; ATL::CAtlModule::Lock
; Function compile flags: /Odt /RTCsu
_TEXT	ENDS
;	COMDAT ?Unlock@CAtlModule@ATL@@UAEJXZ
_TEXT	SEGMENT
_this$ = -4						; size = 4
?Unlock@CAtlModule@ATL@@UAEJXZ PROC NEAR		; ATL::CAtlModule::Unlock, COMDAT
; _this$ = ecx

; 2667 : 	{

	push	ebp
	mov	ebp, esp
	push	ecx
	mov	DWORD PTR [ebp-4], -858993460		; ccccccccH
	mov	DWORD PTR _this$[ebp], ecx

; 2668 : 		return CComGlobalsThreadModel::Decrement(&m_nLockCnt);

	mov	eax, DWORD PTR _this$[ebp]
	add	eax, 8
	push	eax
	call	?Decrement@CComMultiThreadModel@ATL@@SGKPAJ@Z ; ATL::CComMultiThreadModel::Decrement

; 2669 : 	}

	add	esp, 4
	cmp	ebp, esp
	call	__RTC_CheckEsp
	mov	esp, ebp
	pop	ebp
	ret	0
?Unlock@CAtlModule@ATL@@UAEJXZ ENDP			; ATL::CAtlModule::Unlock
_TEXT	ENDS
PUBLIC	??_C@_0L@NJOPLADJ@ppGIT?5?$CB?$DN?50?$AA@	; `string'
PUBLIC	__GUID_00000146_0000_0000_c000_000000000046
PUBLIC	??_C@_0M@GKCENBEN@m_pGIT?5?$CB?$DN?50?$AA@	; `string'
EXTRN	__imp__CoCreateInstance@20:NEAR
;	COMDAT ??_C@_0L@NJOPLADJ@ppGIT?5?$CB?$DN?50?$AA@
CONST	SEGMENT
??_C@_0L@NJOPLADJ@ppGIT?5?$CB?$DN?50?$AA@ DB 'ppGIT != 0', 00H ; `string'
CONST	ENDS
;	COMDAT __GUID_00000146_0000_0000_c000_000000000046
CONST	SEGMENT
__GUID_00000146_0000_0000_c000_000000000046 DD 0146H
	DW	00H
	DW	00H
	DB	0c0H
	DB	00H
	DB	00H
	DB	00H
	DB	00H
	DB	00H
	DB	00H
	DB	046H
CONST	ENDS
;	COMDAT ??_C@_0M@GKCENBEN@m_pGIT?5?$CB?$DN?50?$AA@
CONST	SEGMENT
??_C@_0M@GKCENBEN@m_pGIT?5?$CB?$DN?50?$AA@ DB 'm_pGIT != 0', 00H ; `string'
; Function compile flags: /Odt /RTCsu
CONST	ENDS
;	COMDAT ?GetGITPtr@CAtlModule@ATL@@UAEJPAPAUIGlobalInterfaceTable@@@Z
_TEXT	SEGMENT
_hr$ = -8						; size = 4
_this$ = -4						; size = 4
_ppGIT$ = 8						; size = 4
?GetGITPtr@CAtlModule@ATL@@UAEJPAPAUIGlobalInterfaceTable@@@Z PROC NEAR ; ATL::CAtlModule::GetGITPtr, COMDAT
; _this$ = ecx

; 2682 : 	{

	push	ebp
	mov	ebp, esp
	sub	esp, 8
	push	esi
	mov	DWORD PTR [ebp-8], -858993460		; ccccccccH
	mov	DWORD PTR [ebp-4], -858993460		; ccccccccH
	mov	DWORD PTR _this$[ebp], ecx

; 2683 : 		ATLASSERT(ppGIT != NULL);

	cmp	DWORD PTR _ppGIT$[ebp], 0
	jne	SHORT $L206542
	push	OFFSET FLAT:??_C@_0L@NJOPLADJ@ppGIT?5?$CB?$DN?50?$AA@
	push	0
	push	2683					; 00000a7bH
	push	OFFSET FLAT:??_C@_0FA@KBNNCCJL@C?3?2Program?5Files?2Microsoft?5Visua@
	push	2
	call	__CrtDbgReport
	add	esp, 20					; 00000014H
	cmp	eax, 1
	jne	SHORT $L206542
	int	3
$L206542:

; 2684 : 
; 2685 : 		if (ppGIT == NULL)

	cmp	DWORD PTR _ppGIT$[ebp], 0
	jne	SHORT $L88191

; 2686 : 			return E_POINTER;

	mov	eax, -2147467261			; 80004003H
	jmp	$L88188
$L88191:

; 2687 : 
; 2688 : 		HRESULT hr = S_OK;

	mov	DWORD PTR _hr$[ebp], 0

; 2689 : 		if (m_pGIT == NULL)

	mov	ecx, DWORD PTR _this$[ebp]
	cmp	DWORD PTR [ecx+40], 0
	jne	SHORT $L88195

; 2690 : 		{
; 2691 : 			hr = ::CoCreateInstance(CLSID_StdGlobalInterfaceTable, NULL, CLSCTX_INPROC_SERVER,
; 2692 : 				__uuidof(IGlobalInterfaceTable), (void**)&m_pGIT);

	mov	edx, DWORD PTR _this$[ebp]
	add	edx, 40					; 00000028H
	mov	esi, esp
	push	edx
	push	OFFSET FLAT:__GUID_00000146_0000_0000_c000_000000000046
	push	1
	push	0
	push	OFFSET FLAT:_CLSID_StdGlobalInterfaceTable
	call	DWORD PTR __imp__CoCreateInstance@20
	cmp	esi, esp
	call	__RTC_CheckEsp
	mov	DWORD PTR _hr$[ebp], eax
$L88195:

; 2693 : 		}
; 2694 : 
; 2695 : 		if (SUCCEEDED(hr))

	cmp	DWORD PTR _hr$[ebp], 0
	jl	SHORT $L88199

; 2696 : 		{
; 2697 : 			ATLASSERT(m_pGIT != NULL);

	mov	eax, DWORD PTR _this$[ebp]
	cmp	DWORD PTR [eax+40], 0
	jne	SHORT $L206543
	push	OFFSET FLAT:??_C@_0M@GKCENBEN@m_pGIT?5?$CB?$DN?50?$AA@
	push	0
	push	2697					; 00000a89H
	push	OFFSET FLAT:??_C@_0FA@KBNNCCJL@C?3?2Program?5Files?2Microsoft?5Visua@
	push	2
	call	__CrtDbgReport
	add	esp, 20					; 00000014H
	cmp	eax, 1
	jne	SHORT $L206543
	int	3
$L206543:

; 2698 : 			*ppGIT = m_pGIT;

	mov	edx, DWORD PTR _ppGIT$[ebp]
	mov	eax, DWORD PTR _this$[ebp]
	mov	ecx, DWORD PTR [eax+40]
	mov	DWORD PTR [edx], ecx

; 2699 : 			m_pGIT->AddRef();

	mov	edx, DWORD PTR _this$[ebp]
	mov	eax, DWORD PTR [edx+40]
	mov	ecx, DWORD PTR _this$[ebp]
	mov	edx, DWORD PTR [ecx+40]
	mov	eax, DWORD PTR [eax]
	mov	esi, esp
	push	edx
	call	DWORD PTR [eax+4]
	cmp	esi, esp
	call	__RTC_CheckEsp
$L88199:

; 2700 : 		}
; 2701 : 		return hr;

	mov	eax, DWORD PTR _hr$[ebp]
$L88188:

; 2702 : 	}

	pop	esi
	add	esp, 8
	cmp	ebp, esp
	call	__RTC_CheckEsp
	mov	esp, ebp
	pop	ebp
	ret	4
?GetGITPtr@CAtlModule@ATL@@UAEJPAPAUIGlobalInterfaceTable@@@Z ENDP ; ATL::CAtlModule::GetGITPtr
_TEXT	ENDS
PUBLIC	?UpdateRegistryFromResourceD@CAtlModule@ATL@@QAGJPBDHPAU_ATL_REGMAP_ENTRY@2@@Z ; ATL::CAtlModule::UpdateRegistryFromResourceD
; Function compile flags: /Odt /RTCsu
;	COMDAT ?UpdateRegistryFromResourceD@CComModule@ATL@@UAGJPBDHPAU_ATL_REGMAP_ENTRY@2@@Z
_TEXT	SEGMENT
_this$ = 8						; size = 4
_lpszRes$ = 12						; size = 4
_bRegister$ = 16					; size = 4
_pMapEntries$ = 20					; size = 4
?UpdateRegistryFromResourceD@CComModule@ATL@@UAGJPBDHPAU_ATL_REGMAP_ENTRY@2@@Z PROC NEAR ; ATL::CComModule::UpdateRegistryFromResourceD, COMDAT

; 4106 : 	{

	push	ebp
	mov	ebp, esp

; 4107 : #if defined(_ATL_STATIC_REGISTRY)
; 4108 : 		(lpszRes);
; 4109 : 		(bRegister);
; 4110 : 		(pMapEntries);
; 4111 : 		return E_FAIL;
; 4112 : #else
; 4113 : 		return CAtlModuleT<CComModule>::UpdateRegistryFromResourceD(lpszRes, bRegister, pMapEntries);		

	mov	eax, DWORD PTR _pMapEntries$[ebp]
	push	eax
	mov	ecx, DWORD PTR _bRegister$[ebp]
	push	ecx
	mov	edx, DWORD PTR _lpszRes$[ebp]
	push	edx
	mov	eax, DWORD PTR _this$[ebp]
	push	eax
	call	?UpdateRegistryFromResourceD@CAtlModule@ATL@@QAGJPBDHPAU_ATL_REGMAP_ENTRY@2@@Z ; ATL::CAtlModule::UpdateRegistryFromResourceD

; 4114 : #endif
; 4115 : 	}

	cmp	ebp, esp
	call	__RTC_CheckEsp
	pop	ebp
	ret	16					; 00000010H
?UpdateRegistryFromResourceD@CComModule@ATL@@UAGJPBDHPAU_ATL_REGMAP_ENTRY@2@@Z ENDP ; ATL::CComModule::UpdateRegistryFromResourceD
; Function compile flags: /Odt /RTCsu
_TEXT	ENDS
;	COMDAT ?UpdateRegistryFromResourceD@CAtlModule@ATL@@QAGJPBDHPAU_ATL_REGMAP_ENTRY@2@@Z
_TEXT	SEGMENT
tv92 = -48						; size = 4
tv85 = -44						; size = 4
tv94 = -40						; size = 4
$T206552 = -36						; size = 4
_pwszTemp$ = -32					; size = 4
__AtlSafeAllocaManager$ = -24				; size = 4
__lpa_ex$ = -16						; size = 4
__lpw_ex$ = -12						; size = 4
__acp_ex$ = -8						; size = 4
__convert_ex$ = -4					; size = 4
_this$ = 8						; size = 4
_lpszRes$ = 12						; size = 4
_bRegister$ = 16					; size = 4
_pMapEntries$ = 20					; size = 4
?UpdateRegistryFromResourceD@CAtlModule@ATL@@QAGJPBDHPAU_ATL_REGMAP_ENTRY@2@@Z PROC NEAR ; ATL::CAtlModule::UpdateRegistryFromResourceD, COMDAT

; 2716 : 	{

	push	ebp
	mov	ebp, esp
	sub	esp, 48					; 00000030H
	push	esi
	push	edi
	lea	edi, DWORD PTR [ebp-48]
	mov	ecx, 12					; 0000000cH
	mov	eax, -858993460				; ccccccccH
	rep stosd

; 2717 : 		if(lpszRes == NULL)

	cmp	DWORD PTR _lpszRes$[ebp], 0
	jne	SHORT $L88204

; 2718 : 			return E_INVALIDARG;

	mov	eax, -2147024809			; 80070057H
	jmp	$L88203
$L88204:

; 2719 : 		
; 2720 : 		USES_CONVERSION_EX;

	mov	DWORD PTR __convert_ex$[ebp], 0
	call	?_AtlGetConversionACP@ATL@@YGIXZ	; ATL::_AtlGetConversionACP
	mov	DWORD PTR __acp_ex$[ebp], eax
	mov	DWORD PTR __lpw_ex$[ebp], 0
	mov	DWORD PTR __lpa_ex$[ebp], 0
	lea	ecx, DWORD PTR __AtlSafeAllocaManager$[ebp]
	call	??0?$CAtlSafeAllocBufferManager@VCCRTAllocator@ATL@@@_ATL_SAFE_ALLOCA_IMPL@ATL@@QAE@XZ ; ATL::_ATL_SAFE_ALLOCA_IMPL::CAtlSafeAllocBufferManager<ATL::CCRTAllocator>::CAtlSafeAllocBufferManager<ATL::CCRTAllocator>

; 2721 : 		LPCOLESTR pwszTemp = T2COLE_EX(lpszRes, _ATL_SAFE_ALLOCA_DEF_THRESHOLD);

	mov	eax, DWORD PTR _lpszRes$[ebp]
	mov	DWORD PTR __lpa_ex$[ebp], eax
	cmp	DWORD PTR __lpa_ex$[ebp], 0
	jne	SHORT $L206550
	mov	DWORD PTR tv94[ebp], 0
	jmp	SHORT $L206551
$L206550:
	mov	esi, esp
	mov	ecx, DWORD PTR __lpa_ex$[ebp]
	push	ecx
	call	DWORD PTR __imp__lstrlenA@4
	cmp	esi, esp
	call	__RTC_CheckEsp
	add	eax, 1
	mov	DWORD PTR __convert_ex$[ebp], eax
	mov	edx, DWORD PTR __convert_ex$[ebp]
	shl	edx, 1
	cmp	edx, 1024				; 00000400H
	ja	SHORT $L206548
	mov	eax, DWORD PTR __convert_ex$[ebp]
	shl	eax, 1
	push	eax
	call	?_AtlVerifyStackAvailable@_ATL_SAFE_ALLOCA_IMPL@ATL@@YA_NK@Z ; ATL::_ATL_SAFE_ALLOCA_IMPL::_AtlVerifyStackAvailable
	add	esp, 4
	movzx	ecx, al
	test	ecx, ecx
	je	SHORT $L206548
	mov	eax, DWORD PTR __convert_ex$[ebp]
	shl	eax, 1
	add	eax, 3
	and	eax, -4					; fffffffcH
	call	__alloca_probe
	mov	DWORD PTR tv85[ebp], esp
	mov	edx, DWORD PTR tv85[ebp]
	mov	DWORD PTR tv92[ebp], edx
	jmp	SHORT $L206549
$L206548:
	mov	eax, DWORD PTR __convert_ex$[ebp]
	shl	eax, 1
	push	eax
	lea	ecx, DWORD PTR __AtlSafeAllocaManager$[ebp]
	call	?Allocate@?$CAtlSafeAllocBufferManager@VCCRTAllocator@ATL@@@_ATL_SAFE_ALLOCA_IMPL@ATL@@QAEPAXK@Z ; ATL::_ATL_SAFE_ALLOCA_IMPL::CAtlSafeAllocBufferManager<ATL::CCRTAllocator>::Allocate
	mov	DWORD PTR tv92[ebp], eax
$L206549:
	mov	ecx, DWORD PTR __acp_ex$[ebp]
	push	ecx
	mov	edx, DWORD PTR __convert_ex$[ebp]
	push	edx
	mov	eax, DWORD PTR __lpa_ex$[ebp]
	push	eax
	mov	ecx, DWORD PTR tv92[ebp]
	push	ecx
	call	?AtlA2WHelper@@YGPAGPAGPBDHI@Z		; AtlA2WHelper
	mov	DWORD PTR tv94[ebp], eax
$L206551:
	mov	edx, DWORD PTR tv94[ebp]
	mov	DWORD PTR _pwszTemp$[ebp], edx

; 2722 : #ifdef _UNICODE
; 2723 : 		if(pwszTemp == NULL) 
; 2724 : 			return E_OUTOFMEMORY;
; 2725 : #endif		
; 2726 : 		return UpdateRegistryFromResourceDHelper(pwszTemp, bRegister, pMapEntries);

	mov	eax, DWORD PTR _pMapEntries$[ebp]
	push	eax
	mov	ecx, DWORD PTR _bRegister$[ebp]
	push	ecx
	mov	edx, DWORD PTR _pwszTemp$[ebp]
	push	edx
	mov	eax, DWORD PTR _this$[ebp]
	push	eax
	call	?UpdateRegistryFromResourceDHelper@CAtlModule@ATL@@QAGJPBGHPAU_ATL_REGMAP_ENTRY@2@@Z ; ATL::CAtlModule::UpdateRegistryFromResourceDHelper
	mov	DWORD PTR $T206552[ebp], eax
	lea	ecx, DWORD PTR __AtlSafeAllocaManager$[ebp]
	call	??1?$CAtlSafeAllocBufferManager@VCCRTAllocator@ATL@@@_ATL_SAFE_ALLOCA_IMPL@ATL@@QAE@XZ ; ATL::_ATL_SAFE_ALLOCA_IMPL::CAtlSafeAllocBufferManager<ATL::CCRTAllocator>::~CAtlSafeAllocBufferManager<ATL::CCRTAllocator>
	mov	eax, DWORD PTR $T206552[ebp]
$L88203:

; 2727 : 	}

	lea	esp, DWORD PTR [ebp-56]
	push	edx
	mov	ecx, ebp
	push	eax
	lea	edx, DWORD PTR $L206555
	call	@_RTC_CheckStackVars@8
	pop	eax
	pop	edx
	pop	edi
	pop	esi
	mov	esp, ebp
	pop	ebp
	ret	16					; 00000010H
$L206555:
	DD	1
	DD	$L206554
$L206554:
	DD	-24					; ffffffe8H
	DD	4
	DD	$L206553
$L206553:
	DB	95					; 0000005fH
	DB	65					; 00000041H
	DB	116					; 00000074H
	DB	108					; 0000006cH
	DB	83					; 00000053H
	DB	97					; 00000061H
	DB	102					; 00000066H
	DB	101					; 00000065H
	DB	65					; 00000041H
	DB	108					; 0000006cH
	DB	108					; 0000006cH
	DB	111					; 0000006fH
	DB	99					; 00000063H
	DB	97					; 00000061H
	DB	77					; 0000004dH
	DB	97					; 00000061H
	DB	110					; 0000006eH
	DB	97					; 00000061H
	DB	103					; 00000067H
	DB	101					; 00000065H
	DB	114					; 00000072H
	DB	0
?UpdateRegistryFromResourceD@CAtlModule@ATL@@QAGJPBDHPAU_ATL_REGMAP_ENTRY@2@@Z ENDP ; ATL::CAtlModule::UpdateRegistryFromResourceD
; Function compile flags: /Odt /RTCsu
_TEXT	ENDS
;	COMDAT ?UpdateRegistryFromResourceS@CComModule@ATL@@UAGJPBDHPAU_ATL_REGMAP_ENTRY@2@@Z
_TEXT	SEGMENT
_this$ = 8						; size = 4
_lpszRes$ = 12						; size = 4
_bRegister$ = 16					; size = 4
_pMapEntries$ = 20					; size = 4
?UpdateRegistryFromResourceS@CComModule@ATL@@UAGJPBDHPAU_ATL_REGMAP_ENTRY@2@@Z PROC NEAR ; ATL::CComModule::UpdateRegistryFromResourceS, COMDAT

; 4133 : 	{

	push	ebp
	mov	ebp, esp

; 4134 : #ifdef _ATL_STATIC_REGISTRY
; 4135 : 		return CAtlModuleT<CComModule>::UpdateRegistryFromResourceS(lpszRes, bRegister, pMapEntries);
; 4136 : #else
; 4137 : 		(lpszRes);
; 4138 : 		(bRegister);
; 4139 : 		(pMapEntries);
; 4140 : 		return E_FAIL;

	mov	eax, -2147467259			; 80004005H

; 4141 : #endif
; 4142 : 	}

	pop	ebp
	ret	16					; 00000010H
?UpdateRegistryFromResourceS@CComModule@ATL@@UAGJPBDHPAU_ATL_REGMAP_ENTRY@2@@Z ENDP ; ATL::CComModule::UpdateRegistryFromResourceS
; Function compile flags: /Odt /RTCsu
_TEXT	ENDS
;	COMDAT ?UpdateRegistryFromResourceS@CComModule@ATL@@UAGJIHPAU_ATL_REGMAP_ENTRY@2@@Z
_TEXT	SEGMENT
_this$ = 8						; size = 4
_nResID$ = 12						; size = 4
_bRegister$ = 16					; size = 4
_pMapEntries$ = 20					; size = 4
?UpdateRegistryFromResourceS@CComModule@ATL@@UAGJIHPAU_ATL_REGMAP_ENTRY@2@@Z PROC NEAR ; ATL::CComModule::UpdateRegistryFromResourceS, COMDAT

; 4145 : 	{

	push	ebp
	mov	ebp, esp

; 4146 : #ifdef _ATL_STATIC_REGISTRY
; 4147 : 		return CAtlModuleT<CComModule>::UpdateRegistryFromResourceS(nResID, bRegister, pMapEntries);
; 4148 : #else
; 4149 : 		(nResID);
; 4150 : 		(bRegister);
; 4151 : 		(pMapEntries);
; 4152 : 		return E_FAIL;

	mov	eax, -2147467259			; 80004005H

; 4153 : #endif
; 4154 : 	}

	pop	ebp
	ret	16					; 00000010H
?UpdateRegistryFromResourceS@CComModule@ATL@@UAGJIHPAU_ATL_REGMAP_ENTRY@2@@Z ENDP ; ATL::CComModule::UpdateRegistryFromResourceS
_TEXT	ENDS
PUBLIC	??1CComModule@ATL@@UAE@XZ			; ATL::CComModule::~CComModule
; Function compile flags: /Odt /RTCsu
;	COMDAT ??_GCComModule@ATL@@UAEPAXI@Z
_TEXT	SEGMENT
_this$ = -4						; size = 4
___flags$ = 8						; size = 4
??_GCComModule@ATL@@UAEPAXI@Z PROC NEAR			; ATL::CComModule::`scalar deleting destructor', COMDAT
; _this$ = ecx
	push	ebp
	mov	ebp, esp
	push	ecx
	mov	DWORD PTR [ebp-4], -858993460		; ccccccccH
	mov	DWORD PTR _this$[ebp], ecx
	mov	ecx, DWORD PTR _this$[ebp]
	call	??1CComModule@ATL@@UAE@XZ
	mov	eax, DWORD PTR ___flags$[ebp]
	and	eax, 1
	je	SHORT $L88751
	mov	ecx, DWORD PTR _this$[ebp]
	push	ecx
	call	??3@YAXPAX@Z				; operator delete
	add	esp, 4
$L88751:
	mov	eax, DWORD PTR _this$[ebp]
	add	esp, 4
	cmp	ebp, esp
	call	__RTC_CheckEsp
	mov	esp, ebp
	pop	ebp
	ret	4
??_GCComModule@ATL@@UAEPAXI@Z ENDP			; ATL::CComModule::`scalar deleting destructor'
_TEXT	ENDS
PUBLIC	??1?$CAtlModuleT@VCComModule@ATL@@@ATL@@UAE@XZ	; ATL::CAtlModuleT<ATL::CComModule>::~CAtlModuleT<ATL::CComModule>
; Function compile flags: /Odt /RTCsu
;	COMDAT ??1CComModule@ATL@@UAE@XZ
_TEXT	SEGMENT
_this$ = -4						; size = 4
??1CComModule@ATL@@UAE@XZ PROC NEAR			; ATL::CComModule::~CComModule, COMDAT
; _this$ = ecx
	push	ebp
	mov	ebp, esp
	push	ecx
	mov	DWORD PTR [ebp-4], -858993460		; ccccccccH
	mov	DWORD PTR _this$[ebp], ecx
	mov	ecx, DWORD PTR _this$[ebp]
	call	??1?$CAtlModuleT@VCComModule@ATL@@@ATL@@UAE@XZ
	add	esp, 4
	cmp	ebp, esp
	call	__RTC_CheckEsp
	mov	esp, ebp
	pop	ebp
	ret	0
??1CComModule@ATL@@UAE@XZ ENDP				; ATL::CComModule::~CComModule
_TEXT	ENDS
PUBLIC	??1CAtlModule@ATL@@UAE@XZ			; ATL::CAtlModule::~CAtlModule
; Function compile flags: /Odt /RTCsu
;	COMDAT ??1?$CAtlModuleT@VCComModule@ATL@@@ATL@@UAE@XZ
_TEXT	SEGMENT
_this$ = -4						; size = 4
??1?$CAtlModuleT@VCComModule@ATL@@@ATL@@UAE@XZ PROC NEAR ; ATL::CAtlModuleT<ATL::CComModule>::~CAtlModuleT<ATL::CComModule>, COMDAT
; _this$ = ecx
	push	ebp
	mov	ebp, esp
	push	ecx
	mov	DWORD PTR [ebp-4], -858993460		; ccccccccH
	mov	DWORD PTR _this$[ebp], ecx
	mov	ecx, DWORD PTR _this$[ebp]
	call	??1CAtlModule@ATL@@UAE@XZ		; ATL::CAtlModule::~CAtlModule
	add	esp, 4
	cmp	ebp, esp
	call	__RTC_CheckEsp
	mov	esp, ebp
	pop	ebp
	ret	0
??1?$CAtlModuleT@VCComModule@ATL@@@ATL@@UAE@XZ ENDP	; ATL::CAtlModuleT<ATL::CComModule>::~CAtlModuleT<ATL::CComModule>
; Function compile flags: /Odt /RTCsu
_TEXT	ENDS
;	COMDAT ??1CAtlModule@ATL@@UAE@XZ
_TEXT	SEGMENT
_this$ = -4						; size = 4
??1CAtlModule@ATL@@UAE@XZ PROC NEAR			; ATL::CAtlModule::~CAtlModule, COMDAT
; _this$ = ecx

; 2657 : 	{

	push	ebp
	mov	ebp, esp
	push	ecx
	mov	DWORD PTR [ebp-4], -858993460		; ccccccccH
	mov	DWORD PTR _this$[ebp], ecx

; 2658 : 		Term();

	mov	ecx, DWORD PTR _this$[ebp]
	call	?Term@CAtlModule@ATL@@QAEXXZ		; ATL::CAtlModule::Term

; 2659 : 	}

	add	esp, 4
	cmp	ebp, esp
	call	__RTC_CheckEsp
	mov	esp, ebp
	pop	ebp
	ret	0
??1CAtlModule@ATL@@UAE@XZ ENDP				; ATL::CAtlModule::~CAtlModule
_TEXT	ENDS
PUBLIC	??0CAtlModule@ATL@@QAE@XZ			; ATL::CAtlModule::CAtlModule
PUBLIC	?InitLibId@?$CAtlModuleT@VCComModule@ATL@@@ATL@@SAXXZ ; ATL::CAtlModuleT<ATL::CComModule>::InitLibId
; Function compile flags: /Odt /RTCsu
;	COMDAT ??0?$CAtlModuleT@VCComModule@ATL@@@ATL@@QAE@XZ
_TEXT	SEGMENT
_this$ = -4						; size = 4
??0?$CAtlModuleT@VCComModule@ATL@@@ATL@@QAE@XZ PROC NEAR ; ATL::CAtlModuleT<ATL::CComModule>::CAtlModuleT<ATL::CComModule>, COMDAT
; _this$ = ecx

; 2863 : 	CAtlModuleT() throw()

	push	ebp
	mov	ebp, esp
	push	ecx
	mov	DWORD PTR [ebp-4], -858993460		; ccccccccH
	mov	DWORD PTR _this$[ebp], ecx
	mov	ecx, DWORD PTR _this$[ebp]
	call	??0CAtlModule@ATL@@QAE@XZ		; ATL::CAtlModule::CAtlModule

; 2864 : 	{
; 2865 : 		T::InitLibId();

	call	?InitLibId@?$CAtlModuleT@VCComModule@ATL@@@ATL@@SAXXZ ; ATL::CAtlModuleT<ATL::CComModule>::InitLibId

; 2866 : 	}

	mov	eax, DWORD PTR _this$[ebp]
	add	esp, 4
	cmp	ebp, esp
	call	__RTC_CheckEsp
	mov	esp, ebp
	pop	ebp
	ret	0
??0?$CAtlModuleT@VCComModule@ATL@@@ATL@@QAE@XZ ENDP	; ATL::CAtlModuleT<ATL::CComModule>::CAtlModuleT<ATL::CComModule>
_TEXT	ENDS
PUBLIC	??_C@_0BB@JLCMIEMB@_pAtlModule?5?$DN?$DN?50?$AA@ ; `string'
PUBLIC	??_C@_0DN@JALIHHGH@ERROR?5?3?5Unable?5to?5initialize?5cri@ ; `string'
PUBLIC	??0_ATL_MODULE70@ATL@@QAE@XZ			; ATL::_ATL_MODULE70::_ATL_MODULE70
EXTRN	?atlTraceGeneral@ATL@@3VCTraceCategory@1@A:DWORD ; ATL::atlTraceGeneral
;	COMDAT ??_C@_0BB@JLCMIEMB@_pAtlModule?5?$DN?$DN?50?$AA@
CONST	SEGMENT
??_C@_0BB@JLCMIEMB@_pAtlModule?5?$DN?$DN?50?$AA@ DB '_pAtlModule == 0', 00H ; `string'
CONST	ENDS
;	COMDAT ??_C@_0DN@JALIHHGH@ERROR?5?3?5Unable?5to?5initialize?5cri@
CONST	SEGMENT
??_C@_0DN@JALIHHGH@ERROR?5?3?5Unable?5to?5initialize?5cri@ DB 'ERROR : Un'
	DB	'able to initialize critical section in CAtlModule', 0aH, 00H ; `string'
; Function compile flags: /Odt /RTCsu
CONST	ENDS
;	COMDAT ??0CAtlModule@ATL@@QAE@XZ
_TEXT	SEGMENT
$T206573 = -12						; size = 8
_this$ = -4						; size = 4
??0CAtlModule@ATL@@QAE@XZ PROC NEAR			; ATL::CAtlModule::CAtlModule, COMDAT
; _this$ = ecx

; 2615 : 	CAtlModule() throw()

	push	ebp
	mov	ebp, esp
	sub	esp, 12					; 0000000cH
	mov	DWORD PTR [ebp-12], -858993460		; ccccccccH
	mov	DWORD PTR [ebp-8], -858993460		; ccccccccH
	mov	DWORD PTR [ebp-4], -858993460		; ccccccccH
	mov	DWORD PTR _this$[ebp], ecx
	mov	ecx, DWORD PTR _this$[ebp]
	add	ecx, 4
	call	??0_ATL_MODULE70@ATL@@QAE@XZ

; 2616 : 	{
; 2617 : 		// Should have only one instance of a class 
; 2618 : 		// derived from CAtlModule in a project.
; 2619 : 		ATLASSERT(_pAtlModule == NULL);

	cmp	DWORD PTR ?_pAtlModule@ATL@@3PAVCAtlModule@1@A, 0 ; ATL::_pAtlModule
	je	SHORT $L206572
	push	OFFSET FLAT:??_C@_0BB@JLCMIEMB@_pAtlModule?5?$DN?$DN?50?$AA@
	push	0
	push	2619					; 00000a3bH
	push	OFFSET FLAT:??_C@_0FA@KBNNCCJL@C?3?2Program?5Files?2Microsoft?5Visua@
	push	2
	call	__CrtDbgReport
	add	esp, 20					; 00000014H
	cmp	eax, 1
	jne	SHORT $L206572
	int	3
$L206572:

; 2620 : 		cbSize = sizeof(_ATL_MODULE);

	mov	ecx, DWORD PTR _this$[ebp]
	mov	DWORD PTR [ecx+4], 36			; 00000024H

; 2621 : 		m_pTermFuncs = NULL;

	mov	edx, DWORD PTR _this$[ebp]
	mov	DWORD PTR [edx+12], 0

; 2622 : 
; 2623 : 		m_nLockCnt = 0;

	mov	eax, DWORD PTR _this$[ebp]
	mov	DWORD PTR [eax+8], 0

; 2624 : 		_pAtlModule = this;

	mov	ecx, DWORD PTR _this$[ebp]
	mov	DWORD PTR ?_pAtlModule@ATL@@3PAVCAtlModule@1@A, ecx ; ATL::_pAtlModule

; 2625 : 		if (FAILED(m_csStaticDataInitAndTypeInfo.Init()))

	mov	ecx, DWORD PTR _this$[ebp]
	add	ecx, 16					; 00000010H
	call	?Init@CComCriticalSection@ATL@@QAEJXZ	; ATL::CComCriticalSection::Init
	test	eax, eax
	jge	SHORT $L88168

; 2626 : 		{
; 2627 : 			ATLTRACE(atlTraceGeneral, 0, _T("ERROR : Unable to initialize critical section in CAtlModule\n"));

	push	OFFSET FLAT:??_C@_0DN@JALIHHGH@ERROR?5?3?5Unable?5to?5initialize?5cri@
	push	0
	mov	ecx, OFFSET FLAT:?atlTraceGeneral@ATL@@3VCTraceCategory@1@A ; ATL::atlTraceGeneral
	call	??BCTraceCategory@ATL@@QBEKXZ		; ATL::CTraceCategory::operator unsigned long
	push	eax
	push	2627					; 00000a43H
	push	OFFSET FLAT:??_C@_0FA@KBNNCCJL@C?3?2Program?5Files?2Microsoft?5Visua@
	lea	ecx, DWORD PTR $T206573[ebp]
	call	??0CTraceFileAndLineInfo@ATL@@QAE@PBDH@Z ; ATL::CTraceFileAndLineInfo::CTraceFileAndLineInfo
	push	eax
	call	??RCTraceFileAndLineInfo@ATL@@QBAXKIPBDZZ ; ATL::CTraceFileAndLineInfo::operator()
	add	esp, 16					; 00000010H

; 2628 : 			ATLASSERT(0);

	xor	edx, edx
	jne	SHORT $L206574
	push	OFFSET FLAT:??_C@_01GBGANLPD@0?$AA@
	push	0
	push	2628					; 00000a44H
	push	OFFSET FLAT:??_C@_0FA@KBNNCCJL@C?3?2Program?5Files?2Microsoft?5Visua@
	push	2
	call	__CrtDbgReport
	add	esp, 20					; 00000014H
	cmp	eax, 1
	jne	SHORT $L206574
	int	3
$L206574:

; 2629 : 			CAtlBaseModule::m_bInitFailed = true;

	mov	BYTE PTR ?m_bInitFailed@CAtlBaseModule@ATL@@2_NA, 1 ; ATL::CAtlBaseModule::m_bInitFailed
$L88168:

; 2630 : 		}
; 2631 : 
; 2632 : 		m_pGIT = NULL;

	mov	ecx, DWORD PTR _this$[ebp]
	mov	DWORD PTR [ecx+40], 0

; 2633 : 	}

	mov	eax, DWORD PTR _this$[ebp]
	add	esp, 12					; 0000000cH
	cmp	ebp, esp
	call	__RTC_CheckEsp
	mov	esp, ebp
	pop	ebp
	ret	0
??0CAtlModule@ATL@@QAE@XZ ENDP				; ATL::CAtlModule::CAtlModule
; Function compile flags: /Odt /RTCsu
_TEXT	ENDS
;	COMDAT ??0_ATL_MODULE70@ATL@@QAE@XZ
_TEXT	SEGMENT
_this$ = -4						; size = 4
??0_ATL_MODULE70@ATL@@QAE@XZ PROC NEAR			; ATL::_ATL_MODULE70::_ATL_MODULE70, COMDAT
; _this$ = ecx
	push	ebp
	mov	ebp, esp
	push	ecx
	mov	DWORD PTR [ebp-4], -858993460		; ccccccccH
	mov	DWORD PTR _this$[ebp], ecx
	mov	ecx, DWORD PTR _this$[ebp]
	add	ecx, 12					; 0000000cH
	call	??0CComCriticalSection@ATL@@QAE@XZ	; ATL::CComCriticalSection::CComCriticalSection
	mov	eax, DWORD PTR _this$[ebp]
	add	esp, 4
	cmp	ebp, esp
	call	__RTC_CheckEsp
	mov	esp, ebp
	pop	ebp
	ret	0
??0_ATL_MODULE70@ATL@@QAE@XZ ENDP			; ATL::_ATL_MODULE70::_ATL_MODULE70
_TEXT	ENDS
PUBLIC	??_C@_1M@PPPPCDEP@?$AAA?$AAP?$AAP?$AAI?$AAD?$AA?$AA@ ; `string'
PUBLIC	?GetAppId@?$CAtlModuleT@VCComModule@ATL@@@ATL@@SAPBGXZ ; ATL::CAtlModuleT<ATL::CComModule>::GetAppId
;	COMDAT ??_C@_1M@PPPPCDEP@?$AAA?$AAP?$AAP?$AAI?$AAD?$AA?$AA@
CONST	SEGMENT
??_C@_1M@PPPPCDEP@?$AAA?$AAP?$AAP?$AAI?$AAD?$AA?$AA@ DB 'A', 00H, 'P', 00H
	DB	'P', 00H, 'I', 00H, 'D', 00H, 00H, 00H	; `string'
; Function compile flags: /Odt /RTCsu
CONST	ENDS
;	COMDAT ?AddCommonRGSReplacements@?$CAtlModuleT@VCComModule@ATL@@@ATL@@UAEJPAUIRegistrarBase@@@Z
_TEXT	SEGMENT
_this$ = -4						; size = 4
_pRegistrar$ = 8					; size = 4
?AddCommonRGSReplacements@?$CAtlModuleT@VCComModule@ATL@@@ATL@@UAEJPAUIRegistrarBase@@@Z PROC NEAR ; ATL::CAtlModuleT<ATL::CComModule>::AddCommonRGSReplacements, COMDAT
; _this$ = ecx

; 2936 : 	{

	push	ebp
	mov	ebp, esp
	push	ecx
	push	esi
	mov	DWORD PTR [ebp-4], -858993460		; ccccccccH
	mov	DWORD PTR _this$[ebp], ecx

; 2937 : 		return pRegistrar->AddReplacement(L"APPID", T::GetAppId());

	call	?GetAppId@?$CAtlModuleT@VCComModule@ATL@@@ATL@@SAPBGXZ ; ATL::CAtlModuleT<ATL::CComModule>::GetAppId
	mov	esi, esp
	push	eax
	push	OFFSET FLAT:??_C@_1M@PPPPCDEP@?$AAA?$AAP?$AAP?$AAI?$AAD?$AA?$AA@
	mov	eax, DWORD PTR _pRegistrar$[ebp]
	mov	ecx, DWORD PTR [eax]
	mov	edx, DWORD PTR _pRegistrar$[ebp]
	push	edx
	call	DWORD PTR [ecx+12]
	cmp	esi, esp
	call	__RTC_CheckEsp

; 2938 : 	}

	pop	esi
	add	esp, 4
	cmp	ebp, esp
	call	__RTC_CheckEsp
	mov	esp, ebp
	pop	ebp
	ret	4
?AddCommonRGSReplacements@?$CAtlModuleT@VCComModule@ATL@@@ATL@@UAEJPAUIRegistrarBase@@@Z ENDP ; ATL::CAtlModuleT<ATL::CComModule>::AddCommonRGSReplacements
; Function compile flags: /Odt /RTCsu
_TEXT	ENDS
;	COMDAT ?InitLibId@?$CAtlModuleT@VCComModule@ATL@@@ATL@@SAXXZ
_TEXT	SEGMENT
?InitLibId@?$CAtlModuleT@VCComModule@ATL@@@ATL@@SAXXZ PROC NEAR ; ATL::CAtlModuleT<ATL::CComModule>::InitLibId, COMDAT

; 2869 : 	{

	push	ebp
	mov	ebp, esp

; 2870 : 	}

	pop	ebp
	ret	0
?InitLibId@?$CAtlModuleT@VCComModule@ATL@@@ATL@@SAXXZ ENDP ; ATL::CAtlModuleT<ATL::CComModule>::InitLibId
_TEXT	ENDS
PUBLIC	??_C@_11LOCGONAA@?$AA?$AA@			; `string'
;	COMDAT ??_C@_11LOCGONAA@?$AA?$AA@
CONST	SEGMENT
??_C@_11LOCGONAA@?$AA?$AA@ DB 00H, 00H			; `string'
; Function compile flags: /Odt /RTCsu
CONST	ENDS
;	COMDAT ?GetAppId@?$CAtlModuleT@VCComModule@ATL@@@ATL@@SAPBGXZ
_TEXT	SEGMENT
?GetAppId@?$CAtlModuleT@VCComModule@ATL@@@ATL@@SAPBGXZ PROC NEAR ; ATL::CAtlModuleT<ATL::CComModule>::GetAppId, COMDAT

; 2940 : 	{

	push	ebp
	mov	ebp, esp

; 2941 : 		return OLESTR("");

	mov	eax, OFFSET FLAT:??_C@_11LOCGONAA@?$AA?$AA@

; 2942 : 	}

	pop	ebp
	ret	0
?GetAppId@?$CAtlModuleT@VCComModule@ATL@@@ATL@@SAPBGXZ ENDP ; ATL::CAtlModuleT<ATL::CComModule>::GetAppId
_TEXT	ENDS
PUBLIC	??1CAtlWinModule@ATL@@QAE@XZ			; ATL::CAtlWinModule::~CAtlWinModule
; Function compile flags: /Odt /RTCsu
;	COMDAT _$E2
text$yd	SEGMENT
_$E2	PROC NEAR					; COMDAT
	push	ebp
	mov	ebp, esp
	mov	ecx, OFFSET FLAT:?_AtlWinModule@ATL@@3VCAtlWinModule@1@A
	call	??1CAtlWinModule@ATL@@QAE@XZ		; ATL::CAtlWinModule::~CAtlWinModule
	cmp	ebp, esp
	call	__RTC_CheckEsp
	pop	ebp
	ret	0
_$E2	ENDP
text$yd	ENDS
PUBLIC	??1_ATL_WIN_MODULE70@ATL@@QAE@XZ		; ATL::_ATL_WIN_MODULE70::~_ATL_WIN_MODULE70
;	COMDAT xdata$x
xdata$x	SEGMENT
$T206591 DD	0ffffffffH
	DD	FLAT:$L206587
$T206589 DD	019930520H
	DD	01H
	DD	FLAT:$T206591
	DD	2 DUP(00H)
	DD	2 DUP(00H)
; Function compile flags: /Odt /RTCsu
xdata$x	ENDS
;	COMDAT ??1CAtlWinModule@ATL@@QAE@XZ
_TEXT	SEGMENT
_this$ = -16						; size = 4
__$EHRec$ = -12						; size = 12
??1CAtlWinModule@ATL@@QAE@XZ PROC NEAR			; ATL::CAtlWinModule::~CAtlWinModule, COMDAT
; _this$ = ecx

; 2582 : 	{

	push	ebp
	mov	ebp, esp
	push	-1
	push	__ehhandler$??1CAtlWinModule@ATL@@QAE@XZ
	mov	eax, DWORD PTR fs:__except_list
	push	eax
	mov	DWORD PTR fs:__except_list, esp
	push	ecx
	mov	DWORD PTR [ebp-16], -858993460		; ccccccccH
	mov	DWORD PTR _this$[ebp], ecx
	mov	DWORD PTR __$EHRec$[ebp+8], 0

; 2583 : 		Term();

	mov	ecx, DWORD PTR _this$[ebp]
	call	?Term@CAtlWinModule@ATL@@QAEXXZ		; ATL::CAtlWinModule::Term

; 2584 : 	}

	mov	DWORD PTR __$EHRec$[ebp+8], -1
	mov	ecx, DWORD PTR _this$[ebp]
	call	??1_ATL_WIN_MODULE70@ATL@@QAE@XZ
	mov	ecx, DWORD PTR __$EHRec$[ebp]
	mov	DWORD PTR fs:__except_list, ecx
	add	esp, 16					; 00000010H
	cmp	ebp, esp
	call	__RTC_CheckEsp
	mov	esp, ebp
	pop	ebp
	ret	0
_TEXT	ENDS
;	COMDAT text$x
text$x	SEGMENT
$L206587:
	mov	ecx, DWORD PTR _this$[ebp]
	jmp	??1_ATL_WIN_MODULE70@ATL@@QAE@XZ
__ehhandler$??1CAtlWinModule@ATL@@QAE@XZ:
	mov	eax, OFFSET FLAT:$T206589
	jmp	___CxxFrameHandler
text$x	ENDS
??1CAtlWinModule@ATL@@QAE@XZ ENDP			; ATL::CAtlWinModule::~CAtlWinModule
PUBLIC	??1?$CSimpleArray@GV?$CSimpleArrayEqualHelper@G@ATL@@@ATL@@QAE@XZ ; ATL::CSimpleArray<unsigned short,ATL::CSimpleArrayEqualHelper<unsigned short> >::~CSimpleArray<unsigned short,ATL::CSimpleArrayEqualHelper<unsigned short> >
; Function compile flags: /Odt /RTCsu
;	COMDAT ??1_ATL_WIN_MODULE70@ATL@@QAE@XZ
_TEXT	SEGMENT
_this$ = -4						; size = 4
??1_ATL_WIN_MODULE70@ATL@@QAE@XZ PROC NEAR		; ATL::_ATL_WIN_MODULE70::~_ATL_WIN_MODULE70, COMDAT
; _this$ = ecx
	push	ebp
	mov	ebp, esp
	push	ecx
	mov	DWORD PTR [ebp-4], -858993460		; ccccccccH
	mov	DWORD PTR _this$[ebp], ecx
	mov	ecx, DWORD PTR _this$[ebp]
	add	ecx, 32					; 00000020H
	call	??1?$CSimpleArray@GV?$CSimpleArrayEqualHelper@G@ATL@@@ATL@@QAE@XZ ; ATL::CSimpleArray<unsigned short,ATL::CSimpleArrayEqualHelper<unsigned short> >::~CSimpleArray<unsigned short,ATL::CSimpleArrayEqualHelper<unsigned short> >
	add	esp, 4
	cmp	ebp, esp
	call	__RTC_CheckEsp
	mov	esp, ebp
	pop	ebp
	ret	0
??1_ATL_WIN_MODULE70@ATL@@QAE@XZ ENDP			; ATL::_ATL_WIN_MODULE70::~_ATL_WIN_MODULE70
_TEXT	ENDS
PUBLIC	?RemoveAll@?$CSimpleArray@GV?$CSimpleArrayEqualHelper@G@ATL@@@ATL@@QAEXXZ ; ATL::CSimpleArray<unsigned short,ATL::CSimpleArrayEqualHelper<unsigned short> >::RemoveAll
; Function compile flags: /Odt /RTCsu
; File c:\program files\microsoft visual studio .net 2003\vc7\atlmfc\include\atlsimpcoll.h
;	COMDAT ??1?$CSimpleArray@GV?$CSimpleArrayEqualHelper@G@ATL@@@ATL@@QAE@XZ
_TEXT	SEGMENT
_this$ = -4						; size = 4
??1?$CSimpleArray@GV?$CSimpleArrayEqualHelper@G@ATL@@@ATL@@QAE@XZ PROC NEAR ; ATL::CSimpleArray<unsigned short,ATL::CSimpleArrayEqualHelper<unsigned short> >::~CSimpleArray<unsigned short,ATL::CSimpleArrayEqualHelper<unsigned short> >, COMDAT
; _this$ = ecx

; 100  : 	{

	push	ebp
	mov	ebp, esp
	push	ecx
	mov	DWORD PTR [ebp-4], -858993460		; ccccccccH
	mov	DWORD PTR _this$[ebp], ecx

; 101  : 		RemoveAll();

	mov	ecx, DWORD PTR _this$[ebp]
	call	?RemoveAll@?$CSimpleArray@GV?$CSimpleArrayEqualHelper@G@ATL@@@ATL@@QAEXXZ ; ATL::CSimpleArray<unsigned short,ATL::CSimpleArrayEqualHelper<unsigned short> >::RemoveAll

; 102  : 	}

	add	esp, 4
	cmp	ebp, esp
	call	__RTC_CheckEsp
	mov	esp, ebp
	pop	ebp
	ret	0
??1?$CSimpleArray@GV?$CSimpleArrayEqualHelper@G@ATL@@@ATL@@QAE@XZ ENDP ; ATL::CSimpleArray<unsigned short,ATL::CSimpleArrayEqualHelper<unsigned short> >::~CSimpleArray<unsigned short,ATL::CSimpleArrayEqualHelper<unsigned short> >
; Function compile flags: /Odt /RTCsu
_TEXT	ENDS
;	COMDAT ?RemoveAll@?$CSimpleArray@GV?$CSimpleArrayEqualHelper@G@ATL@@@ATL@@QAEXXZ
_TEXT	SEGMENT
_i$160433 = -8						; size = 4
_this$ = -4						; size = 4
?RemoveAll@?$CSimpleArray@GV?$CSimpleArrayEqualHelper@G@ATL@@@ATL@@QAEXXZ PROC NEAR ; ATL::CSimpleArray<unsigned short,ATL::CSimpleArrayEqualHelper<unsigned short> >::RemoveAll, COMDAT
; _this$ = ecx

; 173  : 	{

	push	ebp
	mov	ebp, esp
	sub	esp, 8
	mov	DWORD PTR [ebp-8], -858993460		; ccccccccH
	mov	DWORD PTR [ebp-4], -858993460		; ccccccccH
	mov	DWORD PTR _this$[ebp], ecx

; 174  : 		if(m_aT != NULL)

	mov	eax, DWORD PTR _this$[ebp]
	cmp	DWORD PTR [eax], 0
	je	SHORT $L160432

; 175  : 		{
; 176  : 			for(int i = 0; i < m_nSize; i++)

	mov	DWORD PTR _i$160433[ebp], 0
	jmp	SHORT $L160434
$L160435:
	mov	ecx, DWORD PTR _i$160433[ebp]
	add	ecx, 1
	mov	DWORD PTR _i$160433[ebp], ecx
$L160434:
	mov	edx, DWORD PTR _this$[ebp]
	mov	eax, DWORD PTR _i$160433[ebp]
	cmp	eax, DWORD PTR [edx+4]
	jge	SHORT $L160436

; 177  : 				m_aT[i].~T();

	jmp	SHORT $L160435
$L160436:

; 178  : 			free(m_aT);

	mov	ecx, DWORD PTR _this$[ebp]
	mov	edx, DWORD PTR [ecx]
	push	edx
	call	_free
	add	esp, 4

; 179  : 			m_aT = NULL;

	mov	eax, DWORD PTR _this$[ebp]
	mov	DWORD PTR [eax], 0
$L160432:

; 180  : 		}
; 181  : 		m_nSize = 0;

	mov	ecx, DWORD PTR _this$[ebp]
	mov	DWORD PTR [ecx+4], 0

; 182  : 		m_nAllocSize = 0;

	mov	edx, DWORD PTR _this$[ebp]
	mov	DWORD PTR [edx+8], 0

; 183  : 	}

	add	esp, 8
	cmp	ebp, esp
	call	__RTC_CheckEsp
	mov	esp, ebp
	pop	ebp
	ret	0
?RemoveAll@?$CSimpleArray@GV?$CSimpleArrayEqualHelper@G@ATL@@@ATL@@QAEXXZ ENDP ; ATL::CSimpleArray<unsigned short,ATL::CSimpleArrayEqualHelper<unsigned short> >::RemoveAll
; Function compile flags: /Odt /RTCsu
_TEXT	ENDS
;	COMDAT _$E5
text$yd	SEGMENT
_$E5	PROC NEAR					; COMDAT
	push	ebp
	mov	ebp, esp
	mov	ecx, OFFSET FLAT:?_Module@@3VCComModule@ATL@@A
	call	??1CComModule@ATL@@UAE@XZ
	cmp	ebp, esp
	call	__RTC_CheckEsp
	pop	ebp
	ret	0
_$E5	ENDP
text$yd	ENDS
PUBLIC	?_AtlWinModule@ATL@@3VCAtlWinModule@1@A		; ATL::_AtlWinModule
PUBLIC	?_Module@@3VCComModule@ATL@@A			; _Module
;	COMDAT ?_AtlWinModule@ATL@@3VCAtlWinModule@1@A
_BSS	SEGMENT
?_AtlWinModule@ATL@@3VCAtlWinModule@1@A DB 02cH DUP (?)	; ATL::_AtlWinModule
_BSS	ENDS
_BSS	SEGMENT
?_Module@@3VCComModule@ATL@@A DB 030H DUP (?)		; _Module
_BSS	ENDS
END
