; Listing generated by Microsoft (R) Optimizing Compiler Version 13.10.3077 

	TITLE	.\config.cpp
	.386P
include listing.inc
if @Version gt 510
.model FLAT
else
_TEXT	SEGMENT PARA USE32 PUBLIC 'CODE'
_TEXT	ENDS
_DATA	SEGMENT DWORD USE32 PUBLIC 'DATA'
_DATA	ENDS
CONST	SEGMENT DWORD USE32 PUBLIC 'CONST'
CONST	ENDS
_BSS	SEGMENT DWORD USE32 PUBLIC 'BSS'
_BSS	ENDS
$$SYMBOLS	SEGMENT BYTE USE32 'DEBSYM'
$$SYMBOLS	ENDS
$$TYPES	SEGMENT BYTE USE32 'DEBTYP'
$$TYPES	ENDS
_TLS	SEGMENT DWORD USE32 PUBLIC 'TLS'
_TLS	ENDS
;	COMDAT ??_C@_0FG@EOHGAEB@?3Sun?3Sunday?3Mon?3Monday?3Tue?3Tuesd@
CONST	SEGMENT DWORD USE32 PUBLIC 'CONST'
CONST	ENDS
;	COMDAT ??_C@_0IH@HPGJLCCK@?3Jan?3January?3Feb?3February?3Mar?3Ma@
CONST	SEGMENT DWORD USE32 PUBLIC 'CONST'
CONST	ENDS
;	COMDAT ??_C@_04LOAJBDKD@true?$AA@
CONST	SEGMENT DWORD USE32 PUBLIC 'CONST'
CONST	ENDS
;	COMDAT ??_C@_0EH@NBFKEDIC@C?3?2Program?5Files?2Microsoft?5Visua@
CONST	SEGMENT DWORD USE32 PUBLIC 'CONST'
CONST	ENDS
;	COMDAT ??_C@_01GFHCPBMG@C?$AA@
CONST	SEGMENT DWORD USE32 PUBLIC 'CONST'
CONST	ENDS
;	COMDAT ??_C@_0CD@HFEEKIIE@mbstr?5?$DN?$DN?50?5?$HM?$HM?5result?5?$DM?$DN?5?$CIint?$CJcou@
CONST	SEGMENT DWORD USE32 PUBLIC 'CONST'
CONST	ENDS
;	COMDAT ??_C@_0FB@DNILBHEN@C?3?2Program?5Files?2Microsoft?5Visua@
CONST	SEGMENT DWORD USE32 PUBLIC 'CONST'
CONST	ENDS
;	COMDAT ??_C@_0CD@JADEDFCN@wcstr?5?$DN?$DN?50?5?$HM?$HM?5result?5?$DM?$DN?5?$CIint?$CJcou@
CONST	SEGMENT DWORD USE32 PUBLIC 'CONST'
CONST	ENDS
;	COMDAT ??_C@_0BA@CLMJJCOM@nSize?5?$DO?$DN?5nSizeW?$AA@
CONST	SEGMENT DWORD USE32 PUBLIC 'CONST'
CONST	ENDS
;	COMDAT ??_C@_0BF@DFFCODPF@m_pData?9?$DOnRefs?5?$DN?$DN?5?91?$AA@
CONST	SEGMENT DWORD USE32 PUBLIC 'CONST'
CONST	ENDS
;	COMDAT ??_C@_0BK@KFNMPDFA@m_pData?9?$DOnDataLength?5?$DN?$DN?50?$AA@
CONST	SEGMENT DWORD USE32 PUBLIC 'CONST'
CONST	ENDS
;	COMDAT ??_C@_0BC@JINHKJCC@pData?9?$DOnRefs?5?$DM?$DN?50?$AA@
CONST	SEGMENT DWORD USE32 PUBLIC 'CONST'
CONST	ENDS
;	COMDAT ??_C@_0BB@HNGMIMJM@pData?9?$DOnRefs?5?$DM?50?$AA@
CONST	SEGMENT DWORD USE32 PUBLIC 'CONST'
CONST	ENDS
;	COMDAT ??_C@_0FB@EIPLHBJE@CFixedStringMgr?3?3Allocate?$CI?$CJ?5spil@
CONST	SEGMENT DWORD USE32 PUBLIC 'CONST'
CONST	ENDS
;	COMDAT ??_C@_0FD@PINPFILO@CFixedStringMgr?3?3Reallocate?$CI?$CJ?5sp@
CONST	SEGMENT DWORD USE32 PUBLIC 'CONST'
CONST	ENDS
;	COMDAT ??_C@_0P@MDHCGOCC@m_pMemMgr?5?$DN?$DN?50?$AA@
CONST	SEGMENT DWORD USE32 PUBLIC 'CONST'
CONST	ENDS
;	COMDAT ??_C@_0EP@ENACCIMA@C?3?2Program?5Files?2Microsoft?5Visua@
CONST	SEGMENT DWORD USE32 PUBLIC 'CONST'
CONST	ENDS
;	COMDAT ??_C@_0BK@KICONMKH@pData?9?$DOpStringMgr?5?$DN?$DN?5this?$AA@
CONST	SEGMENT DWORD USE32 PUBLIC 'CONST'
CONST	ENDS
;	COMDAT ??_C@_0CG@HPMMCKHL@?$CI?$CIWORD?$CJ?$CI?$CIDWORD_PTR?$CJ?$CIpsz?$CJ?5?$DO?$DO?516?$CJ?$CJ@
CONST	SEGMENT DWORD USE32 PUBLIC 'CONST'
CONST	ENDS
;	COMDAT ??_C@_0N@BDLMIBLB@pFormat?5?$CB?$DN?50?$AA@
CONST	SEGMENT DWORD USE32 PUBLIC 'CONST'
CONST	ENDS
;	COMDAT ??_C@_0FA@JGFACAOB@C?3?2Program?5Files?2Microsoft?5Visua@
CONST	SEGMENT DWORD USE32 PUBLIC 'CONST'
CONST	ENDS
;	COMDAT ??_C@_05LLAMLEHD@?$CFI64d?$AA@
CONST	SEGMENT DWORD USE32 PUBLIC 'CONST'
CONST	ENDS
;	COMDAT ??_C@_05KCADNOJC@?$CF02ld?$AA@
CONST	SEGMENT DWORD USE32 PUBLIC 'CONST'
CONST	ENDS
;	COMDAT ??_C@_0CB@FKADHJGH@strFormat?4LoadStringA?$CInFormatID?$CJ@
CONST	SEGMENT DWORD USE32 PUBLIC 'CONST'
CONST	ENDS
;	COMDAT ??_C@_0CE@BJCBICOJ@c?3?2activex?2xmlsign?2ShowSelectCer@
CONST	SEGMENT DWORD USE32 PUBLIC 'CONST'
CONST	ENDS
;	COMDAT ??_C@_0EJ@DPIMAKHN@C?3?2Program?5Files?2Microsoft?5Visua@
CONST	SEGMENT DWORD USE32 PUBLIC 'CONST'
CONST	ENDS
;	COMDAT ??_C@_0CD@DIDNGAPJ@s?5?$DN?$DN?50?5?$HM?$HM?5?$CIconst?5char?$CK?$CJ?5?$CKthis?5?$CB?$DN@
CONST	SEGMENT DWORD USE32 PUBLIC 'CONST'
CONST	ENDS
;	COMDAT ??_C@_0CG@PAOIECBF@s?5?$DN?$DN?50?5?$HM?$HM?5?$CIconst?5wchar_t?$CK?$CJ?5?$CKthis@
CONST	SEGMENT DWORD USE32 PUBLIC 'CONST'
CONST	ENDS
;	COMDAT ??_C@_0DD@NCNHACCB@s?5?$DN?$DN?50?5?$HM?$HM?5m_Data?5?$DN?$DN?50?5?$HM?$HM?5m_Data?9@
CONST	SEGMENT DWORD USE32 PUBLIC 'CONST'
CONST	ENDS
;	COMDAT ??_C@_0CH@LJMJHPFK@m_Data?5?$CB?$DN?50?5?$CG?$CG?5m_Data?9?$DORefCount?$CI@
CONST	SEGMENT DWORD USE32 PUBLIC 'CONST'
CONST	ENDS
;	COMDAT ??_C@_0FG@GKIPNLEE@?$CI?$CIthis?$CJ?9?$DOvt?$CJ?5?$CB?$DN?5VT_BSTR?5?$HM?$HM?5?$CIBSTR@
CONST	SEGMENT DWORD USE32 PUBLIC 'CONST'
CONST	ENDS
;	COMDAT ??_C@_0EC@EDNDDDBI@?$CI?$CIthis?$CJ?9?$DOvt?$CJ?5?$CB?$DN?5VT_BSTR?5?$HM?$HM?5pSrc?5@
CONST	SEGMENT DWORD USE32 PUBLIC 'CONST'
CONST	ENDS
;	COMDAT ??_C@_0EL@EEEMIENH@?$CI?$CIthis?$CJ?9?$DOvt?$CJ?5?$CB?$DN?5?$CIVT_I1?5?$HM?5VT_BYRE@
CONST	SEGMENT DWORD USE32 PUBLIC 'CONST'
CONST	ENDS
;	COMDAT ??_C@_0EH@IHHPLLAD@?$CI?$CIthis?$CJ?9?$DOvt?$CJ?5?$CB?$DN?5VT_DISPATCH?5?$HM?$HM?5p@
CONST	SEGMENT DWORD USE32 PUBLIC 'CONST'
CONST	ENDS
;	COMDAT ??_C@_0EF@LJOMBHMP@?$CI?$CIthis?$CJ?9?$DOvt?$CJ?5?$CB?$DN?5VT_UNKNOWN?5?$HM?$HM?5pS@
CONST	SEGMENT DWORD USE32 PUBLIC 'CONST'
CONST	ENDS
;	COMDAT ??_C@_0BE@NNIJINN@IDispatch?5error?5?$CD?$CFd?$AA@
CONST	SEGMENT DWORD USE32 PUBLIC 'CONST'
CONST	ENDS
;	COMDAT ??_C@_0BF@IPPGFENJ@Unknown?5error?50x?$CF0lX?$AA@
CONST	SEGMENT DWORD USE32 PUBLIC 'CONST'
CONST	ENDS
;	COMDAT ??_C@_0BP@BJHHJGLF@c?3?2activex?2xmlsign?2Signature?4h?$AA@
CONST	SEGMENT DWORD USE32 PUBLIC 'CONST'
CONST	ENDS
;	COMDAT ??_C@_0L@KEHCEMNB@CSignature?$AA@
CONST	SEGMENT DWORD USE32 PUBLIC 'CONST'
CONST	ENDS
;	COMDAT ??_C@_0BO@OBIGOAOM@AtlIsValidString?$CI?5pszFormat?5?$CJ?$AA@
CONST	SEGMENT DWORD USE32 PUBLIC 'CONST'
CONST	ENDS
;	COMDAT ??_C@_08LIEICNMC@m_bModal?$AA@
CONST	SEGMENT DWORD USE32 PUBLIC 'CONST'
CONST	ENDS
;	COMDAT ??_C@_0BA@GOIMFHNK@pStringMgr?5?$CB?$DN?50?$AA@
CONST	SEGMENT DWORD USE32 PUBLIC 'CONST'
CONST	ENDS
;	COMDAT ??_C@_0CJ@FJEKGMMD@Warning?3?5implicit?5LoadString?$CI?$CFu?$CJ@
CONST	SEGMENT DWORD USE32 PUBLIC 'CONST'
CONST	ENDS
;	COMDAT ??_C@_0BA@GNIEOBOF@nNewLength?5?$DO?$DN?50?$AA@
CONST	SEGMENT DWORD USE32 PUBLIC 'CONST'
CONST	ENDS
;	COMDAT ??_C@_0EE@PNDBCBIA@CAxDialogImpl?3?3AdviseSinkMap?5cal@
CONST	SEGMENT DWORD USE32 PUBLIC 'CONST'
CONST	ENDS
;	COMDAT ??_C@_0EG@DKHIMJLN@C?3?2Program?5Files?2Microsoft?5Visua@
CONST	SEGMENT DWORD USE32 PUBLIC 'CONST'
CONST	ENDS
;	COMDAT ??_C@_08EPJLHIJG@bad?5cast?$AA@
CONST	SEGMENT DWORD USE32 PUBLIC 'CONST'
CONST	ENDS
;	COMDAT ??_C@_09BNFEDJPE@?$CBm_bModal?$AA@
CONST	SEGMENT DWORD USE32 PUBLIC 'CONST'
CONST	ENDS
text$yc	SEGMENT PARA USE32 PUBLIC 'CODE'
text$yc	ENDS
CRT$XCA	SEGMENT DWORD USE32 PUBLIC 'DATA'
CRT$XCA	ENDS
CRT$XCU	SEGMENT DWORD USE32 PUBLIC 'DATA'
CRT$XCU	ENDS
CRT$XCL	SEGMENT DWORD USE32 PUBLIC 'DATA'
CRT$XCL	ENDS
CRT$XCC	SEGMENT DWORD USE32 PUBLIC 'DATA'
CRT$XCC	ENDS
CRT$XCZ	SEGMENT DWORD USE32 PUBLIC 'DATA'
CRT$XCZ	ENDS
text$yd	SEGMENT PARA USE32 PUBLIC 'CODE'
text$yd	ENDS
ATL$__m	SEGMENT DWORD USE32 PUBLIC ''
ATL$__m	ENDS
ATL$__z	SEGMENT DWORD USE32 PUBLIC ''
ATL$__z	ENDS
ATL$__a	SEGMENT DWORD USE32 PUBLIC ''
ATL$__a	ENDS
xdata$x	SEGMENT DWORD USE32 PUBLIC 'CONST'
xdata$x	ENDS
;	COMDAT ??_GCConfig@@UAEPAXI@Z
_TEXT	SEGMENT PARA USE32 PUBLIC 'CODE'
_TEXT	ENDS
;	COMDAT _acosl
_TEXT	SEGMENT PARA USE32 PUBLIC 'CODE'
_TEXT	ENDS
;	COMDAT _asinl
_TEXT	SEGMENT PARA USE32 PUBLIC 'CODE'
_TEXT	ENDS
;	COMDAT _atanl
_TEXT	SEGMENT PARA USE32 PUBLIC 'CODE'
_TEXT	ENDS
;	COMDAT _atan2l
_TEXT	SEGMENT PARA USE32 PUBLIC 'CODE'
_TEXT	ENDS
;	COMDAT _ceill
_TEXT	SEGMENT PARA USE32 PUBLIC 'CODE'
_TEXT	ENDS
;	COMDAT _cosl
_TEXT	SEGMENT PARA USE32 PUBLIC 'CODE'
_TEXT	ENDS
;	COMDAT _coshl
_TEXT	SEGMENT PARA USE32 PUBLIC 'CODE'
_TEXT	ENDS
;	COMDAT _expl
_TEXT	SEGMENT PARA USE32 PUBLIC 'CODE'
_TEXT	ENDS
;	COMDAT _fabsl
_TEXT	SEGMENT PARA USE32 PUBLIC 'CODE'
_TEXT	ENDS
;	COMDAT _floorl
_TEXT	SEGMENT PARA USE32 PUBLIC 'CODE'
_TEXT	ENDS
;	COMDAT _fmodl
_TEXT	SEGMENT PARA USE32 PUBLIC 'CODE'
_TEXT	ENDS
;	COMDAT _frexpl
_TEXT	SEGMENT PARA USE32 PUBLIC 'CODE'
_TEXT	ENDS
;	COMDAT _ldexpl
_TEXT	SEGMENT PARA USE32 PUBLIC 'CODE'
_TEXT	ENDS
;	COMDAT _logl
_TEXT	SEGMENT PARA USE32 PUBLIC 'CODE'
_TEXT	ENDS
;	COMDAT _log10l
_TEXT	SEGMENT PARA USE32 PUBLIC 'CODE'
_TEXT	ENDS
;	COMDAT _modfl
_TEXT	SEGMENT PARA USE32 PUBLIC 'CODE'
_TEXT	ENDS
;	COMDAT _powl
_TEXT	SEGMENT PARA USE32 PUBLIC 'CODE'
_TEXT	ENDS
;	COMDAT _sinl
_TEXT	SEGMENT PARA USE32 PUBLIC 'CODE'
_TEXT	ENDS
;	COMDAT _sinhl
_TEXT	SEGMENT PARA USE32 PUBLIC 'CODE'
_TEXT	ENDS
;	COMDAT _sqrtl
_TEXT	SEGMENT PARA USE32 PUBLIC 'CODE'
_TEXT	ENDS
;	COMDAT _tanl
_TEXT	SEGMENT PARA USE32 PUBLIC 'CODE'
_TEXT	ENDS
;	COMDAT _tanhl
_TEXT	SEGMENT PARA USE32 PUBLIC 'CODE'
_TEXT	ENDS
;	COMDAT _frexpf
_TEXT	SEGMENT PARA USE32 PUBLIC 'CODE'
_TEXT	ENDS
;	COMDAT _ldexpf
_TEXT	SEGMENT PARA USE32 PUBLIC 'CODE'
_TEXT	ENDS
;	COMDAT _acosf
_TEXT	SEGMENT PARA USE32 PUBLIC 'CODE'
_TEXT	ENDS
;	COMDAT _asinf
_TEXT	SEGMENT PARA USE32 PUBLIC 'CODE'
_TEXT	ENDS
;	COMDAT _atanf
_TEXT	SEGMENT PARA USE32 PUBLIC 'CODE'
_TEXT	ENDS
;	COMDAT _atan2f
_TEXT	SEGMENT PARA USE32 PUBLIC 'CODE'
_TEXT	ENDS
;	COMDAT _ceilf
_TEXT	SEGMENT PARA USE32 PUBLIC 'CODE'
_TEXT	ENDS
;	COMDAT _cosf
_TEXT	SEGMENT PARA USE32 PUBLIC 'CODE'
_TEXT	ENDS
;	COMDAT _coshf
_TEXT	SEGMENT PARA USE32 PUBLIC 'CODE'
_TEXT	ENDS
;	COMDAT _expf
_TEXT	SEGMENT PARA USE32 PUBLIC 'CODE'
_TEXT	ENDS
;	COMDAT _fabsf
_TEXT	SEGMENT PARA USE32 PUBLIC 'CODE'
_TEXT	ENDS
;	COMDAT _floorf
_TEXT	SEGMENT PARA USE32 PUBLIC 'CODE'
_TEXT	ENDS
;	COMDAT _fmodf
_TEXT	SEGMENT PARA USE32 PUBLIC 'CODE'
_TEXT	ENDS
;	COMDAT _logf
_TEXT	SEGMENT PARA USE32 PUBLIC 'CODE'
_TEXT	ENDS
;	COMDAT _log10f
_TEXT	SEGMENT PARA USE32 PUBLIC 'CODE'
_TEXT	ENDS
;	COMDAT _modff
_TEXT	SEGMENT PARA USE32 PUBLIC 'CODE'
_TEXT	ENDS
;	COMDAT _powf
_TEXT	SEGMENT PARA USE32 PUBLIC 'CODE'
_TEXT	ENDS
;	COMDAT _sinf
_TEXT	SEGMENT PARA USE32 PUBLIC 'CODE'
_TEXT	ENDS
;	COMDAT _sinhf
_TEXT	SEGMENT PARA USE32 PUBLIC 'CODE'
_TEXT	ENDS
;	COMDAT _sqrtf
_TEXT	SEGMENT PARA USE32 PUBLIC 'CODE'
_TEXT	ENDS
;	COMDAT _tanf
_TEXT	SEGMENT PARA USE32 PUBLIC 'CODE'
_TEXT	ENDS
;	COMDAT _tanhf
_TEXT	SEGMENT PARA USE32 PUBLIC 'CODE'
_TEXT	ENDS
;	COMDAT ?SetCRLTimeOut@CRLCache@@QAEXK@Z
_TEXT	SEGMENT PARA USE32 PUBLIC 'CODE'
_TEXT	ENDS
;	COMDAT ??_GCBufferVariant@@UAEPAXI@Z
_TEXT	SEGMENT PARA USE32 PUBLIC 'CODE'
_TEXT	ENDS
;	COMDAT ??1CBufferVariant@@UAE@XZ
_TEXT	SEGMENT PARA USE32 PUBLIC 'CODE'
_TEXT	ENDS
;	COMDAT ??0CBufferVariant@@QAE@ABUtagVARIANT@@@Z
_TEXT	SEGMENT PARA USE32 PUBLIC 'CODE'
_TEXT	ENDS
;	COMDAT ??BCBufferVariant@@QBEPADXZ
_TEXT	SEGMENT PARA USE32 PUBLIC 'CODE'
_TEXT	ENDS
;	COMDAT ?SetLength@CBufferVariant@@QAEXJ@Z
_TEXT	SEGMENT PARA USE32 PUBLIC 'CODE'
_TEXT	ENDS
;	COMDAT ?MyVariantCopy@CBufferVariant@@QAEXPAUtagVARIANT@@0@Z
_TEXT	SEGMENT PARA USE32 PUBLIC 'CODE'
_TEXT	ENDS
;	COMDAT ?GetLength@CBufferVariant@@QAEJXZ
_TEXT	SEGMENT PARA USE32 PUBLIC 'CODE'
_TEXT	ENDS
;	COMDAT ?BuildByteArrayFromVariant@CBufferVariant@@AAEXPBUtagVARIANT@@@Z
_TEXT	SEGMENT PARA USE32 PUBLIC 'CODE'
_TEXT	ENDS
;	COMDAT ?BuildByteArrayFromData@CBufferVariant@@AAEXPBXJ@Z
_TEXT	SEGMENT PARA USE32 PUBLIC 'CODE'
_TEXT	ENDS
;	COMDAT ?AppendByteArrayFromVariant@CBufferVariant@@AAEXPBUtagVARIANT@@@Z
_TEXT	SEGMENT PARA USE32 PUBLIC 'CODE'
_TEXT	ENDS
;	COMDAT ?AppendByteArrayFromData@CBufferVariant@@AAEXPBXJ@Z
_TEXT	SEGMENT PARA USE32 PUBLIC 'CODE'
_TEXT	ENDS
;	COMDAT ??1bad_exception@std@@UAE@XZ
_TEXT	SEGMENT PARA USE32 PUBLIC 'CODE'
_TEXT	ENDS
;	COMDAT ??_Gbad_exception@std@@UAEPAXI@Z
_TEXT	SEGMENT PARA USE32 PUBLIC 'CODE'
_TEXT	ENDS
;	COMDAT ??1bad_alloc@std@@UAE@XZ
_TEXT	SEGMENT PARA USE32 PUBLIC 'CODE'
_TEXT	ENDS
;	COMDAT ??_Gbad_alloc@std@@UAEPAXI@Z
_TEXT	SEGMENT PARA USE32 PUBLIC 'CODE'
_TEXT	ENDS
;	COMDAT _wmemchr
_TEXT	SEGMENT PARA USE32 PUBLIC 'CODE'
_TEXT	ENDS
;	COMDAT _wmemcmp
_TEXT	SEGMENT PARA USE32 PUBLIC 'CODE'
_TEXT	ENDS
;	COMDAT _wmemcpy
_TEXT	SEGMENT PARA USE32 PUBLIC 'CODE'
_TEXT	ENDS
;	COMDAT _wmemmove
_TEXT	SEGMENT PARA USE32 PUBLIC 'CODE'
_TEXT	ENDS
;	COMDAT _wmemset
_TEXT	SEGMENT PARA USE32 PUBLIC 'CODE'
_TEXT	ENDS
;	COMDAT ?copy@?$char_traits@G@std@@SAPAGPAGPBGI@Z
_TEXT	SEGMENT PARA USE32 PUBLIC 'CODE'
_TEXT	ENDS
;	COMDAT ?to_char_type@?$char_traits@G@std@@SAGABG@Z
_TEXT	SEGMENT PARA USE32 PUBLIC 'CODE'
_TEXT	ENDS
;	COMDAT ?to_int_type@?$char_traits@G@std@@SAGABG@Z
_TEXT	SEGMENT PARA USE32 PUBLIC 'CODE'
_TEXT	ENDS
;	COMDAT ?eq_int_type@?$char_traits@G@std@@SA_NABG0@Z
_TEXT	SEGMENT PARA USE32 PUBLIC 'CODE'
_TEXT	ENDS
;	COMDAT ?eof@?$char_traits@G@std@@SAGXZ
_TEXT	SEGMENT PARA USE32 PUBLIC 'CODE'
_TEXT	ENDS
;	COMDAT ?assign@?$char_traits@D@std@@SAXAADABD@Z
_TEXT	SEGMENT PARA USE32 PUBLIC 'CODE'
_TEXT	ENDS
;	COMDAT ?length@?$char_traits@D@std@@SAIPBD@Z
_TEXT	SEGMENT PARA USE32 PUBLIC 'CODE'
_TEXT	ENDS
;	COMDAT ?copy@?$char_traits@D@std@@SAPADPADPBDI@Z
_TEXT	SEGMENT PARA USE32 PUBLIC 'CODE'
_TEXT	ENDS
;	COMDAT ?move@?$char_traits@D@std@@SAPADPADPBDI@Z
_TEXT	SEGMENT PARA USE32 PUBLIC 'CODE'
_TEXT	ENDS
;	COMDAT ?to_char_type@?$char_traits@D@std@@SADABH@Z
_TEXT	SEGMENT PARA USE32 PUBLIC 'CODE'
_TEXT	ENDS
;	COMDAT ?to_int_type@?$char_traits@D@std@@SAHABD@Z
_TEXT	SEGMENT PARA USE32 PUBLIC 'CODE'
_TEXT	ENDS
;	COMDAT ?eq_int_type@?$char_traits@D@std@@SA_NABH0@Z
_TEXT	SEGMENT PARA USE32 PUBLIC 'CODE'
_TEXT	ENDS
;	COMDAT ?eof@?$char_traits@D@std@@SAHXZ
_TEXT	SEGMENT PARA USE32 PUBLIC 'CODE'
_TEXT	ENDS
;	COMDAT ??0logic_error@std@@QAE@ABV?$basic_string@DU?$char_traits@D@std@@V?$allocator@D@2@@1@@Z
_TEXT	SEGMENT PARA USE32 PUBLIC 'CODE'
_TEXT	ENDS
;	COMDAT ??1logic_error@std@@UAE@XZ
_TEXT	SEGMENT PARA USE32 PUBLIC 'CODE'
_TEXT	ENDS
;	COMDAT ?what@logic_error@std@@UBEPBDXZ
_TEXT	SEGMENT PARA USE32 PUBLIC 'CODE'
_TEXT	ENDS
;	COMDAT ??_Glogic_error@std@@UAEPAXI@Z
_TEXT	SEGMENT PARA USE32 PUBLIC 'CODE'
_TEXT	ENDS
;	COMDAT ??1domain_error@std@@UAE@XZ
_TEXT	SEGMENT PARA USE32 PUBLIC 'CODE'
_TEXT	ENDS
;	COMDAT ??_Gdomain_error@std@@UAEPAXI@Z
_TEXT	SEGMENT PARA USE32 PUBLIC 'CODE'
_TEXT	ENDS
;	COMDAT ??1invalid_argument@std@@UAE@XZ
_TEXT	SEGMENT PARA USE32 PUBLIC 'CODE'
_TEXT	ENDS
;	COMDAT ??_Ginvalid_argument@std@@UAEPAXI@Z
_TEXT	SEGMENT PARA USE32 PUBLIC 'CODE'
_TEXT	ENDS
;	COMDAT ??1length_error@std@@UAE@XZ
_TEXT	SEGMENT PARA USE32 PUBLIC 'CODE'
_TEXT	ENDS
;	COMDAT ??_Glength_error@std@@UAEPAXI@Z
_TEXT	SEGMENT PARA USE32 PUBLIC 'CODE'
_TEXT	ENDS
;	COMDAT ??1out_of_range@std@@UAE@XZ
_TEXT	SEGMENT PARA USE32 PUBLIC 'CODE'
_TEXT	ENDS
;	COMDAT ??_Gout_of_range@std@@UAEPAXI@Z
_TEXT	SEGMENT PARA USE32 PUBLIC 'CODE'
_TEXT	ENDS
;	COMDAT ??0runtime_error@std@@QAE@ABV?$basic_string@DU?$char_traits@D@std@@V?$allocator@D@2@@1@@Z
_TEXT	SEGMENT PARA USE32 PUBLIC 'CODE'
_TEXT	ENDS
;	COMDAT ??1runtime_error@std@@UAE@XZ
_TEXT	SEGMENT PARA USE32 PUBLIC 'CODE'
_TEXT	ENDS
;	COMDAT ?what@runtime_error@std@@UBEPBDXZ
_TEXT	SEGMENT PARA USE32 PUBLIC 'CODE'
_TEXT	ENDS
;	COMDAT ??_Gruntime_error@std@@UAEPAXI@Z
_TEXT	SEGMENT PARA USE32 PUBLIC 'CODE'
_TEXT	ENDS
;	COMDAT ??1overflow_error@std@@UAE@XZ
_TEXT	SEGMENT PARA USE32 PUBLIC 'CODE'
_TEXT	ENDS
;	COMDAT ??_Goverflow_error@std@@UAEPAXI@Z
_TEXT	SEGMENT PARA USE32 PUBLIC 'CODE'
_TEXT	ENDS
;	COMDAT ??1underflow_error@std@@UAE@XZ
_TEXT	SEGMENT PARA USE32 PUBLIC 'CODE'
_TEXT	ENDS
;	COMDAT ??_Gunderflow_error@std@@UAEPAXI@Z
_TEXT	SEGMENT PARA USE32 PUBLIC 'CODE'
_TEXT	ENDS
;	COMDAT ??1range_error@std@@UAE@XZ
_TEXT	SEGMENT PARA USE32 PUBLIC 'CODE'
_TEXT	ENDS
;	COMDAT ??_Grange_error@std@@UAEPAXI@Z
_TEXT	SEGMENT PARA USE32 PUBLIC 'CODE'
_TEXT	ENDS
;	COMDAT ??B_DebugHeapString@std@@QBE?AV?$basic_string@DU?$char_traits@D@std@@V?$allocator@D@2@@1@XZ
_TEXT	SEGMENT PARA USE32 PUBLIC 'CODE'
_TEXT	ENDS
;	COMDAT ??0_Timevec@std@@QAE@PAX@Z
_TEXT	SEGMENT PARA USE32 PUBLIC 'CODE'
_TEXT	ENDS
;	COMDAT ??1_Timevec@std@@QAE@XZ
_TEXT	SEGMENT PARA USE32 PUBLIC 'CODE'
_TEXT	ENDS
;	COMDAT ??4_Timevec@std@@QAEAAV01@ABV01@@Z
_TEXT	SEGMENT PARA USE32 PUBLIC 'CODE'
_TEXT	ENDS
;	COMDAT ?_Getctype@_Locinfo@std@@QBE?AU_Ctypevec@@XZ
_TEXT	SEGMENT PARA USE32 PUBLIC 'CODE'
_TEXT	ENDS
;	COMDAT ?_Getcvt@_Locinfo@std@@QBE?AU_Cvtvec@@XZ
_TEXT	SEGMENT PARA USE32 PUBLIC 'CODE'
_TEXT	ENDS
;	COMDAT ??Bid@locale@std@@QAEIXZ
_TEXT	SEGMENT PARA USE32 PUBLIC 'CODE'
_TEXT	ENDS
;	COMDAT ?_Incref@facet@locale@std@@QAEXXZ
_TEXT	SEGMENT PARA USE32 PUBLIC 'CODE'
_TEXT	ENDS
;	COMDAT ?_Decref@facet@locale@std@@QAEPAV123@XZ
_TEXT	SEGMENT PARA USE32 PUBLIC 'CODE'
_TEXT	ENDS
;	COMDAT ??1facet@locale@std@@UAE@XZ
_TEXT	SEGMENT PARA USE32 PUBLIC 'CODE'
_TEXT	ENDS
;	COMDAT ??0facet@locale@std@@IAE@I@Z
_TEXT	SEGMENT PARA USE32 PUBLIC 'CODE'
_TEXT	ENDS
;	COMDAT ??0locale@std@@QAE@ABV01@@Z
_TEXT	SEGMENT PARA USE32 PUBLIC 'CODE'
_TEXT	ENDS
;	COMDAT ??1locale@std@@QAE@XZ
_TEXT	SEGMENT PARA USE32 PUBLIC 'CODE'
_TEXT	ENDS
;	COMDAT ??_Gfacet@locale@std@@UAEPAXI@Z
_TEXT	SEGMENT PARA USE32 PUBLIC 'CODE'
_TEXT	ENDS
;	COMDAT ??0codecvt_base@std@@QAE@I@Z
_TEXT	SEGMENT PARA USE32 PUBLIC 'CODE'
_TEXT	ENDS
;	COMDAT ??1codecvt_base@std@@UAE@XZ
_TEXT	SEGMENT PARA USE32 PUBLIC 'CODE'
_TEXT	ENDS
;	COMDAT ?do_always_noconv@codecvt_base@std@@MBE_NXZ
_TEXT	SEGMENT PARA USE32 PUBLIC 'CODE'
_TEXT	ENDS
;	COMDAT ?do_max_length@codecvt_base@std@@MBEHXZ
_TEXT	SEGMENT PARA USE32 PUBLIC 'CODE'
_TEXT	ENDS
;	COMDAT ?do_encoding@codecvt_base@std@@MBEHXZ
_TEXT	SEGMENT PARA USE32 PUBLIC 'CODE'
_TEXT	ENDS
;	COMDAT ??_Gcodecvt_base@std@@UAEPAXI@Z
_TEXT	SEGMENT PARA USE32 PUBLIC 'CODE'
_TEXT	ENDS
;	COMDAT ??0?$codecvt@GDH@std@@QAE@I@Z
_TEXT	SEGMENT PARA USE32 PUBLIC 'CODE'
_TEXT	ENDS
;	COMDAT ??1?$codecvt@GDH@std@@MAE@XZ
_TEXT	SEGMENT PARA USE32 PUBLIC 'CODE'
_TEXT	ENDS
;	COMDAT ?_Init@?$codecvt@GDH@std@@IAEXABV_Locinfo@2@@Z
_TEXT	SEGMENT PARA USE32 PUBLIC 'CODE'
_TEXT	ENDS
;	COMDAT ?do_in@?$codecvt@GDH@std@@MBEHAAHPBD1AAPBDPAG3AAPAG@Z
_TEXT	SEGMENT PARA USE32 PUBLIC 'CODE'
_TEXT	ENDS
;	COMDAT ?do_out@?$codecvt@GDH@std@@MBEHAAHPBG1AAPBGPAD3AAPAD@Z
_TEXT	SEGMENT PARA USE32 PUBLIC 'CODE'
_TEXT	ENDS
;	COMDAT ?do_unshift@?$codecvt@GDH@std@@MBEHAAHPAD1AAPAD@Z
_TEXT	SEGMENT PARA USE32 PUBLIC 'CODE'
_TEXT	ENDS
;	COMDAT ?do_length@?$codecvt@GDH@std@@MBEHABHPBD1I@Z
_TEXT	SEGMENT PARA USE32 PUBLIC 'CODE'
_TEXT	ENDS
;	COMDAT ?do_always_noconv@?$codecvt@GDH@std@@MBE_NXZ
_TEXT	SEGMENT PARA USE32 PUBLIC 'CODE'
_TEXT	ENDS
;	COMDAT ?do_max_length@?$codecvt@GDH@std@@MBEHXZ
_TEXT	SEGMENT PARA USE32 PUBLIC 'CODE'
_TEXT	ENDS
;	COMDAT ?do_encoding@?$codecvt@GDH@std@@MBEHXZ
_TEXT	SEGMENT PARA USE32 PUBLIC 'CODE'
_TEXT	ENDS
;	COMDAT ??_G?$codecvt@GDH@std@@MAEPAXI@Z
_TEXT	SEGMENT PARA USE32 PUBLIC 'CODE'
_TEXT	ENDS
;	COMDAT ??0ctype_base@std@@QAE@I@Z
_TEXT	SEGMENT PARA USE32 PUBLIC 'CODE'
_TEXT	ENDS
;	COMDAT ??1ctype_base@std@@UAE@XZ
_TEXT	SEGMENT PARA USE32 PUBLIC 'CODE'
_TEXT	ENDS
;	COMDAT ??_Gctype_base@std@@UAEPAXI@Z
_TEXT	SEGMENT PARA USE32 PUBLIC 'CODE'
_TEXT	ENDS
;	COMDAT ?is@?$ctype@D@std@@QBE_NFD@Z
_TEXT	SEGMENT PARA USE32 PUBLIC 'CODE'
_TEXT	ENDS
;	COMDAT ??0?$ctype@D@std@@QAE@PBF_NI@Z
_TEXT	SEGMENT PARA USE32 PUBLIC 'CODE'
_TEXT	ENDS
;	COMDAT ?_Getcat@?$ctype@D@std@@SAIPAPBVfacet@locale@2@@Z
_TEXT	SEGMENT PARA USE32 PUBLIC 'CODE'
_TEXT	ENDS
;	COMDAT ??1?$ctype@D@std@@MAE@XZ
_TEXT	SEGMENT PARA USE32 PUBLIC 'CODE'
_TEXT	ENDS
;	COMDAT ?_Init@?$ctype@D@std@@IAEXABV_Locinfo@2@@Z
_TEXT	SEGMENT PARA USE32 PUBLIC 'CODE'
_TEXT	ENDS
;	COMDAT ?_Tidy@?$ctype@D@std@@IAEXXZ
_TEXT	SEGMENT PARA USE32 PUBLIC 'CODE'
_TEXT	ENDS
;	COMDAT ?do_tolower@?$ctype@D@std@@MBEDD@Z
_TEXT	SEGMENT PARA USE32 PUBLIC 'CODE'
_TEXT	ENDS
;	COMDAT ?do_tolower@?$ctype@D@std@@MBEPBDPADPBD@Z
_TEXT	SEGMENT PARA USE32 PUBLIC 'CODE'
_TEXT	ENDS
;	COMDAT ?do_toupper@?$ctype@D@std@@MBEDD@Z
_TEXT	SEGMENT PARA USE32 PUBLIC 'CODE'
_TEXT	ENDS
;	COMDAT ?do_toupper@?$ctype@D@std@@MBEPBDPADPBD@Z
_TEXT	SEGMENT PARA USE32 PUBLIC 'CODE'
_TEXT	ENDS
;	COMDAT ?do_widen@?$ctype@D@std@@MBEDD@Z
_TEXT	SEGMENT PARA USE32 PUBLIC 'CODE'
_TEXT	ENDS
;	COMDAT ?do_widen@?$ctype@D@std@@MBEPBDPBD0PAD@Z
_TEXT	SEGMENT PARA USE32 PUBLIC 'CODE'
_TEXT	ENDS
;	COMDAT ?do_narrow@?$ctype@D@std@@MBEDDD@Z
_TEXT	SEGMENT PARA USE32 PUBLIC 'CODE'
_TEXT	ENDS
;	COMDAT ?do_narrow@?$ctype@D@std@@MBEPBDPBD0DPAD@Z
_TEXT	SEGMENT PARA USE32 PUBLIC 'CODE'
_TEXT	ENDS
;	COMDAT ?table@?$ctype@D@std@@IBEPBFXZ
_TEXT	SEGMENT PARA USE32 PUBLIC 'CODE'
_TEXT	ENDS
;	COMDAT ?is@?$ctype@G@std@@QBE_NFG@Z
_TEXT	SEGMENT PARA USE32 PUBLIC 'CODE'
_TEXT	ENDS
;	COMDAT ??0?$ctype@G@std@@QAE@I@Z
_TEXT	SEGMENT PARA USE32 PUBLIC 'CODE'
_TEXT	ENDS
;	COMDAT ?_Getcat@?$ctype@G@std@@SAIPAPBVfacet@locale@2@@Z
_TEXT	SEGMENT PARA USE32 PUBLIC 'CODE'
_TEXT	ENDS
;	COMDAT ??1?$ctype@G@std@@MAE@XZ
_TEXT	SEGMENT PARA USE32 PUBLIC 'CODE'
_TEXT	ENDS
;	COMDAT ?_Init@?$ctype@G@std@@IAEXABV_Locinfo@2@@Z
_TEXT	SEGMENT PARA USE32 PUBLIC 'CODE'
_TEXT	ENDS
;	COMDAT ?do_is@?$ctype@G@std@@MBE_NFG@Z
_TEXT	SEGMENT PARA USE32 PUBLIC 'CODE'
_TEXT	ENDS
;	COMDAT ?do_is@?$ctype@G@std@@MBEPBGPBG0PAF@Z
_TEXT	SEGMENT PARA USE32 PUBLIC 'CODE'
_TEXT	ENDS
;	COMDAT ?do_scan_is@?$ctype@G@std@@MBEPBGFPBG0@Z
_TEXT	SEGMENT PARA USE32 PUBLIC 'CODE'
_TEXT	ENDS
;	COMDAT ?do_scan_not@?$ctype@G@std@@MBEPBGFPBG0@Z
_TEXT	SEGMENT PARA USE32 PUBLIC 'CODE'
_TEXT	ENDS
;	COMDAT ?do_tolower@?$ctype@G@std@@MBEGG@Z
_TEXT	SEGMENT PARA USE32 PUBLIC 'CODE'
_TEXT	ENDS
;	COMDAT ?do_tolower@?$ctype@G@std@@MBEPBGPAGPBG@Z
_TEXT	SEGMENT PARA USE32 PUBLIC 'CODE'
_TEXT	ENDS
;	COMDAT ?do_toupper@?$ctype@G@std@@MBEGG@Z
_TEXT	SEGMENT PARA USE32 PUBLIC 'CODE'
_TEXT	ENDS
;	COMDAT ?do_toupper@?$ctype@G@std@@MBEPBGPAGPBG@Z
_TEXT	SEGMENT PARA USE32 PUBLIC 'CODE'
_TEXT	ENDS
;	COMDAT ?_Dowiden@?$ctype@G@std@@IBEGD@Z
_TEXT	SEGMENT PARA USE32 PUBLIC 'CODE'
_TEXT	ENDS
;	COMDAT ?do_widen@?$ctype@G@std@@MBEGD@Z
_TEXT	SEGMENT PARA USE32 PUBLIC 'CODE'
_TEXT	ENDS
;	COMDAT ?do_widen@?$ctype@G@std@@MBEPBDPBD0PAG@Z
_TEXT	SEGMENT PARA USE32 PUBLIC 'CODE'
_TEXT	ENDS
;	COMDAT ?_Donarrow@?$ctype@G@std@@IBEDGD@Z
_TEXT	SEGMENT PARA USE32 PUBLIC 'CODE'
_TEXT	ENDS
;	COMDAT ?do_narrow@?$ctype@G@std@@MBEDGD@Z
_TEXT	SEGMENT PARA USE32 PUBLIC 'CODE'
_TEXT	ENDS
;	COMDAT ?do_narrow@?$ctype@G@std@@MBEPBGPBG0DPAD@Z
_TEXT	SEGMENT PARA USE32 PUBLIC 'CODE'
_TEXT	ENDS
;	COMDAT ??_G?$ctype@D@std@@MAEPAXI@Z
_TEXT	SEGMENT PARA USE32 PUBLIC 'CODE'
_TEXT	ENDS
;	COMDAT ??_G?$ctype@G@std@@MAEPAXI@Z
_TEXT	SEGMENT PARA USE32 PUBLIC 'CODE'
_TEXT	ENDS
;	COMDAT ??1failure@ios_base@std@@UAE@XZ
_TEXT	SEGMENT PARA USE32 PUBLIC 'CODE'
_TEXT	ENDS
;	COMDAT ?clear@ios_base@std@@QAEXH@Z
_TEXT	SEGMENT PARA USE32 PUBLIC 'CODE'
_TEXT	ENDS
;	COMDAT ?rdstate@ios_base@std@@QBEHXZ
_TEXT	SEGMENT PARA USE32 PUBLIC 'CODE'
_TEXT	ENDS
;	COMDAT ?setstate@ios_base@std@@QAEXH@Z
_TEXT	SEGMENT PARA USE32 PUBLIC 'CODE'
_TEXT	ENDS
;	COMDAT ?good@ios_base@std@@QBE_NXZ
_TEXT	SEGMENT PARA USE32 PUBLIC 'CODE'
_TEXT	ENDS
;	COMDAT ?eof@ios_base@std@@QBE_NXZ
_TEXT	SEGMENT PARA USE32 PUBLIC 'CODE'
_TEXT	ENDS
;	COMDAT ?fail@ios_base@std@@QBE_NXZ
_TEXT	SEGMENT PARA USE32 PUBLIC 'CODE'
_TEXT	ENDS
;	COMDAT ?exceptions@ios_base@std@@QAEXH@Z
_TEXT	SEGMENT PARA USE32 PUBLIC 'CODE'
_TEXT	ENDS
;	COMDAT ?flags@ios_base@std@@QBEHXZ
_TEXT	SEGMENT PARA USE32 PUBLIC 'CODE'
_TEXT	ENDS
;	COMDAT ?setf@ios_base@std@@QAEHH@Z
_TEXT	SEGMENT PARA USE32 PUBLIC 'CODE'
_TEXT	ENDS
;	COMDAT ?setf@ios_base@std@@QAEHHH@Z
_TEXT	SEGMENT PARA USE32 PUBLIC 'CODE'
_TEXT	ENDS
;	COMDAT ?unsetf@ios_base@std@@QAEXH@Z
_TEXT	SEGMENT PARA USE32 PUBLIC 'CODE'
_TEXT	ENDS
;	COMDAT ?width@ios_base@std@@QBEHXZ
_TEXT	SEGMENT PARA USE32 PUBLIC 'CODE'
_TEXT	ENDS
;	COMDAT ?width@ios_base@std@@QAEHH@Z
_TEXT	SEGMENT PARA USE32 PUBLIC 'CODE'
_TEXT	ENDS
;	COMDAT ?getloc@ios_base@std@@QBE?AVlocale@2@XZ
_TEXT	SEGMENT PARA USE32 PUBLIC 'CODE'
_TEXT	ENDS
;	COMDAT ??_Gfailure@ios_base@std@@UAEPAXI@Z
_TEXT	SEGMENT PARA USE32 PUBLIC 'CODE'
_TEXT	ENDS
;	COMDAT ??_Gios_base@std@@UAEPAXI@Z
_TEXT	SEGMENT PARA USE32 PUBLIC 'CODE'
_TEXT	ENDS
;	COMDAT ??1sentry@?$basic_istream@GU?$char_traits@G@std@@@std@@QAE@XZ
_TEXT	SEGMENT PARA USE32 PUBLIC 'CODE'
_TEXT	ENDS
;	COMDAT ??1sentry@?$basic_istream@DU?$char_traits@D@std@@@std@@QAE@XZ
_TEXT	SEGMENT PARA USE32 PUBLIC 'CODE'
_TEXT	ENDS
;	COMDAT ?_AtlInstallStringThunk@ATL@@YAXPAPAXPAX1@Z
_TEXT	SEGMENT PARA USE32 PUBLIC 'CODE'
_TEXT	ENDS
;	COMDAT ?GetEnvironmentVariableWFake@ATL@@YGKPBGPAGK@Z
_TEXT	SEGMENT PARA USE32 PUBLIC 'CODE'
_TEXT	ENDS
;	COMDAT ?GetEnvironmentVariableWThunk@ATL@@YGKPBGPAGK@Z
_TEXT	SEGMENT PARA USE32 PUBLIC 'CODE'
_TEXT	ENDS
;	COMDAT ?CompareStringWFake@ATL@@YGHKKPBGH0H@Z
_TEXT	SEGMENT PARA USE32 PUBLIC 'CODE'
_TEXT	ENDS
;	COMDAT ?CompareStringWThunk@ATL@@YGHKKPBGH0H@Z
_TEXT	SEGMENT PARA USE32 PUBLIC 'CODE'
_TEXT	ENDS
;	COMDAT ?GetStringTypeExWFake@ATL@@YGHKKPBGHPAG@Z
_TEXT	SEGMENT PARA USE32 PUBLIC 'CODE'
_TEXT	ENDS
;	COMDAT ?GetStringTypeExWThunk@ATL@@YGHKKPBGHPAG@Z
_TEXT	SEGMENT PARA USE32 PUBLIC 'CODE'
_TEXT	ENDS
;	COMDAT ?lstrcmpiWFake@ATL@@YGHPBG0@Z
_TEXT	SEGMENT PARA USE32 PUBLIC 'CODE'
_TEXT	ENDS
;	COMDAT ?lstrcmpiWThunk@ATL@@YGHPBG0@Z
_TEXT	SEGMENT PARA USE32 PUBLIC 'CODE'
_TEXT	ENDS
;	COMDAT ?CharLowerWFake@ATL@@YGPAGPAG@Z
_TEXT	SEGMENT PARA USE32 PUBLIC 'CODE'
_TEXT	ENDS
;	COMDAT ?CharLowerWThunk@ATL@@YGPAGPAG@Z
_TEXT	SEGMENT PARA USE32 PUBLIC 'CODE'
_TEXT	ENDS
;	COMDAT ?CharUpperWFake@ATL@@YGPAGPAG@Z
_TEXT	SEGMENT PARA USE32 PUBLIC 'CODE'
_TEXT	ENDS
;	COMDAT ?CharUpperWThunk@ATL@@YGPAGPAG@Z
_TEXT	SEGMENT PARA USE32 PUBLIC 'CODE'
_TEXT	ENDS
;	COMDAT ?_GetEnvironmentVariableW@?$ChTraitsCRT@G@ATL@@CGKPBGPAGK@Z
_TEXT	SEGMENT PARA USE32 PUBLIC 'CODE'
_TEXT	ENDS
;	COMDAT ?StringFindString@?$ChTraitsCRT@G@ATL@@SAPBGPBG0@Z
_TEXT	SEGMENT PARA USE32 PUBLIC 'CODE'
_TEXT	ENDS
;	COMDAT ??1CFixedStringMgr@ATL@@UAE@XZ
_TEXT	SEGMENT PARA USE32 PUBLIC 'CODE'
_TEXT	ENDS
;	COMDAT ?Allocate@CFixedStringMgr@ATL@@UAEPAUCStringData@2@HH@Z
_TEXT	SEGMENT PARA USE32 PUBLIC 'CODE'
_TEXT	ENDS
;	COMDAT ?Free@CFixedStringMgr@ATL@@UAEXPAUCStringData@2@@Z
_TEXT	SEGMENT PARA USE32 PUBLIC 'CODE'
_TEXT	ENDS
;	COMDAT ?Reallocate@CFixedStringMgr@ATL@@UAEPAUCStringData@2@PAU32@HH@Z
_TEXT	SEGMENT PARA USE32 PUBLIC 'CODE'
_TEXT	ENDS
;	COMDAT ?GetNilString@CFixedStringMgr@ATL@@UAEPAUCStringData@2@XZ
_TEXT	SEGMENT PARA USE32 PUBLIC 'CODE'
_TEXT	ENDS
;	COMDAT ?Clone@CFixedStringMgr@ATL@@UAEPAUIAtlStringMgr@2@XZ
_TEXT	SEGMENT PARA USE32 PUBLIC 'CODE'
_TEXT	ENDS
;	COMDAT ??_GCFixedStringMgr@ATL@@UAEPAXI@Z
_TEXT	SEGMENT PARA USE32 PUBLIC 'CODE'
_TEXT	ENDS
;	COMDAT ??1CFixedStringLog@ATL@@UAE@XZ
_TEXT	SEGMENT PARA USE32 PUBLIC 'CODE'
_TEXT	ENDS
;	COMDAT ?OnAllocateSpill@CFixedStringLog@ATL@@UAEXHHPBUCStringData@2@@Z
_TEXT	SEGMENT PARA USE32 PUBLIC 'CODE'
_TEXT	ENDS
;	COMDAT ?OnReallocateSpill@CFixedStringLog@ATL@@UAEXHHPBUCStringData@2@@Z
_TEXT	SEGMENT PARA USE32 PUBLIC 'CODE'
_TEXT	ENDS
;	COMDAT ??_GCFixedStringLog@ATL@@UAEPAXI@Z
_TEXT	SEGMENT PARA USE32 PUBLIC 'CODE'
_TEXT	ENDS
;	COMDAT ??0IFixedStringLog@ATL@@QAE@XZ
_TEXT	SEGMENT PARA USE32 PUBLIC 'CODE'
_TEXT	ENDS
;	COMDAT ??1CAtlStringMgr@ATL@@UAE@XZ
_TEXT	SEGMENT PARA USE32 PUBLIC 'CODE'
_TEXT	ENDS
;	COMDAT ?Allocate@CAtlStringMgr@ATL@@UAEPAUCStringData@2@HH@Z
_TEXT	SEGMENT PARA USE32 PUBLIC 'CODE'
_TEXT	ENDS
;	COMDAT ?Free@CAtlStringMgr@ATL@@UAEXPAUCStringData@2@@Z
_TEXT	SEGMENT PARA USE32 PUBLIC 'CODE'
_TEXT	ENDS
;	COMDAT ?Reallocate@CAtlStringMgr@ATL@@UAEPAUCStringData@2@PAU32@HH@Z
_TEXT	SEGMENT PARA USE32 PUBLIC 'CODE'
_TEXT	ENDS
;	COMDAT ?GetNilString@CAtlStringMgr@ATL@@UAEPAUCStringData@2@XZ
_TEXT	SEGMENT PARA USE32 PUBLIC 'CODE'
_TEXT	ENDS
;	COMDAT ?Clone@CAtlStringMgr@ATL@@UAEPAUIAtlStringMgr@2@XZ
_TEXT	SEGMENT PARA USE32 PUBLIC 'CODE'
_TEXT	ENDS
;	COMDAT ??_GCAtlStringMgr@ATL@@UAEPAXI@Z
_TEXT	SEGMENT PARA USE32 PUBLIC 'CODE'
_TEXT	ENDS
;	COMDAT ?CompareStringW@?$ChTraitsOS@G@ATL@@KGHKKPBGH0H@Z
_TEXT	SEGMENT PARA USE32 PUBLIC 'CODE'
_TEXT	ENDS
;	COMDAT ?GetStringTypeExW@?$ChTraitsOS@G@ATL@@KGHKKPBGHPAG@Z
_TEXT	SEGMENT PARA USE32 PUBLIC 'CODE'
_TEXT	ENDS
;	COMDAT ?lstrcmpiW@?$ChTraitsOS@G@ATL@@KGHPBG0@Z
_TEXT	SEGMENT PARA USE32 PUBLIC 'CODE'
_TEXT	ENDS
;	COMDAT ?CharLowerW@?$ChTraitsOS@G@ATL@@KGPAGPAG@Z
_TEXT	SEGMENT PARA USE32 PUBLIC 'CODE'
_TEXT	ENDS
;	COMDAT ?CharUpperW@?$ChTraitsOS@G@ATL@@KGPAGPAG@Z
_TEXT	SEGMENT PARA USE32 PUBLIC 'CODE'
_TEXT	ENDS
;	COMDAT ?strchr@?$ChTraitsOS@G@ATL@@SAPBGPBGG@Z
_TEXT	SEGMENT PARA USE32 PUBLIC 'CODE'
_TEXT	ENDS
;	COMDAT ?strrchr@?$ChTraitsOS@G@ATL@@SAPBGPBGG@Z
_TEXT	SEGMENT PARA USE32 PUBLIC 'CODE'
_TEXT	ENDS
;	COMDAT ?_strrev@?$ChTraitsOS@G@ATL@@SAPAGPAG@Z
_TEXT	SEGMENT PARA USE32 PUBLIC 'CODE'
_TEXT	ENDS
;	COMDAT ?strstr@?$ChTraitsOS@G@ATL@@SAPBGPBG0@Z
_TEXT	SEGMENT PARA USE32 PUBLIC 'CODE'
_TEXT	ENDS
;	COMDAT ?strspn@?$ChTraitsOS@G@ATL@@SAHPBG0@Z
_TEXT	SEGMENT PARA USE32 PUBLIC 'CODE'
_TEXT	ENDS
;	COMDAT ?strcspn@?$ChTraitsOS@G@ATL@@SAHPBG0@Z
_TEXT	SEGMENT PARA USE32 PUBLIC 'CODE'
_TEXT	ENDS
;	COMDAT ?strpbrk@?$ChTraitsOS@G@ATL@@SAPBGPBG0@Z
_TEXT	SEGMENT PARA USE32 PUBLIC 'CODE'
_TEXT	ENDS
;	COMDAT ?StringFindString@?$ChTraitsOS@G@ATL@@SAPBGPBG0@Z
_TEXT	SEGMENT PARA USE32 PUBLIC 'CODE'
_TEXT	ENDS
;	COMDAT ?Format@CTimeSpan@ATL@@QBE?AV?$CStringT@DV?$StrTraitATL@DV?$ChTraitsCRT@D@ATL@@@ATL@@@2@PBD@Z
_TEXT	SEGMENT PARA USE32 PUBLIC 'CODE'
_TEXT	ENDS
;	COMDAT ?Format@CTime@ATL@@QBE?AV?$CStringT@DV?$StrTraitATL@DV?$ChTraitsCRT@D@ATL@@@ATL@@@2@PBD@Z
_TEXT	SEGMENT PARA USE32 PUBLIC 'CODE'
_TEXT	ENDS
;	COMDAT ?FormatGmt@CTime@ATL@@QBE?AV?$CStringT@DV?$StrTraitATL@DV?$ChTraitsCRT@D@ATL@@@ATL@@@2@PBD@Z
_TEXT	SEGMENT PARA USE32 PUBLIC 'CODE'
_TEXT	ENDS
;	COMDAT ?ProcessWindowMessage@CShowSelectCert@@UAEHPAUHWND__@@IIJAAJK@Z
_TEXT	SEGMENT PARA USE32 PUBLIC 'CODE'
_TEXT	ENDS
;	COMDAT ?OnInitDialog@CShowSelectCert@@QAEJIIJAAH@Z
_TEXT	SEGMENT PARA USE32 PUBLIC 'CODE'
_TEXT	ENDS
;	COMDAT ?OnOK@CShowSelectCert@@QAEJGGPAUHWND__@@AAH@Z
_TEXT	SEGMENT PARA USE32 PUBLIC 'CODE'
_TEXT	ENDS
;	COMDAT ?OnCancel@CShowSelectCert@@QAEJGGPAUHWND__@@AAH@Z
_TEXT	SEGMENT PARA USE32 PUBLIC 'CODE'
_TEXT	ENDS
;	COMDAT ?CreateHeader@CShowSelectCert@@QAEXXZ
_TEXT	SEGMENT PARA USE32 PUBLIC 'CODE'
_TEXT	ENDS
;	COMDAT ?SetCell@CShowSelectCert@@QAEXPAGHH@Z
_TEXT	SEGMENT PARA USE32 PUBLIC 'CODE'
_TEXT	ENDS
;	COMDAT ?OnClickList@CShowSelectCert@@QAEJHPAUtagNMHDR@@AAH@Z
_TEXT	SEGMENT PARA USE32 PUBLIC 'CODE'
_TEXT	ENDS
;	COMDAT ?setSelection@CShowSelectCert@@QAEXXZ
_TEXT	SEGMENT PARA USE32 PUBLIC 'CODE'
_TEXT	ENDS
;	COMDAT ??_GCShowSelectCert@@UAEPAXI@Z
_TEXT	SEGMENT PARA USE32 PUBLIC 'CODE'
_TEXT	ENDS
;	COMDAT ??1?$CAxDialogImpl@VCShowSelectCert@@VCWindow@ATL@@@ATL@@UAE@XZ
_TEXT	SEGMENT PARA USE32 PUBLIC 'CODE'
_TEXT	ENDS
;	COMDAT ?CheckError@_com_util@@YAXJ@Z
_TEXT	SEGMENT PARA USE32 PUBLIC 'CODE'
_TEXT	ENDS
;	COMDAT ??0_bstr_t@@QAE@ABV0@@Z
_TEXT	SEGMENT PARA USE32 PUBLIC 'CODE'
_TEXT	ENDS
;	COMDAT ??0_bstr_t@@QAE@PBD@Z
_TEXT	SEGMENT PARA USE32 PUBLIC 'CODE'
_TEXT	ENDS
;	COMDAT ??0_bstr_t@@QAE@PBG@Z
_TEXT	SEGMENT PARA USE32 PUBLIC 'CODE'
_TEXT	ENDS
;	COMDAT ??0_bstr_t@@QAE@PAG_N@Z
_TEXT	SEGMENT PARA USE32 PUBLIC 'CODE'
_TEXT	ENDS
;	COMDAT ??1_bstr_t@@QAE@XZ
_TEXT	SEGMENT PARA USE32 PUBLIC 'CODE'
_TEXT	ENDS
;	COMDAT ??4_bstr_t@@QAEAAV0@PBG@Z
_TEXT	SEGMENT PARA USE32 PUBLIC 'CODE'
_TEXT	ENDS
;	COMDAT ??Y_bstr_t@@QAEAAV0@ABV0@@Z
_TEXT	SEGMENT PARA USE32 PUBLIC 'CODE'
_TEXT	ENDS
;	COMDAT ??B_bstr_t@@QBEPBGXZ
_TEXT	SEGMENT PARA USE32 PUBLIC 'CODE'
_TEXT	ENDS
;	COMDAT ??B_bstr_t@@QBEPAGXZ
_TEXT	SEGMENT PARA USE32 PUBLIC 'CODE'
_TEXT	ENDS
;	COMDAT ??B_bstr_t@@QBEPBDXZ
_TEXT	SEGMENT PARA USE32 PUBLIC 'CODE'
_TEXT	ENDS
;	COMDAT ??7_bstr_t@@QBE_NXZ
_TEXT	SEGMENT PARA USE32 PUBLIC 'CODE'
_TEXT	ENDS
;	COMDAT ?length@_bstr_t@@QBEIXZ
_TEXT	SEGMENT PARA USE32 PUBLIC 'CODE'
_TEXT	ENDS
;	COMDAT ?Attach@_bstr_t@@QAEXPAG@Z
_TEXT	SEGMENT PARA USE32 PUBLIC 'CODE'
_TEXT	ENDS
;	COMDAT ?_AddRef@_bstr_t@@AAEXXZ
_TEXT	SEGMENT PARA USE32 PUBLIC 'CODE'
_TEXT	ENDS
;	COMDAT ?_Free@_bstr_t@@AAEXXZ
_TEXT	SEGMENT PARA USE32 PUBLIC 'CODE'
_TEXT	ENDS
;	COMDAT ?_Compare@_bstr_t@@ABEHABV1@@Z
_TEXT	SEGMENT PARA USE32 PUBLIC 'CODE'
_TEXT	ENDS
;	COMDAT ??0Data_t@_bstr_t@@QAE@PBD@Z
_TEXT	SEGMENT PARA USE32 PUBLIC 'CODE'
_TEXT	ENDS
;	COMDAT ??0Data_t@_bstr_t@@QAE@PBG@Z
_TEXT	SEGMENT PARA USE32 PUBLIC 'CODE'
_TEXT	ENDS
;	COMDAT ??0Data_t@_bstr_t@@QAE@PAG_N@Z
_TEXT	SEGMENT PARA USE32 PUBLIC 'CODE'
_TEXT	ENDS
;	COMDAT ??0Data_t@_bstr_t@@QAE@ABV1@0@Z
_TEXT	SEGMENT PARA USE32 PUBLIC 'CODE'
_TEXT	ENDS
;	COMDAT ?AddRef@Data_t@_bstr_t@@QAEKXZ
_TEXT	SEGMENT PARA USE32 PUBLIC 'CODE'
_TEXT	ENDS
;	COMDAT ?Release@Data_t@_bstr_t@@QAEKXZ
_TEXT	SEGMENT PARA USE32 PUBLIC 'CODE'
_TEXT	ENDS
;	COMDAT ?RefCount@Data_t@_bstr_t@@QBEKXZ
_TEXT	SEGMENT PARA USE32 PUBLIC 'CODE'
_TEXT	ENDS
;	COMDAT ?GetWString@Data_t@_bstr_t@@QAEAAPAGXZ
_TEXT	SEGMENT PARA USE32 PUBLIC 'CODE'
_TEXT	ENDS
;	COMDAT ?GetString@Data_t@_bstr_t@@QBEPBDXZ
_TEXT	SEGMENT PARA USE32 PUBLIC 'CODE'
_TEXT	ENDS
;	COMDAT ?Copy@Data_t@_bstr_t@@QBEPAGXZ
_TEXT	SEGMENT PARA USE32 PUBLIC 'CODE'
_TEXT	ENDS
;	COMDAT ?Length@Data_t@_bstr_t@@QBEIXZ
_TEXT	SEGMENT PARA USE32 PUBLIC 'CODE'
_TEXT	ENDS
;	COMDAT ?Compare@Data_t@_bstr_t@@QBEHABV12@@Z
_TEXT	SEGMENT PARA USE32 PUBLIC 'CODE'
_TEXT	ENDS
;	COMDAT ??2Data_t@_bstr_t@@SAPAXI@Z
_TEXT	SEGMENT PARA USE32 PUBLIC 'CODE'
_TEXT	ENDS
;	COMDAT ??1Data_t@_bstr_t@@AAE@XZ
_TEXT	SEGMENT PARA USE32 PUBLIC 'CODE'
_TEXT	ENDS
;	COMDAT ?_Free@Data_t@_bstr_t@@AAEXXZ
_TEXT	SEGMENT PARA USE32 PUBLIC 'CODE'
_TEXT	ENDS
;	COMDAT ??0_variant_t@@QAE@XZ
_TEXT	SEGMENT PARA USE32 PUBLIC 'CODE'
_TEXT	ENDS
;	COMDAT ??4_variant_t@@QAEAAV0@PBD@Z
_TEXT	SEGMENT PARA USE32 PUBLIC 'CODE'
_TEXT	ENDS
;	COMDAT ??8_variant_t@@QBE_NPBUtagVARIANT@@@Z
_TEXT	SEGMENT PARA USE32 PUBLIC 'CODE'
_TEXT	ENDS
;	COMDAT ?Clear@_variant_t@@QAEXXZ
_TEXT	SEGMENT PARA USE32 PUBLIC 'CODE'
_TEXT	ENDS
;	COMDAT ?ChangeType@_variant_t@@QAEXGPBV1@@Z
_TEXT	SEGMENT PARA USE32 PUBLIC 'CODE'
_TEXT	ENDS
;	COMDAT ??1_variant_t@@QAE@XZ
_TEXT	SEGMENT PARA USE32 PUBLIC 'CODE'
_TEXT	ENDS
;	COMDAT ??0_com_error@@QAE@ABV0@@Z
_TEXT	SEGMENT PARA USE32 PUBLIC 'CODE'
_TEXT	ENDS
;	COMDAT ??1_com_error@@UAE@XZ
_TEXT	SEGMENT PARA USE32 PUBLIC 'CODE'
_TEXT	ENDS
;	COMDAT ?WCode@_com_error@@QBEGXZ
_TEXT	SEGMENT PARA USE32 PUBLIC 'CODE'
_TEXT	ENDS
;	COMDAT ?HRESULTToWCode@_com_error@@SAGJ@Z
_TEXT	SEGMENT PARA USE32 PUBLIC 'CODE'
_TEXT	ENDS
;	COMDAT ??_GData_t@_bstr_t@@AAEPAXI@Z
_TEXT	SEGMENT PARA USE32 PUBLIC 'CODE'
_TEXT	ENDS
;	COMDAT ??_G_com_error@@UAEPAXI@Z
_TEXT	SEGMENT PARA USE32 PUBLIC 'CODE'
_TEXT	ENDS
;	COMDAT ?_GetRawUnknown@CSignature@@QAEPAUIUnknown@@XZ
_TEXT	SEGMENT PARA USE32 PUBLIC 'CODE'
_TEXT	ENDS
;	COMDAT ?_GetEntries@CSignature@@SGPBU_ATL_INTMAP_ENTRY@ATL@@XZ
_TEXT	SEGMENT PARA USE32 PUBLIC 'CODE'
_TEXT	ENDS
;	COMDAT ?ANSIToUnicode@CSignature@@QAEPAGPBD@Z
_TEXT	SEGMENT PARA USE32 PUBLIC 'CODE'
_TEXT	ENDS
;	COMDAT ?what@SigException@@UBEPBDXZ
_TEXT	SEGMENT PARA USE32 PUBLIC 'CODE'
_TEXT	ENDS
;	COMDAT ??_GSigException@@UAEPAXI@Z
_TEXT	SEGMENT PARA USE32 PUBLIC 'CODE'
_TEXT	ENDS
;	COMDAT ??1SigException@@UAE@XZ
_TEXT	SEGMENT PARA USE32 PUBLIC 'CODE'
_TEXT	ENDS
;	COMDAT ??_GCCAMClient@@QAEPAXI@Z
_TEXT	SEGMENT PARA USE32 PUBLIC 'CODE'
_TEXT	ENDS
;	COMDAT ??_GCRLCache@@QAEPAXI@Z
_TEXT	SEGMENT PARA USE32 PUBLIC 'CODE'
_TEXT	ENDS
;	COMDAT ??B?$CComPtrBase@UITypeInfo2@@@ATL@@QBEPAUITypeInfo2@@XZ
_TEXT	SEGMENT PARA USE32 PUBLIC 'CODE'
_TEXT	ENDS
;	COMDAT ??B?$CSimpleStringT@D$0A@@ATL@@QBEPBDXZ
_TEXT	SEGMENT PARA USE32 PUBLIC 'CODE'
_TEXT	ENDS
;	COMDAT ?Preallocate@?$CSimpleStringT@D$0A@@ATL@@QAEXH@Z
_TEXT	SEGMENT PARA USE32 PUBLIC 'CODE'
_TEXT	ENDS
;	COMDAT ??0?$CComObject@VCAxFrameWindow@ATL@@@ATL@@QAE@PAX@Z
_TEXT	SEGMENT PARA USE32 PUBLIC 'CODE'
_TEXT	ENDS
;	COMDAT ??0?$CComObject@VCAxUIWindow@ATL@@@ATL@@QAE@PAX@Z
_TEXT	SEGMENT PARA USE32 PUBLIC 'CODE'
_TEXT	ENDS
;	COMDAT ?copy@?$_CopyInterface@UIUnknown@@@ATL@@SAJPAPAUIUnknown@@0@Z
_TEXT	SEGMENT PARA USE32 PUBLIC 'CODE'
_TEXT	ENDS
;	COMDAT ?init@?$_CopyInterface@UIUnknown@@@ATL@@SAXPAPAUIUnknown@@@Z
_TEXT	SEGMENT PARA USE32 PUBLIC 'CODE'
_TEXT	ENDS
;	COMDAT ?destroy@?$_CopyInterface@UIUnknown@@@ATL@@SAXPAPAUIUnknown@@@Z
_TEXT	SEGMENT PARA USE32 PUBLIC 'CODE'
_TEXT	ENDS
;	COMDAT ??0?$basic_string@DU?$char_traits@D@std@@V?$allocator@D@2@@std@@QAE@ABV01@@Z
_TEXT	SEGMENT PARA USE32 PUBLIC 'CODE'
_TEXT	ENDS
;	COMDAT ??0?$basic_string@DU?$char_traits@D@std@@V?$allocator@D@2@@std@@QAE@PBD@Z
_TEXT	SEGMENT PARA USE32 PUBLIC 'CODE'
_TEXT	ENDS
;	COMDAT ??1?$basic_string@DU?$char_traits@D@std@@V?$allocator@D@2@@std@@QAE@XZ
_TEXT	SEGMENT PARA USE32 PUBLIC 'CODE'
_TEXT	ENDS
;	COMDAT ??4?$basic_string@DU?$char_traits@D@std@@V?$allocator@D@2@@std@@QAEAAV01@PBD@Z
_TEXT	SEGMENT PARA USE32 PUBLIC 'CODE'
_TEXT	ENDS
;	COMDAT ?c_str@?$basic_string@DU?$char_traits@D@std@@V?$allocator@D@2@@std@@QBEPBDXZ
_TEXT	SEGMENT PARA USE32 PUBLIC 'CODE'
_TEXT	ENDS
;	COMDAT ?size@?$basic_string@DU?$char_traits@D@std@@V?$allocator@D@2@@std@@QBEIXZ
_TEXT	SEGMENT PARA USE32 PUBLIC 'CODE'
_TEXT	ENDS
;	COMDAT ??0?$basic_string@DU?$char_traits@D@std@@V?$_DebugHeapAllocator@D@2@@std@@QAE@XZ
_TEXT	SEGMENT PARA USE32 PUBLIC 'CODE'
_TEXT	ENDS
;	COMDAT ??0?$basic_string@DU?$char_traits@D@std@@V?$_DebugHeapAllocator@D@2@@std@@QAE@ABV01@@Z
_TEXT	SEGMENT PARA USE32 PUBLIC 'CODE'
_TEXT	ENDS
;	COMDAT ??0?$basic_string@DU?$char_traits@D@std@@V?$_DebugHeapAllocator@D@2@@std@@QAE@PBD@Z
_TEXT	SEGMENT PARA USE32 PUBLIC 'CODE'
_TEXT	ENDS
;	COMDAT ??1?$basic_string@DU?$char_traits@D@std@@V?$_DebugHeapAllocator@D@2@@std@@QAE@XZ
_TEXT	SEGMENT PARA USE32 PUBLIC 'CODE'
_TEXT	ENDS
;	COMDAT ?c_str@?$basic_string@DU?$char_traits@D@std@@V?$_DebugHeapAllocator@D@2@@std@@QBEPBDXZ
_TEXT	SEGMENT PARA USE32 PUBLIC 'CODE'
_TEXT	ENDS
;	COMDAT ??1?$basic_ostream@GU?$char_traits@G@std@@@std@@UAE@XZ
_TEXT	SEGMENT PARA USE32 PUBLIC 'CODE'
_TEXT	ENDS
;	COMDAT ?put@?$basic_ostream@GU?$char_traits@G@std@@@std@@QAEAAV12@G@Z
_TEXT	SEGMENT PARA USE32 PUBLIC 'CODE'
_TEXT	ENDS
;	COMDAT ?flush@?$basic_ostream@GU?$char_traits@G@std@@@std@@QAEAAV12@XZ
_TEXT	SEGMENT PARA USE32 PUBLIC 'CODE'
_TEXT	ENDS
;	COMDAT ??1?$basic_ios@GU?$char_traits@G@std@@@std@@UAE@XZ
_TEXT	SEGMENT PARA USE32 PUBLIC 'CODE'
_TEXT	ENDS
;	COMDAT ?setstate@?$basic_ios@GU?$char_traits@G@std@@@std@@QAEXH_N@Z
_TEXT	SEGMENT PARA USE32 PUBLIC 'CODE'
_TEXT	ENDS
;	COMDAT ?rdbuf@?$basic_ios@GU?$char_traits@G@std@@@std@@QBEPAV?$basic_streambuf@GU?$char_traits@G@std@@@2@XZ
_TEXT	SEGMENT PARA USE32 PUBLIC 'CODE'
_TEXT	ENDS
;	COMDAT ?fill@?$basic_ios@GU?$char_traits@G@std@@@std@@QBEGXZ
_TEXT	SEGMENT PARA USE32 PUBLIC 'CODE'
_TEXT	ENDS
;	COMDAT ??0sentry@?$basic_ostream@GU?$char_traits@G@std@@@std@@QAE@AAV12@@Z
_TEXT	SEGMENT PARA USE32 PUBLIC 'CODE'
_TEXT	ENDS
;	COMDAT ??1sentry@?$basic_ostream@GU?$char_traits@G@std@@@std@@QAE@XZ
_TEXT	SEGMENT PARA USE32 PUBLIC 'CODE'
_TEXT	ENDS
;	COMDAT ??Bsentry@?$basic_ostream@GU?$char_traits@G@std@@@std@@QBE_NXZ
_TEXT	SEGMENT PARA USE32 PUBLIC 'CODE'
_TEXT	ENDS
;	COMDAT ??1?$basic_streambuf@GU?$char_traits@G@std@@@std@@UAE@XZ
_TEXT	SEGMENT PARA USE32 PUBLIC 'CODE'
_TEXT	ENDS
;	COMDAT ?sbumpc@?$basic_streambuf@GU?$char_traits@G@std@@@std@@QAEGXZ
_TEXT	SEGMENT PARA USE32 PUBLIC 'CODE'
_TEXT	ENDS
;	COMDAT ?sgetc@?$basic_streambuf@GU?$char_traits@G@std@@@std@@QAEGXZ
_TEXT	SEGMENT PARA USE32 PUBLIC 'CODE'
_TEXT	ENDS
;	COMDAT ?snextc@?$basic_streambuf@GU?$char_traits@G@std@@@std@@QAEGXZ
_TEXT	SEGMENT PARA USE32 PUBLIC 'CODE'
_TEXT	ENDS
;	COMDAT ?sputc@?$basic_streambuf@GU?$char_traits@G@std@@@std@@QAEGG@Z
_TEXT	SEGMENT PARA USE32 PUBLIC 'CODE'
_TEXT	ENDS
;	COMDAT ?overflow@?$basic_streambuf@GU?$char_traits@G@std@@@std@@MAEGG@Z
_TEXT	SEGMENT PARA USE32 PUBLIC 'CODE'
_TEXT	ENDS
;	COMDAT ?pbackfail@?$basic_streambuf@GU?$char_traits@G@std@@@std@@MAEGG@Z
_TEXT	SEGMENT PARA USE32 PUBLIC 'CODE'
_TEXT	ENDS
;	COMDAT ?showmanyc@?$basic_streambuf@GU?$char_traits@G@std@@@std@@MAEHXZ
_TEXT	SEGMENT PARA USE32 PUBLIC 'CODE'
_TEXT	ENDS
;	COMDAT ?underflow@?$basic_streambuf@GU?$char_traits@G@std@@@std@@MAEGXZ
_TEXT	SEGMENT PARA USE32 PUBLIC 'CODE'
_TEXT	ENDS
;	COMDAT ?uflow@?$basic_streambuf@GU?$char_traits@G@std@@@std@@MAEGXZ
_TEXT	SEGMENT PARA USE32 PUBLIC 'CODE'
_TEXT	ENDS
;	COMDAT ?xsgetn@?$basic_streambuf@GU?$char_traits@G@std@@@std@@MAEHPAGH@Z
_TEXT	SEGMENT PARA USE32 PUBLIC 'CODE'
_TEXT	ENDS
;	COMDAT ?xsputn@?$basic_streambuf@GU?$char_traits@G@std@@@std@@MAEHPBGH@Z
_TEXT	SEGMENT PARA USE32 PUBLIC 'CODE'
_TEXT	ENDS
;	COMDAT ?seekoff@?$basic_streambuf@GU?$char_traits@G@std@@@std@@MAE?AV?$fpos@H@2@JHH@Z
_TEXT	SEGMENT PARA USE32 PUBLIC 'CODE'
_TEXT	ENDS
;	COMDAT ?seekpos@?$basic_streambuf@GU?$char_traits@G@std@@@std@@MAE?AV?$fpos@H@2@V32@H@Z
_TEXT	SEGMENT PARA USE32 PUBLIC 'CODE'
_TEXT	ENDS
;	COMDAT ?setbuf@?$basic_streambuf@GU?$char_traits@G@std@@@std@@MAEPAV12@PAGH@Z
_TEXT	SEGMENT PARA USE32 PUBLIC 'CODE'
_TEXT	ENDS
;	COMDAT ?sync@?$basic_streambuf@GU?$char_traits@G@std@@@std@@MAEHXZ
_TEXT	SEGMENT PARA USE32 PUBLIC 'CODE'
_TEXT	ENDS
;	COMDAT ?imbue@?$basic_streambuf@GU?$char_traits@G@std@@@std@@MAEXABVlocale@2@@Z
_TEXT	SEGMENT PARA USE32 PUBLIC 'CODE'
_TEXT	ENDS
;	COMDAT ??1?$basic_ostream@DU?$char_traits@D@std@@@std@@UAE@XZ
_TEXT	SEGMENT PARA USE32 PUBLIC 'CODE'
_TEXT	ENDS
;	COMDAT ?put@?$basic_ostream@DU?$char_traits@D@std@@@std@@QAEAAV12@D@Z
_TEXT	SEGMENT PARA USE32 PUBLIC 'CODE'
_TEXT	ENDS
;	COMDAT ?flush@?$basic_ostream@DU?$char_traits@D@std@@@std@@QAEAAV12@XZ
_TEXT	SEGMENT PARA USE32 PUBLIC 'CODE'
_TEXT	ENDS
;	COMDAT ??1?$basic_ios@DU?$char_traits@D@std@@@std@@UAE@XZ
_TEXT	SEGMENT PARA USE32 PUBLIC 'CODE'
_TEXT	ENDS
;	COMDAT ?setstate@?$basic_ios@DU?$char_traits@D@std@@@std@@QAEXH_N@Z
_TEXT	SEGMENT PARA USE32 PUBLIC 'CODE'
_TEXT	ENDS
;	COMDAT ?rdbuf@?$basic_ios@DU?$char_traits@D@std@@@std@@QBEPAV?$basic_streambuf@DU?$char_traits@D@std@@@2@XZ
_TEXT	SEGMENT PARA USE32 PUBLIC 'CODE'
_TEXT	ENDS
;	COMDAT ??1?$basic_istream@GU?$char_traits@G@std@@@std@@UAE@XZ
_TEXT	SEGMENT PARA USE32 PUBLIC 'CODE'
_TEXT	ENDS
;	COMDAT ??0sentry@?$basic_istream@GU?$char_traits@G@std@@@std@@QAE@AAV12@_N@Z
_TEXT	SEGMENT PARA USE32 PUBLIC 'CODE'
_TEXT	ENDS
;	COMDAT ??Bsentry@?$basic_istream@GU?$char_traits@G@std@@@std@@QBE_NXZ
_TEXT	SEGMENT PARA USE32 PUBLIC 'CODE'
_TEXT	ENDS
;	COMDAT ??1_Sentry_base@?$basic_istream@GU?$char_traits@G@std@@@std@@QAE@XZ
_TEXT	SEGMENT PARA USE32 PUBLIC 'CODE'
_TEXT	ENDS
;	COMDAT ??1?$basic_istream@DU?$char_traits@D@std@@@std@@UAE@XZ
_TEXT	SEGMENT PARA USE32 PUBLIC 'CODE'
_TEXT	ENDS
;	COMDAT ??0sentry@?$basic_istream@DU?$char_traits@D@std@@@std@@QAE@AAV12@_N@Z
_TEXT	SEGMENT PARA USE32 PUBLIC 'CODE'
_TEXT	ENDS
;	COMDAT ??Bsentry@?$basic_istream@DU?$char_traits@D@std@@@std@@QBE_NXZ
_TEXT	SEGMENT PARA USE32 PUBLIC 'CODE'
_TEXT	ENDS
;	COMDAT ??1_Sentry_base@?$basic_istream@DU?$char_traits@D@std@@@std@@QAE@XZ
_TEXT	SEGMENT PARA USE32 PUBLIC 'CODE'
_TEXT	ENDS
;	COMDAT ??1?$basic_streambuf@DU?$char_traits@D@std@@@std@@UAE@XZ
_TEXT	SEGMENT PARA USE32 PUBLIC 'CODE'
_TEXT	ENDS
;	COMDAT ?sgetc@?$basic_streambuf@DU?$char_traits@D@std@@@std@@QAEHXZ
_TEXT	SEGMENT PARA USE32 PUBLIC 'CODE'
_TEXT	ENDS
;	COMDAT ?snextc@?$basic_streambuf@DU?$char_traits@D@std@@@std@@QAEHXZ
_TEXT	SEGMENT PARA USE32 PUBLIC 'CODE'
_TEXT	ENDS
;	COMDAT ?overflow@?$basic_streambuf@DU?$char_traits@D@std@@@std@@MAEHH@Z
_TEXT	SEGMENT PARA USE32 PUBLIC 'CODE'
_TEXT	ENDS
;	COMDAT ?pbackfail@?$basic_streambuf@DU?$char_traits@D@std@@@std@@MAEHH@Z
_TEXT	SEGMENT PARA USE32 PUBLIC 'CODE'
_TEXT	ENDS
;	COMDAT ?showmanyc@?$basic_streambuf@DU?$char_traits@D@std@@@std@@MAEHXZ
_TEXT	SEGMENT PARA USE32 PUBLIC 'CODE'
_TEXT	ENDS
;	COMDAT ?underflow@?$basic_streambuf@DU?$char_traits@D@std@@@std@@MAEHXZ
_TEXT	SEGMENT PARA USE32 PUBLIC 'CODE'
_TEXT	ENDS
;	COMDAT ?uflow@?$basic_streambuf@DU?$char_traits@D@std@@@std@@MAEHXZ
_TEXT	SEGMENT PARA USE32 PUBLIC 'CODE'
_TEXT	ENDS
;	COMDAT ?xsgetn@?$basic_streambuf@DU?$char_traits@D@std@@@std@@MAEHPADH@Z
_TEXT	SEGMENT PARA USE32 PUBLIC 'CODE'
_TEXT	ENDS
;	COMDAT ?xsputn@?$basic_streambuf@DU?$char_traits@D@std@@@std@@MAEHPBDH@Z
_TEXT	SEGMENT PARA USE32 PUBLIC 'CODE'
_TEXT	ENDS
;	COMDAT ?seekoff@?$basic_streambuf@DU?$char_traits@D@std@@@std@@MAE?AV?$fpos@H@2@JHH@Z
_TEXT	SEGMENT PARA USE32 PUBLIC 'CODE'
_TEXT	ENDS
;	COMDAT ?seekpos@?$basic_streambuf@DU?$char_traits@D@std@@@std@@MAE?AV?$fpos@H@2@V32@H@Z
_TEXT	SEGMENT PARA USE32 PUBLIC 'CODE'
_TEXT	ENDS
;	COMDAT ?setbuf@?$basic_streambuf@DU?$char_traits@D@std@@@std@@MAEPAV12@PADH@Z
_TEXT	SEGMENT PARA USE32 PUBLIC 'CODE'
_TEXT	ENDS
;	COMDAT ?sync@?$basic_streambuf@DU?$char_traits@D@std@@@std@@MAEHXZ
_TEXT	SEGMENT PARA USE32 PUBLIC 'CODE'
_TEXT	ENDS
;	COMDAT ?imbue@?$basic_streambuf@DU?$char_traits@D@std@@@std@@MAEXABVlocale@2@@Z
_TEXT	SEGMENT PARA USE32 PUBLIC 'CODE'
_TEXT	ENDS
;	COMDAT ??0?$CW2AEX@$0IA@@ATL@@QAE@PBG@Z
_TEXT	SEGMENT PARA USE32 PUBLIC 'CODE'
_TEXT	ENDS
;	COMDAT ??1?$CW2AEX@$0IA@@ATL@@QAE@XZ
_TEXT	SEGMENT PARA USE32 PUBLIC 'CODE'
_TEXT	ENDS
;	COMDAT ??B?$CW2AEX@$0IA@@ATL@@QBEPADXZ
_TEXT	SEGMENT PARA USE32 PUBLIC 'CODE'
_TEXT	ENDS
;	COMDAT ??0?$CStringT@DV?$StrTraitATL@DV?$ChTraitsCRT@D@ATL@@@ATL@@@ATL@@QAE@XZ
_TEXT	SEGMENT PARA USE32 PUBLIC 'CODE'
_TEXT	ENDS
;	COMDAT ??0?$CStringT@DV?$StrTraitATL@DV?$ChTraitsCRT@D@ATL@@@ATL@@@ATL@@QAE@ABV01@@Z
_TEXT	SEGMENT PARA USE32 PUBLIC 'CODE'
_TEXT	ENDS
;	COMDAT ??0?$CStringT@DV?$StrTraitATL@DV?$ChTraitsCRT@D@ATL@@@ATL@@@ATL@@QAE@PBD@Z
_TEXT	SEGMENT PARA USE32 PUBLIC 'CODE'
_TEXT	ENDS
;	COMDAT ??1?$CStringT@DV?$StrTraitATL@DV?$ChTraitsCRT@D@ATL@@@ATL@@@ATL@@QAE@XZ
_TEXT	SEGMENT PARA USE32 PUBLIC 'CODE'
_TEXT	ENDS
;	COMDAT ??Y?$CStringT@DV?$StrTraitATL@DV?$ChTraitsCRT@D@ATL@@@ATL@@@ATL@@QAEAAV01@D@Z
_TEXT	SEGMENT PARA USE32 PUBLIC 'CODE'
_TEXT	ENDS
;	COMDAT ?AppendFormat@?$CStringT@DV?$StrTraitATL@DV?$ChTraitsCRT@D@ATL@@@ATL@@@ATL@@QAAXPBDZZ
_TEXT	SEGMENT PARA USE32 PUBLIC 'CODE'
_TEXT	ENDS
;	COMDAT ?LoadStringA@?$CStringT@DV?$StrTraitATL@DV?$ChTraitsCRT@D@ATL@@@ATL@@@ATL@@QAEHI@Z
_TEXT	SEGMENT PARA USE32 PUBLIC 'CODE'
_TEXT	ENDS
;	COMDAT ??0?$CAxDialogImpl@VCShowSelectCert@@VCWindow@ATL@@@ATL@@QAE@XZ
_TEXT	SEGMENT PARA USE32 PUBLIC 'CODE'
_TEXT	ENDS
;	COMDAT ?GetDialogProc@?$CAxDialogImpl@VCShowSelectCert@@VCWindow@ATL@@@ATL@@UAEP6GHPAUHWND__@@IIJ@ZXZ
_TEXT	SEGMENT PARA USE32 PUBLIC 'CODE'
_TEXT	ENDS
;	COMDAT ?DoModal@?$CAxDialogImpl@VCShowSelectCert@@VCWindow@ATL@@@ATL@@QAEHPAUHWND__@@J@Z
_TEXT	SEGMENT PARA USE32 PUBLIC 'CODE'
_TEXT	ENDS
;	COMDAT ?EndDialog@?$CAxDialogImpl@VCShowSelectCert@@VCWindow@ATL@@@ATL@@QAEHH@Z
_TEXT	SEGMENT PARA USE32 PUBLIC 'CODE'
_TEXT	ENDS
;	COMDAT ?ProcessWindowMessage@?$CAxDialogImpl@VCShowSelectCert@@VCWindow@ATL@@@ATL@@UAEHPAUHWND__@@IIJAAJK@Z
_TEXT	SEGMENT PARA USE32 PUBLIC 'CODE'
_TEXT	ENDS
;	COMDAT ?CreateActiveXControls@?$CAxDialogImpl@VCShowSelectCert@@VCWindow@ATL@@@ATL@@UAEJI@Z
_TEXT	SEGMENT PARA USE32 PUBLIC 'CODE'
_TEXT	ENDS
;	COMDAT ??0?$_DebugHeapAllocator@D@std@@QAE@XZ
_TEXT	SEGMENT PARA USE32 PUBLIC 'CODE'
_TEXT	ENDS
;	COMDAT ??0?$_DebugHeapAllocator@D@std@@QAE@ABV01@@Z
_TEXT	SEGMENT PARA USE32 PUBLIC 'CODE'
_TEXT	ENDS
;	COMDAT ??_G?$basic_ostream@GU?$char_traits@G@std@@@std@@UAEPAXI@Z
_TEXT	SEGMENT PARA USE32 PUBLIC 'CODE'
_TEXT	ENDS
;	COMDAT ??_G?$basic_ios@GU?$char_traits@G@std@@@std@@UAEPAXI@Z
_TEXT	SEGMENT PARA USE32 PUBLIC 'CODE'
_TEXT	ENDS
;	COMDAT ??_G?$basic_streambuf@GU?$char_traits@G@std@@@std@@UAEPAXI@Z
_TEXT	SEGMENT PARA USE32 PUBLIC 'CODE'
_TEXT	ENDS
;	COMDAT ??_G?$basic_ostream@DU?$char_traits@D@std@@@std@@UAEPAXI@Z
_TEXT	SEGMENT PARA USE32 PUBLIC 'CODE'
_TEXT	ENDS
;	COMDAT ??_G?$basic_ios@DU?$char_traits@D@std@@@std@@UAEPAXI@Z
_TEXT	SEGMENT PARA USE32 PUBLIC 'CODE'
_TEXT	ENDS
;	COMDAT ??_G?$basic_istream@GU?$char_traits@G@std@@@std@@UAEPAXI@Z
_TEXT	SEGMENT PARA USE32 PUBLIC 'CODE'
_TEXT	ENDS
;	COMDAT ??_G?$basic_istream@DU?$char_traits@D@std@@@std@@UAEPAXI@Z
_TEXT	SEGMENT PARA USE32 PUBLIC 'CODE'
_TEXT	ENDS
;	COMDAT ??_G?$basic_streambuf@DU?$char_traits@D@std@@@std@@UAEPAXI@Z
_TEXT	SEGMENT PARA USE32 PUBLIC 'CODE'
_TEXT	ENDS
;	COMDAT ??_G?$CAxDialogImpl@VCShowSelectCert@@VCWindow@ATL@@@ATL@@UAEPAXI@Z
_TEXT	SEGMENT PARA USE32 PUBLIC 'CODE'
_TEXT	ENDS
;	COMDAT ??0?$CDialogImplBaseT@VCWindow@ATL@@@ATL@@QAE@XZ
_TEXT	SEGMENT PARA USE32 PUBLIC 'CODE'
_TEXT	ENDS
;	COMDAT ??_D?$basic_ostream@GU?$char_traits@G@std@@@std@@QAEXXZ
_TEXT	SEGMENT PARA USE32 PUBLIC 'CODE'
_TEXT	ENDS
;	COMDAT ??_D?$basic_ostream@DU?$char_traits@D@std@@@std@@QAEXXZ
_TEXT	SEGMENT PARA USE32 PUBLIC 'CODE'
_TEXT	ENDS
;	COMDAT ??_D?$basic_istream@GU?$char_traits@G@std@@@std@@QAEXXZ
_TEXT	SEGMENT PARA USE32 PUBLIC 'CODE'
_TEXT	ENDS
;	COMDAT ??_D?$basic_istream@DU?$char_traits@D@std@@@std@@QAEXXZ
_TEXT	SEGMENT PARA USE32 PUBLIC 'CODE'
_TEXT	ENDS
;	COMDAT ??0?$CSimpleStringT@D$0A@@ATL@@QAE@PAUIAtlStringMgr@1@@Z
_TEXT	SEGMENT PARA USE32 PUBLIC 'CODE'
_TEXT	ENDS
;	COMDAT ??0?$CSimpleStringT@D$0A@@ATL@@QAE@ABV01@@Z
_TEXT	SEGMENT PARA USE32 PUBLIC 'CODE'
_TEXT	ENDS
;	COMDAT ??1?$CSimpleStringT@D$0A@@ATL@@QAE@XZ
_TEXT	SEGMENT PARA USE32 PUBLIC 'CODE'
_TEXT	ENDS
;	COMDAT ??Y?$CSimpleStringT@D$0A@@ATL@@QAEAAV01@D@Z
_TEXT	SEGMENT PARA USE32 PUBLIC 'CODE'
_TEXT	ENDS
;	COMDAT ?MapDialogRect@?$CDialogImplBaseT@VCWindow@ATL@@@ATL@@QAEHPAUtagRECT@@@Z
_TEXT	SEGMENT PARA USE32 PUBLIC 'CODE'
_TEXT	ENDS
;	COMDAT ??0?$CAxWindow2T@VCWindow@ATL@@@ATL@@QAE@PAUHWND__@@@Z
_TEXT	SEGMENT PARA USE32 PUBLIC 'CODE'
_TEXT	ENDS
;	COMDAT ?Create@?$CAxWindow2T@VCWindow@ATL@@@ATL@@QAEPAUHWND__@@PAU3@V_U_RECT@2@PBDKKV_U_MENUorID@2@PAX@Z
_TEXT	SEGMENT PARA USE32 PUBLIC 'CODE'
_TEXT	ENDS
;	COMDAT ?CreateControlLic@?$CAxWindow2T@VCWindow@ATL@@@ATL@@QAEJPBGPAUIStream@@PAPAUIUnknown@@PAG@Z
_TEXT	SEGMENT PARA USE32 PUBLIC 'CODE'
_TEXT	ENDS
;	COMDAT ?assign@?$basic_string@DU?$char_traits@D@std@@V?$allocator@D@2@@std@@QAEAAV12@ABV12@II@Z
_TEXT	SEGMENT PARA USE32 PUBLIC 'CODE'
_TEXT	ENDS
;	COMDAT ?assign@?$basic_string@DU?$char_traits@D@std@@V?$allocator@D@2@@std@@QAEAAV12@PBD@Z
_TEXT	SEGMENT PARA USE32 PUBLIC 'CODE'
_TEXT	ENDS
;	COMDAT ?_Tidy@?$basic_string@DU?$char_traits@D@std@@V?$allocator@D@2@@std@@IAEX_NI@Z
_TEXT	SEGMENT PARA USE32 PUBLIC 'CODE'
_TEXT	ENDS
;	COMDAT ?_Myptr@?$basic_string@DU?$char_traits@D@std@@V?$allocator@D@2@@std@@QBEPBDXZ
_TEXT	SEGMENT PARA USE32 PUBLIC 'CODE'
_TEXT	ENDS
;	COMDAT ??0?$_String_val@DV?$allocator@D@std@@@std@@IAE@V?$allocator@D@1@@Z
_TEXT	SEGMENT PARA USE32 PUBLIC 'CODE'
_TEXT	ENDS
;	COMDAT ??0?$allocator@D@std@@QAE@XZ
_TEXT	SEGMENT PARA USE32 PUBLIC 'CODE'
_TEXT	ENDS
;	COMDAT ??0?$allocator@D@std@@QAE@ABV01@@Z
_TEXT	SEGMENT PARA USE32 PUBLIC 'CODE'
_TEXT	ENDS
;	COMDAT ?assign@?$basic_string@DU?$char_traits@D@std@@V?$_DebugHeapAllocator@D@2@@std@@QAEAAV12@ABV12@II@Z
_TEXT	SEGMENT PARA USE32 PUBLIC 'CODE'
_TEXT	ENDS
;	COMDAT ?assign@?$basic_string@DU?$char_traits@D@std@@V?$_DebugHeapAllocator@D@2@@std@@QAEAAV12@PBD@Z
_TEXT	SEGMENT PARA USE32 PUBLIC 'CODE'
_TEXT	ENDS
;	COMDAT ?_Tidy@?$basic_string@DU?$char_traits@D@std@@V?$_DebugHeapAllocator@D@2@@std@@IAEX_NI@Z
_TEXT	SEGMENT PARA USE32 PUBLIC 'CODE'
_TEXT	ENDS
;	COMDAT ?_Myptr@?$basic_string@DU?$char_traits@D@std@@V?$_DebugHeapAllocator@D@2@@std@@QBEPBDXZ
_TEXT	SEGMENT PARA USE32 PUBLIC 'CODE'
_TEXT	ENDS
;	COMDAT ??0?$_String_val@DV?$_DebugHeapAllocator@D@std@@@std@@IAE@V?$_DebugHeapAllocator@D@1@@Z
_TEXT	SEGMENT PARA USE32 PUBLIC 'CODE'
_TEXT	ENDS
;	COMDAT ?_Osfx@?$basic_ostream@GU?$char_traits@G@std@@@std@@QAEXXZ
_TEXT	SEGMENT PARA USE32 PUBLIC 'CODE'
_TEXT	ENDS
;	COMDAT ?clear@?$basic_ios@GU?$char_traits@G@std@@@std@@QAEXH_N@Z
_TEXT	SEGMENT PARA USE32 PUBLIC 'CODE'
_TEXT	ENDS
;	COMDAT ?tie@?$basic_ios@GU?$char_traits@G@std@@@std@@QBEPAV?$basic_ostream@GU?$char_traits@G@std@@@2@XZ
_TEXT	SEGMENT PARA USE32 PUBLIC 'CODE'
_TEXT	ENDS
;	COMDAT ??0_Sentry_base@?$basic_ostream@GU?$char_traits@G@std@@@std@@QAE@AAV12@@Z
_TEXT	SEGMENT PARA USE32 PUBLIC 'CODE'
_TEXT	ENDS
;	COMDAT ??1_Sentry_base@?$basic_ostream@GU?$char_traits@G@std@@@std@@QAE@XZ
_TEXT	SEGMENT PARA USE32 PUBLIC 'CODE'
_TEXT	ENDS
;	COMDAT ?pubsync@?$basic_streambuf@GU?$char_traits@G@std@@@std@@QAEHXZ
_TEXT	SEGMENT PARA USE32 PUBLIC 'CODE'
_TEXT	ENDS
;	COMDAT ?_Unlock@?$basic_streambuf@GU?$char_traits@G@std@@@std@@QAEXXZ
_TEXT	SEGMENT PARA USE32 PUBLIC 'CODE'
_TEXT	ENDS
;	COMDAT ?gptr@?$basic_streambuf@GU?$char_traits@G@std@@@std@@IBEPAGXZ
_TEXT	SEGMENT PARA USE32 PUBLIC 'CODE'
_TEXT	ENDS
;	COMDAT ?pptr@?$basic_streambuf@GU?$char_traits@G@std@@@std@@IBEPAGXZ
_TEXT	SEGMENT PARA USE32 PUBLIC 'CODE'
_TEXT	ENDS
;	COMDAT ?egptr@?$basic_streambuf@GU?$char_traits@G@std@@@std@@IBEPAGXZ
_TEXT	SEGMENT PARA USE32 PUBLIC 'CODE'
_TEXT	ENDS
;	COMDAT ?gbump@?$basic_streambuf@GU?$char_traits@G@std@@@std@@IAEXH@Z
_TEXT	SEGMENT PARA USE32 PUBLIC 'CODE'
_TEXT	ENDS
;	COMDAT ?epptr@?$basic_streambuf@GU?$char_traits@G@std@@@std@@IBEPAGXZ
_TEXT	SEGMENT PARA USE32 PUBLIC 'CODE'
_TEXT	ENDS
;	COMDAT ?_Gninc@?$basic_streambuf@GU?$char_traits@G@std@@@std@@IAEPAGXZ
_TEXT	SEGMENT PARA USE32 PUBLIC 'CODE'
_TEXT	ENDS
;	COMDAT ?pbump@?$basic_streambuf@GU?$char_traits@G@std@@@std@@IAEXH@Z
_TEXT	SEGMENT PARA USE32 PUBLIC 'CODE'
_TEXT	ENDS
;	COMDAT ?_Pninc@?$basic_streambuf@GU?$char_traits@G@std@@@std@@IAEPAGXZ
_TEXT	SEGMENT PARA USE32 PUBLIC 'CODE'
_TEXT	ENDS
;	COMDAT ?clear@?$basic_ios@DU?$char_traits@D@std@@@std@@QAEXH_N@Z
_TEXT	SEGMENT PARA USE32 PUBLIC 'CODE'
_TEXT	ENDS
;	COMDAT ?_Ipfx@?$basic_istream@GU?$char_traits@G@std@@@std@@QAE_N_N@Z
_TEXT	SEGMENT PARA USE32 PUBLIC 'CODE'
_TEXT	ENDS
;	COMDAT ??0_Sentry_base@?$basic_istream@GU?$char_traits@G@std@@@std@@QAE@AAV12@@Z
_TEXT	SEGMENT PARA USE32 PUBLIC 'CODE'
_TEXT	ENDS
;	COMDAT ?_Ipfx@?$basic_istream@DU?$char_traits@D@std@@@std@@QAE_N_N@Z
_TEXT	SEGMENT PARA USE32 PUBLIC 'CODE'
_TEXT	ENDS
;	COMDAT ??0_Sentry_base@?$basic_istream@DU?$char_traits@D@std@@@std@@QAE@AAV12@@Z
_TEXT	SEGMENT PARA USE32 PUBLIC 'CODE'
_TEXT	ENDS
;	COMDAT ?pubsync@?$basic_streambuf@DU?$char_traits@D@std@@@std@@QAEHXZ
_TEXT	SEGMENT PARA USE32 PUBLIC 'CODE'
_TEXT	ENDS
;	COMDAT ?sbumpc@?$basic_streambuf@DU?$char_traits@D@std@@@std@@QAEHXZ
_TEXT	SEGMENT PARA USE32 PUBLIC 'CODE'
_TEXT	ENDS
;	COMDAT ?sputc@?$basic_streambuf@DU?$char_traits@D@std@@@std@@QAEHD@Z
_TEXT	SEGMENT PARA USE32 PUBLIC 'CODE'
_TEXT	ENDS
;	COMDAT ?_Unlock@?$basic_streambuf@DU?$char_traits@D@std@@@std@@QAEXXZ
_TEXT	SEGMENT PARA USE32 PUBLIC 'CODE'
_TEXT	ENDS
;	COMDAT ?gptr@?$basic_streambuf@DU?$char_traits@D@std@@@std@@IBEPADXZ
_TEXT	SEGMENT PARA USE32 PUBLIC 'CODE'
_TEXT	ENDS
;	COMDAT ?pptr@?$basic_streambuf@DU?$char_traits@D@std@@@std@@IBEPADXZ
_TEXT	SEGMENT PARA USE32 PUBLIC 'CODE'
_TEXT	ENDS
;	COMDAT ?egptr@?$basic_streambuf@DU?$char_traits@D@std@@@std@@IBEPADXZ
_TEXT	SEGMENT PARA USE32 PUBLIC 'CODE'
_TEXT	ENDS
;	COMDAT ?gbump@?$basic_streambuf@DU?$char_traits@D@std@@@std@@IAEXH@Z
_TEXT	SEGMENT PARA USE32 PUBLIC 'CODE'
_TEXT	ENDS
;	COMDAT ?epptr@?$basic_streambuf@DU?$char_traits@D@std@@@std@@IBEPADXZ
_TEXT	SEGMENT PARA USE32 PUBLIC 'CODE'
_TEXT	ENDS
;	COMDAT ?_Gninc@?$basic_streambuf@DU?$char_traits@D@std@@@std@@IAEPADXZ
_TEXT	SEGMENT PARA USE32 PUBLIC 'CODE'
_TEXT	ENDS
;	COMDAT ?pbump@?$basic_streambuf@DU?$char_traits@D@std@@@std@@IAEXH@Z
_TEXT	SEGMENT PARA USE32 PUBLIC 'CODE'
_TEXT	ENDS
;	COMDAT ?Init@?$CW2AEX@$0IA@@ATL@@AAEXPBGI@Z
_TEXT	SEGMENT PARA USE32 PUBLIC 'CODE'
_TEXT	ENDS
;	COMDAT ??4?$CStringT@DV?$StrTraitATL@DV?$ChTraitsCRT@D@ATL@@@ATL@@@ATL@@QAEAAV01@PBD@Z
_TEXT	SEGMENT PARA USE32 PUBLIC 'CODE'
_TEXT	ENDS
;	COMDAT ?AppendFormatV@?$CStringT@DV?$StrTraitATL@DV?$ChTraitsCRT@D@ATL@@@ATL@@@ATL@@QAEXPBDPAD@Z
_TEXT	SEGMENT PARA USE32 PUBLIC 'CODE'
_TEXT	ENDS
;	COMDAT ?LoadStringA@?$CStringT@DV?$StrTraitATL@DV?$ChTraitsCRT@D@ATL@@@ATL@@@ATL@@QAEHPAUHINSTANCE__@@I@Z
_TEXT	SEGMENT PARA USE32 PUBLIC 'CODE'
_TEXT	ENDS
;	COMDAT ?CheckImplicitLoad@?$CStringT@DV?$StrTraitATL@DV?$ChTraitsCRT@D@ATL@@@ATL@@@ATL@@AAE_NPBX@Z
_TEXT	SEGMENT PARA USE32 PUBLIC 'CODE'
_TEXT	ENDS
;	COMDAT ?FindStringResourceInstance@?$StrTraitATL@DV?$ChTraitsCRT@D@ATL@@@ATL@@SAPAUHINSTANCE__@@I@Z
_TEXT	SEGMENT PARA USE32 PUBLIC 'CODE'
_TEXT	ENDS
;	COMDAT ?GetDefaultManager@?$StrTraitATL@DV?$ChTraitsCRT@D@ATL@@@ATL@@SAPAUIAtlStringMgr@2@XZ
_TEXT	SEGMENT PARA USE32 PUBLIC 'CODE'
_TEXT	ENDS
;	COMDAT ?OnInitDialog@?$CAxDialogImpl@VCShowSelectCert@@VCWindow@ATL@@@ATL@@QAEJIIJAAH@Z
_TEXT	SEGMENT PARA USE32 PUBLIC 'CODE'
_TEXT	ENDS
;	COMDAT ?OnDestroy@?$CAxDialogImpl@VCShowSelectCert@@VCWindow@ATL@@@ATL@@QAEJIIJAAH@Z
_TEXT	SEGMENT PARA USE32 PUBLIC 'CODE'
_TEXT	ENDS
;	COMDAT ??0?$fpos@H@std@@QAE@J@Z
_TEXT	SEGMENT PARA USE32 PUBLIC 'CODE'
_TEXT	ENDS
;	COMDAT ??0sentry@?$basic_ostream@DU?$char_traits@D@std@@@std@@QAE@AAV12@@Z
_TEXT	SEGMENT PARA USE32 PUBLIC 'CODE'
_TEXT	ENDS
;	COMDAT ??1sentry@?$basic_ostream@DU?$char_traits@D@std@@@std@@QAE@XZ
_TEXT	SEGMENT PARA USE32 PUBLIC 'CODE'
_TEXT	ENDS
;	COMDAT ??Bsentry@?$basic_ostream@DU?$char_traits@D@std@@@std@@QBE_NXZ
_TEXT	SEGMENT PARA USE32 PUBLIC 'CODE'
_TEXT	ENDS
;	COMDAT ??4?$CSimpleStringT@D$0A@@ATL@@QAEAAV01@PBD@Z
_TEXT	SEGMENT PARA USE32 PUBLIC 'CODE'
_TEXT	ENDS
;	COMDAT ?AppendChar@?$CSimpleStringT@D$0A@@ATL@@QAEXD@Z
_TEXT	SEGMENT PARA USE32 PUBLIC 'CODE'
_TEXT	ENDS
;	COMDAT ?GetLength@?$CSimpleStringT@D$0A@@ATL@@QBEHXZ
_TEXT	SEGMENT PARA USE32 PUBLIC 'CODE'
_TEXT	ENDS
;	COMDAT ?ReleaseBufferSetLength@?$CSimpleStringT@D$0A@@ATL@@QAEXH@Z
_TEXT	SEGMENT PARA USE32 PUBLIC 'CODE'
_TEXT	ENDS
;	COMDAT ?CloneData@?$CSimpleStringT@D$0A@@ATL@@CAPAUCStringData@2@PAU32@@Z
_TEXT	SEGMENT PARA USE32 PUBLIC 'CODE'
_TEXT	ENDS
;	COMDAT ?ExecuteDlgInit@?$CDialogImplBaseT@VCWindow@ATL@@@ATL@@QAEHH@Z
_TEXT	SEGMENT PARA USE32 PUBLIC 'CODE'
_TEXT	ENDS
;	COMDAT ??0?$CAxWindowT@VCWindow@ATL@@@ATL@@QAE@PAUHWND__@@@Z
_TEXT	SEGMENT PARA USE32 PUBLIC 'CODE'
_TEXT	ENDS
;	COMDAT ?CreateControlLicEx@?$CAxWindow2T@VCWindow@ATL@@@ATL@@QAEJPBGPAUIStream@@PAPAUIUnknown@@2ABU_GUID@@PAU4@PAG@Z
_TEXT	SEGMENT PARA USE32 PUBLIC 'CODE'
_TEXT	ENDS
;	COMDAT ?assign@?$basic_string@DU?$char_traits@D@std@@V?$allocator@D@2@@std@@QAEAAV12@PBDI@Z
_TEXT	SEGMENT PARA USE32 PUBLIC 'CODE'
_TEXT	ENDS
;	COMDAT ?erase@?$basic_string@DU?$char_traits@D@std@@V?$allocator@D@2@@std@@QAEAAV12@II@Z
_TEXT	SEGMENT PARA USE32 PUBLIC 'CODE'
_TEXT	ENDS
;	COMDAT ?_Eos@?$basic_string@DU?$char_traits@D@std@@V?$allocator@D@2@@std@@IAEXI@Z
_TEXT	SEGMENT PARA USE32 PUBLIC 'CODE'
_TEXT	ENDS
;	COMDAT ?_Grow@?$basic_string@DU?$char_traits@D@std@@V?$allocator@D@2@@std@@IAE_NI_N@Z
_TEXT	SEGMENT PARA USE32 PUBLIC 'CODE'
_TEXT	ENDS
;	COMDAT ?_Myptr@?$basic_string@DU?$char_traits@D@std@@V?$allocator@D@2@@std@@QAEPADXZ
_TEXT	SEGMENT PARA USE32 PUBLIC 'CODE'
_TEXT	ENDS
;	COMDAT ?deallocate@?$allocator@D@std@@QAEXPADI@Z
_TEXT	SEGMENT PARA USE32 PUBLIC 'CODE'
_TEXT	ENDS
;	COMDAT ?assign@?$basic_string@DU?$char_traits@D@std@@V?$_DebugHeapAllocator@D@2@@std@@QAEAAV12@PBDI@Z
_TEXT	SEGMENT PARA USE32 PUBLIC 'CODE'
_TEXT	ENDS
;	COMDAT ?erase@?$basic_string@DU?$char_traits@D@std@@V?$_DebugHeapAllocator@D@2@@std@@QAEAAV12@II@Z
_TEXT	SEGMENT PARA USE32 PUBLIC 'CODE'
_TEXT	ENDS
;	COMDAT ?size@?$basic_string@DU?$char_traits@D@std@@V?$_DebugHeapAllocator@D@2@@std@@QBEIXZ
_TEXT	SEGMENT PARA USE32 PUBLIC 'CODE'
_TEXT	ENDS
;	COMDAT ?_Eos@?$basic_string@DU?$char_traits@D@std@@V?$_DebugHeapAllocator@D@2@@std@@IAEXI@Z
_TEXT	SEGMENT PARA USE32 PUBLIC 'CODE'
_TEXT	ENDS
;	COMDAT ?_Grow@?$basic_string@DU?$char_traits@D@std@@V?$_DebugHeapAllocator@D@2@@std@@IAE_NI_N@Z
_TEXT	SEGMENT PARA USE32 PUBLIC 'CODE'
_TEXT	ENDS
;	COMDAT ?_Myptr@?$basic_string@DU?$char_traits@D@std@@V?$_DebugHeapAllocator@D@2@@std@@QAEPADXZ
_TEXT	SEGMENT PARA USE32 PUBLIC 'CODE'
_TEXT	ENDS
;	COMDAT ?deallocate@?$_DebugHeapAllocator@D@std@@QAEXPADI@Z
_TEXT	SEGMENT PARA USE32 PUBLIC 'CODE'
_TEXT	ENDS
;	COMDAT ?_Lock@?$basic_streambuf@GU?$char_traits@G@std@@@std@@QAEXXZ
_TEXT	SEGMENT PARA USE32 PUBLIC 'CODE'
_TEXT	ENDS
;	COMDAT ?_Osfx@?$basic_ostream@DU?$char_traits@D@std@@@std@@QAEXXZ
_TEXT	SEGMENT PARA USE32 PUBLIC 'CODE'
_TEXT	ENDS
;	COMDAT ?tie@?$basic_ios@DU?$char_traits@D@std@@@std@@QBEPAV?$basic_ostream@DU?$char_traits@D@std@@@2@XZ
_TEXT	SEGMENT PARA USE32 PUBLIC 'CODE'
_TEXT	ENDS
;	COMDAT ?_Lock@?$basic_streambuf@DU?$char_traits@D@std@@@std@@QAEXXZ
_TEXT	SEGMENT PARA USE32 PUBLIC 'CODE'
_TEXT	ENDS
;	COMDAT ?_Pninc@?$basic_streambuf@DU?$char_traits@D@std@@@std@@IAEPADXZ
_TEXT	SEGMENT PARA USE32 PUBLIC 'CODE'
_TEXT	ENDS
;	COMDAT ?GetFormattedLength@?$ChTraitsCRT@D@ATL@@SAHPBDPAD@Z
_TEXT	SEGMENT PARA USE32 PUBLIC 'CODE'
_TEXT	ENDS
;	COMDAT ?Format@?$ChTraitsCRT@D@ATL@@SAHPADPBD0@Z
_TEXT	SEGMENT PARA USE32 PUBLIC 'CODE'
_TEXT	ENDS
;	COMDAT ?GetBaseTypeLength@?$ChTraitsCRT@D@ATL@@SAHPBGH@Z
_TEXT	SEGMENT PARA USE32 PUBLIC 'CODE'
_TEXT	ENDS
;	COMDAT ?ConvertToBaseType@?$ChTraitsCRT@D@ATL@@SAXPADHPBGH@Z
_TEXT	SEGMENT PARA USE32 PUBLIC 'CODE'
_TEXT	ENDS
;	COMDAT ?AdviseSinkMap@?$CAxDialogImpl@VCShowSelectCert@@VCWindow@ATL@@@ATL@@QAEJ_N@Z
_TEXT	SEGMENT PARA USE32 PUBLIC 'CODE'
_TEXT	ENDS
;	COMDAT ??0_Sentry_base@?$basic_ostream@DU?$char_traits@D@std@@@std@@QAE@AAV12@@Z
_TEXT	SEGMENT PARA USE32 PUBLIC 'CODE'
_TEXT	ENDS
;	COMDAT ??1_Sentry_base@?$basic_ostream@DU?$char_traits@D@std@@@std@@QAE@XZ
_TEXT	SEGMENT PARA USE32 PUBLIC 'CODE'
_TEXT	ENDS
;	COMDAT ?SetString@?$CSimpleStringT@D$0A@@ATL@@QAEXPBD@Z
_TEXT	SEGMENT PARA USE32 PUBLIC 'CODE'
_TEXT	ENDS
;	COMDAT ?max_size@?$basic_string@DU?$char_traits@D@std@@V?$allocator@D@2@@std@@QBEIXZ
_TEXT	SEGMENT PARA USE32 PUBLIC 'CODE'
_TEXT	ENDS
;	COMDAT ?_Copy@?$basic_string@DU?$char_traits@D@std@@V?$allocator@D@2@@std@@IAEXII@Z
_TEXT	SEGMENT PARA USE32 PUBLIC 'CODE'
_TEXT	ENDS
;	COMDAT ?_Inside@?$basic_string@DU?$char_traits@D@std@@V?$allocator@D@2@@std@@IAE_NPBD@Z
_TEXT	SEGMENT PARA USE32 PUBLIC 'CODE'
_TEXT	ENDS
;	COMDAT ?max_size@?$basic_string@DU?$char_traits@D@std@@V?$_DebugHeapAllocator@D@2@@std@@QBEIXZ
_TEXT	SEGMENT PARA USE32 PUBLIC 'CODE'
_TEXT	ENDS
;	COMDAT ?_Copy@?$basic_string@DU?$char_traits@D@std@@V?$_DebugHeapAllocator@D@2@@std@@IAEXII@Z
_TEXT	SEGMENT PARA USE32 PUBLIC 'CODE'
_TEXT	ENDS
;	COMDAT ?_Inside@?$basic_string@DU?$char_traits@D@std@@V?$_DebugHeapAllocator@D@2@@std@@IAE_NPBD@Z
_TEXT	SEGMENT PARA USE32 PUBLIC 'CODE'
_TEXT	ENDS
;	COMDAT ?SetString@?$CSimpleStringT@D$0A@@ATL@@QAEXPBDH@Z
_TEXT	SEGMENT PARA USE32 PUBLIC 'CODE'
_TEXT	ENDS
;	COMDAT ?allocate@?$allocator@D@std@@QAEPADI@Z
_TEXT	SEGMENT PARA USE32 PUBLIC 'CODE'
_TEXT	ENDS
;	COMDAT ?max_size@?$allocator@D@std@@QBEIXZ
_TEXT	SEGMENT PARA USE32 PUBLIC 'CODE'
_TEXT	ENDS
;	COMDAT ?allocate@?$_DebugHeapAllocator@D@std@@QAEPADI@Z
_TEXT	SEGMENT PARA USE32 PUBLIC 'CODE'
_TEXT	ENDS
;	COMDAT ?GetString@?$CSimpleStringT@D$0A@@ATL@@QBEPBDXZ
_TEXT	SEGMENT PARA USE32 PUBLIC 'CODE'
_TEXT	ENDS
;	COMDAT ?CopyCharsOverlapped@?$CSimpleStringT@D$0A@@ATL@@SAXPADPBDH@Z
_TEXT	SEGMENT PARA USE32 PUBLIC 'CODE'
_TEXT	ENDS
;	COMDAT ?Unlock@?$CComCritSecLock@VCComCriticalSection@ATL@@@ATL@@QAEXXZ
_TEXT	SEGMENT PARA USE32 PUBLIC 'CODE'
_TEXT	ENDS
;	COMDAT ?StartDialogProc@?$CDialogImplBaseT@VCWindow@ATL@@@ATL@@SGHPAUHWND__@@IIJ@Z
_TEXT	SEGMENT PARA USE32 PUBLIC 'CODE'
_TEXT	ENDS
;	COMDAT ?CreateInstance@?$CComObject@V?$CComEnum@UIEnumUnknown@@$1?_GUID_00000100_0000_0000_c000_000000000046@@3U__s_GUID@@BPAUIUnknown@@V?$_CopyInterface@UIUnknown@@@ATL@@VCComSingleThreadModel@6@@ATL@@@ATL@@SGJPAPAV12@@Z
_TEXT	SEGMENT PARA USE32 PUBLIC 'CODE'
_TEXT	ENDS
;	COMDAT ??$_Pow_int@N@@YANNH@Z
_TEXT	SEGMENT PARA USE32 PUBLIC 'CODE'
_TEXT	ENDS
;	COMDAT ??$_Pow_int@H@@YAHHH@Z
_TEXT	SEGMENT PARA USE32 PUBLIC 'CODE'
_TEXT	ENDS
;	COMDAT ??$_Pow_int@M@@YAMMH@Z
_TEXT	SEGMENT PARA USE32 PUBLIC 'CODE'
_TEXT	ENDS
;	COMDAT ??$_Pow_int@O@@YAOOH@Z
_TEXT	SEGMENT PARA USE32 PUBLIC 'CODE'
_TEXT	ENDS
;	COMDAT ??$_DebugHeapDelete@Vfacet@locale@std@@@std@@YAXPAVfacet@locale@0@@Z
_TEXT	SEGMENT PARA USE32 PUBLIC 'CODE'
_TEXT	ENDS
;	COMDAT ??$use_facet@V?$ctype@D@std@@@std@@YAABV?$ctype@D@0@ABVlocale@0@@Z
_TEXT	SEGMENT PARA USE32 PUBLIC 'CODE'
_TEXT	ENDS
;	COMDAT ??$use_facet@V?$ctype@G@std@@@std@@YAABV?$ctype@G@0@ABVlocale@0@@Z
_TEXT	SEGMENT PARA USE32 PUBLIC 'CODE'
_TEXT	ENDS
;	COMDAT ??$AtlAlignUp@H@ATL@@YGHHK@Z
_TEXT	SEGMENT PARA USE32 PUBLIC 'CODE'
_TEXT	ENDS
;	COMDAT ?DialogProc@?$CAxDialogImpl@VCShowSelectCert@@VCWindow@ATL@@@ATL@@SGHPAUHWND__@@IIJ@Z
_TEXT	SEGMENT PARA USE32 PUBLIC 'CODE'
_TEXT	ENDS
;	COMDAT ??$_DebugHeapDelete@Vlocale@std@@@std@@YAXPAVlocale@0@@Z
_TEXT	SEGMENT PARA USE32 PUBLIC 'CODE'
_TEXT	ENDS
;	COMDAT ??$QueryHost@UIAxWinHostWindowLic@@@?$CAxWindowT@VCWindow@ATL@@@ATL@@QAEJPAPAUIAxWinHostWindowLic@@@Z
_TEXT	SEGMENT PARA USE32 PUBLIC 'CODE'
_TEXT	ENDS
;	COMDAT ??$QueryInterface@UIUnknown@@@?$CComPtrBase@UIAxWinHostWindowLic@@@ATL@@QBEJPAPAUIUnknown@@@Z
_TEXT	SEGMENT PARA USE32 PUBLIC 'CODE'
_TEXT	ENDS
;	COMDAT ??$_DebugHeapDelete@X@std@@YAXPAX@Z
_TEXT	SEGMENT PARA USE32 PUBLIC 'CODE'
_TEXT	ENDS
;	COMDAT ??$_Allocate@D@std@@YAPADIPAD@Z
_TEXT	SEGMENT PARA USE32 PUBLIC 'CODE'
_TEXT	ENDS
;	COMDAT ??_Glocale@std@@QAEPAXI@Z
_TEXT	SEGMENT PARA USE32 PUBLIC 'CODE'
_TEXT	ENDS
;	COMDAT ?QueryHost@?$CAxWindowT@VCWindow@ATL@@@ATL@@QAEJABU_GUID@@PAPAX@Z
_TEXT	SEGMENT PARA USE32 PUBLIC 'CODE'
_TEXT	ENDS
;	COMDAT ?GetIDD@?$CAxDialogImpl@VCShowSelectCert@@VCWindow@ATL@@@ATL@@QAEHXZ
_TEXT	SEGMENT PARA USE32 PUBLIC 'CODE'
_TEXT	ENDS
;	COMDAT ?DestroyWindow@?$CAxDialogImpl@VCShowSelectCert@@VCWindow@ATL@@@ATL@@QAEHXZ
_TEXT	SEGMENT PARA USE32 PUBLIC 'CODE'
_TEXT	ENDS
;	COMDAT ?OnFinalMessage@?$CDialogImplBaseT@VCWindow@ATL@@@ATL@@UAEXPAUHWND__@@@Z
_TEXT	SEGMENT PARA USE32 PUBLIC 'CODE'
_TEXT	ENDS
;	COMDAT ??C?$CComPtrBase@UIUnknown@@@ATL@@QBEPAV?$_NoAddRefReleaseOnCComPtr@UIUnknown@@@1@XZ
_TEXT	SEGMENT PARA USE32 PUBLIC 'CODE'
_TEXT	ENDS
;	COMDAT ??_C@_04CLHEGAEG@p?$CB?$DN0?$AA@
CONST	SEGMENT DWORD USE32 PUBLIC 'CONST'
CONST	ENDS
;	COMDAT _AtlAxGetHost@8
_TEXT	SEGMENT PARA USE32 PUBLIC 'CODE'
_TEXT	ENDS
;	COMDAT ??_C@_0BD@CFOEICJD@WM_ATLGETHOST?5?$CB?$DN?50?$AA@
CONST	SEGMENT DWORD USE32 PUBLIC 'CONST'
CONST	ENDS
;	COMDAT ??_C@_0FA@NHACCMFP@C?3?2Program?5Files?2Microsoft?5Visua@
CONST	SEGMENT DWORD USE32 PUBLIC 'CONST'
CONST	ENDS
;	COMDAT ?WM_ATLGETHOST@ATL@@3IA
_DATA	SEGMENT DWORD USE32 PUBLIC 'DATA'
_DATA	ENDS
;	COMDAT ??_C@_0L@PGEBGEDK@ppUnk?5?$CB?$DN?50?$AA@
CONST	SEGMENT DWORD USE32 PUBLIC 'CONST'
CONST	ENDS
;	COMDAT __GUID_00000000_0000_0000_c000_000000000046
CONST	SEGMENT DWORD USE32 PUBLIC 'CONST'
CONST	ENDS
;	COMDAT ??_C@_0FC@KBOEFHBO@C?3?2Program?5Files?2Microsoft?5Visua@
CONST	SEGMENT DWORD USE32 PUBLIC 'CONST'
CONST	ENDS
;	COMDAT ??_C@_07MEKCDCMA@pp?5?$CB?$DN?50?$AA@
CONST	SEGMENT DWORD USE32 PUBLIC 'CONST'
CONST	ENDS
;	COMDAT __GUID_3935bda8_4ed9_495c_8650_e01fc1e38a4b
CONST	SEGMENT DWORD USE32 PUBLIC 'CONST'
CONST	ENDS
;	COMDAT ?DialogProc@?$CDialogImplBaseT@VCWindow@ATL@@@ATL@@SGHPAUHWND__@@IIJ@Z
_TEXT	SEGMENT PARA USE32 PUBLIC 'CODE'
_TEXT	ENDS
;	COMDAT ??0_ATL_MSG@ATL@@QAE@PAUHWND__@@IIJH@Z
_TEXT	SEGMENT PARA USE32 PUBLIC 'CODE'
_TEXT	ENDS
;	COMDAT ?_Psave@?$_Facetptr@V?$ctype@G@std@@@std@@2PBVfacet@locale@2@B
_DATA	SEGMENT DWORD USE32 PUBLIC 'DATA'
_DATA	ENDS
;	COMDAT __CTA2?AVbad_cast@@
xdata$x	SEGMENT DWORD USE32 PUBLIC 'CONST'
xdata$x	ENDS
;	COMDAT __CT??_R0?AVexception@@@8??0exception@@QAE@ABV0@@Z12
xdata$x	SEGMENT DWORD USE32 PUBLIC 'CONST'
xdata$x	ENDS
;	COMDAT __CT??_R0?AVbad_cast@@@8??0bad_cast@@QAE@ABV0@@Z12
xdata$x	SEGMENT DWORD USE32 PUBLIC 'CONST'
xdata$x	ENDS
;	COMDAT ??_R0?AVexception@@@8
_DATA	SEGMENT DWORD USE32 PUBLIC 'DATA'
_DATA	ENDS
;	COMDAT ??_R0?AVbad_cast@@@8
_DATA	SEGMENT DWORD USE32 PUBLIC 'DATA'
_DATA	ENDS
;	COMDAT __TI2?AVbad_cast@@
xdata$x	SEGMENT DWORD USE32 PUBLIC 'CONST'
xdata$x	ENDS
;	COMDAT ?_Psave@?$_Facetptr@V?$ctype@D@std@@@std@@2PBVfacet@locale@2@B
_DATA	SEGMENT DWORD USE32 PUBLIC 'DATA'
_DATA	ENDS
;	COMDAT ?InternalFinalConstructRelease@CComObjectRootBase@ATL@@QAEXXZ
_TEXT	SEGMENT PARA USE32 PUBLIC 'CODE'
_TEXT	ENDS
;	COMDAT ??_C@_0N@JELNCKOF@m_dwRef?5?$DN?$DN?50?$AA@
CONST	SEGMENT DWORD USE32 PUBLIC 'CONST'
CONST	ENDS
;	COMDAT ??_C@_0EP@FBJOMLAB@C?3?2Program?5Files?2Microsoft?5Visua@
CONST	SEGMENT DWORD USE32 PUBLIC 'CONST'
CONST	ENDS
;	COMDAT ?_AtlFinalConstruct@CComObjectRootBase@ATL@@QAEJXZ
_TEXT	SEGMENT PARA USE32 PUBLIC 'CODE'
_TEXT	ENDS
;	COMDAT ?FinalConstruct@CComObjectRootBase@ATL@@QAEJXZ
_TEXT	SEGMENT PARA USE32 PUBLIC 'CODE'
_TEXT	ENDS
;	COMDAT ?InternalFinalConstructAddRef@CComObjectRootBase@ATL@@QAEXXZ
_TEXT	SEGMENT PARA USE32 PUBLIC 'CODE'
_TEXT	ENDS
;	COMDAT ?SetVoid@CComObjectRootBase@ATL@@QAEXPAX@Z
_TEXT	SEGMENT PARA USE32 PUBLIC 'CODE'
_TEXT	ENDS
;	COMDAT ??0?$CComObject@V?$CComEnum@UIEnumUnknown@@$1?_GUID_00000100_0000_0000_c000_000000000046@@3U__s_GUID@@BPAUIUnknown@@V?$_CopyInterface@UIUnknown@@@ATL@@VCComSingleThreadModel@6@@ATL@@@ATL@@QAE@PAX@Z
_TEXT	SEGMENT PARA USE32 PUBLIC 'CODE'
_TEXT	ENDS
;	COMDAT ??0?$CComEnum@UIEnumUnknown@@$1?_GUID_00000100_0000_0000_c000_000000000046@@3U__s_GUID@@BPAUIUnknown@@V?$_CopyInterface@UIUnknown@@@ATL@@VCComSingleThreadModel@6@@ATL@@QAE@XZ
_TEXT	SEGMENT PARA USE32 PUBLIC 'CODE'
_TEXT	ENDS
;	COMDAT ??0?$CComEnumImpl@UIEnumUnknown@@$1?_GUID_00000100_0000_0000_c000_000000000046@@3U__s_GUID@@BPAUIUnknown@@V?$_CopyInterface@UIUnknown@@@ATL@@@ATL@@QAE@XZ
_TEXT	SEGMENT PARA USE32 PUBLIC 'CODE'
_TEXT	ENDS
;	COMDAT ??0IEnumUnknown@@QAE@XZ
_TEXT	SEGMENT PARA USE32 PUBLIC 'CODE'
_TEXT	ENDS
;	COMDAT ??0IUnknown@@QAE@XZ
_TEXT	SEGMENT PARA USE32 PUBLIC 'CODE'
_TEXT	ENDS
;	COMDAT ??1?$CComEnumImpl@UIEnumUnknown@@$1?_GUID_00000100_0000_0000_c000_000000000046@@3U__s_GUID@@BPAUIUnknown@@V?$_CopyInterface@UIUnknown@@@ATL@@@ATL@@UAE@XZ
_TEXT	SEGMENT PARA USE32 PUBLIC 'CODE'
_TEXT	ENDS
;	COMDAT ??0?$CComObjectRootEx@VCComSingleThreadModel@ATL@@@ATL@@QAE@XZ
_TEXT	SEGMENT PARA USE32 PUBLIC 'CODE'
_TEXT	ENDS
;	COMDAT ??0CComObjectRootBase@ATL@@QAE@XZ
_TEXT	SEGMENT PARA USE32 PUBLIC 'CODE'
_TEXT	ENDS
;	COMDAT ??1?$CComEnum@UIEnumUnknown@@$1?_GUID_00000100_0000_0000_c000_000000000046@@3U__s_GUID@@BPAUIUnknown@@V?$_CopyInterface@UIUnknown@@@ATL@@VCComSingleThreadModel@6@@ATL@@UAE@XZ
_TEXT	SEGMENT PARA USE32 PUBLIC 'CODE'
_TEXT	ENDS
;	COMDAT ??_7?$CComObject@V?$CComEnum@UIEnumUnknown@@$1?_GUID_00000100_0000_0000_c000_000000000046@@3U__s_GUID@@BPAUIUnknown@@V?$_CopyInterface@UIUnknown@@@ATL@@VCComSingleThreadModel@6@@ATL@@@ATL@@6B@
CONST	SEGMENT DWORD USE32 PUBLIC 'CONST'
CONST	ENDS
;	COMDAT ?QueryInterface@?$CComObject@V?$CComEnum@UIEnumUnknown@@$1?_GUID_00000100_0000_0000_c000_000000000046@@3U__s_GUID@@BPAUIUnknown@@V?$_CopyInterface@UIUnknown@@@ATL@@VCComSingleThreadModel@6@@ATL@@@ATL@@UAGJABU_GUID@@PAPAX@Z
_TEXT	SEGMENT PARA USE32 PUBLIC 'CODE'
_TEXT	ENDS
;	COMDAT ?_InternalQueryInterface@?$CComEnum@UIEnumUnknown@@$1?_GUID_00000100_0000_0000_c000_000000000046@@3U__s_GUID@@BPAUIUnknown@@V?$_CopyInterface@UIUnknown@@@ATL@@VCComSingleThreadModel@6@@ATL@@QAEJABU_GUID@@PAPAX@Z
_TEXT	SEGMENT PARA USE32 PUBLIC 'CODE'
_TEXT	ENDS
;	COMDAT ?_GetEntries@?$CComEnum@UIEnumUnknown@@$1?_GUID_00000100_0000_0000_c000_000000000046@@3U__s_GUID@@BPAUIUnknown@@V?$_CopyInterface@UIUnknown@@@ATL@@VCComSingleThreadModel@6@@ATL@@SGPBU_ATL_INTMAP_ENTRY@2@XZ
_TEXT	SEGMENT PARA USE32 PUBLIC 'CODE'
_TEXT	ENDS
;	COMDAT ??_C@_09BEHAHIFA@_CComEnum?$AA@
CONST	SEGMENT DWORD USE32 PUBLIC 'CONST'
CONST	ENDS
;	COMDAT __GUID_00000100_0000_0000_c000_000000000046
CONST	SEGMENT DWORD USE32 PUBLIC 'CONST'
CONST	ENDS
;	COMDAT ?_entries@?1??_GetEntries@?$CComEnum@UIEnumUnknown@@$1?_GUID_00000100_0000_0000_c000_000000000046@@3U__s_GUID@@BPAUIUnknown@@V?$_CopyInterface@UIUnknown@@@ATL@@VCComSingleThreadModel@6@@ATL@@SGPBU_ATL_INTMAP_ENTRY@3@XZ@4QBU43@B
CONST	SEGMENT DWORD USE32 PUBLIC 'CONST'
CONST	ENDS
;	COMDAT ?AddRef@?$CComObject@V?$CComEnum@UIEnumUnknown@@$1?_GUID_00000100_0000_0000_c000_000000000046@@3U__s_GUID@@BPAUIUnknown@@V?$_CopyInterface@UIUnknown@@@ATL@@VCComSingleThreadModel@6@@ATL@@@ATL@@UAGKXZ
_TEXT	SEGMENT PARA USE32 PUBLIC 'CODE'
_TEXT	ENDS
;	COMDAT ?Release@?$CComObject@V?$CComEnum@UIEnumUnknown@@$1?_GUID_00000100_0000_0000_c000_000000000046@@3U__s_GUID@@BPAUIUnknown@@V?$_CopyInterface@UIUnknown@@@ATL@@VCComSingleThreadModel@6@@ATL@@@ATL@@UAGKXZ
_TEXT	SEGMENT PARA USE32 PUBLIC 'CODE'
_TEXT	ENDS
;	COMDAT ?Next@?$CComEnumImpl@UIEnumUnknown@@$1?_GUID_00000100_0000_0000_c000_000000000046@@3U__s_GUID@@BPAUIUnknown@@V?$_CopyInterface@UIUnknown@@@ATL@@@ATL@@UAGJKPAPAUIUnknown@@PAK@Z
_TEXT	SEGMENT PARA USE32 PUBLIC 'CODE'
_TEXT	ENDS
;	COMDAT ?Skip@?$CComEnumImpl@UIEnumUnknown@@$1?_GUID_00000100_0000_0000_c000_000000000046@@3U__s_GUID@@BPAUIUnknown@@V?$_CopyInterface@UIUnknown@@@ATL@@@ATL@@UAGJK@Z
_TEXT	SEGMENT PARA USE32 PUBLIC 'CODE'
_TEXT	ENDS
;	COMDAT ?Reset@?$CComEnumImpl@UIEnumUnknown@@$1?_GUID_00000100_0000_0000_c000_000000000046@@3U__s_GUID@@BPAUIUnknown@@V?$_CopyInterface@UIUnknown@@@ATL@@@ATL@@UAGJXZ
_TEXT	SEGMENT PARA USE32 PUBLIC 'CODE'
_TEXT	ENDS
;	COMDAT ?Clone@?$CComEnumImpl@UIEnumUnknown@@$1?_GUID_00000100_0000_0000_c000_000000000046@@3U__s_GUID@@BPAUIUnknown@@V?$_CopyInterface@UIUnknown@@@ATL@@@ATL@@UAGJPAPAUIEnumUnknown@@@Z
_TEXT	SEGMENT PARA USE32 PUBLIC 'CODE'
_TEXT	ENDS
;	COMDAT ?Init@?$CComEnumImpl@UIEnumUnknown@@$1?_GUID_00000100_0000_0000_c000_000000000046@@3U__s_GUID@@BPAUIUnknown@@V?$_CopyInterface@UIUnknown@@@ATL@@@ATL@@QAEJPAPAUIUnknown@@0PAU3@W4CComEnumFlags@2@@Z
_TEXT	SEGMENT PARA USE32 PUBLIC 'CODE'
_TEXT	ENDS
;	COMDAT ??4?$CComPtr@UIUnknown@@@ATL@@QAEPAUIUnknown@@PAU2@@Z
_TEXT	SEGMENT PARA USE32 PUBLIC 'CODE'
_TEXT	ENDS
;	COMDAT ?AtlComPtrAssign@ATL@@YGPAUIUnknown@@PAPAU2@PAU2@@Z
_TEXT	SEGMENT PARA USE32 PUBLIC 'CODE'
_TEXT	ENDS
;	COMDAT ??B?$CComPtrBase@UIUnknown@@@ATL@@QBEPAUIUnknown@@XZ
_TEXT	SEGMENT PARA USE32 PUBLIC 'CODE'
_TEXT	ENDS
;	COMDAT ??0?$CComPtr@UIUnknown@@@ATL@@QAE@PAUIUnknown@@@Z
_TEXT	SEGMENT PARA USE32 PUBLIC 'CODE'
_TEXT	ENDS
;	COMDAT ??0?$CComPtrBase@UIUnknown@@@ATL@@IAE@PAUIUnknown@@@Z
_TEXT	SEGMENT PARA USE32 PUBLIC 'CODE'
_TEXT	ENDS
;	COMDAT ??1?$CComPtrBase@UIUnknown@@@ATL@@QAE@XZ
_TEXT	SEGMENT PARA USE32 PUBLIC 'CODE'
_TEXT	ENDS
;	COMDAT ??_G?$CComObject@V?$CComEnum@UIEnumUnknown@@$1?_GUID_00000100_0000_0000_c000_000000000046@@3U__s_GUID@@BPAUIUnknown@@V?$_CopyInterface@UIUnknown@@@ATL@@VCComSingleThreadModel@6@@ATL@@@ATL@@UAEPAXI@Z
_TEXT	SEGMENT PARA USE32 PUBLIC 'CODE'
_TEXT	ENDS
;	COMDAT ??1?$CComObject@V?$CComEnum@UIEnumUnknown@@$1?_GUID_00000100_0000_0000_c000_000000000046@@3U__s_GUID@@BPAUIUnknown@@V?$_CopyInterface@UIUnknown@@@ATL@@VCComSingleThreadModel@6@@ATL@@@ATL@@UAE@XZ
_TEXT	SEGMENT PARA USE32 PUBLIC 'CODE'
_TEXT	ENDS
;	COMDAT ?FinalRelease@CComObjectRootBase@ATL@@QAEXXZ
_TEXT	SEGMENT PARA USE32 PUBLIC 'CODE'
_TEXT	ENDS
;	COMDAT ?SetWindowLongPtrA@@YAJPAUHWND__@@HJ@Z
_TEXT	SEGMENT PARA USE32 PUBLIC 'CODE'
_TEXT	ENDS
;	COMDAT ?GetWNDPROC@CWndProcThunk@ATL@@QAEP6GJPAUHWND__@@IIJ@ZXZ
_TEXT	SEGMENT PARA USE32 PUBLIC 'CODE'
_TEXT	ENDS
;	COMDAT ?GetCodeAddress@CDynamicStdCallThunk@ATL@@QAEPAXXZ
_TEXT	SEGMENT PARA USE32 PUBLIC 'CODE'
_TEXT	ENDS
;	COMDAT ??_C@_06CIAHICCP@pThunk?$AA@
CONST	SEGMENT DWORD USE32 PUBLIC 'CONST'
CONST	ENDS
;	COMDAT ?GetCodeAddress@_stdcallthunk@ATL@@QAEPAXXZ
_TEXT	SEGMENT PARA USE32 PUBLIC 'CODE'
_TEXT	ENDS
;	COMDAT ?Init@CWndProcThunk@ATL@@QAEXP6GJPAUHWND__@@IIJ@ZPAX@Z
_TEXT	SEGMENT PARA USE32 PUBLIC 'CODE'
_TEXT	ENDS
;	COMDAT ?Init@CDynamicStdCallThunk@ATL@@QAEXKPAX@Z
_TEXT	SEGMENT PARA USE32 PUBLIC 'CODE'
_TEXT	ENDS
;	COMDAT ?Init@_stdcallthunk@ATL@@QAEXKPAX@Z
_TEXT	SEGMENT PARA USE32 PUBLIC 'CODE'
_TEXT	ENDS
;	COMDAT ?ExtractCreateWndData@CAtlWinModule@ATL@@QAEPAXXZ
_TEXT	SEGMENT PARA USE32 PUBLIC 'CODE'
_TEXT	ENDS
;	COMDAT ?Unlock@CComCriticalSection@ATL@@QAEJXZ
_TEXT	SEGMENT PARA USE32 PUBLIC 'CODE'
_TEXT	ENDS
;	COMDAT ??_C@_0FA@KBNNCCJL@C?3?2Program?5Files?2Microsoft?5Visua@
CONST	SEGMENT DWORD USE32 PUBLIC 'CONST'
CONST	ENDS
;	COMDAT ??_C@_09HIEJFN@m_bLocked?$AA@
CONST	SEGMENT DWORD USE32 PUBLIC 'CONST'
CONST	ENDS
;	COMDAT ?Empty@?$CSimpleStringT@D$0A@@ATL@@QAEXXZ
_TEXT	SEGMENT PARA USE32 PUBLIC 'CODE'
_TEXT	ENDS
;	COMDAT ?StringLength@?$CSimpleStringT@D$0A@@ATL@@SAHPBD@Z
_TEXT	SEGMENT PARA USE32 PUBLIC 'CODE'
_TEXT	ENDS
;	COMDAT ??_C@_0BF@CCFFBNDL@?$CI?$CIHRESULT?$CJ?$CIhr?$CJ?5?$DO?$DN?50?$CJ?$AA@
CONST	SEGMENT DWORD USE32 PUBLIC 'CONST'
CONST	ENDS
;	COMDAT ?Detach@?$CComPtrBase@UIUnknown@@@ATL@@QAEPAUIUnknown@@XZ
_TEXT	SEGMENT PARA USE32 PUBLIC 'CODE'
_TEXT	ENDS
;	COMDAT ??I?$CComPtrBase@UIUnknown@@@ATL@@QAEPAPAUIUnknown@@XZ
_TEXT	SEGMENT PARA USE32 PUBLIC 'CODE'
_TEXT	ENDS
;	COMDAT ??_C@_04DBLLIIGB@p?$DN?$DN0?$AA@
CONST	SEGMENT DWORD USE32 PUBLIC 'CONST'
CONST	ENDS
;	COMDAT ??C?$CComPtrBase@UIAxWinHostWindowLic@@@ATL@@QBEPAV?$_NoAddRefReleaseOnCComPtr@UIAxWinHostWindowLic@@@1@XZ
_TEXT	SEGMENT PARA USE32 PUBLIC 'CODE'
_TEXT	ENDS
;	COMDAT ??1?$CComPtr@UIUnknown@@@ATL@@QAE@XZ
_TEXT	SEGMENT PARA USE32 PUBLIC 'CODE'
_TEXT	ENDS
;	COMDAT ??0?$CComPtr@UIUnknown@@@ATL@@QAE@XZ
_TEXT	SEGMENT PARA USE32 PUBLIC 'CODE'
_TEXT	ENDS
;	COMDAT ??0?$CComPtrBase@UIUnknown@@@ATL@@IAE@XZ
_TEXT	SEGMENT PARA USE32 PUBLIC 'CODE'
_TEXT	ENDS
;	COMDAT _AtlAxCreateControlLicEx@32
_TEXT	SEGMENT PARA USE32 PUBLIC 'CODE'
_TEXT	ENDS
;	COMDAT ?CreateInstance@?$CComCreator@V?$CComPolyObject@VCAxHostWindow@ATL@@@ATL@@@ATL@@SGJPAXABU_GUID@@PAPAX@Z
_TEXT	SEGMENT PARA USE32 PUBLIC 'CODE'
_TEXT	ENDS
;	COMDAT ??_C@_08NEPKAPOI@ppv?5?$CB?$DN?50?$AA@
CONST	SEGMENT DWORD USE32 PUBLIC 'CONST'
CONST	ENDS
;	COMDAT ??0?$CComPolyObject@VCAxHostWindow@ATL@@@ATL@@QAE@PAX@Z
_TEXT	SEGMENT PARA USE32 PUBLIC 'CODE'
_TEXT	ENDS
;	COMDAT ??_7?$CComPolyObject@VCAxHostWindow@ATL@@@ATL@@6B@
CONST	SEGMENT DWORD USE32 PUBLIC 'CONST'
CONST	ENDS
;	COMDAT ?QueryInterface@?$CComPolyObject@VCAxHostWindow@ATL@@@ATL@@UAGJABU_GUID@@PAPAX@Z
_TEXT	SEGMENT PARA USE32 PUBLIC 'CODE'
_TEXT	ENDS
;	COMDAT ??_C@_0P@BMHEGBAP@ppvObject?5?$CB?$DN?50?$AA@
CONST	SEGMENT DWORD USE32 PUBLIC 'CONST'
CONST	ENDS
;	COMDAT ?InlineIsEqualUnknown@ATL@@YGHABU_GUID@@@Z
_TEXT	SEGMENT PARA USE32 PUBLIC 'CODE'
_TEXT	ENDS
;	COMDAT ?_InternalQueryInterface@CAxHostWindow@ATL@@QAEJABU_GUID@@PAPAX@Z
_TEXT	SEGMENT PARA USE32 PUBLIC 'CODE'
_TEXT	ENDS
;	COMDAT ?_GetEntries@CAxHostWindow@ATL@@SGPBU_ATL_INTMAP_ENTRY@2@XZ
_TEXT	SEGMENT PARA USE32 PUBLIC 'CODE'
_TEXT	ENDS
;	COMDAT ??_C@_0O@IEKIGPOE@CAxHostWindow?$AA@
CONST	SEGMENT DWORD USE32 PUBLIC 'CONST'
CONST	ENDS
;	COMDAT __GUID_00000118_0000_0000_c000_000000000046
CONST	SEGMENT DWORD USE32 PUBLIC 'CONST'
CONST	ENDS
;	COMDAT __GUID_922eada0_3424_11cf_b670_00aa004cd6d8
CONST	SEGMENT DWORD USE32 PUBLIC 'CONST'
CONST	ENDS
;	COMDAT __GUID_9c2cad80_3424_11cf_b670_00aa004cd6d8
CONST	SEGMENT DWORD USE32 PUBLIC 'CONST'
CONST	ENDS
;	COMDAT __GUID_00000119_0000_0000_c000_000000000046
CONST	SEGMENT DWORD USE32 PUBLIC 'CONST'
CONST	ENDS
;	COMDAT __GUID_00000114_0000_0000_c000_000000000046
CONST	SEGMENT DWORD USE32 PUBLIC 'CONST'
CONST	ENDS
;	COMDAT __GUID_b196b289_bab4_101a_b69c_00aa00341d07
CONST	SEGMENT DWORD USE32 PUBLIC 'CONST'
CONST	ENDS
;	COMDAT __GUID_0000011b_0000_0000_c000_000000000046
CONST	SEGMENT DWORD USE32 PUBLIC 'CONST'
CONST	ENDS
;	COMDAT __GUID_6d5140c1_7436_11ce_8034_00aa006009fa
CONST	SEGMENT DWORD USE32 PUBLIC 'CONST'
CONST	ENDS
;	COMDAT __GUID_b2d0778b_ac99_4c58_a5c8_e7724e5316b5
CONST	SEGMENT DWORD USE32 PUBLIC 'CONST'
CONST	ENDS
;	COMDAT __GUID_b6ea2051_048a_11d1_82b9_00c04fb9942e
CONST	SEGMENT DWORD USE32 PUBLIC 'CONST'
CONST	ENDS
;	COMDAT __GUID_bd3f23c0_d43e_11cf_893b_00aa00bdce1a
CONST	SEGMENT DWORD USE32 PUBLIC 'CONST'
CONST	ENDS
;	COMDAT __GUID_0000010f_0000_0000_c000_000000000046
CONST	SEGMENT DWORD USE32 PUBLIC 'CONST'
CONST	ENDS
;	COMDAT ?_entries@?1??_GetEntries@CAxHostWindow@ATL@@SGPBU_ATL_INTMAP_ENTRY@3@XZ@4QBU43@B
CONST	SEGMENT DWORD USE32 PUBLIC 'CONST'
CONST	ENDS
;	COMDAT ?AddRef@?$CComPolyObject@VCAxHostWindow@ATL@@@ATL@@UAGKXZ
_TEXT	SEGMENT PARA USE32 PUBLIC 'CODE'
_TEXT	ENDS
;	COMDAT ?Release@?$CComPolyObject@VCAxHostWindow@ATL@@@ATL@@UAGKXZ
_TEXT	SEGMENT PARA USE32 PUBLIC 'CODE'
_TEXT	ENDS
;	COMDAT ??_G?$CComPolyObject@VCAxHostWindow@ATL@@@ATL@@UAEPAXI@Z
_TEXT	SEGMENT PARA USE32 PUBLIC 'CODE'
_TEXT	ENDS
;	COMDAT ??1?$CComPolyObject@VCAxHostWindow@ATL@@@ATL@@UAE@XZ
_TEXT	SEGMENT PARA USE32 PUBLIC 'CODE'
_TEXT	ENDS
;	COMDAT ?FinalRelease@?$CComPolyObject@VCAxHostWindow@ATL@@@ATL@@QAEXXZ
_TEXT	SEGMENT PARA USE32 PUBLIC 'CODE'
_TEXT	ENDS
;	COMDAT ?FinalRelease@CAxHostWindow@ATL@@QAEXXZ
_TEXT	SEGMENT PARA USE32 PUBLIC 'CODE'
_TEXT	ENDS
;	COMDAT ?ReleaseAll@CAxHostWindow@ATL@@QAEXXZ
_TEXT	SEGMENT PARA USE32 PUBLIC 'CODE'
_TEXT	ENDS
;	COMDAT ??B?$CComPtrBase@UIViewObjectEx@@@ATL@@QBEPAUIViewObjectEx@@XZ
_TEXT	SEGMENT PARA USE32 PUBLIC 'CODE'
_TEXT	ENDS
;	COMDAT ??C?$CComPtrBase@UIViewObjectEx@@@ATL@@QBEPAV?$_NoAddRefReleaseOnCComPtr@UIViewObjectEx@@@1@XZ
_TEXT	SEGMENT PARA USE32 PUBLIC 'CODE'
_TEXT	ENDS
;	COMDAT ??B?$CComPtrBase@UIOleObject@@@ATL@@QBEPAUIOleObject@@XZ
_TEXT	SEGMENT PARA USE32 PUBLIC 'CODE'
_TEXT	ENDS
;	COMDAT ??C?$CComPtrBase@UIOleObject@@@ATL@@QBEPAV?$_NoAddRefReleaseOnCComPtr@UIOleObject@@@1@XZ
_TEXT	SEGMENT PARA USE32 PUBLIC 'CODE'
_TEXT	ENDS
;	COMDAT ??0?$CComPtr@UIObjectWithSite@@@ATL@@QAE@XZ
_TEXT	SEGMENT PARA USE32 PUBLIC 'CODE'
_TEXT	ENDS
;	COMDAT ??0?$CComPtrBase@UIObjectWithSite@@@ATL@@IAE@XZ
_TEXT	SEGMENT PARA USE32 PUBLIC 'CODE'
_TEXT	ENDS
;	COMDAT ??1?$CComPtrBase@UIObjectWithSite@@@ATL@@QAE@XZ
_TEXT	SEGMENT PARA USE32 PUBLIC 'CODE'
_TEXT	ENDS
;	COMDAT ??1?$CComPtr@UIObjectWithSite@@@ATL@@QAE@XZ
_TEXT	SEGMENT PARA USE32 PUBLIC 'CODE'
_TEXT	ENDS
;	COMDAT ??I?$CComPtrBase@UIObjectWithSite@@@ATL@@QAEPAPAUIObjectWithSite@@XZ
_TEXT	SEGMENT PARA USE32 PUBLIC 'CODE'
_TEXT	ENDS
;	COMDAT ??B?$CComPtrBase@UIObjectWithSite@@@ATL@@QBEPAUIObjectWithSite@@XZ
_TEXT	SEGMENT PARA USE32 PUBLIC 'CODE'
_TEXT	ENDS
;	COMDAT ??C?$CComPtrBase@UIObjectWithSite@@@ATL@@QBEPAV?$_NoAddRefReleaseOnCComPtr@UIObjectWithSite@@@1@XZ
_TEXT	SEGMENT PARA USE32 PUBLIC 'CODE'
_TEXT	ENDS
;	COMDAT ?Release@?$CComPtrBase@UIViewObjectEx@@@ATL@@QAEXXZ
_TEXT	SEGMENT PARA USE32 PUBLIC 'CODE'
_TEXT	ENDS
;	COMDAT ?Release@?$CComPtrBase@UIOleInPlaceObjectWindowless@@@ATL@@QAEXXZ
_TEXT	SEGMENT PARA USE32 PUBLIC 'CODE'
_TEXT	ENDS
;	COMDAT ?Release@?$CComPtrBase@UIOleObject@@@ATL@@QAEXXZ
_TEXT	SEGMENT PARA USE32 PUBLIC 'CODE'
_TEXT	ENDS
;	COMDAT ?Release@?$CComPtrBase@UIUnknown@@@ATL@@QAEXXZ
_TEXT	SEGMENT PARA USE32 PUBLIC 'CODE'
_TEXT	ENDS
;	COMDAT ?Release@?$CComPtrBase@UIOleInPlaceUIWindow@@@ATL@@QAEXXZ
_TEXT	SEGMENT PARA USE32 PUBLIC 'CODE'
_TEXT	ENDS
;	COMDAT ?Release@?$CComPtrBase@UIOleInPlaceFrame@@@ATL@@QAEXXZ
_TEXT	SEGMENT PARA USE32 PUBLIC 'CODE'
_TEXT	ENDS
;	COMDAT ??0?$CComContainedObject@VCAxHostWindow@ATL@@@ATL@@QAE@PAX@Z
_TEXT	SEGMENT PARA USE32 PUBLIC 'CODE'
_TEXT	ENDS
;	COMDAT ??0CAxHostWindow@ATL@@QAE@XZ
_TEXT	SEGMENT PARA USE32 PUBLIC 'CODE'
_TEXT	ENDS
;	COMDAT ??0?$CWindowImpl@VCAxHostWindow@ATL@@VCWindow@2@V?$CWinTraits@$0FGAAAAAA@$0A@@2@@ATL@@QAE@XZ
_TEXT	SEGMENT PARA USE32 PUBLIC 'CODE'
_TEXT	ENDS
;	COMDAT ??0?$CWindowImplBaseT@VCWindow@ATL@@V?$CWinTraits@$0FGAAAAAA@$0A@@2@@ATL@@QAE@XZ
_TEXT	SEGMENT PARA USE32 PUBLIC 'CODE'
_TEXT	ENDS
;	COMDAT ??1?$CWindowImplBaseT@VCWindow@ATL@@V?$CWinTraits@$0FGAAAAAA@$0A@@2@@ATL@@UAE@XZ
_TEXT	SEGMENT PARA USE32 PUBLIC 'CODE'
_TEXT	ENDS
;	COMDAT ??1?$CWindowImpl@VCAxHostWindow@ATL@@VCWindow@2@V?$CWinTraits@$0FGAAAAAA@$0A@@2@@ATL@@UAE@XZ
_TEXT	SEGMENT PARA USE32 PUBLIC 'CODE'
_TEXT	ENDS
;	COMDAT ??0IAxWinHostWindowLic@@QAE@XZ
_TEXT	SEGMENT PARA USE32 PUBLIC 'CODE'
_TEXT	ENDS
;	COMDAT ??0IAxWinHostWindow@@QAE@XZ
_TEXT	SEGMENT PARA USE32 PUBLIC 'CODE'
_TEXT	ENDS
;	COMDAT ??0IOleClientSite@@QAE@XZ
_TEXT	SEGMENT PARA USE32 PUBLIC 'CODE'
_TEXT	ENDS
;	COMDAT ??0IOleInPlaceSiteWindowless@@QAE@XZ
_TEXT	SEGMENT PARA USE32 PUBLIC 'CODE'
_TEXT	ENDS
;	COMDAT ??0IOleInPlaceSiteEx@@QAE@XZ
_TEXT	SEGMENT PARA USE32 PUBLIC 'CODE'
_TEXT	ENDS
;	COMDAT ??0IOleInPlaceSite@@QAE@XZ
_TEXT	SEGMENT PARA USE32 PUBLIC 'CODE'
_TEXT	ENDS
;	COMDAT ??0IOleWindow@@QAE@XZ
_TEXT	SEGMENT PARA USE32 PUBLIC 'CODE'
_TEXT	ENDS
;	COMDAT ??0IOleControlSite@@QAE@XZ
_TEXT	SEGMENT PARA USE32 PUBLIC 'CODE'
_TEXT	ENDS
;	COMDAT ??0IOleContainer@@QAE@XZ
_TEXT	SEGMENT PARA USE32 PUBLIC 'CODE'
_TEXT	ENDS
;	COMDAT ??0IParseDisplayName@@QAE@XZ
_TEXT	SEGMENT PARA USE32 PUBLIC 'CODE'
_TEXT	ENDS
;	COMDAT ??0?$IObjectWithSiteImpl@VCAxHostWindow@ATL@@@ATL@@QAE@XZ
_TEXT	SEGMENT PARA USE32 PUBLIC 'CODE'
_TEXT	ENDS
;	COMDAT ??0IObjectWithSite@@QAE@XZ
_TEXT	SEGMENT PARA USE32 PUBLIC 'CODE'
_TEXT	ENDS
;	COMDAT ??1?$IObjectWithSiteImpl@VCAxHostWindow@ATL@@@ATL@@UAE@XZ
_TEXT	SEGMENT PARA USE32 PUBLIC 'CODE'
_TEXT	ENDS
;	COMDAT ??0IServiceProvider@@QAE@XZ
_TEXT	SEGMENT PARA USE32 PUBLIC 'CODE'
_TEXT	ENDS
;	COMDAT ??0IAdviseSink@@QAE@XZ
_TEXT	SEGMENT PARA USE32 PUBLIC 'CODE'
_TEXT	ENDS
;	COMDAT ??0IDocHostUIHandler@@QAE@XZ
_TEXT	SEGMENT PARA USE32 PUBLIC 'CODE'
_TEXT	ENDS
;	COMDAT ??0?$IDispatchImpl@UIAxWinAmbientDispatchEx@@$1?_GUID_b2d0778b_ac99_4c58_a5c8_e7724e5316b5@@3U__s_GUID@@B$1?m_libid@CAtlModule@ATL@@2U_GUID@@A$0PPPP@$0PPPP@VCComTypeInfoHolder@ATL@@@ATL@@QAE@XZ
_TEXT	SEGMENT PARA USE32 PUBLIC 'CODE'
_TEXT	ENDS
;	COMDAT ??0IAxWinAmbientDispatchEx@@QAE@XZ
_TEXT	SEGMENT PARA USE32 PUBLIC 'CODE'
_TEXT	ENDS
;	COMDAT ??0IAxWinAmbientDispatch@@QAE@XZ
_TEXT	SEGMENT PARA USE32 PUBLIC 'CODE'
_TEXT	ENDS
;	COMDAT ??0IDispatch@@QAE@XZ
_TEXT	SEGMENT PARA USE32 PUBLIC 'CODE'
_TEXT	ENDS
;	COMDAT ??0?$CComPtr@UIOleObject@@@ATL@@QAE@XZ
_TEXT	SEGMENT PARA USE32 PUBLIC 'CODE'
_TEXT	ENDS
;	COMDAT ??0?$CComPtrBase@UIOleObject@@@ATL@@IAE@XZ
_TEXT	SEGMENT PARA USE32 PUBLIC 'CODE'
_TEXT	ENDS
;	COMDAT ??1?$CComPtrBase@UIOleObject@@@ATL@@QAE@XZ
_TEXT	SEGMENT PARA USE32 PUBLIC 'CODE'
_TEXT	ENDS
;	COMDAT ??1?$CComPtr@UIOleObject@@@ATL@@QAE@XZ
_TEXT	SEGMENT PARA USE32 PUBLIC 'CODE'
_TEXT	ENDS
;	COMDAT ??0?$CComPtr@UIOleInPlaceFrame@@@ATL@@QAE@XZ
_TEXT	SEGMENT PARA USE32 PUBLIC 'CODE'
_TEXT	ENDS
;	COMDAT ??0?$CComPtrBase@UIOleInPlaceFrame@@@ATL@@IAE@XZ
_TEXT	SEGMENT PARA USE32 PUBLIC 'CODE'
_TEXT	ENDS
;	COMDAT ??1?$CComPtrBase@UIOleInPlaceFrame@@@ATL@@QAE@XZ
_TEXT	SEGMENT PARA USE32 PUBLIC 'CODE'
_TEXT	ENDS
;	COMDAT ??1?$CComPtr@UIOleInPlaceFrame@@@ATL@@QAE@XZ
_TEXT	SEGMENT PARA USE32 PUBLIC 'CODE'
_TEXT	ENDS
;	COMDAT ??0?$CComPtr@UIOleInPlaceUIWindow@@@ATL@@QAE@XZ
_TEXT	SEGMENT PARA USE32 PUBLIC 'CODE'
_TEXT	ENDS
;	COMDAT ??0?$CComPtrBase@UIOleInPlaceUIWindow@@@ATL@@IAE@XZ
_TEXT	SEGMENT PARA USE32 PUBLIC 'CODE'
_TEXT	ENDS
;	COMDAT ??1?$CComPtrBase@UIOleInPlaceUIWindow@@@ATL@@QAE@XZ
_TEXT	SEGMENT PARA USE32 PUBLIC 'CODE'
_TEXT	ENDS
;	COMDAT ??1?$CComPtr@UIOleInPlaceUIWindow@@@ATL@@QAE@XZ
_TEXT	SEGMENT PARA USE32 PUBLIC 'CODE'
_TEXT	ENDS
;	COMDAT ??0?$CComPtr@UIViewObjectEx@@@ATL@@QAE@XZ
_TEXT	SEGMENT PARA USE32 PUBLIC 'CODE'
_TEXT	ENDS
;	COMDAT ??0?$CComPtrBase@UIViewObjectEx@@@ATL@@IAE@XZ
_TEXT	SEGMENT PARA USE32 PUBLIC 'CODE'
_TEXT	ENDS
;	COMDAT ??1?$CComPtrBase@UIViewObjectEx@@@ATL@@QAE@XZ
_TEXT	SEGMENT PARA USE32 PUBLIC 'CODE'
_TEXT	ENDS
;	COMDAT ??1?$CComPtr@UIViewObjectEx@@@ATL@@QAE@XZ
_TEXT	SEGMENT PARA USE32 PUBLIC 'CODE'
_TEXT	ENDS
;	COMDAT ??0?$CComPtr@UIOleInPlaceObjectWindowless@@@ATL@@QAE@XZ
_TEXT	SEGMENT PARA USE32 PUBLIC 'CODE'
_TEXT	ENDS
;	COMDAT ??0?$CComPtrBase@UIOleInPlaceObjectWindowless@@@ATL@@IAE@XZ
_TEXT	SEGMENT PARA USE32 PUBLIC 'CODE'
_TEXT	ENDS
;	COMDAT ??1?$CComPtrBase@UIOleInPlaceObjectWindowless@@@ATL@@QAE@XZ
_TEXT	SEGMENT PARA USE32 PUBLIC 'CODE'
_TEXT	ENDS
;	COMDAT ??1?$CComPtr@UIOleInPlaceObjectWindowless@@@ATL@@QAE@XZ
_TEXT	SEGMENT PARA USE32 PUBLIC 'CODE'
_TEXT	ENDS
;	COMDAT ??0?$CComPtr@UIDispatch@@@ATL@@QAE@XZ
_TEXT	SEGMENT PARA USE32 PUBLIC 'CODE'
_TEXT	ENDS
;	COMDAT ??0?$CComPtrBase@UIDispatch@@@ATL@@IAE@XZ
_TEXT	SEGMENT PARA USE32 PUBLIC 'CODE'
_TEXT	ENDS
;	COMDAT ??1?$CComPtrBase@UIDispatch@@@ATL@@QAE@XZ
_TEXT	SEGMENT PARA USE32 PUBLIC 'CODE'
_TEXT	ENDS
;	COMDAT ??1?$CComPtr@UIDispatch@@@ATL@@QAE@XZ
_TEXT	SEGMENT PARA USE32 PUBLIC 'CODE'
_TEXT	ENDS
;	COMDAT ??0?$CComPtr@UIDocHostUIHandlerDispatch@@@ATL@@QAE@XZ
_TEXT	SEGMENT PARA USE32 PUBLIC 'CODE'
_TEXT	ENDS
;	COMDAT ??0?$CComPtrBase@UIDocHostUIHandlerDispatch@@@ATL@@IAE@XZ
_TEXT	SEGMENT PARA USE32 PUBLIC 'CODE'
_TEXT	ENDS
;	COMDAT ??1?$CComPtrBase@UIDocHostUIHandlerDispatch@@@ATL@@QAE@XZ
_TEXT	SEGMENT PARA USE32 PUBLIC 'CODE'
_TEXT	ENDS
;	COMDAT ??1?$CComPtr@UIDocHostUIHandlerDispatch@@@ATL@@QAE@XZ
_TEXT	SEGMENT PARA USE32 PUBLIC 'CODE'
_TEXT	ENDS
;	COMDAT ??0?$CComPtr@UIFontDisp@@@ATL@@QAE@XZ
_TEXT	SEGMENT PARA USE32 PUBLIC 'CODE'
_TEXT	ENDS
;	COMDAT ??0?$CComPtrBase@UIFontDisp@@@ATL@@IAE@XZ
_TEXT	SEGMENT PARA USE32 PUBLIC 'CODE'
_TEXT	ENDS
;	COMDAT ??1?$CComPtrBase@UIFontDisp@@@ATL@@QAE@XZ
_TEXT	SEGMENT PARA USE32 PUBLIC 'CODE'
_TEXT	ENDS
;	COMDAT ??1?$CComPtr@UIFontDisp@@@ATL@@QAE@XZ
_TEXT	SEGMENT PARA USE32 PUBLIC 'CODE'
_TEXT	ENDS
;	COMDAT ??0?$CComPtr@UIServiceProvider@@@ATL@@QAE@XZ
_TEXT	SEGMENT PARA USE32 PUBLIC 'CODE'
_TEXT	ENDS
;	COMDAT ??0?$CComPtrBase@UIServiceProvider@@@ATL@@IAE@XZ
_TEXT	SEGMENT PARA USE32 PUBLIC 'CODE'
_TEXT	ENDS
;	COMDAT ??1?$CComPtrBase@UIServiceProvider@@@ATL@@QAE@XZ
_TEXT	SEGMENT PARA USE32 PUBLIC 'CODE'
_TEXT	ENDS
;	COMDAT ??1?$CComPtr@UIServiceProvider@@@ATL@@QAE@XZ
_TEXT	SEGMENT PARA USE32 PUBLIC 'CODE'
_TEXT	ENDS
;	COMDAT ??1CAxHostWindow@ATL@@UAE@XZ
_TEXT	SEGMENT PARA USE32 PUBLIC 'CODE'
_TEXT	ENDS
;	COMDAT ??_7?$CComContainedObject@VCAxHostWindow@ATL@@@ATL@@6B?$CWindowImpl@VCAxHostWindow@ATL@@VCWindow@2@V?$CWinTraits@$0FGAAAAAA@$0A@@2@@1@@
CONST	SEGMENT DWORD USE32 PUBLIC 'CONST'
CONST	ENDS
;	COMDAT ?ProcessWindowMessage@CAxHostWindow@ATL@@UAEHPAUHWND__@@IIJAAJK@Z
_TEXT	SEGMENT PARA USE32 PUBLIC 'CODE'
_TEXT	ENDS
;	COMDAT ?OnEraseBackground@CAxHostWindow@ATL@@QAEJIIJAAH@Z
_TEXT	SEGMENT PARA USE32 PUBLIC 'CODE'
_TEXT	ENDS
;	COMDAT ??8?$CComPtrBase@UIViewObjectEx@@@ATL@@QBE_NPAUIViewObjectEx@@@Z
_TEXT	SEGMENT PARA USE32 PUBLIC 'CODE'
_TEXT	ENDS
;	COMDAT ?OnPaint@CAxHostWindow@ATL@@QAEJIIJAAH@Z
_TEXT	SEGMENT PARA USE32 PUBLIC 'CODE'
_TEXT	ENDS
;	COMDAT ?GetClientRect@CWindow@ATL@@QBEHPAUtagRECT@@@Z
_TEXT	SEGMENT PARA USE32 PUBLIC 'CODE'
_TEXT	ENDS
;	COMDAT ?OnSize@CAxHostWindow@ATL@@QAEJIIJAAH@Z
_TEXT	SEGMENT PARA USE32 PUBLIC 'CODE'
_TEXT	ENDS
;	COMDAT ?AtlPixelToHiMetric@ATL@@YGXPBUtagSIZE@@PAU2@@Z
_TEXT	SEGMENT PARA USE32 PUBLIC 'CODE'
_TEXT	ENDS
;	COMDAT ??_C@_0P@MGJHNDPC@hDCScreen?5?$CB?$DN?50?$AA@
CONST	SEGMENT DWORD USE32 PUBLIC 'CONST'
CONST	ENDS
;	COMDAT ??B?$CComPtrBase@UIOleInPlaceObjectWindowless@@@ATL@@QBEPAUIOleInPlaceObjectWindowless@@XZ
_TEXT	SEGMENT PARA USE32 PUBLIC 'CODE'
_TEXT	ENDS
;	COMDAT ??C?$CComPtrBase@UIOleInPlaceObjectWindowless@@@ATL@@QBEPAV?$_NoAddRefReleaseOnCComPtr@UIOleInPlaceObjectWindowless@@@1@XZ
_TEXT	SEGMENT PARA USE32 PUBLIC 'CODE'
_TEXT	ENDS
;	COMDAT ?OnMouseActivate@CAxHostWindow@ATL@@QAEJIIJAAH@Z
_TEXT	SEGMENT PARA USE32 PUBLIC 'CODE'
_TEXT	ENDS
;	COMDAT ??0?$CComPtr@UIOleClientSite@@@ATL@@QAE@XZ
_TEXT	SEGMENT PARA USE32 PUBLIC 'CODE'
_TEXT	ENDS
;	COMDAT ??0?$CComPtrBase@UIOleClientSite@@@ATL@@IAE@XZ
_TEXT	SEGMENT PARA USE32 PUBLIC 'CODE'
_TEXT	ENDS
;	COMDAT ??1?$CComPtrBase@UIOleClientSite@@@ATL@@QAE@XZ
_TEXT	SEGMENT PARA USE32 PUBLIC 'CODE'
_TEXT	ENDS
;	COMDAT ??1?$CComPtr@UIOleClientSite@@@ATL@@QAE@XZ
_TEXT	SEGMENT PARA USE32 PUBLIC 'CODE'
_TEXT	ENDS
;	COMDAT ??I?$CComPtrBase@UIOleClientSite@@@ATL@@QAEPAPAUIOleClientSite@@XZ
_TEXT	SEGMENT PARA USE32 PUBLIC 'CODE'
_TEXT	ENDS
;	COMDAT ??B?$CComPtrBase@UIOleClientSite@@@ATL@@QBEPAUIOleClientSite@@XZ
_TEXT	SEGMENT PARA USE32 PUBLIC 'CODE'
_TEXT	ENDS
;	COMDAT ?OnSetFocus@CAxHostWindow@ATL@@QAEJIIJAAH@Z
_TEXT	SEGMENT PARA USE32 PUBLIC 'CODE'
_TEXT	ENDS
;	COMDAT ?IsChild@CWindow@ATL@@QBEHPAUHWND__@@@Z
_TEXT	SEGMENT PARA USE32 PUBLIC 'CODE'
_TEXT	ENDS
;	COMDAT ?OnKillFocus@CAxHostWindow@ATL@@QAEJIIJAAH@Z
_TEXT	SEGMENT PARA USE32 PUBLIC 'CODE'
_TEXT	ENDS
;	COMDAT ?OnWindowlessMouseMessage@CAxHostWindow@ATL@@QAEJIIJAAH@Z
_TEXT	SEGMENT PARA USE32 PUBLIC 'CODE'
_TEXT	ENDS
;	COMDAT ?OnWindowMessage@CAxHostWindow@ATL@@QAEJIIJAAH@Z
_TEXT	SEGMENT PARA USE32 PUBLIC 'CODE'
_TEXT	ENDS
;	COMDAT ?OnDestroy@CAxHostWindow@ATL@@QAEJIIJAAH@Z
_TEXT	SEGMENT PARA USE32 PUBLIC 'CODE'
_TEXT	ENDS
;	COMDAT ?DefWindowProcA@?$CWindowImplBaseT@VCWindow@ATL@@V?$CWinTraits@$0FGAAAAAA@$0A@@2@@ATL@@QAEJIIJ@Z
_TEXT	SEGMENT PARA USE32 PUBLIC 'CODE'
_TEXT	ENDS
;	COMDAT ?ReflectNotifications@CAxHostWindow@ATL@@QAEJIIJAAH@Z
_TEXT	SEGMENT PARA USE32 PUBLIC 'CODE'
_TEXT	ENDS
;	COMDAT ?DefWindowProcA@?$CWindowImplBaseT@VCWindow@ATL@@V?$CWinTraits@$0FGAAAAAA@$0A@@2@@ATL@@QAEJXZ
_TEXT	SEGMENT PARA USE32 PUBLIC 'CODE'
_TEXT	ENDS
;	COMDAT ??_C@_0BG@FBJLDDEB@?3?3IsWindow?$CIhWndChild?$CJ?$AA@
CONST	SEGMENT DWORD USE32 PUBLIC 'CONST'
CONST	ENDS
;	COMDAT ?OnGetUnknown@CAxHostWindow@ATL@@QAEJIIJAAH@Z
_TEXT	SEGMENT PARA USE32 PUBLIC 'CODE'
_TEXT	ENDS
;	COMDAT ?WM_ATLGETCONTROL@ATL@@3IA
_DATA	SEGMENT DWORD USE32 PUBLIC 'DATA'
_DATA	ENDS
;	COMDAT ?OnGetControl@CAxHostWindow@ATL@@QAEJIIJAAH@Z
_TEXT	SEGMENT PARA USE32 PUBLIC 'CODE'
_TEXT	ENDS
;	COMDAT ?OnForwardMsg@CAxHostWindow@ATL@@QAEJIIJAAH@Z
_TEXT	SEGMENT PARA USE32 PUBLIC 'CODE'
_TEXT	ENDS
;	COMDAT ??_C@_0M@NJNLJPMN@lParam?5?$CB?$DN?50?$AA@
CONST	SEGMENT DWORD USE32 PUBLIC 'CONST'
CONST	ENDS
;	COMDAT ??0?$CComQIPtr@UIOleInPlaceActiveObject@@$1?_GUID_00000117_0000_0000_c000_000000000046@@3U__s_GUID@@B@ATL@@QAE@PAUIUnknown@@@Z
_TEXT	SEGMENT PARA USE32 PUBLIC 'CODE'
_TEXT	ENDS
;	COMDAT ??0?$CComPtr@UIOleInPlaceActiveObject@@@ATL@@QAE@XZ
_TEXT	SEGMENT PARA USE32 PUBLIC 'CODE'
_TEXT	ENDS
;	COMDAT ??0?$CComPtrBase@UIOleInPlaceActiveObject@@@ATL@@IAE@XZ
_TEXT	SEGMENT PARA USE32 PUBLIC 'CODE'
_TEXT	ENDS
;	COMDAT ??1?$CComPtrBase@UIOleInPlaceActiveObject@@@ATL@@QAE@XZ
_TEXT	SEGMENT PARA USE32 PUBLIC 'CODE'
_TEXT	ENDS
;	COMDAT ??1?$CComPtr@UIOleInPlaceActiveObject@@@ATL@@QAE@XZ
_TEXT	SEGMENT PARA USE32 PUBLIC 'CODE'
_TEXT	ENDS
;	COMDAT __GUID_00000117_0000_0000_c000_000000000046
CONST	SEGMENT DWORD USE32 PUBLIC 'CONST'
CONST	ENDS
;	COMDAT ??1?$CComQIPtr@UIOleInPlaceActiveObject@@$1?_GUID_00000117_0000_0000_c000_000000000046@@3U__s_GUID@@B@ATL@@QAE@XZ
_TEXT	SEGMENT PARA USE32 PUBLIC 'CODE'
_TEXT	ENDS
;	COMDAT ??B?$CComPtrBase@UIOleInPlaceActiveObject@@@ATL@@QBEPAUIOleInPlaceActiveObject@@XZ
_TEXT	SEGMENT PARA USE32 PUBLIC 'CODE'
_TEXT	ENDS
;	COMDAT ??C?$CComPtrBase@UIOleInPlaceActiveObject@@@ATL@@QBEPAV?$_NoAddRefReleaseOnCComPtr@UIOleInPlaceActiveObject@@@1@XZ
_TEXT	SEGMENT PARA USE32 PUBLIC 'CODE'
_TEXT	ENDS
;	COMDAT ??_G?$CComContainedObject@VCAxHostWindow@ATL@@@ATL@@UAEPAXI@Z
_TEXT	SEGMENT PARA USE32 PUBLIC 'CODE'
_TEXT	ENDS
;	COMDAT ?GetWindowProc@?$CWindowImplBaseT@VCWindow@ATL@@V?$CWinTraits@$0FGAAAAAA@$0A@@2@@ATL@@UAEP6GJPAUHWND__@@IIJ@ZXZ
_TEXT	SEGMENT PARA USE32 PUBLIC 'CODE'
_TEXT	ENDS
;	COMDAT ?WindowProc@?$CWindowImplBaseT@VCWindow@ATL@@V?$CWinTraits@$0FGAAAAAA@$0A@@2@@ATL@@SGJPAUHWND__@@IIJ@Z
_TEXT	SEGMENT PARA USE32 PUBLIC 'CODE'
_TEXT	ENDS
;	COMDAT ?GetWindowLongPtrA@@YAJPAUHWND__@@H@Z
_TEXT	SEGMENT PARA USE32 PUBLIC 'CODE'
_TEXT	ENDS
;	COMDAT ?OnFinalMessage@CAxHostWindow@ATL@@UAEXPAUHWND__@@@Z
_TEXT	SEGMENT PARA USE32 PUBLIC 'CODE'
_TEXT	ENDS
;	COMDAT ?GetControllingUnknown@?$CComContainedObject@VCAxHostWindow@ATL@@@ATL@@UAEPAUIUnknown@@XZ
_TEXT	SEGMENT PARA USE32 PUBLIC 'CODE'
_TEXT	ENDS
;	COMDAT ??_7?$CComContainedObject@VCAxHostWindow@ATL@@@ATL@@6BIAxWinHostWindowLic@@@
CONST	SEGMENT DWORD USE32 PUBLIC 'CONST'
CONST	ENDS
;	COMDAT ?QueryInterface@?$CComContainedObject@VCAxHostWindow@ATL@@@ATL@@UAGJABU_GUID@@PAPAX@Z
_TEXT	SEGMENT PARA USE32 PUBLIC 'CODE'
_TEXT	ENDS
;	COMDAT ?OuterQueryInterface@CComObjectRootBase@ATL@@QAEJABU_GUID@@PAPAX@Z
_TEXT	SEGMENT PARA USE32 PUBLIC 'CODE'
_TEXT	ENDS
;	COMDAT ?AddRef@?$CComContainedObject@VCAxHostWindow@ATL@@@ATL@@UAGKXZ
_TEXT	SEGMENT PARA USE32 PUBLIC 'CODE'
_TEXT	ENDS
;	COMDAT ?OuterAddRef@CComObjectRootBase@ATL@@QAEKXZ
_TEXT	SEGMENT PARA USE32 PUBLIC 'CODE'
_TEXT	ENDS
;	COMDAT ?Release@?$CComContainedObject@VCAxHostWindow@ATL@@@ATL@@UAGKXZ
_TEXT	SEGMENT PARA USE32 PUBLIC 'CODE'
_TEXT	ENDS
;	COMDAT ?OuterRelease@CComObjectRootBase@ATL@@QAEKXZ
_TEXT	SEGMENT PARA USE32 PUBLIC 'CODE'
_TEXT	ENDS
;	COMDAT ?CreateControl@CAxHostWindow@ATL@@UAGJPBGPAUHWND__@@PAUIStream@@@Z
_TEXT	SEGMENT PARA USE32 PUBLIC 'CODE'
_TEXT	ENDS
;	COMDAT ?CreateControlEx@CAxHostWindow@ATL@@UAGJPBGPAUHWND__@@PAUIStream@@PAPAUIUnknown@@ABU_GUID@@PAU5@@Z
_TEXT	SEGMENT PARA USE32 PUBLIC 'CODE'
_TEXT	ENDS
;	COMDAT ?AttachControl@CAxHostWindow@ATL@@UAGJPAUIUnknown@@PAUHWND__@@@Z
_TEXT	SEGMENT PARA USE32 PUBLIC 'CODE'
_TEXT	ENDS
;	COMDAT ?SubclassWindow@CAxHostWindow@ATL@@QAEXPAUHWND__@@@Z
_TEXT	SEGMENT PARA USE32 PUBLIC 'CODE'
_TEXT	ENDS
;	COMDAT ?SubclassWindow@?$CWindowImplBaseT@VCWindow@ATL@@V?$CWinTraits@$0FGAAAAAA@$0A@@2@@ATL@@QAEHPAUHWND__@@@Z
_TEXT	SEGMENT PARA USE32 PUBLIC 'CODE'
_TEXT	ENDS
;	COMDAT ?ActivateAx@CAxHostWindow@ATL@@QAEJPAUIUnknown@@_NPAUIStream@@@Z
_TEXT	SEGMENT PARA USE32 PUBLIC 'CODE'
_TEXT	ENDS
;	COMDAT ??I?$CComPtrBase@UIOleObject@@@ATL@@QAEPAPAUIOleObject@@XZ
_TEXT	SEGMENT PARA USE32 PUBLIC 'CODE'
_TEXT	ENDS
;	COMDAT __GUID_00000112_0000_0000_c000_000000000046
CONST	SEGMENT DWORD USE32 PUBLIC 'CONST'
CONST	ENDS
;	COMDAT ??0?$CComQIPtr@UIPersistStreamInit@@$1?_GUID_7fd52380_4e07_101b_ae2d_08002b2ec713@@3U__s_GUID@@B@ATL@@QAE@PAUIUnknown@@@Z
_TEXT	SEGMENT PARA USE32 PUBLIC 'CODE'
_TEXT	ENDS
;	COMDAT ??0?$CComPtr@UIPersistStreamInit@@@ATL@@QAE@XZ
_TEXT	SEGMENT PARA USE32 PUBLIC 'CODE'
_TEXT	ENDS
;	COMDAT ??0?$CComPtrBase@UIPersistStreamInit@@@ATL@@IAE@XZ
_TEXT	SEGMENT PARA USE32 PUBLIC 'CODE'
_TEXT	ENDS
;	COMDAT ??1?$CComPtrBase@UIPersistStreamInit@@@ATL@@QAE@XZ
_TEXT	SEGMENT PARA USE32 PUBLIC 'CODE'
_TEXT	ENDS
;	COMDAT ??1?$CComPtr@UIPersistStreamInit@@@ATL@@QAE@XZ
_TEXT	SEGMENT PARA USE32 PUBLIC 'CODE'
_TEXT	ENDS
;	COMDAT __GUID_7fd52380_4e07_101b_ae2d_08002b2ec713
CONST	SEGMENT DWORD USE32 PUBLIC 'CONST'
CONST	ENDS
;	COMDAT ??1?$CComQIPtr@UIPersistStreamInit@@$1?_GUID_7fd52380_4e07_101b_ae2d_08002b2ec713@@3U__s_GUID@@B@ATL@@QAE@XZ
_TEXT	SEGMENT PARA USE32 PUBLIC 'CODE'
_TEXT	ENDS
;	COMDAT ??B?$CComPtrBase@UIPersistStreamInit@@@ATL@@QBEPAUIPersistStreamInit@@XZ
_TEXT	SEGMENT PARA USE32 PUBLIC 'CODE'
_TEXT	ENDS
;	COMDAT ??C?$CComPtrBase@UIPersistStreamInit@@@ATL@@QBEPAV?$_NoAddRefReleaseOnCComPtr@UIPersistStreamInit@@@1@XZ
_TEXT	SEGMENT PARA USE32 PUBLIC 'CODE'
_TEXT	ENDS
;	COMDAT ??0?$CComQIPtr@UIPersistStream@@$1?_GUID_00000109_0000_0000_c000_000000000046@@3U__s_GUID@@B@ATL@@QAE@PAUIUnknown@@@Z
_TEXT	SEGMENT PARA USE32 PUBLIC 'CODE'
_TEXT	ENDS
;	COMDAT ??0?$CComPtr@UIPersistStream@@@ATL@@QAE@XZ
_TEXT	SEGMENT PARA USE32 PUBLIC 'CODE'
_TEXT	ENDS
;	COMDAT ??0?$CComPtrBase@UIPersistStream@@@ATL@@IAE@XZ
_TEXT	SEGMENT PARA USE32 PUBLIC 'CODE'
_TEXT	ENDS
;	COMDAT ??1?$CComPtrBase@UIPersistStream@@@ATL@@QAE@XZ
_TEXT	SEGMENT PARA USE32 PUBLIC 'CODE'
_TEXT	ENDS
;	COMDAT ??1?$CComPtr@UIPersistStream@@@ATL@@QAE@XZ
_TEXT	SEGMENT PARA USE32 PUBLIC 'CODE'
_TEXT	ENDS
;	COMDAT __GUID_00000109_0000_0000_c000_000000000046
CONST	SEGMENT DWORD USE32 PUBLIC 'CONST'
CONST	ENDS
;	COMDAT ??1?$CComQIPtr@UIPersistStream@@$1?_GUID_00000109_0000_0000_c000_000000000046@@3U__s_GUID@@B@ATL@@QAE@XZ
_TEXT	SEGMENT PARA USE32 PUBLIC 'CODE'
_TEXT	ENDS
;	COMDAT ??B?$CComPtrBase@UIPersistStream@@@ATL@@QBEPAUIPersistStream@@XZ
_TEXT	SEGMENT PARA USE32 PUBLIC 'CODE'
_TEXT	ENDS
;	COMDAT ??C?$CComPtrBase@UIPersistStream@@@ATL@@QBEPAV?$_NoAddRefReleaseOnCComPtr@UIPersistStream@@@1@XZ
_TEXT	SEGMENT PARA USE32 PUBLIC 'CODE'
_TEXT	ENDS
;	COMDAT __GUID_3af24292_0c96_11ce_a0cf_00aa00600ab8
CONST	SEGMENT DWORD USE32 PUBLIC 'CONST'
CONST	ENDS
;	COMDAT __GUID_00000127_0000_0000_c000_000000000046
CONST	SEGMENT DWORD USE32 PUBLIC 'CONST'
CONST	ENDS
;	COMDAT ??I?$CComPtrBase@UIViewObjectEx@@@ATL@@QAEPAPAUIViewObjectEx@@XZ
_TEXT	SEGMENT PARA USE32 PUBLIC 'CODE'
_TEXT	ENDS
;	COMDAT __GUID_0000010d_0000_0000_c000_000000000046
CONST	SEGMENT DWORD USE32 PUBLIC 'CONST'
CONST	ENDS
;	COMDAT ??0?$CComQIPtr@UIAdviseSink@@$1?_GUID_0000010f_0000_0000_c000_000000000046@@3U__s_GUID@@B@ATL@@QAE@PAUIUnknown@@@Z
_TEXT	SEGMENT PARA USE32 PUBLIC 'CODE'
_TEXT	ENDS
;	COMDAT ??0?$CComPtr@UIAdviseSink@@@ATL@@QAE@XZ
_TEXT	SEGMENT PARA USE32 PUBLIC 'CODE'
_TEXT	ENDS
;	COMDAT ??0?$CComPtrBase@UIAdviseSink@@@ATL@@IAE@XZ
_TEXT	SEGMENT PARA USE32 PUBLIC 'CODE'
_TEXT	ENDS
;	COMDAT ??1?$CComPtrBase@UIAdviseSink@@@ATL@@QAE@XZ
_TEXT	SEGMENT PARA USE32 PUBLIC 'CODE'
_TEXT	ENDS
;	COMDAT ??1?$CComPtr@UIAdviseSink@@@ATL@@QAE@XZ
_TEXT	SEGMENT PARA USE32 PUBLIC 'CODE'
_TEXT	ENDS
;	COMDAT ??1?$CComQIPtr@UIAdviseSink@@$1?_GUID_0000010f_0000_0000_c000_000000000046@@3U__s_GUID@@B@ATL@@QAE@XZ
_TEXT	SEGMENT PARA USE32 PUBLIC 'CODE'
_TEXT	ENDS
;	COMDAT ??B?$CComPtrBase@UIAdviseSink@@@ATL@@QBEPAUIAdviseSink@@XZ
_TEXT	SEGMENT PARA USE32 PUBLIC 'CODE'
_TEXT	ENDS
;	COMDAT ??_C@_1M@IJFAIKMG@?$AAA?$AAX?$AAW?$AAI?$AAN?$AA?$AA@
CONST	SEGMENT DWORD USE32 PUBLIC 'CONST'
CONST	ENDS
;	COMDAT ?AtlHiMetricToPixel@ATL@@YGXPBUtagSIZE@@PAU2@@Z
_TEXT	SEGMENT PARA USE32 PUBLIC 'CODE'
_TEXT	ENDS
;	COMDAT ??0?$CComQIPtr@UIOleClientSite@@$1?_GUID_00000118_0000_0000_c000_000000000046@@3U__s_GUID@@B@ATL@@QAE@PAUIUnknown@@@Z
_TEXT	SEGMENT PARA USE32 PUBLIC 'CODE'
_TEXT	ENDS
;	COMDAT ??1?$CComQIPtr@UIOleClientSite@@$1?_GUID_00000118_0000_0000_c000_000000000046@@3U__s_GUID@@B@ATL@@QAE@XZ
_TEXT	SEGMENT PARA USE32 PUBLIC 'CODE'
_TEXT	ENDS
;	COMDAT ?RedrawWindow@CWindow@ATL@@QAEHPBUtagRECT@@PAUHRGN__@@I@Z
_TEXT	SEGMENT PARA USE32 PUBLIC 'CODE'
_TEXT	ENDS
;	COMDAT ?ReleaseWindow@CAxHostWindow@ATL@@QAEXXZ
_TEXT	SEGMENT PARA USE32 PUBLIC 'CODE'
_TEXT	ENDS
;	COMDAT ?UnsubclassWindow@?$CWindowImplBaseT@VCWindow@ATL@@V?$CWinTraits@$0FGAAAAAA@$0A@@2@@ATL@@QAEPAUHWND__@@H@Z
_TEXT	SEGMENT PARA USE32 PUBLIC 'CODE'
_TEXT	ENDS
;	COMDAT ?DestroyWindow@?$CWindowImplBaseT@VCWindow@ATL@@V?$CWinTraits@$0FGAAAAAA@$0A@@2@@ATL@@QAEHXZ
_TEXT	SEGMENT PARA USE32 PUBLIC 'CODE'
_TEXT	ENDS
;	COMDAT ?QueryControl@CAxHostWindow@ATL@@UAGJABU_GUID@@PAPAX@Z
_TEXT	SEGMENT PARA USE32 PUBLIC 'CODE'
_TEXT	ENDS
;	COMDAT ?SetExternalDispatch@CAxHostWindow@ATL@@UAGJPAUIDispatch@@@Z
_TEXT	SEGMENT PARA USE32 PUBLIC 'CODE'
_TEXT	ENDS
;	COMDAT ??4?$CComPtr@UIDispatch@@@ATL@@QAEPAUIDispatch@@PAU2@@Z
_TEXT	SEGMENT PARA USE32 PUBLIC 'CODE'
_TEXT	ENDS
;	COMDAT ?SetExternalUIHandler@CAxHostWindow@ATL@@UAGJPAUIDocHostUIHandlerDispatch@@@Z
_TEXT	SEGMENT PARA USE32 PUBLIC 'CODE'
_TEXT	ENDS
;	COMDAT ??4?$CComPtr@UIDocHostUIHandlerDispatch@@@ATL@@QAEPAUIDocHostUIHandlerDispatch@@PAU2@@Z
_TEXT	SEGMENT PARA USE32 PUBLIC 'CODE'
_TEXT	ENDS
;	COMDAT ?CreateControlLic@CAxHostWindow@ATL@@UAGJPBGPAUHWND__@@PAUIStream@@PAG@Z
_TEXT	SEGMENT PARA USE32 PUBLIC 'CODE'
_TEXT	ENDS
;	COMDAT ?CreateControlLicEx@CAxHostWindow@ATL@@UAGJPBGPAUHWND__@@PAUIStream@@PAPAUIUnknown@@ABU_GUID@@PAU5@PAG@Z
_TEXT	SEGMENT PARA USE32 PUBLIC 'CODE'
_TEXT	ENDS
;	COMDAT ?IsParentDialog@CWindow@ATL@@QAEHXZ
_TEXT	SEGMENT PARA USE32 PUBLIC 'CODE'
_TEXT	ENDS
;	COMDAT ?GetParent@CWindow@ATL@@QBE?AV12@XZ
_TEXT	SEGMENT PARA USE32 PUBLIC 'CODE'
_TEXT	ENDS
;	COMDAT ??_C@_06FGFHJIJL@?$CD32770?$AA@
CONST	SEGMENT DWORD USE32 PUBLIC 'CONST'
CONST	ENDS
;	COMDAT __GUID_25336920_03f9_11cf_8fd0_00aa00686f13
CONST	SEGMENT DWORD USE32 PUBLIC 'CONST'
CONST	ENDS
;	COMDAT ?FindOneOf@CAtlModule@ATL@@SAPBDPBD0@Z
_TEXT	SEGMENT PARA USE32 PUBLIC 'CODE'
_TEXT	ENDS
;	COMDAT __GUID_8856f961_340a_11d0_a96b_00c04fd705a2
CONST	SEGMENT DWORD USE32 PUBLIC 'CONST'
CONST	ENDS
;	COMDAT ??0?$CComPtr@UIClassFactory2@@@ATL@@QAE@XZ
_TEXT	SEGMENT PARA USE32 PUBLIC 'CODE'
_TEXT	ENDS
;	COMDAT ??0?$CComPtrBase@UIClassFactory2@@@ATL@@IAE@XZ
_TEXT	SEGMENT PARA USE32 PUBLIC 'CODE'
_TEXT	ENDS
;	COMDAT ??1?$CComPtrBase@UIClassFactory2@@@ATL@@QAE@XZ
_TEXT	SEGMENT PARA USE32 PUBLIC 'CODE'
_TEXT	ENDS
;	COMDAT ??1?$CComPtr@UIClassFactory2@@@ATL@@QAE@XZ
_TEXT	SEGMENT PARA USE32 PUBLIC 'CODE'
_TEXT	ENDS
;	COMDAT ??I?$CComPtrBase@UIClassFactory2@@@ATL@@QAEPAPAUIClassFactory2@@XZ
_TEXT	SEGMENT PARA USE32 PUBLIC 'CODE'
_TEXT	ENDS
;	COMDAT __GUID_b196b28f_bab4_101a_b69c_00aa00341d07
CONST	SEGMENT DWORD USE32 PUBLIC 'CONST'
CONST	ENDS
;	COMDAT ??C?$CComPtrBase@UIClassFactory2@@@ATL@@QBEPAV?$_NoAddRefReleaseOnCComPtr@UIClassFactory2@@@1@XZ
_TEXT	SEGMENT PARA USE32 PUBLIC 'CODE'
_TEXT	ENDS
;	COMDAT ?GetStyle@CWindow@ATL@@QBEKXZ
_TEXT	SEGMENT PARA USE32 PUBLIC 'CODE'
_TEXT	ENDS
;	COMDAT ?SetWindowLongA@CWindow@ATL@@QAEJHJ@Z
_TEXT	SEGMENT PARA USE32 PUBLIC 'CODE'
_TEXT	ENDS
;	COMDAT ?ocslen@@YAHPBG@Z
_TEXT	SEGMENT PARA USE32 PUBLIC 'CODE'
_TEXT	ENDS
;	COMDAT ??I?$CComPtrBase@UIPersistStreamInit@@@ATL@@QAEPAPAUIPersistStreamInit@@XZ
_TEXT	SEGMENT PARA USE32 PUBLIC 'CODE'
_TEXT	ENDS
;	COMDAT ??0?$CComPtr@UIWebBrowser2@@@ATL@@QAE@XZ
_TEXT	SEGMENT PARA USE32 PUBLIC 'CODE'
_TEXT	ENDS
;	COMDAT ??0?$CComPtrBase@UIWebBrowser2@@@ATL@@IAE@XZ
_TEXT	SEGMENT PARA USE32 PUBLIC 'CODE'
_TEXT	ENDS
;	COMDAT ??1?$CComPtrBase@UIWebBrowser2@@@ATL@@QAE@XZ
_TEXT	SEGMENT PARA USE32 PUBLIC 'CODE'
_TEXT	ENDS
;	COMDAT ??1?$CComPtr@UIWebBrowser2@@@ATL@@QAE@XZ
_TEXT	SEGMENT PARA USE32 PUBLIC 'CODE'
_TEXT	ENDS
;	COMDAT ??I?$CComPtrBase@UIWebBrowser2@@@ATL@@QAEPAPAUIWebBrowser2@@XZ
_TEXT	SEGMENT PARA USE32 PUBLIC 'CODE'
_TEXT	ENDS
;	COMDAT __GUID_d30c1661_cdaf_11d0_8a3e_00c04fc9e26e
CONST	SEGMENT DWORD USE32 PUBLIC 'CONST'
CONST	ENDS
;	COMDAT ??B?$CComPtrBase@UIWebBrowser2@@@ATL@@QBEPAUIWebBrowser2@@XZ
_TEXT	SEGMENT PARA USE32 PUBLIC 'CODE'
_TEXT	ENDS
;	COMDAT ??0CComVariant@ATL@@QAE@XZ
_TEXT	SEGMENT PARA USE32 PUBLIC 'CODE'
_TEXT	ENDS
;	COMDAT ??0CComVariant@ATL@@QAE@PBG@Z
_TEXT	SEGMENT PARA USE32 PUBLIC 'CODE'
_TEXT	ENDS
;	COMDAT ??4CComVariant@ATL@@QAEAAV01@PBG@Z
_TEXT	SEGMENT PARA USE32 PUBLIC 'CODE'
_TEXT	ENDS
;	COMDAT ?Clear@CComVariant@ATL@@QAEJXZ
_TEXT	SEGMENT PARA USE32 PUBLIC 'CODE'
_TEXT	ENDS
;	COMDAT ??C?$CComPtrBase@UIWebBrowser2@@@ATL@@QBEPAV?$_NoAddRefReleaseOnCComPtr@UIWebBrowser2@@@1@XZ
_TEXT	SEGMENT PARA USE32 PUBLIC 'CODE'
_TEXT	ENDS
;	COMDAT ??8?$CComPtrBase@UIUnknown@@@ATL@@QBE_NPAUIUnknown@@@Z
_TEXT	SEGMENT PARA USE32 PUBLIC 'CODE'
_TEXT	ENDS
;	COMDAT ??_7?$CComContainedObject@VCAxHostWindow@ATL@@@ATL@@6BIOleClientSite@@@
CONST	SEGMENT DWORD USE32 PUBLIC 'CONST'
CONST	ENDS
;	COMDAT ?QueryInterface@?$CComContainedObject@VCAxHostWindow@ATL@@@ATL@@W3AGJABU_GUID@@PAPAX@Z
_TEXT	SEGMENT PARA USE32 PUBLIC 'CODE'
_TEXT	ENDS
;	COMDAT ?AddRef@?$CComContainedObject@VCAxHostWindow@ATL@@@ATL@@W3AGKXZ
_TEXT	SEGMENT PARA USE32 PUBLIC 'CODE'
_TEXT	ENDS
;	COMDAT ?Release@?$CComContainedObject@VCAxHostWindow@ATL@@@ATL@@W3AGKXZ
_TEXT	SEGMENT PARA USE32 PUBLIC 'CODE'
_TEXT	ENDS
;	COMDAT ?SaveObject@CAxHostWindow@ATL@@UAGJXZ
_TEXT	SEGMENT PARA USE32 PUBLIC 'CODE'
_TEXT	ENDS
;	COMDAT ??_C@_0BL@CNPLMFBE@IOleClientSite?3?3SaveObject?$AA@
CONST	SEGMENT DWORD USE32 PUBLIC 'CONST'
CONST	ENDS
;	COMDAT ??_C@_0BK@HFBNDALM@ATL?3?5?$CFs?5not?5implemented?4?6?$AA@
CONST	SEGMENT DWORD USE32 PUBLIC 'CONST'
CONST	ENDS
;	COMDAT ?GetMoniker@CAxHostWindow@ATL@@UAGJKKPAPAUIMoniker@@@Z
_TEXT	SEGMENT PARA USE32 PUBLIC 'CODE'
_TEXT	ENDS
;	COMDAT ??_C@_0BL@HDINKMHC@IOleClientSite?3?3GetMoniker?$AA@
CONST	SEGMENT DWORD USE32 PUBLIC 'CONST'
CONST	ENDS
;	COMDAT ?GetContainer@CAxHostWindow@ATL@@UAGJPAPAUIOleContainer@@@Z
_TEXT	SEGMENT PARA USE32 PUBLIC 'CODE'
_TEXT	ENDS
;	COMDAT ??_C@_0BO@KEMGAJPK@IOleClientSite?3?3GetContainer?6?$AA@
CONST	SEGMENT DWORD USE32 PUBLIC 'CONST'
CONST	ENDS
;	COMDAT ??_C@_0BB@IKOGDFNC@ppContainer?5?$CB?$DN?50?$AA@
CONST	SEGMENT DWORD USE32 PUBLIC 'CONST'
CONST	ENDS
;	COMDAT ?ShowObject@CAxHostWindow@ATL@@UAGJXZ
_TEXT	SEGMENT PARA USE32 PUBLIC 'CODE'
_TEXT	ENDS
;	COMDAT ??_C@_0BN@FMNOCGEC@IOleClientSite?3?3ShowObject?$AN?6?$AA@
CONST	SEGMENT DWORD USE32 PUBLIC 'CONST'
CONST	ENDS
;	COMDAT ?GetDC@CWindow@ATL@@QAEPAUHDC__@@XZ
_TEXT	SEGMENT PARA USE32 PUBLIC 'CODE'
_TEXT	ENDS
;	COMDAT ?ReleaseDC@CWindow@ATL@@QAEHPAUHDC__@@@Z
_TEXT	SEGMENT PARA USE32 PUBLIC 'CODE'
_TEXT	ENDS
;	COMDAT ?OnShowWindow@CAxHostWindow@ATL@@UAGJH@Z
_TEXT	SEGMENT PARA USE32 PUBLIC 'CODE'
_TEXT	ENDS
;	COMDAT ??_C@_0BN@BIBMKNOD@IOleClientSite?3?3OnShowWindow?$AA@
CONST	SEGMENT DWORD USE32 PUBLIC 'CONST'
CONST	ENDS
;	COMDAT ?RequestNewObjectLayout@CAxHostWindow@ATL@@UAGJXZ
_TEXT	SEGMENT PARA USE32 PUBLIC 'CODE'
_TEXT	ENDS
;	COMDAT ??_C@_0CH@INFDHCMD@IOleClientSite?3?3RequestNewObject@
CONST	SEGMENT DWORD USE32 PUBLIC 'CONST'
CONST	ENDS
;	COMDAT ??_7?$CComContainedObject@VCAxHostWindow@ATL@@@ATL@@6BIOleInPlaceSiteWindowless@@@
CONST	SEGMENT DWORD USE32 PUBLIC 'CONST'
CONST	ENDS
;	COMDAT ?QueryInterface@?$CComContainedObject@VCAxHostWindow@ATL@@@ATL@@W7AGJABU_GUID@@PAPAX@Z
_TEXT	SEGMENT PARA USE32 PUBLIC 'CODE'
_TEXT	ENDS
;	COMDAT ?AddRef@?$CComContainedObject@VCAxHostWindow@ATL@@@ATL@@W7AGKXZ
_TEXT	SEGMENT PARA USE32 PUBLIC 'CODE'
_TEXT	ENDS
;	COMDAT ?Release@?$CComContainedObject@VCAxHostWindow@ATL@@@ATL@@W7AGKXZ
_TEXT	SEGMENT PARA USE32 PUBLIC 'CODE'
_TEXT	ENDS
;	COMDAT ?GetWindow@CAxHostWindow@ATL@@UAGJPAPAUHWND__@@@Z
_TEXT	SEGMENT PARA USE32 PUBLIC 'CODE'
_TEXT	ENDS
;	COMDAT ?ContextSensitiveHelp@CAxHostWindow@ATL@@UAGJH@Z
_TEXT	SEGMENT PARA USE32 PUBLIC 'CODE'
_TEXT	ENDS
;	COMDAT ??_C@_0CG@NBALHJKL@IOleInPlaceSite?3?3ContextSensitiv@
CONST	SEGMENT DWORD USE32 PUBLIC 'CONST'
CONST	ENDS
;	COMDAT ?CanInPlaceActivate@CAxHostWindow@ATL@@UAGJXZ
_TEXT	SEGMENT PARA USE32 PUBLIC 'CODE'
_TEXT	ENDS
;	COMDAT ?OnInPlaceActivate@CAxHostWindow@ATL@@UAGJXZ
_TEXT	SEGMENT PARA USE32 PUBLIC 'CODE'
_TEXT	ENDS
;	COMDAT ??_C@_0BG@DFBPOHKH@m_bInPlaceActive?5?$DN?$DN?50?$AA@
CONST	SEGMENT DWORD USE32 PUBLIC 'CONST'
CONST	ENDS
;	COMDAT ??8?$CComPtrBase@UIOleInPlaceObjectWindowless@@@ATL@@QBE_NPAUIOleInPlaceObjectWindowless@@@Z
_TEXT	SEGMENT PARA USE32 PUBLIC 'CODE'
_TEXT	ENDS
;	COMDAT ??_C@_0CB@FKHKLPMP@m_spInPlaceObjectWindowless?5?$DN?$DN?50@
CONST	SEGMENT DWORD USE32 PUBLIC 'CONST'
CONST	ENDS
;	COMDAT ??I?$CComPtrBase@UIOleInPlaceObjectWindowless@@@ATL@@QAEPAPAUIOleInPlaceObjectWindowless@@XZ
_TEXT	SEGMENT PARA USE32 PUBLIC 'CODE'
_TEXT	ENDS
;	COMDAT __GUID_00000113_0000_0000_c000_000000000046
CONST	SEGMENT DWORD USE32 PUBLIC 'CONST'
CONST	ENDS
;	COMDAT ?OnUIActivate@CAxHostWindow@ATL@@UAGJXZ
_TEXT	SEGMENT PARA USE32 PUBLIC 'CODE'
_TEXT	ENDS
;	COMDAT ??_C@_0BP@BDGDJPEF@IOleInPlaceSite?3?3OnUIActivate?6?$AA@
CONST	SEGMENT DWORD USE32 PUBLIC 'CONST'
CONST	ENDS
;	COMDAT ?GetWindowContext@CAxHostWindow@ATL@@UAGJPAPAUIOleInPlaceFrame@@PAPAUIOleInPlaceUIWindow@@PAUtagRECT@@2PAUtagOIFI@@@Z
_TEXT	SEGMENT PARA USE32 PUBLIC 'CODE'
_TEXT	ENDS
;	COMDAT ??7?$CComPtrBase@UIOleInPlaceFrame@@@ATL@@QBE_NXZ
_TEXT	SEGMENT PARA USE32 PUBLIC 'CODE'
_TEXT	ENDS
;	COMDAT ?CreateInstance@?$CComObject@VCAxFrameWindow@ATL@@@ATL@@SGJPAPAV12@@Z
_TEXT	SEGMENT PARA USE32 PUBLIC 'CODE'
_TEXT	ENDS
;	COMDAT ??I?$CComPtrBase@UIOleInPlaceFrame@@@ATL@@QAEPAPAUIOleInPlaceFrame@@XZ
_TEXT	SEGMENT PARA USE32 PUBLIC 'CODE'
_TEXT	ENDS
;	COMDAT __GUID_00000116_0000_0000_c000_000000000046
CONST	SEGMENT DWORD USE32 PUBLIC 'CONST'
CONST	ENDS
;	COMDAT ??B?$CComPtrBase@UIOleInPlaceFrame@@@ATL@@QBEPAUIOleInPlaceFrame@@XZ
_TEXT	SEGMENT PARA USE32 PUBLIC 'CODE'
_TEXT	ENDS
;	COMDAT ??_C@_0BB@OJFGBHML@m_spInPlaceFrame?$AA@
CONST	SEGMENT DWORD USE32 PUBLIC 'CONST'
CONST	ENDS
;	COMDAT ??7?$CComPtrBase@UIOleInPlaceUIWindow@@@ATL@@QBE_NXZ
_TEXT	SEGMENT PARA USE32 PUBLIC 'CODE'
_TEXT	ENDS
;	COMDAT ?CreateInstance@?$CComObject@VCAxUIWindow@ATL@@@ATL@@SGJPAPAV12@@Z
_TEXT	SEGMENT PARA USE32 PUBLIC 'CODE'
_TEXT	ENDS
;	COMDAT ??I?$CComPtrBase@UIOleInPlaceUIWindow@@@ATL@@QAEPAPAUIOleInPlaceUIWindow@@XZ
_TEXT	SEGMENT PARA USE32 PUBLIC 'CODE'
_TEXT	ENDS
;	COMDAT __GUID_00000115_0000_0000_c000_000000000046
CONST	SEGMENT DWORD USE32 PUBLIC 'CONST'
CONST	ENDS
;	COMDAT ??B?$CComPtrBase@UIOleInPlaceUIWindow@@@ATL@@QBEPAUIOleInPlaceUIWindow@@XZ
_TEXT	SEGMENT PARA USE32 PUBLIC 'CODE'
_TEXT	ENDS
;	COMDAT ??_C@_0BE@OHNINIJH@m_spInPlaceUIWindow?$AA@
CONST	SEGMENT DWORD USE32 PUBLIC 'CONST'
CONST	ENDS
;	COMDAT ?CopyTo@?$CComPtrBase@UIOleInPlaceFrame@@@ATL@@QAEJPAPAUIOleInPlaceFrame@@@Z
_TEXT	SEGMENT PARA USE32 PUBLIC 'CODE'
_TEXT	ENDS
;	COMDAT ??_C@_08IMNICHFN@ppT?5?$CB?$DN?50?$AA@
CONST	SEGMENT DWORD USE32 PUBLIC 'CONST'
CONST	ENDS
;	COMDAT ?CopyTo@?$CComPtrBase@UIOleInPlaceUIWindow@@@ATL@@QAEJPAPAUIOleInPlaceUIWindow@@@Z
_TEXT	SEGMENT PARA USE32 PUBLIC 'CODE'
_TEXT	ENDS
;	COMDAT ?Scroll@CAxHostWindow@ATL@@UAGJUtagSIZE@@@Z
_TEXT	SEGMENT PARA USE32 PUBLIC 'CODE'
_TEXT	ENDS
;	COMDAT ??_C@_0BI@LMFIJFLF@IOleInPlaceSite?3?3Scroll?$AA@
CONST	SEGMENT DWORD USE32 PUBLIC 'CONST'
CONST	ENDS
;	COMDAT ?OnUIDeactivate@CAxHostWindow@ATL@@UAGJH@Z
_TEXT	SEGMENT PARA USE32 PUBLIC 'CODE'
_TEXT	ENDS
;	COMDAT ??_C@_0CB@DPJACDKI@IOleInPlaceSite?3?3OnUIDeactivate?6@
CONST	SEGMENT DWORD USE32 PUBLIC 'CONST'
CONST	ENDS
;	COMDAT ?OnInPlaceDeactivate@CAxHostWindow@ATL@@UAGJXZ
_TEXT	SEGMENT PARA USE32 PUBLIC 'CODE'
_TEXT	ENDS
;	COMDAT ?DiscardUndoState@CAxHostWindow@ATL@@UAGJXZ
_TEXT	SEGMENT PARA USE32 PUBLIC 'CODE'
_TEXT	ENDS
;	COMDAT ??_C@_0CC@DHNOFCHL@IOleInPlaceSite?3?3DiscardUndoStat@
CONST	SEGMENT DWORD USE32 PUBLIC 'CONST'
CONST	ENDS
;	COMDAT ?DeactivateAndUndo@CAxHostWindow@ATL@@UAGJXZ
_TEXT	SEGMENT PARA USE32 PUBLIC 'CODE'
_TEXT	ENDS
;	COMDAT ??_C@_0CD@HDPLACCC@IOleInPlaceSite?3?3DeactivateAndUn@
CONST	SEGMENT DWORD USE32 PUBLIC 'CONST'
CONST	ENDS
;	COMDAT ?OnPosRectChange@CAxHostWindow@ATL@@UAGJPBUtagRECT@@@Z
_TEXT	SEGMENT PARA USE32 PUBLIC 'CODE'
_TEXT	ENDS
;	COMDAT ??_C@_0CB@EMPHOJEH@IOleInPlaceSite?3?3OnPosRectChange@
CONST	SEGMENT DWORD USE32 PUBLIC 'CONST'
CONST	ENDS
;	COMDAT ?OnInPlaceActivateEx@CAxHostWindow@ATL@@UAGJPAHK@Z
_TEXT	SEGMENT PARA USE32 PUBLIC 'CODE'
_TEXT	ENDS
;	COMDAT __GUID_1c2056cc_5ef4_101b_8bc8_00aa003e3b29
CONST	SEGMENT DWORD USE32 PUBLIC 'CONST'
CONST	ENDS
;	COMDAT ?OnInPlaceDeactivateEx@CAxHostWindow@ATL@@UAGJH@Z
_TEXT	SEGMENT PARA USE32 PUBLIC 'CODE'
_TEXT	ENDS
;	COMDAT ?RequestUIActivate@CAxHostWindow@ATL@@UAGJXZ
_TEXT	SEGMENT PARA USE32 PUBLIC 'CODE'
_TEXT	ENDS
;	COMDAT ?CanWindowlessActivate@CAxHostWindow@ATL@@UAGJXZ
_TEXT	SEGMENT PARA USE32 PUBLIC 'CODE'
_TEXT	ENDS
;	COMDAT ?GetCapture@CAxHostWindow@ATL@@UAGJXZ
_TEXT	SEGMENT PARA USE32 PUBLIC 'CODE'
_TEXT	ENDS
;	COMDAT ?SetCapture@CAxHostWindow@ATL@@UAGJH@Z
_TEXT	SEGMENT PARA USE32 PUBLIC 'CODE'
_TEXT	ENDS
;	COMDAT ?SetCapture@CWindow@ATL@@QAEPAUHWND__@@XZ
_TEXT	SEGMENT PARA USE32 PUBLIC 'CODE'
_TEXT	ENDS
;	COMDAT ?GetFocus@CAxHostWindow@ATL@@UAGJXZ
_TEXT	SEGMENT PARA USE32 PUBLIC 'CODE'
_TEXT	ENDS
;	COMDAT ?SetFocus@CAxHostWindow@ATL@@UAGJH@Z
_TEXT	SEGMENT PARA USE32 PUBLIC 'CODE'
_TEXT	ENDS
;	COMDAT ?GetDC@CAxHostWindow@ATL@@UAGJPBUtagRECT@@KPAPAUHDC__@@@Z
_TEXT	SEGMENT PARA USE32 PUBLIC 'CODE'
_TEXT	ENDS
;	COMDAT ?ReleaseDC@CAxHostWindow@ATL@@UAGJPAUHDC__@@@Z
_TEXT	SEGMENT PARA USE32 PUBLIC 'CODE'
_TEXT	ENDS
;	COMDAT ?InvalidateRect@CAxHostWindow@ATL@@UAGJPBUtagRECT@@H@Z
_TEXT	SEGMENT PARA USE32 PUBLIC 'CODE'
_TEXT	ENDS
;	COMDAT ?InvalidateRect@CWindow@ATL@@QAEHPBUtagRECT@@H@Z
_TEXT	SEGMENT PARA USE32 PUBLIC 'CODE'
_TEXT	ENDS
;	COMDAT ?InvalidateRgn@CAxHostWindow@ATL@@UAGJPAUHRGN__@@H@Z
_TEXT	SEGMENT PARA USE32 PUBLIC 'CODE'
_TEXT	ENDS
;	COMDAT ?InvalidateRgn@CWindow@ATL@@QAEXPAUHRGN__@@H@Z
_TEXT	SEGMENT PARA USE32 PUBLIC 'CODE'
_TEXT	ENDS
;	COMDAT ?ScrollRect@CAxHostWindow@ATL@@UAGJHHPBUtagRECT@@0@Z
_TEXT	SEGMENT PARA USE32 PUBLIC 'CODE'
_TEXT	ENDS
;	COMDAT ?AdjustRect@CAxHostWindow@ATL@@UAGJPAUtagRECT@@@Z
_TEXT	SEGMENT PARA USE32 PUBLIC 'CODE'
_TEXT	ENDS
;	COMDAT ?OnDefWindowMessage@CAxHostWindow@ATL@@UAGJIIJPAJ@Z
_TEXT	SEGMENT PARA USE32 PUBLIC 'CODE'
_TEXT	ENDS
;	COMDAT ??_7?$CComContainedObject@VCAxHostWindow@ATL@@@ATL@@6BIOleControlSite@@@
CONST	SEGMENT DWORD USE32 PUBLIC 'CONST'
CONST	ENDS
;	COMDAT ?QueryInterface@?$CComContainedObject@VCAxHostWindow@ATL@@@ATL@@WM@AGJABU_GUID@@PAPAX@Z
_TEXT	SEGMENT PARA USE32 PUBLIC 'CODE'
_TEXT	ENDS
;	COMDAT ?AddRef@?$CComContainedObject@VCAxHostWindow@ATL@@@ATL@@WM@AGKXZ
_TEXT	SEGMENT PARA USE32 PUBLIC 'CODE'
_TEXT	ENDS
;	COMDAT ?Release@?$CComContainedObject@VCAxHostWindow@ATL@@@ATL@@WM@AGKXZ
_TEXT	SEGMENT PARA USE32 PUBLIC 'CODE'
_TEXT	ENDS
;	COMDAT ?OnControlInfoChanged@CAxHostWindow@ATL@@UAGJXZ
_TEXT	SEGMENT PARA USE32 PUBLIC 'CODE'
_TEXT	ENDS
;	COMDAT ?LockInPlaceActive@CAxHostWindow@ATL@@UAGJH@Z
_TEXT	SEGMENT PARA USE32 PUBLIC 'CODE'
_TEXT	ENDS
;	COMDAT ?GetExtendedControl@CAxHostWindow@ATL@@UAGJPAPAUIDispatch@@@Z
_TEXT	SEGMENT PARA USE32 PUBLIC 'CODE'
_TEXT	ENDS
;	COMDAT ??$QueryInterface@UIDispatch@@@?$CComPtrBase@UIOleObject@@@ATL@@QBEJPAPAUIDispatch@@@Z
_TEXT	SEGMENT PARA USE32 PUBLIC 'CODE'
_TEXT	ENDS
;	COMDAT ?TransformCoords@CAxHostWindow@ATL@@UAGJPAU_POINTL@@PAUtagPOINTF@@K@Z
_TEXT	SEGMENT PARA USE32 PUBLIC 'CODE'
_TEXT	ENDS
;	COMDAT ??_C@_0BP@OACOCMEL@CAxHostWindow?3?3TransformCoords?$AA@
CONST	SEGMENT DWORD USE32 PUBLIC 'CONST'
CONST	ENDS
;	COMDAT ?TranslateAcceleratorA@CAxHostWindow@ATL@@UAGJPAUtagMSG@@K@Z
_TEXT	SEGMENT PARA USE32 PUBLIC 'CODE'
_TEXT	ENDS
;	COMDAT ?OnFocus@CAxHostWindow@ATL@@UAGJH@Z
_TEXT	SEGMENT PARA USE32 PUBLIC 'CODE'
_TEXT	ENDS
;	COMDAT ?ShowPropertyFrame@CAxHostWindow@ATL@@UAGJXZ
_TEXT	SEGMENT PARA USE32 PUBLIC 'CODE'
_TEXT	ENDS
;	COMDAT ??_C@_0CB@LHNPGPLG@CAxHostWindow?3?3ShowPropertyFrame@
CONST	SEGMENT DWORD USE32 PUBLIC 'CONST'
CONST	ENDS
;	COMDAT ??_7?$CComContainedObject@VCAxHostWindow@ATL@@@ATL@@6BIOleContainer@@@
CONST	SEGMENT DWORD USE32 PUBLIC 'CONST'
CONST	ENDS
;	COMDAT ?QueryInterface@?$CComContainedObject@VCAxHostWindow@ATL@@@ATL@@WBA@AGJABU_GUID@@PAPAX@Z
_TEXT	SEGMENT PARA USE32 PUBLIC 'CODE'
_TEXT	ENDS
;	COMDAT ?AddRef@?$CComContainedObject@VCAxHostWindow@ATL@@@ATL@@WBA@AGKXZ
_TEXT	SEGMENT PARA USE32 PUBLIC 'CODE'
_TEXT	ENDS
;	COMDAT ?Release@?$CComContainedObject@VCAxHostWindow@ATL@@@ATL@@WBA@AGKXZ
_TEXT	SEGMENT PARA USE32 PUBLIC 'CODE'
_TEXT	ENDS
;	COMDAT ?ParseDisplayName@CAxHostWindow@ATL@@UAGJPAUIBindCtx@@PAGPAKPAPAUIMoniker@@@Z
_TEXT	SEGMENT PARA USE32 PUBLIC 'CODE'
_TEXT	ENDS
;	COMDAT ??_C@_0CA@JLJFMEKB@CAxHostWindow?3?3ParseDisplayName?$AA@
CONST	SEGMENT DWORD USE32 PUBLIC 'CONST'
CONST	ENDS
;	COMDAT ?EnumObjects@CAxHostWindow@ATL@@UAGJKPAPAUIEnumUnknown@@@Z
_TEXT	SEGMENT PARA USE32 PUBLIC 'CODE'
_TEXT	ENDS
;	COMDAT ?LockContainer@CAxHostWindow@ATL@@UAGJH@Z
_TEXT	SEGMENT PARA USE32 PUBLIC 'CODE'
_TEXT	ENDS
;	COMDAT ??_7?$CComContainedObject@VCAxHostWindow@ATL@@@ATL@@6B?$IObjectWithSiteImpl@VCAxHostWindow@ATL@@@1@@
CONST	SEGMENT DWORD USE32 PUBLIC 'CONST'
CONST	ENDS
;	COMDAT ?QueryInterface@?$CComContainedObject@VCAxHostWindow@ATL@@@ATL@@WBE@AGJABU_GUID@@PAPAX@Z
_TEXT	SEGMENT PARA USE32 PUBLIC 'CODE'
_TEXT	ENDS
;	COMDAT ?AddRef@?$CComContainedObject@VCAxHostWindow@ATL@@@ATL@@WBE@AGKXZ
_TEXT	SEGMENT PARA USE32 PUBLIC 'CODE'
_TEXT	ENDS
;	COMDAT ?Release@?$CComContainedObject@VCAxHostWindow@ATL@@@ATL@@WBE@AGKXZ
_TEXT	SEGMENT PARA USE32 PUBLIC 'CODE'
_TEXT	ENDS
;	COMDAT ?SetSite@CAxHostWindow@ATL@@UAGJPAUIUnknown@@@Z
_TEXT	SEGMENT PARA USE32 PUBLIC 'CODE'
_TEXT	ENDS
;	COMDAT ?SetSite@?$IObjectWithSiteImpl@VCAxHostWindow@ATL@@@ATL@@UAGJPAUIUnknown@@@Z
_TEXT	SEGMENT PARA USE32 PUBLIC 'CODE'
_TEXT	ENDS
;	COMDAT ??_C@_0BO@GGAAJPMM@IObjectWithSiteImpl?3?3SetSite?6?$AA@
CONST	SEGMENT DWORD USE32 PUBLIC 'CONST'
CONST	ENDS
;	COMDAT ??I?$CComPtrBase@UIServiceProvider@@@ATL@@QAEPAPAUIServiceProvider@@XZ
_TEXT	SEGMENT PARA USE32 PUBLIC 'CODE'
_TEXT	ENDS
;	COMDAT ??_C@_0BE@MNNNBAEJ@No?5ServiceProvider?$CB?$AA@
CONST	SEGMENT DWORD USE32 PUBLIC 'CONST'
CONST	ENDS
;	COMDAT ??_C@_0BN@CCGAKCJM@?$CBhr?5?$CG?$CG?5?$CCNo?5ServiceProvider?$CB?$CC?$AA@
CONST	SEGMENT DWORD USE32 PUBLIC 'CONST'
CONST	ENDS
;	COMDAT ?Release@?$CComPtrBase@UIServiceProvider@@@ATL@@QAEXXZ
_TEXT	SEGMENT PARA USE32 PUBLIC 'CODE'
_TEXT	ENDS
;	COMDAT ?GetSite@?$IObjectWithSiteImpl@VCAxHostWindow@ATL@@@ATL@@UAGJABU_GUID@@PAPAX@Z
_TEXT	SEGMENT PARA USE32 PUBLIC 'CODE'
_TEXT	ENDS
;	COMDAT ??_C@_0BO@JHCMIMLB@IObjectWithSiteImpl?3?3GetSite?6?$AA@
CONST	SEGMENT DWORD USE32 PUBLIC 'CONST'
CONST	ENDS
;	COMDAT ??_C@_07HFHBNNAN@ppvSite?$AA@
CONST	SEGMENT DWORD USE32 PUBLIC 'CONST'
CONST	ENDS
;	COMDAT ??_E?$CComContainedObject@VCAxHostWindow@ATL@@@ATL@@WDI@AEPAXI@Z
_TEXT	SEGMENT PARA USE32 PUBLIC 'CODE'
_TEXT	ENDS
;	COMDAT ??_7?$CComContainedObject@VCAxHostWindow@ATL@@@ATL@@6BIServiceProvider@@@
CONST	SEGMENT DWORD USE32 PUBLIC 'CONST'
CONST	ENDS
;	COMDAT ?QueryInterface@?$CComContainedObject@VCAxHostWindow@ATL@@@ATL@@WBM@AGJABU_GUID@@PAPAX@Z
_TEXT	SEGMENT PARA USE32 PUBLIC 'CODE'
_TEXT	ENDS
;	COMDAT ?AddRef@?$CComContainedObject@VCAxHostWindow@ATL@@@ATL@@WBM@AGKXZ
_TEXT	SEGMENT PARA USE32 PUBLIC 'CODE'
_TEXT	ENDS
;	COMDAT ?Release@?$CComContainedObject@VCAxHostWindow@ATL@@@ATL@@WBM@AGKXZ
_TEXT	SEGMENT PARA USE32 PUBLIC 'CODE'
_TEXT	ENDS
;	COMDAT ?QueryService@CAxHostWindow@ATL@@UAGJABU_GUID@@0PAPAX@Z
_TEXT	SEGMENT PARA USE32 PUBLIC 'CODE'
_TEXT	ENDS
;	COMDAT ??_C@_0M@HHBDEBO@ppvObj?5?$CB?$DN?50?$AA@
CONST	SEGMENT DWORD USE32 PUBLIC 'CONST'
CONST	ENDS
;	COMDAT ??B?$CComPtrBase@UIServiceProvider@@@ATL@@QBEPAUIServiceProvider@@XZ
_TEXT	SEGMENT PARA USE32 PUBLIC 'CODE'
_TEXT	ENDS
;	COMDAT ??C?$CComPtrBase@UIServiceProvider@@@ATL@@QBEPAV?$_NoAddRefReleaseOnCComPtr@UIServiceProvider@@@1@XZ
_TEXT	SEGMENT PARA USE32 PUBLIC 'CODE'
_TEXT	ENDS
;	COMDAT ??_7?$CComContainedObject@VCAxHostWindow@ATL@@@ATL@@6BIAdviseSink@@@
CONST	SEGMENT DWORD USE32 PUBLIC 'CONST'
CONST	ENDS
;	COMDAT ?QueryInterface@?$CComContainedObject@VCAxHostWindow@ATL@@@ATL@@WCA@AGJABU_GUID@@PAPAX@Z
_TEXT	SEGMENT PARA USE32 PUBLIC 'CODE'
_TEXT	ENDS
;	COMDAT ?AddRef@?$CComContainedObject@VCAxHostWindow@ATL@@@ATL@@WCA@AGKXZ
_TEXT	SEGMENT PARA USE32 PUBLIC 'CODE'
_TEXT	ENDS
;	COMDAT ?Release@?$CComContainedObject@VCAxHostWindow@ATL@@@ATL@@WCA@AGKXZ
_TEXT	SEGMENT PARA USE32 PUBLIC 'CODE'
_TEXT	ENDS
;	COMDAT ?OnDataChange@CAxHostWindow@ATL@@UAGXPAUtagFORMATETC@@PAUtagSTGMEDIUM@@@Z
_TEXT	SEGMENT PARA USE32 PUBLIC 'CODE'
_TEXT	ENDS
;	COMDAT ?OnViewChange@CAxHostWindow@ATL@@UAGXKJ@Z
_TEXT	SEGMENT PARA USE32 PUBLIC 'CODE'
_TEXT	ENDS
;	COMDAT ?OnRename@CAxHostWindow@ATL@@UAGXPAUIMoniker@@@Z
_TEXT	SEGMENT PARA USE32 PUBLIC 'CODE'
_TEXT	ENDS
;	COMDAT ?OnSave@CAxHostWindow@ATL@@UAGXXZ
_TEXT	SEGMENT PARA USE32 PUBLIC 'CODE'
_TEXT	ENDS
;	COMDAT ?OnClose@CAxHostWindow@ATL@@UAGXXZ
_TEXT	SEGMENT PARA USE32 PUBLIC 'CODE'
_TEXT	ENDS
;	COMDAT ??_7?$CComContainedObject@VCAxHostWindow@ATL@@@ATL@@6BIDocHostUIHandler@@@
CONST	SEGMENT DWORD USE32 PUBLIC 'CONST'
CONST	ENDS
;	COMDAT ?QueryInterface@?$CComContainedObject@VCAxHostWindow@ATL@@@ATL@@WCE@AGJABU_GUID@@PAPAX@Z
_TEXT	SEGMENT PARA USE32 PUBLIC 'CODE'
_TEXT	ENDS
;	COMDAT ?AddRef@?$CComContainedObject@VCAxHostWindow@ATL@@@ATL@@WCE@AGKXZ
_TEXT	SEGMENT PARA USE32 PUBLIC 'CODE'
_TEXT	ENDS
;	COMDAT ?Release@?$CComContainedObject@VCAxHostWindow@ATL@@@ATL@@WCE@AGKXZ
_TEXT	SEGMENT PARA USE32 PUBLIC 'CODE'
_TEXT	ENDS
;	COMDAT ?ShowContextMenu@CAxHostWindow@ATL@@UAGJKPAUtagPOINT@@PAUIUnknown@@PAUIDispatch@@@Z
_TEXT	SEGMENT PARA USE32 PUBLIC 'CODE'
_TEXT	ENDS
;	COMDAT ??B?$CComPtrBase@UIDocHostUIHandlerDispatch@@@ATL@@QBEPAUIDocHostUIHandlerDispatch@@XZ
_TEXT	SEGMENT PARA USE32 PUBLIC 'CODE'
_TEXT	ENDS
;	COMDAT ??C?$CComPtrBase@UIDocHostUIHandlerDispatch@@@ATL@@QBEPAV?$_NoAddRefReleaseOnCComPtr@UIDocHostUIHandlerDispatch@@@1@XZ
_TEXT	SEGMENT PARA USE32 PUBLIC 'CODE'
_TEXT	ENDS
;	COMDAT ?GetHostInfo@CAxHostWindow@ATL@@UAGJPAU_DOCHOSTUIINFO@@@Z
_TEXT	SEGMENT PARA USE32 PUBLIC 'CODE'
_TEXT	ENDS
;	COMDAT ?ShowUI@CAxHostWindow@ATL@@UAGJKPAUIOleInPlaceActiveObject@@PAUIOleCommandTarget@@PAUIOleInPlaceFrame@@PAUIOleInPlaceUIWindow@@@Z
_TEXT	SEGMENT PARA USE32 PUBLIC 'CODE'
_TEXT	ENDS
;	COMDAT ?HideUI@CAxHostWindow@ATL@@UAGJXZ
_TEXT	SEGMENT PARA USE32 PUBLIC 'CODE'
_TEXT	ENDS
;	COMDAT ?UpdateUI@CAxHostWindow@ATL@@UAGJXZ
_TEXT	SEGMENT PARA USE32 PUBLIC 'CODE'
_TEXT	ENDS
;	COMDAT ?EnableModeless@CAxHostWindow@ATL@@UAGJH@Z
_TEXT	SEGMENT PARA USE32 PUBLIC 'CODE'
_TEXT	ENDS
;	COMDAT ?OnDocWindowActivate@CAxHostWindow@ATL@@UAGJH@Z
_TEXT	SEGMENT PARA USE32 PUBLIC 'CODE'
_TEXT	ENDS
;	COMDAT ?OnFrameWindowActivate@CAxHostWindow@ATL@@UAGJH@Z
_TEXT	SEGMENT PARA USE32 PUBLIC 'CODE'
_TEXT	ENDS
;	COMDAT ?ResizeBorder@CAxHostWindow@ATL@@UAGJPBUtagRECT@@PAUIOleInPlaceUIWindow@@H@Z
_TEXT	SEGMENT PARA USE32 PUBLIC 'CODE'
_TEXT	ENDS
;	COMDAT ?TranslateAcceleratorA@CAxHostWindow@ATL@@UAGJPAUtagMSG@@PBU_GUID@@K@Z
_TEXT	SEGMENT PARA USE32 PUBLIC 'CODE'
_TEXT	ENDS
;	COMDAT ??0CComBSTR@ATL@@QAE@ABU_GUID@@@Z
_TEXT	SEGMENT PARA USE32 PUBLIC 'CODE'
_TEXT	ENDS
;	COMDAT ?GetOptionKeyPath@CAxHostWindow@ATL@@UAGJPAPAGK@Z
_TEXT	SEGMENT PARA USE32 PUBLIC 'CODE'
_TEXT	ENDS
;	COMDAT ?ByteLength@CComBSTR@ATL@@QBEIXZ
_TEXT	SEGMENT PARA USE32 PUBLIC 'CODE'
_TEXT	ENDS
;	COMDAT ?ocscpy@@YAPAGPAGPBG@Z
_TEXT	SEGMENT PARA USE32 PUBLIC 'CODE'
_TEXT	ENDS
;	COMDAT ?GetDropTarget@CAxHostWindow@ATL@@UAGJPAUIDropTarget@@PAPAU3@@Z
_TEXT	SEGMENT PARA USE32 PUBLIC 'CODE'
_TEXT	ENDS
;	COMDAT ??_C@_0BC@PLOCGENL@ppDropTarget?5?$CB?$DN?50?$AA@
CONST	SEGMENT DWORD USE32 PUBLIC 'CONST'
CONST	ENDS
;	COMDAT __GUID_00000122_0000_0000_c000_000000000046
CONST	SEGMENT DWORD USE32 PUBLIC 'CONST'
CONST	ENDS
;	COMDAT ?GetExternal@CAxHostWindow@ATL@@UAGJPAPAUIDispatch@@@Z
_TEXT	SEGMENT PARA USE32 PUBLIC 'CODE'
_TEXT	ENDS
;	COMDAT ??_C@_0BA@NNOLHPBE@ppDispatch?5?$CB?$DN?50?$AA@
CONST	SEGMENT DWORD USE32 PUBLIC 'CONST'
CONST	ENDS
;	COMDAT ?CopyTo@?$CComPtrBase@UIDispatch@@@ATL@@QAEJPAPAUIDispatch@@@Z
_TEXT	SEGMENT PARA USE32 PUBLIC 'CODE'
_TEXT	ENDS
;	COMDAT ?TranslateUrl@CAxHostWindow@ATL@@UAGJKPAGPAPAG@Z
_TEXT	SEGMENT PARA USE32 PUBLIC 'CODE'
_TEXT	ENDS
;	COMDAT ??_C@_0BA@INEFCEPO@ppchURLOut?5?$CB?$DN?50?$AA@
CONST	SEGMENT DWORD USE32 PUBLIC 'CONST'
CONST	ENDS
;	COMDAT ??ICComBSTR@ATL@@QAEPAPAGXZ
_TEXT	SEGMENT PARA USE32 PUBLIC 'CODE'
_TEXT	ENDS
;	COMDAT ?FilterDataObject@CAxHostWindow@ATL@@UAGJPAUIDataObject@@PAPAU3@@Z
_TEXT	SEGMENT PARA USE32 PUBLIC 'CODE'
_TEXT	ENDS
;	COMDAT ??_C@_0N@KFNKBCLH@ppDORet?5?$CB?$DN?50?$AA@
CONST	SEGMENT DWORD USE32 PUBLIC 'CONST'
CONST	ENDS
;	COMDAT __GUID_0000010e_0000_0000_c000_000000000046
CONST	SEGMENT DWORD USE32 PUBLIC 'CONST'
CONST	ENDS
;	COMDAT ??_7?$CComContainedObject@VCAxHostWindow@ATL@@@ATL@@6B?$IDispatchImpl@UIAxWinAmbientDispatchEx@@$1?_GUID_b2d0778b_ac99_4c58_a5c8_e7724e5316b5@@3U__s_GUID@@B$1?m_libid@CAtlModule@ATL@@2U_GUID@@A$0PPPP@$0PPPP@VCComTypeInfoHolder@ATL@@@1@@
CONST	SEGMENT DWORD USE32 PUBLIC 'CONST'
CONST	ENDS
;	COMDAT ?QueryInterface@?$CComContainedObject@VCAxHostWindow@ATL@@@ATL@@WCI@AGJABU_GUID@@PAPAX@Z
_TEXT	SEGMENT PARA USE32 PUBLIC 'CODE'
_TEXT	ENDS
;	COMDAT ?AddRef@?$CComContainedObject@VCAxHostWindow@ATL@@@ATL@@WCI@AGKXZ
_TEXT	SEGMENT PARA USE32 PUBLIC 'CODE'
_TEXT	ENDS
;	COMDAT ?Release@?$CComContainedObject@VCAxHostWindow@ATL@@@ATL@@WCI@AGKXZ
_TEXT	SEGMENT PARA USE32 PUBLIC 'CODE'
_TEXT	ENDS
;	COMDAT ?GetTypeInfoCount@?$IDispatchImpl@UIAxWinAmbientDispatchEx@@$1?_GUID_b2d0778b_ac99_4c58_a5c8_e7724e5316b5@@3U__s_GUID@@B$1?m_libid@CAtlModule@ATL@@2U_GUID@@A$0PPPP@$0PPPP@VCComTypeInfoHolder@ATL@@@ATL@@UAGJPAI@Z
_TEXT	SEGMENT PARA USE32 PUBLIC 'CODE'
_TEXT	ENDS
;	COMDAT ?GetTypeInfo@?$IDispatchImpl@UIAxWinAmbientDispatchEx@@$1?_GUID_b2d0778b_ac99_4c58_a5c8_e7724e5316b5@@3U__s_GUID@@B$1?m_libid@CAtlModule@ATL@@2U_GUID@@A$0PPPP@$0PPPP@VCComTypeInfoHolder@ATL@@@ATL@@UAGJIKPAPAUITypeInfo@@@Z
_TEXT	SEGMENT PARA USE32 PUBLIC 'CODE'
_TEXT	ENDS
;	COMDAT ?_tih@?$IDispatchImpl@UIAxWinAmbientDispatchEx@@$1?_GUID_b2d0778b_ac99_4c58_a5c8_e7724e5316b5@@3U__s_GUID@@B$1?m_libid@CAtlModule@ATL@@2U_GUID@@A$0PPPP@$0PPPP@VCComTypeInfoHolder@ATL@@@ATL@@1VCComTypeInfoHolder@2@A
_DATA	SEGMENT DWORD USE32 PUBLIC 'DATA'
_DATA	ENDS
;	COMDAT ?m_libid@CAtlModule@ATL@@2U_GUID@@A
_DATA	SEGMENT DWORD USE32 PUBLIC 'DATA'
_DATA	ENDS
;	COMDAT ?GetIDsOfNames@?$IDispatchImpl@UIAxWinAmbientDispatchEx@@$1?_GUID_b2d0778b_ac99_4c58_a5c8_e7724e5316b5@@3U__s_GUID@@B$1?m_libid@CAtlModule@ATL@@2U_GUID@@A$0PPPP@$0PPPP@VCComTypeInfoHolder@ATL@@@ATL@@UAGJABU_GUID@@PAPAGIKPAJ@Z
_TEXT	SEGMENT PARA USE32 PUBLIC 'CODE'
_TEXT	ENDS
;	COMDAT ?Invoke@CAxHostWindow@ATL@@UAGJJABU_GUID@@KGPAUtagDISPPARAMS@@PAUtagVARIANT@@PAUtagEXCEPINFO@@PAI@Z
_TEXT	SEGMENT PARA USE32 PUBLIC 'CODE'
_TEXT	ENDS
;	COMDAT ?Invoke@?$IDispatchImpl@UIAxWinAmbientDispatchEx@@$1?_GUID_b2d0778b_ac99_4c58_a5c8_e7724e5316b5@@3U__s_GUID@@B$1?m_libid@CAtlModule@ATL@@2U_GUID@@A$0PPPP@$0PPPP@VCComTypeInfoHolder@ATL@@@ATL@@UAGJJABU_GUID@@KGPAUtagDISPPARAMS@@PAUtagVARIANT@@PAUtagEXCEPINFO@@PAI@Z
_TEXT	SEGMENT PARA USE32 PUBLIC 'CODE'
_TEXT	ENDS
;	COMDAT ??B?$CComPtrBase@UIDispatch@@@ATL@@QBEPAUIDispatch@@XZ
_TEXT	SEGMENT PARA USE32 PUBLIC 'CODE'
_TEXT	ENDS
;	COMDAT ??C?$CComPtrBase@UIDispatch@@@ATL@@QBEPAV?$_NoAddRefReleaseOnCComPtr@UIDispatch@@@1@XZ
_TEXT	SEGMENT PARA USE32 PUBLIC 'CODE'
_TEXT	ENDS
;	COMDAT ?FireAmbientPropertyChange@CAxHostWindow@ATL@@QAEJJ@Z
_TEXT	SEGMENT PARA USE32 PUBLIC 'CODE'
_TEXT	ENDS
;	COMDAT ??0?$CComQIPtr@UIOleControl@@$1?_GUID_b196b288_bab4_101a_b69c_00aa00341d07@@3U__s_GUID@@B@ATL@@QAE@PAUIUnknown@@@Z
_TEXT	SEGMENT PARA USE32 PUBLIC 'CODE'
_TEXT	ENDS
;	COMDAT ??0?$CComPtr@UIOleControl@@@ATL@@QAE@XZ
_TEXT	SEGMENT PARA USE32 PUBLIC 'CODE'
_TEXT	ENDS
;	COMDAT ??0?$CComPtrBase@UIOleControl@@@ATL@@IAE@XZ
_TEXT	SEGMENT PARA USE32 PUBLIC 'CODE'
_TEXT	ENDS
;	COMDAT ??1?$CComPtrBase@UIOleControl@@@ATL@@QAE@XZ
_TEXT	SEGMENT PARA USE32 PUBLIC 'CODE'
_TEXT	ENDS
;	COMDAT ??1?$CComPtr@UIOleControl@@@ATL@@QAE@XZ
_TEXT	SEGMENT PARA USE32 PUBLIC 'CODE'
_TEXT	ENDS
;	COMDAT __GUID_b196b288_bab4_101a_b69c_00aa00341d07
CONST	SEGMENT DWORD USE32 PUBLIC 'CONST'
CONST	ENDS
;	COMDAT ??1?$CComQIPtr@UIOleControl@@$1?_GUID_b196b288_bab4_101a_b69c_00aa00341d07@@3U__s_GUID@@B@ATL@@QAE@XZ
_TEXT	SEGMENT PARA USE32 PUBLIC 'CODE'
_TEXT	ENDS
;	COMDAT ??B?$CComPtrBase@UIOleControl@@@ATL@@QBEPAUIOleControl@@XZ
_TEXT	SEGMENT PARA USE32 PUBLIC 'CODE'
_TEXT	ENDS
;	COMDAT ??C?$CComPtrBase@UIOleControl@@@ATL@@QBEPAV?$_NoAddRefReleaseOnCComPtr@UIOleControl@@@1@XZ
_TEXT	SEGMENT PARA USE32 PUBLIC 'CODE'
_TEXT	ENDS
;	COMDAT ?put_AllowWindowlessActivation@CAxHostWindow@ATL@@UAGJF@Z
_TEXT	SEGMENT PARA USE32 PUBLIC 'CODE'
_TEXT	ENDS
;	COMDAT ?get_AllowWindowlessActivation@CAxHostWindow@ATL@@UAGJPAF@Z
_TEXT	SEGMENT PARA USE32 PUBLIC 'CODE'
_TEXT	ENDS
;	COMDAT ??_C@_0BH@JHFFPENB@pbAllowWindowless?5?$CB?$DN?50?$AA@
CONST	SEGMENT DWORD USE32 PUBLIC 'CONST'
CONST	ENDS
;	COMDAT ?put_BackColor@CAxHostWindow@ATL@@UAGJK@Z
_TEXT	SEGMENT PARA USE32 PUBLIC 'CODE'
_TEXT	ENDS
;	COMDAT ?get_BackColor@CAxHostWindow@ATL@@UAGJPAK@Z
_TEXT	SEGMENT PARA USE32 PUBLIC 'CODE'
_TEXT	ENDS
;	COMDAT ??_C@_0BE@DDJGHAOM@pclrBackground?5?$CB?$DN?50?$AA@
CONST	SEGMENT DWORD USE32 PUBLIC 'CONST'
CONST	ENDS
;	COMDAT ?put_ForeColor@CAxHostWindow@ATL@@UAGJK@Z
_TEXT	SEGMENT PARA USE32 PUBLIC 'CODE'
_TEXT	ENDS
;	COMDAT ?get_ForeColor@CAxHostWindow@ATL@@UAGJPAK@Z
_TEXT	SEGMENT PARA USE32 PUBLIC 'CODE'
_TEXT	ENDS
;	COMDAT ??_C@_0BE@LIPPFLE@pclrForeground?5?$CB?$DN?50?$AA@
CONST	SEGMENT DWORD USE32 PUBLIC 'CONST'
CONST	ENDS
;	COMDAT ?put_LocaleID@CAxHostWindow@ATL@@UAGJK@Z
_TEXT	SEGMENT PARA USE32 PUBLIC 'CODE'
_TEXT	ENDS
;	COMDAT ?get_LocaleID@CAxHostWindow@ATL@@UAGJPAK@Z
_TEXT	SEGMENT PARA USE32 PUBLIC 'CODE'
_TEXT	ENDS
;	COMDAT ??_C@_0BD@GDKLOMEM@plcidLocaleID?5?$CB?$DN?50?$AA@
CONST	SEGMENT DWORD USE32 PUBLIC 'CONST'
CONST	ENDS
;	COMDAT ?put_UserMode@CAxHostWindow@ATL@@UAGJF@Z
_TEXT	SEGMENT PARA USE32 PUBLIC 'CODE'
_TEXT	ENDS
;	COMDAT ?get_UserMode@CAxHostWindow@ATL@@UAGJPAF@Z
_TEXT	SEGMENT PARA USE32 PUBLIC 'CODE'
_TEXT	ENDS
;	COMDAT ??_C@_0BA@OPEFOKNK@pbUserMode?5?$CB?$DN?50?$AA@
CONST	SEGMENT DWORD USE32 PUBLIC 'CONST'
CONST	ENDS
;	COMDAT ?put_DisplayAsDefault@CAxHostWindow@ATL@@UAGJF@Z
_TEXT	SEGMENT PARA USE32 PUBLIC 'CODE'
_TEXT	ENDS
;	COMDAT ?get_DisplayAsDefault@CAxHostWindow@ATL@@UAGJPAF@Z
_TEXT	SEGMENT PARA USE32 PUBLIC 'CODE'
_TEXT	ENDS
;	COMDAT ??_C@_0BI@NOFOIMNO@pbDisplayAsDefault?5?$CB?$DN?50?$AA@
CONST	SEGMENT DWORD USE32 PUBLIC 'CONST'
CONST	ENDS
;	COMDAT ?put_Font@CAxHostWindow@ATL@@UAGJPAUIFontDisp@@@Z
_TEXT	SEGMENT PARA USE32 PUBLIC 'CODE'
_TEXT	ENDS
;	COMDAT ??4?$CComPtr@UIFontDisp@@@ATL@@QAEPAUIFontDisp@@PAU2@@Z
_TEXT	SEGMENT PARA USE32 PUBLIC 'CODE'
_TEXT	ENDS
;	COMDAT ?get_Font@CAxHostWindow@ATL@@UAGJPAPAUIFontDisp@@@Z
_TEXT	SEGMENT PARA USE32 PUBLIC 'CODE'
_TEXT	ENDS
;	COMDAT ??_C@_0L@LJCFDACO@pFont?5?$CB?$DN?50?$AA@
CONST	SEGMENT DWORD USE32 PUBLIC 'CONST'
CONST	ENDS
;	COMDAT ??8?$CComPtrBase@UIFontDisp@@@ATL@@QBE_NPAUIFontDisp@@@Z
_TEXT	SEGMENT PARA USE32 PUBLIC 'CODE'
_TEXT	ENDS
;	COMDAT ??I?$CComPtrBase@UIFontDisp@@@ATL@@QAEPAPAUIFontDisp@@XZ
_TEXT	SEGMENT PARA USE32 PUBLIC 'CODE'
_TEXT	ENDS
;	COMDAT __GUID_bef6e003_a874_101a_8bba_00aa00300cab
CONST	SEGMENT DWORD USE32 PUBLIC 'CONST'
CONST	ENDS
;	COMDAT ?CopyTo@?$CComPtrBase@UIFontDisp@@@ATL@@QAEJPAPAUIFontDisp@@@Z
_TEXT	SEGMENT PARA USE32 PUBLIC 'CODE'
_TEXT	ENDS
;	COMDAT ?put_MessageReflect@CAxHostWindow@ATL@@UAGJF@Z
_TEXT	SEGMENT PARA USE32 PUBLIC 'CODE'
_TEXT	ENDS
;	COMDAT ?get_MessageReflect@CAxHostWindow@ATL@@UAGJPAF@Z
_TEXT	SEGMENT PARA USE32 PUBLIC 'CODE'
_TEXT	ENDS
;	COMDAT ??_C@_0BG@FLHHODIE@pbMessageReflect?5?$CB?$DN?50?$AA@
CONST	SEGMENT DWORD USE32 PUBLIC 'CONST'
CONST	ENDS
;	COMDAT ?get_ShowGrabHandles@CAxHostWindow@ATL@@UAGJPAF@Z
_TEXT	SEGMENT PARA USE32 PUBLIC 'CODE'
_TEXT	ENDS
;	COMDAT ?get_ShowHatching@CAxHostWindow@ATL@@UAGJPAF@Z
_TEXT	SEGMENT PARA USE32 PUBLIC 'CODE'
_TEXT	ENDS
;	COMDAT ??_C@_0BE@JEDDFNM@pbShowHatching?5?$CB?$DN?50?$AA@
CONST	SEGMENT DWORD USE32 PUBLIC 'CONST'
CONST	ENDS
;	COMDAT ?put_DocHostFlags@CAxHostWindow@ATL@@UAGJK@Z
_TEXT	SEGMENT PARA USE32 PUBLIC 'CODE'
_TEXT	ENDS
;	COMDAT ?get_DocHostFlags@CAxHostWindow@ATL@@UAGJPAK@Z
_TEXT	SEGMENT PARA USE32 PUBLIC 'CODE'
_TEXT	ENDS
;	COMDAT ??_C@_0BF@IJHKDPOI@pdwDocHostFlags?5?$CB?$DN?50?$AA@
CONST	SEGMENT DWORD USE32 PUBLIC 'CONST'
CONST	ENDS
;	COMDAT ?put_DocHostDoubleClickFlags@CAxHostWindow@ATL@@UAGJK@Z
_TEXT	SEGMENT PARA USE32 PUBLIC 'CODE'
_TEXT	ENDS
;	COMDAT ?get_DocHostDoubleClickFlags@CAxHostWindow@ATL@@UAGJPAK@Z
_TEXT	SEGMENT PARA USE32 PUBLIC 'CODE'
_TEXT	ENDS
;	COMDAT ??_C@_0CA@LFBHCFDK@pdwDocHostDoubleClickFlags?5?$CB?$DN?50?$AA@
CONST	SEGMENT DWORD USE32 PUBLIC 'CONST'
CONST	ENDS
;	COMDAT ?put_AllowContextMenu@CAxHostWindow@ATL@@UAGJF@Z
_TEXT	SEGMENT PARA USE32 PUBLIC 'CODE'
_TEXT	ENDS
;	COMDAT ?get_AllowContextMenu@CAxHostWindow@ATL@@UAGJPAF@Z
_TEXT	SEGMENT PARA USE32 PUBLIC 'CODE'
_TEXT	ENDS
;	COMDAT ??_C@_0BI@OGJLKJIH@pbAllowContextMenu?5?$CB?$DN?50?$AA@
CONST	SEGMENT DWORD USE32 PUBLIC 'CONST'
CONST	ENDS
;	COMDAT ?put_AllowShowUI@CAxHostWindow@ATL@@UAGJF@Z
_TEXT	SEGMENT PARA USE32 PUBLIC 'CODE'
_TEXT	ENDS
;	COMDAT ?get_AllowShowUI@CAxHostWindow@ATL@@UAGJPAF@Z
_TEXT	SEGMENT PARA USE32 PUBLIC 'CODE'
_TEXT	ENDS
;	COMDAT ??_C@_0BD@CGGOPJAM@pbAllowShowUI?5?$CB?$DN?50?$AA@
CONST	SEGMENT DWORD USE32 PUBLIC 'CONST'
CONST	ENDS
;	COMDAT ?put_OptionKeyPath@CAxHostWindow@ATL@@UAGJPAG@Z
_TEXT	SEGMENT PARA USE32 PUBLIC 'CODE'
_TEXT	ENDS
;	COMDAT ?get_OptionKeyPath@CAxHostWindow@ATL@@UAGJPAPAG@Z
_TEXT	SEGMENT PARA USE32 PUBLIC 'CODE'
_TEXT	ENDS
;	COMDAT ??_C@_0BI@IKNLNBPD@pbstrOptionKeyPath?5?$CB?$DN?50?$AA@
CONST	SEGMENT DWORD USE32 PUBLIC 'CONST'
CONST	ENDS
;	COMDAT ?SetAmbientDispatch@CAxHostWindow@ATL@@UAGJPAUIDispatch@@@Z
_TEXT	SEGMENT PARA USE32 PUBLIC 'CODE'
_TEXT	ENDS
;	COMDAT ??1?$CComContainedObject@VCAxHostWindow@ATL@@@ATL@@UAE@XZ
_TEXT	SEGMENT PARA USE32 PUBLIC 'CODE'
_TEXT	ENDS
;	COMDAT ?FinalConstruct@?$CComPolyObject@VCAxHostWindow@ATL@@@ATL@@QAEJXZ
_TEXT	SEGMENT PARA USE32 PUBLIC 'CODE'
_TEXT	ENDS
;	COMDAT __GUID_b6ea2050_048a_11d1_82b9_00c04fb9942e
CONST	SEGMENT DWORD USE32 PUBLIC 'CONST'
CONST	ENDS
;	COMDAT ??0CComBSTR@ATL@@QAE@PBG@Z
_TEXT	SEGMENT PARA USE32 PUBLIC 'CODE'
_TEXT	ENDS
;	COMDAT ??I?$CComPtrBase@UIAxWinHostWindowLic@@@ATL@@QAEPAPAUIAxWinHostWindowLic@@XZ
_TEXT	SEGMENT PARA USE32 PUBLIC 'CODE'
_TEXT	ENDS
;	COMDAT ??1?$CComPtr@UIAxWinHostWindowLic@@@ATL@@QAE@XZ
_TEXT	SEGMENT PARA USE32 PUBLIC 'CODE'
_TEXT	ENDS
;	COMDAT ??1?$CComPtrBase@UIAxWinHostWindowLic@@@ATL@@QAE@XZ
_TEXT	SEGMENT PARA USE32 PUBLIC 'CODE'
_TEXT	ENDS
;	COMDAT ??0?$CComPtr@UIAxWinHostWindowLic@@@ATL@@QAE@XZ
_TEXT	SEGMENT PARA USE32 PUBLIC 'CODE'
_TEXT	ENDS
;	COMDAT ??0?$CComPtrBase@UIAxWinHostWindowLic@@@ATL@@IAE@XZ
_TEXT	SEGMENT PARA USE32 PUBLIC 'CODE'
_TEXT	ENDS
;	COMDAT _AtlAxWinInit@0
_TEXT	SEGMENT PARA USE32 PUBLIC 'CODE'
_TEXT	ENDS
;	COMDAT ??0?$CComCritSecLock@VCComCriticalSection@ATL@@@ATL@@QAE@AAVCComCriticalSection@1@_N@Z
_TEXT	SEGMENT PARA USE32 PUBLIC 'CODE'
_TEXT	ENDS
;	COMDAT ??1?$CComCritSecLock@VCComCriticalSection@ATL@@@ATL@@QAE@XZ
_TEXT	SEGMENT PARA USE32 PUBLIC 'CODE'
_TEXT	ENDS
;	COMDAT ?Lock@?$CComCritSecLock@VCComCriticalSection@ATL@@@ATL@@QAEJXZ
_TEXT	SEGMENT PARA USE32 PUBLIC 'CODE'
_TEXT	ENDS
;	COMDAT ??_C@_0L@MPGHMANA@?$CBm_bLocked?$AA@
CONST	SEGMENT DWORD USE32 PUBLIC 'CONST'
CONST	ENDS
;	COMDAT ?Lock@CComCriticalSection@ATL@@QAEJXZ
_TEXT	SEGMENT PARA USE32 PUBLIC 'CODE'
_TEXT	ENDS
;	COMDAT ??_C@_0DJ@HGBKDMEN@ERROR?5?3?5Unable?5to?5lock?5critical?5@
CONST	SEGMENT DWORD USE32 PUBLIC 'CONST'
CONST	ENDS
;	COMDAT ??_C@_0O@POPOELFC@WM_ATLGETHOST?$AA@
CONST	SEGMENT DWORD USE32 PUBLIC 'CONST'
CONST	ENDS
;	COMDAT ??_C@_0BB@ICJMLDDL@WM_ATLGETCONTROL?$AA@
CONST	SEGMENT DWORD USE32 PUBLIC 'CONST'
CONST	ENDS
;	COMDAT _AtlAxCreateControlLic@20
_TEXT	SEGMENT PARA USE32 PUBLIC 'CODE'
_TEXT	ENDS
;	COMDAT ?GetWndClassName@?$CAxWindowT@VCWindow@ATL@@@ATL@@SAPBDXZ
_TEXT	SEGMENT PARA USE32 PUBLIC 'CODE'
_TEXT	ENDS
;	COMDAT ??_C@_0L@EFNCNKLF@AtlAxWin71?$AA@
CONST	SEGMENT DWORD USE32 PUBLIC 'CONST'
CONST	ENDS
;	COMDAT ?GetModuleInstance@CAtlBaseModule@ATL@@QAEPAUHINSTANCE__@@XZ
_TEXT	SEGMENT PARA USE32 PUBLIC 'CODE'
_TEXT	ENDS
;	COMDAT ??0CWindow@ATL@@QAE@PAUHWND__@@@Z
_TEXT	SEGMENT PARA USE32 PUBLIC 'CODE'
_TEXT	ENDS
;	COMDAT ?A2T@@YAPADPAD@Z
_TEXT	SEGMENT PARA USE32 PUBLIC 'CODE'
_TEXT	ENDS
;	COMDAT ?SendDlgItemMessageA@CWindow@ATL@@QAEJHIIJ@Z
_TEXT	SEGMENT PARA USE32 PUBLIC 'CODE'
_TEXT	ENDS
;	COMDAT ?CopyChars@?$CSimpleStringT@D$0A@@ATL@@SAXPADPBDH@Z
_TEXT	SEGMENT PARA USE32 PUBLIC 'CODE'
_TEXT	ENDS
;	COMDAT ?ThrowMemoryException@?$CSimpleStringT@D$0A@@ATL@@KAXXZ
_TEXT	SEGMENT PARA USE32 PUBLIC 'CODE'
_TEXT	ENDS
;	COMDAT ?IsLocked@CStringData@ATL@@QBE_NXZ
_TEXT	SEGMENT PARA USE32 PUBLIC 'CODE'
_TEXT	ENDS
;	COMDAT ?SetLength@?$CSimpleStringT@D$0A@@ATL@@AAEXH@Z
_TEXT	SEGMENT PARA USE32 PUBLIC 'CODE'
_TEXT	ENDS
;	COMDAT ??_C@_0N@ILOMLJGA@nLength?5?$DO?$DN?50?$AA@
CONST	SEGMENT DWORD USE32 PUBLIC 'CONST'
CONST	ENDS
;	COMDAT ??_C@_0CD@EEFFJEGJ@nLength?5?$DM?$DN?5GetData?$CI?$CJ?9?$DOnAllocLeng@
CONST	SEGMENT DWORD USE32 PUBLIC 'CONST'
CONST	ENDS
;	COMDAT ?_Stz@?$fpos@H@std@@0HA
_BSS	SEGMENT DWORD USE32 PUBLIC 'BSS'
_BSS	ENDS
;	COMDAT ?AtlFindStringResourceInstance@ATL@@YAPAUHINSTANCE__@@IG@Z
_TEXT	SEGMENT PARA USE32 PUBLIC 'CODE'
_TEXT	ENDS
;	COMDAT ?AtlGetStringResourceImage@ATL@@YAPBUATLSTRINGRESOURCEIMAGE@1@PAUHINSTANCE__@@IG@Z
_TEXT	SEGMENT PARA USE32 PUBLIC 'CODE'
_TEXT	ENDS
;	COMDAT ?_AtlGetStringResourceImage@ATL@@YAPBUATLSTRINGRESOURCEIMAGE@1@PAUHINSTANCE__@@PAUHRSRC__@@I@Z
_TEXT	SEGMENT PARA USE32 PUBLIC 'CODE'
_TEXT	ENDS
;	COMDAT ?AtlGetStringResourceImage@ATL@@YAPBUATLSTRINGRESOURCEIMAGE@1@PAUHINSTANCE__@@I@Z
_TEXT	SEGMENT PARA USE32 PUBLIC 'CODE'
_TEXT	ENDS
;	COMDAT ?GetBuffer@?$CSimpleStringT@D$0A@@ATL@@QAEPADH@Z
_TEXT	SEGMENT PARA USE32 PUBLIC 'CODE'
_TEXT	ENDS
;	COMDAT ?AtlThrowLastWin32@ATL@@YGXXZ
_TEXT	SEGMENT PARA USE32 PUBLIC 'CODE'
_TEXT	ENDS
;	COMDAT ?GetWndClassName@?$CAxWindow2T@VCWindow@ATL@@@ATL@@SAPBDXZ
_TEXT	SEGMENT PARA USE32 PUBLIC 'CODE'
_TEXT	ENDS
;	COMDAT ??_C@_0O@HHPDHHJB@AtlAxWinLic71?$AA@
CONST	SEGMENT DWORD USE32 PUBLIC 'CONST'
CONST	ENDS
;	COMDAT ?Create@CWindow@ATL@@QAEPAUHWND__@@PBDPAU3@V_U_RECT@2@0KKV_U_MENUorID@2@PAX@Z
_TEXT	SEGMENT PARA USE32 PUBLIC 'CODE'
_TEXT	ENDS
;	COMDAT ?rcDefault@CWindow@ATL@@2UtagRECT@@A
_DATA	SEGMENT DWORD USE32 PUBLIC 'DATA'
_DATA	ENDS
;	COMDAT ?Release@CStringData@ATL@@QAEXXZ
_TEXT	SEGMENT PARA USE32 PUBLIC 'CODE'
_TEXT	ENDS
;	COMDAT ??_C@_0L@OIIMFBNE@nRefs?5?$CB?$DN?50?$AA@
CONST	SEGMENT DWORD USE32 PUBLIC 'CONST'
CONST	ENDS
;	COMDAT ?GetData@?$CSimpleStringT@D$0A@@ATL@@ABEPAUCStringData@2@XZ
_TEXT	SEGMENT PARA USE32 PUBLIC 'CODE'
_TEXT	ENDS
;	COMDAT ?Attach@?$CSimpleStringT@D$0A@@ATL@@AAEXPAUCStringData@2@@Z
_TEXT	SEGMENT PARA USE32 PUBLIC 'CODE'
_TEXT	ENDS
;	COMDAT ??_C@_0FD@MKDEOELP@C?3?2Program?5Files?2Microsoft?5Visua@
CONST	SEGMENT DWORD USE32 PUBLIC 'CONST'
CONST	ENDS
;	COMDAT ??1?$CWindowImplRoot@VCWindow@ATL@@@ATL@@UAE@XZ
_TEXT	SEGMENT PARA USE32 PUBLIC 'CODE'
_TEXT	ENDS
;	COMDAT ??1CWndProcThunk@ATL@@QAE@XZ
_TEXT	SEGMENT PARA USE32 PUBLIC 'CODE'
_TEXT	ENDS
;	COMDAT ??1CDynamicStdCallThunk@ATL@@QAE@XZ
_TEXT	SEGMENT PARA USE32 PUBLIC 'CODE'
_TEXT	ENDS
;	COMDAT ??_C@_0DE@JJEOCICO@ERROR?5?9?5Object?5deleted?5before?5wi@
CONST	SEGMENT DWORD USE32 PUBLIC 'CONST'
CONST	ENDS
;	COMDAT ??0?$CWindowImplRoot@VCWindow@ATL@@@ATL@@QAE@XZ
_TEXT	SEGMENT PARA USE32 PUBLIC 'CODE'
_TEXT	ENDS
;	COMDAT ??0CMessageMap@ATL@@QAE@XZ
_TEXT	SEGMENT PARA USE32 PUBLIC 'CODE'
_TEXT	ENDS
;	COMDAT ??0CWndProcThunk@ATL@@QAE@XZ
_TEXT	SEGMENT PARA USE32 PUBLIC 'CODE'
_TEXT	ENDS
;	COMDAT ??0CDynamicStdCallThunk@ATL@@QAE@XZ
_TEXT	SEGMENT PARA USE32 PUBLIC 'CODE'
_TEXT	ENDS
;	COMDAT ?Invoke@CComTypeInfoHolder@ATL@@QAEJPAUIDispatch@@JABU_GUID@@KGPAUtagDISPPARAMS@@PAUtagVARIANT@@PAUtagEXCEPINFO@@PAI@Z
_TEXT	SEGMENT PARA USE32 PUBLIC 'CODE'
_TEXT	ENDS
;	COMDAT ?EnsureTI@CComTypeInfoHolder@ATL@@QAEJK@Z
_TEXT	SEGMENT PARA USE32 PUBLIC 'CODE'
_TEXT	ENDS
;	COMDAT ?GetTI@CComTypeInfoHolder@ATL@@QAEJK@Z
_TEXT	SEGMENT PARA USE32 PUBLIC 'CODE'
_TEXT	ENDS
;	COMDAT ??_C@_0BO@GHLKPFE@m_plibid?5?$CB?$DN?50?5?$CG?$CG?5m_pguid?5?$CB?$DN?50?$AA@
CONST	SEGMENT DWORD USE32 PUBLIC 'CONST'
CONST	ENDS
;	COMDAT ??_C@_0DG@CJCBGKEH@Did?5you?5forget?5to?5pass?5the?5LIBID@
CONST	SEGMENT DWORD USE32 PUBLIC 'CONST'
CONST	ENDS
;	COMDAT ??_C@_0GE@MNEAPMLF@?$CBInlineIsEqualGUID?$CI?$CKm_plibid?0?5GU@
CONST	SEGMENT DWORD USE32 PUBLIC 'CONST'
CONST	ENDS
;	COMDAT ??_C@_0EG@JLAFHAGH@ERROR?5?3?5Unable?5to?5lock?5critical?5@
CONST	SEGMENT DWORD USE32 PUBLIC 'CONST'
CONST	ENDS
;	COMDAT ??0?$CComPtr@UITypeLib@@@ATL@@QAE@XZ
_TEXT	SEGMENT PARA USE32 PUBLIC 'CODE'
_TEXT	ENDS
;	COMDAT ??0?$CComPtrBase@UITypeLib@@@ATL@@IAE@XZ
_TEXT	SEGMENT PARA USE32 PUBLIC 'CODE'
_TEXT	ENDS
;	COMDAT ??1?$CComPtrBase@UITypeLib@@@ATL@@QAE@XZ
_TEXT	SEGMENT PARA USE32 PUBLIC 'CODE'
_TEXT	ENDS
;	COMDAT ??1?$CComPtr@UITypeLib@@@ATL@@QAE@XZ
_TEXT	SEGMENT PARA USE32 PUBLIC 'CODE'
_TEXT	ENDS
;	COMDAT ??I?$CComPtrBase@UITypeLib@@@ATL@@QAEPAPAUITypeLib@@XZ
_TEXT	SEGMENT PARA USE32 PUBLIC 'CODE'
_TEXT	ENDS
;	COMDAT _InlineIsEqualGUID
_TEXT	SEGMENT PARA USE32 PUBLIC 'CODE'
_TEXT	ENDS
;	COMDAT ??_C@_0GE@IPBGNBKO@Warning?5?3?5CComTypeInfoHolder?3?3Ge@
CONST	SEGMENT DWORD USE32 PUBLIC 'CONST'
CONST	ENDS
;	COMDAT ??_C@_0DN@OOAEELGE@?7See?5IDispatchImpl?5overview?5help@
CONST	SEGMENT DWORD USE32 PUBLIC 'CONST'
CONST	ENDS
;	COMDAT ??C?$CComPtrBase@UITypeLib@@@ATL@@QBEPAV?$_NoAddRefReleaseOnCComPtr@UITypeLib@@@1@XZ
_TEXT	SEGMENT PARA USE32 PUBLIC 'CODE'
_TEXT	ENDS
;	COMDAT ??_C@_0DG@JANIJOBP@ERROR?5?3?5Unable?5to?5load?5Typelibra@
CONST	SEGMENT DWORD USE32 PUBLIC 'CONST'
CONST	ENDS
;	COMDAT ??_C@_0DE@PFCDKHBK@?7Verify?5TypelibID?5and?5major?5vers@
CONST	SEGMENT DWORD USE32 PUBLIC 'CONST'
CONST	ENDS
;	COMDAT ??_C@_0FB@GGFNIACC@?7IDispatchImpl?0?5CStockPropImpl?0?5@
CONST	SEGMENT DWORD USE32 PUBLIC 'CONST'
CONST	ENDS
;	COMDAT ??0?$CComPtr@UITypeInfo@@@ATL@@QAE@XZ
_TEXT	SEGMENT PARA USE32 PUBLIC 'CODE'
_TEXT	ENDS
;	COMDAT ??0?$CComPtrBase@UITypeInfo@@@ATL@@IAE@XZ
_TEXT	SEGMENT PARA USE32 PUBLIC 'CODE'
_TEXT	ENDS
;	COMDAT ??1?$CComPtrBase@UITypeInfo@@@ATL@@QAE@XZ
_TEXT	SEGMENT PARA USE32 PUBLIC 'CODE'
_TEXT	ENDS
;	COMDAT ??I?$CComPtrBase@UITypeInfo@@@ATL@@QAEPAPAUITypeInfo@@XZ
_TEXT	SEGMENT PARA USE32 PUBLIC 'CODE'
_TEXT	ENDS
;	COMDAT ??0?$CComPtr@UITypeInfo@@@ATL@@QAE@ABV01@@Z
_TEXT	SEGMENT PARA USE32 PUBLIC 'CODE'
_TEXT	ENDS
;	COMDAT ??0?$CComPtrBase@UITypeInfo@@@ATL@@IAE@PAUITypeInfo@@@Z
_TEXT	SEGMENT PARA USE32 PUBLIC 'CODE'
_TEXT	ENDS
;	COMDAT ??1?$CComPtr@UITypeInfo@@@ATL@@QAE@XZ
_TEXT	SEGMENT PARA USE32 PUBLIC 'CODE'
_TEXT	ENDS
;	COMDAT ??0?$CComPtr@UITypeInfo2@@@ATL@@QAE@XZ
_TEXT	SEGMENT PARA USE32 PUBLIC 'CODE'
_TEXT	ENDS
;	COMDAT ??0?$CComPtrBase@UITypeInfo2@@@ATL@@IAE@XZ
_TEXT	SEGMENT PARA USE32 PUBLIC 'CODE'
_TEXT	ENDS
;	COMDAT ??1?$CComPtrBase@UITypeInfo2@@@ATL@@QAE@XZ
_TEXT	SEGMENT PARA USE32 PUBLIC 'CODE'
_TEXT	ENDS
;	COMDAT ??1?$CComPtr@UITypeInfo2@@@ATL@@QAE@XZ
_TEXT	SEGMENT PARA USE32 PUBLIC 'CODE'
_TEXT	ENDS
;	COMDAT ??$QueryInterface@UITypeInfo2@@@IUnknown@@QAGJPAPAUITypeInfo2@@@Z
_TEXT	SEGMENT PARA USE32 PUBLIC 'CODE'
_TEXT	ENDS
;	COMDAT __GUID_00020412_0000_0000_c000_000000000046
CONST	SEGMENT DWORD USE32 PUBLIC 'CONST'
CONST	ENDS
;	COMDAT ??C?$CComPtrBase@UITypeInfo@@@ATL@@QBEPAV?$_NoAddRefReleaseOnCComPtr@UITypeInfo@@@1@XZ
_TEXT	SEGMENT PARA USE32 PUBLIC 'CODE'
_TEXT	ENDS
;	COMDAT ??I?$CComPtrBase@UITypeInfo2@@@ATL@@QAEPAPAUITypeInfo2@@XZ
_TEXT	SEGMENT PARA USE32 PUBLIC 'CODE'
_TEXT	ENDS
;	COMDAT ??$?4UITypeInfo2@@@?$CComPtr@UITypeInfo@@@ATL@@QAEPAUITypeInfo@@ABV?$CComPtr@UITypeInfo2@@@1@@Z
_TEXT	SEGMENT PARA USE32 PUBLIC 'CODE'
_TEXT	ENDS
;	COMDAT ?AtlComQIPtrAssign@ATL@@YGPAUIUnknown@@PAPAU2@PAU2@ABU_GUID@@@Z
_TEXT	SEGMENT PARA USE32 PUBLIC 'CODE'
_TEXT	ENDS
;	COMDAT __GUID_00020401_0000_0000_c000_000000000046
CONST	SEGMENT DWORD USE32 PUBLIC 'CONST'
CONST	ENDS
;	COMDAT ?Detach@?$CComPtrBase@UITypeInfo@@@ATL@@QAEPAUITypeInfo@@XZ
_TEXT	SEGMENT PARA USE32 PUBLIC 'CODE'
_TEXT	ENDS
;	COMDAT ?AddTermFunc@CAtlModule@ATL@@QAEJP6GXK@ZK@Z
_TEXT	SEGMENT PARA USE32 PUBLIC 'CODE'
_TEXT	ENDS
;	COMDAT ?Cleanup@CComTypeInfoHolder@ATL@@SGXK@Z
_TEXT	SEGMENT PARA USE32 PUBLIC 'CODE'
_TEXT	ENDS
;	COMDAT ??_C@_07PJPEDDJP@dw?5?$CB?$DN?50?$AA@
CONST	SEGMENT DWORD USE32 PUBLIC 'CONST'
CONST	ENDS
;	COMDAT ??_Estringdispid@CComTypeInfoHolder@ATL@@QAEPAXI@Z
_TEXT	SEGMENT PARA USE32 PUBLIC 'CODE'
_TEXT	ENDS
;	COMDAT ??1stringdispid@CComTypeInfoHolder@ATL@@QAE@XZ
_TEXT	SEGMENT PARA USE32 PUBLIC 'CODE'
_TEXT	ENDS
;	COMDAT ?LoadNameCache@CComTypeInfoHolder@ATL@@QAEJPAUITypeInfo@@@Z
_TEXT	SEGMENT PARA USE32 PUBLIC 'CODE'
_TEXT	ENDS
;	COMDAT ??0stringdispid@CComTypeInfoHolder@ATL@@QAE@XZ
_TEXT	SEGMENT PARA USE32 PUBLIC 'CODE'
_TEXT	ENDS
;	COMDAT ?Attach@CComBSTR@ATL@@QAEXPAG@Z
_TEXT	SEGMENT PARA USE32 PUBLIC 'CODE'
_TEXT	ENDS
;	COMDAT ?Detach@CComBSTR@ATL@@QAEPAGXZ
_TEXT	SEGMENT PARA USE32 PUBLIC 'CODE'
_TEXT	ENDS
;	COMDAT ?GetIDsOfNames@CComTypeInfoHolder@ATL@@QAEJABU_GUID@@PAPAGIKPAJ@Z
_TEXT	SEGMENT PARA USE32 PUBLIC 'CODE'
_TEXT	ENDS
;	COMDAT ?_tih@?$IDispatchImpl@UISignature@@$1?IID_ISignature@@3U_GUID@@B$1?LIBID_XMLSIGNLib@@3U3@B$00$0A@VCComTypeInfoHolder@ATL@@@ATL@@1VCComTypeInfoHolder@2@A
_DATA	SEGMENT DWORD USE32 PUBLIC 'DATA'
_DATA	ENDS
;	COMDAT ?GetTypeInfo@CComTypeInfoHolder@ATL@@QAEJIKPAPAUITypeInfo@@@Z
_TEXT	SEGMENT PARA USE32 PUBLIC 'CODE'
_TEXT	ENDS
;	COMDAT ?GetTI@CComTypeInfoHolder@ATL@@QAEJKPAPAUITypeInfo@@@Z
_TEXT	SEGMENT PARA USE32 PUBLIC 'CODE'
_TEXT	ENDS
;	COMDAT ??_C@_0M@NNHBFKBG@ppInfo?5?$CB?$DN?50?$AA@
CONST	SEGMENT DWORD USE32 PUBLIC 'CONST'
CONST	ENDS
;	COMDAT ?FindNextDlgItem@_DialogSplitHelper@ATL@@SAPAUDLGITEMTEMPLATE@@PAU3@H@Z
_TEXT	SEGMENT PARA USE32 PUBLIC 'CODE'
_TEXT	ENDS
;	COMDAT ?AtlHresultFromLastError@ATL@@YAJXZ
_TEXT	SEGMENT PARA USE32 PUBLIC 'CODE'
_TEXT	ENDS
;	COMDAT ?SetWindowPos@CWindow@ATL@@QAEHPAUHWND__@@HHHHI@Z
_TEXT	SEGMENT PARA USE32 PUBLIC 'CODE'
_TEXT	ENDS
;	COMDAT ?SetWindowContextHelpId@CWindow@ATL@@QAEHK@Z
_TEXT	SEGMENT PARA USE32 PUBLIC 'CODE'
_TEXT	ENDS
;	COMDAT ??0_U_RECT@ATL@@QAE@PAUtagRECT@@@Z
_TEXT	SEGMENT PARA USE32 PUBLIC 'CODE'
_TEXT	ENDS
;	COMDAT ??0_U_MENUorID@ATL@@QAE@I@Z
_TEXT	SEGMENT PARA USE32 PUBLIC 'CODE'
_TEXT	ENDS
;	COMDAT ??B?$CComPtrBase@UIStream@@@ATL@@QBEPAUIStream@@XZ
_TEXT	SEGMENT PARA USE32 PUBLIC 'CODE'
_TEXT	ENDS
;	COMDAT ?ParseInitData@_DialogSplitHelper@ATL@@SAJPAUIStream@@PAPAG@Z
_TEXT	SEGMENT PARA USE32 PUBLIC 'CODE'
_TEXT	ENDS
;	COMDAT ??0CComBSTR@ATL@@QAE@H@Z
_TEXT	SEGMENT PARA USE32 PUBLIC 'CODE'
_TEXT	ENDS
;	COMDAT ??I?$CComPtrBase@UIStream@@@ATL@@QAEPAPAUIStream@@XZ
_TEXT	SEGMENT PARA USE32 PUBLIC 'CODE'
_TEXT	ENDS
;	COMDAT ??1?$CComPtr@UIStream@@@ATL@@QAE@XZ
_TEXT	SEGMENT PARA USE32 PUBLIC 'CODE'
_TEXT	ENDS
;	COMDAT ??1?$CComPtrBase@UIStream@@@ATL@@QAE@XZ
_TEXT	SEGMENT PARA USE32 PUBLIC 'CODE'
_TEXT	ENDS
;	COMDAT ??0?$CComPtr@UIStream@@@ATL@@QAE@XZ
_TEXT	SEGMENT PARA USE32 PUBLIC 'CODE'
_TEXT	ENDS
;	COMDAT ??0?$CComPtrBase@UIStream@@@ATL@@IAE@XZ
_TEXT	SEGMENT PARA USE32 PUBLIC 'CODE'
_TEXT	ENDS
;	COMDAT ?FindCreateData@_DialogSplitHelper@ATL@@SAKKPAEPAPAE@Z
_TEXT	SEGMENT PARA USE32 PUBLIC 'CODE'
_TEXT	ENDS
;	COMDAT ??_C@_0L@KAJDHFFC@dwLen?5?$DN?$DN?50?$AA@
CONST	SEGMENT DWORD USE32 PUBLIC 'CONST'
CONST	ENDS
;	COMDAT ?IsActiveXControl@_DialogSplitHelper@ATL@@SA_NPAUDLGITEMTEMPLATE@@H@Z
_TEXT	SEGMENT PARA USE32 PUBLIC 'CODE'
_TEXT	ENDS
;	COMDAT ?GetWindow@CWindow@ATL@@QBE?AV12@I@Z
_TEXT	SEGMENT PARA USE32 PUBLIC 'CODE'
_TEXT	ENDS
;	COMDAT ?FindFirstDlgItem@_DialogSplitHelper@ATL@@SAPAUDLGITEMTEMPLATE@@PBUDLGTEMPLATE@@@Z
_TEXT	SEGMENT PARA USE32 PUBLIC 'CODE'
_TEXT	ENDS
;	COMDAT ?DlgTemplateItemCount@_DialogSplitHelper@ATL@@SAAAGPAUDLGTEMPLATE@@@Z
_TEXT	SEGMENT PARA USE32 PUBLIC 'CODE'
_TEXT	ENDS
;	COMDAT ?IsDialogEx@_DialogSplitHelper@ATL@@SAHPBUDLGTEMPLATE@@@Z
_TEXT	SEGMENT PARA USE32 PUBLIC 'CODE'
_TEXT	ENDS
;	COMDAT ??_C@_0BD@OAFOKPBM@?3?3IsWindow?$CIm_hWnd?$CJ?$AA@
CONST	SEGMENT DWORD USE32 PUBLIC 'CONST'
CONST	ENDS
;	COMDAT ?GetResourceInstance@CAtlBaseModule@ATL@@QAEPAUHINSTANCE__@@XZ
_TEXT	SEGMENT PARA USE32 PUBLIC 'CODE'
_TEXT	ENDS
;	COMDAT _AtlAxDialogBoxA@20
_TEXT	SEGMENT PARA USE32 PUBLIC 'CODE'
_TEXT	ENDS
;	COMDAT ??$AtlAxDialogCreateT@PBDV_AtlDialogBoxIndirectParamHelper@ATL@@$1?DialogBoxIndirectParamA@@YGHPAUHINSTANCE__@@PBUDLGTEMPLATE@@PAUHWND__@@P6GH2IIJ@ZJ@Z@ATL@@YAHPAUHINSTANCE__@@PBDPAUHWND__@@P6GH2IIJ@ZJ@Z
_TEXT	SEGMENT PARA USE32 PUBLIC 'CODE'
_TEXT	ENDS
;	COMDAT ?GetInvalidValue@_AtlDialogBoxIndirectParamHelper@ATL@@SAHXZ
_TEXT	SEGMENT PARA USE32 PUBLIC 'CODE'
_TEXT	ENDS
;	COMDAT ?AtlFindResource@ATL@@YAPAUHRSRC__@@PAUHINSTANCE__@@PBD1@Z
_TEXT	SEGMENT PARA USE32 PUBLIC 'CODE'
_TEXT	ENDS
;	COMDAT ?SplitDialogTemplate@_DialogSplitHelper@ATL@@SAPAUDLGTEMPLATE@@PAU3@PAE@Z
_TEXT	SEGMENT PARA USE32 PUBLIC 'CODE'
_TEXT	ENDS
;	COMDAT ??_C@_0EM@CKDPENDE@cbItem?5?$DO?$DN?5?$CIbDialogEx?5?$DP?5sizeof?$CIDL@
CONST	SEGMENT DWORD USE32 PUBLIC 'CONST'
CONST	ENDS
;	COMDAT ?IsValidReturnVal@_AtlDialogBoxIndirectParamHelper@ATL@@SA_NH@Z
_TEXT	SEGMENT PARA USE32 PUBLIC 'CODE'
_TEXT	ENDS
;	COMDAT ?_AtlWinModule@ATL@@3VCAtlWinModule@1@A
_BSS	SEGMENT DWORD USE32 PUBLIC 'BSS'
_BSS	ENDS
;	COMDAT _$E1
text$yc	SEGMENT PARA USE32 PUBLIC 'CODE'
text$yc	ENDS
;	COMDAT ??0CAtlWinModule@ATL@@QAE@XZ
_TEXT	SEGMENT PARA USE32 PUBLIC 'CODE'
_TEXT	ENDS
;	COMDAT ??0_ATL_WIN_MODULE70@ATL@@QAE@XZ
_TEXT	SEGMENT PARA USE32 PUBLIC 'CODE'
_TEXT	ENDS
;	COMDAT ??0CComCriticalSection@ATL@@QAE@XZ
_TEXT	SEGMENT PARA USE32 PUBLIC 'CODE'
_TEXT	ENDS
;	COMDAT ??0?$CSimpleArray@GV?$CSimpleArrayEqualHelper@G@ATL@@@ATL@@QAE@XZ
_TEXT	SEGMENT PARA USE32 PUBLIC 'CODE'
_TEXT	ENDS
;	COMDAT ??1?$CSimpleArray@GV?$CSimpleArrayEqualHelper@G@ATL@@@ATL@@QAE@XZ
_TEXT	SEGMENT PARA USE32 PUBLIC 'CODE'
_TEXT	ENDS
;	COMDAT ?RemoveAll@?$CSimpleArray@GV?$CSimpleArrayEqualHelper@G@ATL@@@ATL@@QAEXXZ
_TEXT	SEGMENT PARA USE32 PUBLIC 'CODE'
_TEXT	ENDS
;	COMDAT ??1_ATL_WIN_MODULE70@ATL@@QAE@XZ
_TEXT	SEGMENT PARA USE32 PUBLIC 'CODE'
_TEXT	ENDS
;	COMDAT ?m_bInitFailed@CAtlBaseModule@ATL@@2_NA
_DATA	SEGMENT DWORD USE32 PUBLIC 'DATA'
_DATA	ENDS
;	COMDAT _$E2
text$yd	SEGMENT PARA USE32 PUBLIC 'CODE'
text$yd	ENDS
;	COMDAT ??1CAtlWinModule@ATL@@QAE@XZ
_TEXT	SEGMENT PARA USE32 PUBLIC 'CODE'
_TEXT	ENDS
;	COMDAT ?Term@CAtlWinModule@ATL@@QAEXXZ
_TEXT	SEGMENT PARA USE32 PUBLIC 'CODE'
_TEXT	ENDS
;	COMDAT ?AtlWinModuleTerm@ATL@@YGJPAU_ATL_WIN_MODULE70@1@PAUHINSTANCE__@@@Z
_TEXT	SEGMENT PARA USE32 PUBLIC 'CODE'
_TEXT	ENDS
;	COMDAT ?GetSize@?$CSimpleArray@GV?$CSimpleArrayEqualHelper@G@ATL@@@ATL@@QBEHXZ
_TEXT	SEGMENT PARA USE32 PUBLIC 'CODE'
_TEXT	ENDS
;	COMDAT ??A?$CSimpleArray@GV?$CSimpleArrayEqualHelper@G@ATL@@@ATL@@QAEAAGH@Z
_TEXT	SEGMENT PARA USE32 PUBLIC 'CODE'
_TEXT	ENDS
;	COMDAT ??_C@_0CA@CLKCNBMB@nIndex?5?$DO?$DN?50?5?$CG?$CG?5nIndex?5?$DM?5m_nSize?$AA@
CONST	SEGMENT DWORD USE32 PUBLIC 'CONST'
CONST	ENDS
;	COMDAT ??_C@_0FE@GCCFFNOH@C?3?2Program?5Files?2Microsoft?5Visua@
CONST	SEGMENT DWORD USE32 PUBLIC 'CONST'
CONST	ENDS
;	COMDAT ?_AtlRaiseException@ATL@@YAXKK@Z
_TEXT	SEGMENT PARA USE32 PUBLIC 'CODE'
_TEXT	ENDS
;	COMDAT ?Term@CComCriticalSection@ATL@@QAEJXZ
_TEXT	SEGMENT PARA USE32 PUBLIC 'CODE'
_TEXT	ENDS
;	COMDAT CRT$XCU
CRT$XCU	SEGMENT DWORD USE32 PUBLIC 'DATA'
CRT$XCU	ENDS
;	COMDAT ?AddCreateWndData@CAtlWinModule@ATL@@QAEXPAU_AtlCreateWndData@2@PAX@Z
_TEXT	SEGMENT PARA USE32 PUBLIC 'CODE'
_TEXT	ENDS
;	COMDAT ??_C@_0EP@FECMNBMC@C?3?2Program?5Files?2Microsoft?5Visua@
CONST	SEGMENT DWORD USE32 PUBLIC 'CONST'
CONST	ENDS
;	COMDAT ??_C@_0M@MFNOGLO@m_hWnd?5?$DN?$DN?50?$AA@
CONST	SEGMENT DWORD USE32 PUBLIC 'CONST'
CONST	ENDS
;	COMDAT ?AtlIsValidString@ATL@@YAHPBDI@Z
_TEXT	SEGMENT PARA USE32 PUBLIC 'CODE'
_TEXT	ENDS
;	COMDAT ??_7?$basic_streambuf@DU?$char_traits@D@std@@@std@@6B@
CONST	SEGMENT DWORD USE32 PUBLIC 'CONST'
CONST	ENDS
;	COMDAT ??_7?$basic_istream@DU?$char_traits@D@std@@@std@@6B@
CONST	SEGMENT DWORD USE32 PUBLIC 'CONST'
CONST	ENDS
;	COMDAT ??_7?$basic_istream@GU?$char_traits@G@std@@@std@@6B@
CONST	SEGMENT DWORD USE32 PUBLIC 'CONST'
CONST	ENDS
;	COMDAT ??_7?$basic_ios@DU?$char_traits@D@std@@@std@@6B@
CONST	SEGMENT DWORD USE32 PUBLIC 'CONST'
CONST	ENDS
;	COMDAT ??_7?$basic_ostream@DU?$char_traits@D@std@@@std@@6B@
CONST	SEGMENT DWORD USE32 PUBLIC 'CONST'
CONST	ENDS
;	COMDAT ??_7?$basic_streambuf@GU?$char_traits@G@std@@@std@@6B@
CONST	SEGMENT DWORD USE32 PUBLIC 'CONST'
CONST	ENDS
;	COMDAT ??_7?$basic_ios@GU?$char_traits@G@std@@@std@@6B@
CONST	SEGMENT DWORD USE32 PUBLIC 'CONST'
CONST	ENDS
;	COMDAT ??_7?$basic_ostream@GU?$char_traits@G@std@@@std@@6B@
CONST	SEGMENT DWORD USE32 PUBLIC 'CONST'
CONST	ENDS
;	COMDAT ?npos@?$basic_string@DU?$char_traits@D@std@@V?$_DebugHeapAllocator@D@2@@std@@2IB
CONST	SEGMENT DWORD USE32 PUBLIC 'CONST'
CONST	ENDS
;	COMDAT ?npos@?$basic_string@DU?$char_traits@D@std@@V?$allocator@D@2@@std@@2IB
CONST	SEGMENT DWORD USE32 PUBLIC 'CONST'
CONST	ENDS
;	COMDAT ??_7?$CComObject@VCAxUIWindow@ATL@@@ATL@@6BIOleInPlaceUIWindow@@@
CONST	SEGMENT DWORD USE32 PUBLIC 'CONST'
CONST	ENDS
;	COMDAT ?QueryInterface@?$CComObject@VCAxUIWindow@ATL@@@ATL@@UAGJABU_GUID@@PAPAX@Z
_TEXT	SEGMENT PARA USE32 PUBLIC 'CODE'
_TEXT	ENDS
;	COMDAT ?_InternalQueryInterface@CAxUIWindow@ATL@@QAEJABU_GUID@@PAPAX@Z
_TEXT	SEGMENT PARA USE32 PUBLIC 'CODE'
_TEXT	ENDS
;	COMDAT ?_GetEntries@CAxUIWindow@ATL@@SGPBU_ATL_INTMAP_ENTRY@2@XZ
_TEXT	SEGMENT PARA USE32 PUBLIC 'CODE'
_TEXT	ENDS
;	COMDAT ??_C@_0M@EHKCMBND@CAxUIWindow?$AA@
CONST	SEGMENT DWORD USE32 PUBLIC 'CONST'
CONST	ENDS
;	COMDAT ?_entries@?1??_GetEntries@CAxUIWindow@ATL@@SGPBU_ATL_INTMAP_ENTRY@3@XZ@4QBU43@B
CONST	SEGMENT DWORD USE32 PUBLIC 'CONST'
CONST	ENDS
;	COMDAT ?AddRef@?$CComObject@VCAxUIWindow@ATL@@@ATL@@UAGKXZ
_TEXT	SEGMENT PARA USE32 PUBLIC 'CODE'
_TEXT	ENDS
;	COMDAT ?Release@?$CComObject@VCAxUIWindow@ATL@@@ATL@@UAGKXZ
_TEXT	SEGMENT PARA USE32 PUBLIC 'CODE'
_TEXT	ENDS
;	COMDAT ?GetWindow@CAxUIWindow@ATL@@UAGJPAPAUHWND__@@@Z
_TEXT	SEGMENT PARA USE32 PUBLIC 'CODE'
_TEXT	ENDS
;	COMDAT ?Create@?$CWindowImpl@VCAxUIWindow@ATL@@VCWindow@2@V?$CWinTraits@$0FGAAAAAA@$0A@@2@@ATL@@QAEPAUHWND__@@PAU3@V_U_RECT@2@PBDKKV_U_MENUorID@2@PAX@Z
_TEXT	SEGMENT PARA USE32 PUBLIC 'CODE'
_TEXT	ENDS
;	COMDAT ?GetWndClassName@CWindow@ATL@@SAPBDXZ
_TEXT	SEGMENT PARA USE32 PUBLIC 'CODE'
_TEXT	ENDS
;	COMDAT ?Register@_ATL_WNDCLASSINFOA@ATL@@QAEGPAP6GJPAUHWND__@@IIJ@Z@Z
_TEXT	SEGMENT PARA USE32 PUBLIC 'CODE'
_TEXT	ENDS
;	COMDAT ?AtlWinModuleRegisterWndClassInfoA@ATL@@YGGPAU_ATL_WIN_MODULE70@1@PAU_ATL_BASE_MODULE70@1@PAU_ATL_WNDCLASSINFOA@1@PAP6GJPAUHWND__@@IIJ@Z@Z
_TEXT	SEGMENT PARA USE32 PUBLIC 'CODE'
_TEXT	ENDS
;	COMDAT ??$AtlModuleRegisterWndClassInfoT@VAtlModuleRegisterWndClassInfoParamA@ATL@@@ATL@@YAGPAU_ATL_BASE_MODULE70@0@PAU_ATL_WIN_MODULE70@0@PAU_ATL_WNDCLASSINFOA@0@PAP6GJPAUHWND__@@IIJ@ZVAtlModuleRegisterWndClassInfoParamA@0@@Z
_TEXT	SEGMENT PARA USE32 PUBLIC 'CODE'
_TEXT	ENDS
;	COMDAT ??_C@_0DN@BIGELNIF@ERROR?5?3?5Invalid?5Arguments?5to?5Atl@
CONST	SEGMENT DWORD USE32 PUBLIC 'CONST'
CONST	ENDS
;	COMDAT ??_C@_0EL@KHCGDDHE@ERROR?5?3?5Unable?5to?5lock?5critical?5@
CONST	SEGMENT DWORD USE32 PUBLIC 'CONST'
CONST	ENDS
;	COMDAT ??_C@_0DK@EAELIHNL@ERROR?5?3?5Could?5not?5obtain?5Window?5@
CONST	SEGMENT DWORD USE32 PUBLIC 'CONST'
CONST	ENDS
;	COMDAT ?LoadCursorA@AtlModuleRegisterWndClassInfoParamA@ATL@@SAPAUHICON__@@PAUHINSTANCE__@@PBD@Z
_TEXT	SEGMENT PARA USE32 PUBLIC 'CODE'
_TEXT	ENDS
;	COMDAT ?FormatWindowClassName@AtlModuleRegisterWndClassInfoParamA@ATL@@SAXPADPAX@Z
_TEXT	SEGMENT PARA USE32 PUBLIC 'CODE'
_TEXT	ENDS
;	COMDAT ??_C@_09OOFFBKGI@ATL?3?$CF8?48X?$AA@
CONST	SEGMENT DWORD USE32 PUBLIC 'CONST'
CONST	ENDS
;	COMDAT ?GetClassInfoExA@AtlModuleRegisterWndClassInfoParamA@ATL@@SAHPAUHINSTANCE__@@PBDPAUtagWNDCLASSEXA@@@Z
_TEXT	SEGMENT PARA USE32 PUBLIC 'CODE'
_TEXT	ENDS
;	COMDAT ?RegisterClassExA@AtlModuleRegisterWndClassInfoParamA@ATL@@SAGPAU_ATL_WIN_MODULE70@2@PBUtagWNDCLASSEXA@@@Z
_TEXT	SEGMENT PARA USE32 PUBLIC 'CODE'
_TEXT	ENDS
;	COMDAT ?AtlWinModuleRegisterClassExA@ATL@@YGGPAU_ATL_WIN_MODULE70@1@PBUtagWNDCLASSEXA@@@Z
_TEXT	SEGMENT PARA USE32 PUBLIC 'CODE'
_TEXT	ENDS
;	COMDAT ?Add@?$CSimpleArray@GV?$CSimpleArrayEqualHelper@G@ATL@@@ATL@@QAEHABG@Z
_TEXT	SEGMENT PARA USE32 PUBLIC 'CODE'
_TEXT	ENDS
;	COMDAT ?InternalSetAtIndex@?$CSimpleArray@GV?$CSimpleArrayEqualHelper@G@ATL@@@ATL@@QAEXHABG@Z
_TEXT	SEGMENT PARA USE32 PUBLIC 'CODE'
_TEXT	ENDS
;	COMDAT ??$?2G@Wrapper@?$CSimpleArray@GV?$CSimpleArrayEqualHelper@G@ATL@@@ATL@@SAPAXIPAG@Z
_TEXT	SEGMENT PARA USE32 PUBLIC 'CODE'
_TEXT	ENDS
;	COMDAT ??$?3G@Wrapper@?$CSimpleArray@GV?$CSimpleArrayEqualHelper@G@ATL@@@ATL@@SAXPAXPAG@Z
_TEXT	SEGMENT PARA USE32 PUBLIC 'CODE'
_TEXT	ENDS
;	COMDAT ??0Wrapper@?$CSimpleArray@GV?$CSimpleArrayEqualHelper@G@ATL@@@ATL@@QAE@ABG@Z
_TEXT	SEGMENT PARA USE32 PUBLIC 'CODE'
_TEXT	ENDS
;	COMDAT ??_C@_04LOGEFONP@bRet?$AA@
CONST	SEGMENT DWORD USE32 PUBLIC 'CONST'
CONST	ENDS
;	COMDAT ??_C@_0L@KAMJMGHJ@pProc?5?$CB?$DN?50?$AA@
CONST	SEGMENT DWORD USE32 PUBLIC 'CONST'
CONST	ENDS
;	COMDAT ??_C@_0BB@BIGOECOI@p?9?$DOpWndProc?5?$CB?$DN?50?$AA@
CONST	SEGMENT DWORD USE32 PUBLIC 'CONST'
CONST	ENDS
;	COMDAT ?GetWndClassInfo@?$CWindowImpl@VCAxUIWindow@ATL@@VCWindow@2@V?$CWinTraits@$0FGAAAAAA@$0A@@2@@ATL@@SAAAU_ATL_WNDCLASSINFOA@2@XZ
_TEXT	SEGMENT PARA USE32 PUBLIC 'CODE'
_TEXT	ENDS
;	COMDAT ?StartWindowProc@?$CWindowImplBaseT@VCWindow@ATL@@V?$CWinTraits@$0FGAAAAAA@$0A@@2@@ATL@@SGJPAUHWND__@@IIJ@Z
_TEXT	SEGMENT PARA USE32 PUBLIC 'CODE'
_TEXT	ENDS
;	COMDAT ?wc@?1??GetWndClassInfo@?$CWindowImpl@VCAxUIWindow@ATL@@VCWindow@2@V?$CWinTraits@$0FGAAAAAA@$0A@@2@@ATL@@SAAAU_ATL_WNDCLASSINFOA@3@XZ@4U43@A
_DATA	SEGMENT DWORD USE32 PUBLIC 'DATA'
_DATA	ENDS
;	COMDAT ?GetWndStyle@?$CWindowImplBaseT@VCWindow@ATL@@V?$CWinTraits@$0FGAAAAAA@$0A@@2@@ATL@@SAKK@Z
_TEXT	SEGMENT PARA USE32 PUBLIC 'CODE'
_TEXT	ENDS
;	COMDAT ?GetWndStyle@?$CWinTraits@$0FGAAAAAA@$0A@@ATL@@SAKK@Z
_TEXT	SEGMENT PARA USE32 PUBLIC 'CODE'
_TEXT	ENDS
;	COMDAT ?GetWndExStyle@?$CWindowImplBaseT@VCWindow@ATL@@V?$CWinTraits@$0FGAAAAAA@$0A@@2@@ATL@@SAKK@Z
_TEXT	SEGMENT PARA USE32 PUBLIC 'CODE'
_TEXT	ENDS
;	COMDAT ?GetWndExStyle@?$CWinTraits@$0FGAAAAAA@$0A@@ATL@@SAKK@Z
_TEXT	SEGMENT PARA USE32 PUBLIC 'CODE'
_TEXT	ENDS
;	COMDAT ?GetWndCaption@?$CWindowImpl@VCAxUIWindow@ATL@@VCWindow@2@V?$CWinTraits@$0FGAAAAAA@$0A@@2@@ATL@@SAPBDXZ
_TEXT	SEGMENT PARA USE32 PUBLIC 'CODE'
_TEXT	ENDS
;	COMDAT ?Create@?$CWindowImplBaseT@VCWindow@ATL@@V?$CWinTraits@$0FGAAAAAA@$0A@@2@@ATL@@QAEPAUHWND__@@PAU3@V_U_RECT@2@PBDKKV_U_MENUorID@2@GPAX@Z
_TEXT	SEGMENT PARA USE32 PUBLIC 'CODE'
_TEXT	ENDS
;	COMDAT ??_C@_0BA@FJBCDDKK@AXWIN?5UI?5Window?$AA@
CONST	SEGMENT DWORD USE32 PUBLIC 'CONST'
CONST	ENDS
;	COMDAT ?ContextSensitiveHelp@CAxUIWindow@ATL@@UAGJH@Z
_TEXT	SEGMENT PARA USE32 PUBLIC 'CODE'
_TEXT	ENDS
;	COMDAT ?GetBorder@CAxUIWindow@ATL@@UAGJPAUtagRECT@@@Z
_TEXT	SEGMENT PARA USE32 PUBLIC 'CODE'
_TEXT	ENDS
;	COMDAT ?RequestBorderSpace@CAxUIWindow@ATL@@UAGJPBUtagRECT@@@Z
_TEXT	SEGMENT PARA USE32 PUBLIC 'CODE'
_TEXT	ENDS
;	COMDAT ?SetBorderSpace@CAxUIWindow@ATL@@UAGJPBUtagRECT@@@Z
_TEXT	SEGMENT PARA USE32 PUBLIC 'CODE'
_TEXT	ENDS
;	COMDAT ?SetActiveObject@CAxUIWindow@ATL@@UAGJPAUIOleInPlaceActiveObject@@PBG@Z
_TEXT	SEGMENT PARA USE32 PUBLIC 'CODE'
_TEXT	ENDS
;	COMDAT ??4?$CComPtr@UIOleInPlaceActiveObject@@@ATL@@QAEPAUIOleInPlaceActiveObject@@PAU2@@Z
_TEXT	SEGMENT PARA USE32 PUBLIC 'CODE'
_TEXT	ENDS
;	COMDAT ??_7?$CComObject@VCAxUIWindow@ATL@@@ATL@@6B?$CWindowImpl@VCAxUIWindow@ATL@@VCWindow@2@V?$CWinTraits@$0FGAAAAAA@$0A@@2@@1@@
CONST	SEGMENT DWORD USE32 PUBLIC 'CONST'
CONST	ENDS
;	COMDAT ?ProcessWindowMessage@CAxUIWindow@ATL@@UAEHPAUHWND__@@IIJAAJK@Z
_TEXT	SEGMENT PARA USE32 PUBLIC 'CODE'
_TEXT	ENDS
;	COMDAT ??_G?$CComObject@VCAxUIWindow@ATL@@@ATL@@UAEPAXI@Z
_TEXT	SEGMENT PARA USE32 PUBLIC 'CODE'
_TEXT	ENDS
;	COMDAT ??1?$CComObject@VCAxUIWindow@ATL@@@ATL@@UAE@XZ
_TEXT	SEGMENT PARA USE32 PUBLIC 'CODE'
_TEXT	ENDS
;	COMDAT ?FinalRelease@CAxUIWindow@ATL@@QAEXXZ
_TEXT	SEGMENT PARA USE32 PUBLIC 'CODE'
_TEXT	ENDS
;	COMDAT ?Release@?$CComPtrBase@UIOleInPlaceActiveObject@@@ATL@@QAEXXZ
_TEXT	SEGMENT PARA USE32 PUBLIC 'CODE'
_TEXT	ENDS
;	COMDAT ?OnFinalMessage@?$CWindowImplBaseT@VCWindow@ATL@@V?$CWinTraits@$0FGAAAAAA@$0A@@2@@ATL@@UAEXPAUHWND__@@@Z
_TEXT	SEGMENT PARA USE32 PUBLIC 'CODE'
_TEXT	ENDS
;	COMDAT ??1CAxUIWindow@ATL@@UAE@XZ
_TEXT	SEGMENT PARA USE32 PUBLIC 'CODE'
_TEXT	ENDS
;	COMDAT ??1?$CWindowImpl@VCAxUIWindow@ATL@@VCWindow@2@V?$CWinTraits@$0FGAAAAAA@$0A@@2@@ATL@@UAE@XZ
_TEXT	SEGMENT PARA USE32 PUBLIC 'CODE'
_TEXT	ENDS
;	COMDAT ??0CAxUIWindow@ATL@@QAE@XZ
_TEXT	SEGMENT PARA USE32 PUBLIC 'CODE'
_TEXT	ENDS
;	COMDAT ??0?$CWindowImpl@VCAxUIWindow@ATL@@VCWindow@2@V?$CWinTraits@$0FGAAAAAA@$0A@@2@@ATL@@QAE@XZ
_TEXT	SEGMENT PARA USE32 PUBLIC 'CODE'
_TEXT	ENDS
;	COMDAT ??0IOleInPlaceUIWindow@@QAE@XZ
_TEXT	SEGMENT PARA USE32 PUBLIC 'CODE'
_TEXT	ENDS
;	COMDAT ?_pAtlModule@ATL@@3PAVCAtlModule@1@A
_DATA	SEGMENT DWORD USE32 PUBLIC 'DATA'
_DATA	ENDS
;	COMDAT ??_7?$CComObject@VCAxFrameWindow@ATL@@@ATL@@6BIOleInPlaceFrame@@@
CONST	SEGMENT DWORD USE32 PUBLIC 'CONST'
CONST	ENDS
;	COMDAT ?QueryInterface@?$CComObject@VCAxFrameWindow@ATL@@@ATL@@UAGJABU_GUID@@PAPAX@Z
_TEXT	SEGMENT PARA USE32 PUBLIC 'CODE'
_TEXT	ENDS
;	COMDAT ?_InternalQueryInterface@CAxFrameWindow@ATL@@QAEJABU_GUID@@PAPAX@Z
_TEXT	SEGMENT PARA USE32 PUBLIC 'CODE'
_TEXT	ENDS
;	COMDAT ?_GetEntries@CAxFrameWindow@ATL@@SGPBU_ATL_INTMAP_ENTRY@2@XZ
_TEXT	SEGMENT PARA USE32 PUBLIC 'CODE'
_TEXT	ENDS
;	COMDAT ??_C@_0P@MFMDEJMN@CAxFrameWindow?$AA@
CONST	SEGMENT DWORD USE32 PUBLIC 'CONST'
CONST	ENDS
;	COMDAT ?_entries@?1??_GetEntries@CAxFrameWindow@ATL@@SGPBU_ATL_INTMAP_ENTRY@3@XZ@4QBU43@B
CONST	SEGMENT DWORD USE32 PUBLIC 'CONST'
CONST	ENDS
;	COMDAT ?AddRef@?$CComObject@VCAxFrameWindow@ATL@@@ATL@@UAGKXZ
_TEXT	SEGMENT PARA USE32 PUBLIC 'CODE'
_TEXT	ENDS
;	COMDAT ?Release@?$CComObject@VCAxFrameWindow@ATL@@@ATL@@UAGKXZ
_TEXT	SEGMENT PARA USE32 PUBLIC 'CODE'
_TEXT	ENDS
;	COMDAT ?GetWindow@CAxFrameWindow@ATL@@UAGJPAPAUHWND__@@@Z
_TEXT	SEGMENT PARA USE32 PUBLIC 'CODE'
_TEXT	ENDS
;	COMDAT ??_C@_0L@JIHHHPOK@phwnd?5?$CB?$DN?50?$AA@
CONST	SEGMENT DWORD USE32 PUBLIC 'CONST'
CONST	ENDS
;	COMDAT ?Create@?$CWindowImpl@VCAxFrameWindow@ATL@@VCWindow@2@V?$CWinTraits@$0FGAAAAAA@$0A@@2@@ATL@@QAEPAUHWND__@@PAU3@V_U_RECT@2@PBDKKV_U_MENUorID@2@PAX@Z
_TEXT	SEGMENT PARA USE32 PUBLIC 'CODE'
_TEXT	ENDS
;	COMDAT ?GetWndClassInfo@?$CWindowImpl@VCAxFrameWindow@ATL@@VCWindow@2@V?$CWinTraits@$0FGAAAAAA@$0A@@2@@ATL@@SAAAU_ATL_WNDCLASSINFOA@2@XZ
_TEXT	SEGMENT PARA USE32 PUBLIC 'CODE'
_TEXT	ENDS
;	COMDAT ?wc@?1??GetWndClassInfo@?$CWindowImpl@VCAxFrameWindow@ATL@@VCWindow@2@V?$CWinTraits@$0FGAAAAAA@$0A@@2@@ATL@@SAAAU_ATL_WNDCLASSINFOA@3@XZ@4U43@A
_DATA	SEGMENT DWORD USE32 PUBLIC 'DATA'
_DATA	ENDS
;	COMDAT ?GetWndCaption@?$CWindowImpl@VCAxFrameWindow@ATL@@VCWindow@2@V?$CWinTraits@$0FGAAAAAA@$0A@@2@@ATL@@SAPBDXZ
_TEXT	SEGMENT PARA USE32 PUBLIC 'CODE'
_TEXT	ENDS
;	COMDAT ??_C@_0BD@LIOMMJMF@AXWIN?5Frame?5Window?$AA@
CONST	SEGMENT DWORD USE32 PUBLIC 'CONST'
CONST	ENDS
;	COMDAT ?ContextSensitiveHelp@CAxFrameWindow@ATL@@UAGJH@Z
_TEXT	SEGMENT PARA USE32 PUBLIC 'CODE'
_TEXT	ENDS
;	COMDAT ?GetBorder@CAxFrameWindow@ATL@@UAGJPAUtagRECT@@@Z
_TEXT	SEGMENT PARA USE32 PUBLIC 'CODE'
_TEXT	ENDS
;	COMDAT ?RequestBorderSpace@CAxFrameWindow@ATL@@UAGJPBUtagRECT@@@Z
_TEXT	SEGMENT PARA USE32 PUBLIC 'CODE'
_TEXT	ENDS
;	COMDAT ?SetBorderSpace@CAxFrameWindow@ATL@@UAGJPBUtagRECT@@@Z
_TEXT	SEGMENT PARA USE32 PUBLIC 'CODE'
_TEXT	ENDS
;	COMDAT ?SetActiveObject@CAxFrameWindow@ATL@@UAGJPAUIOleInPlaceActiveObject@@PBG@Z
_TEXT	SEGMENT PARA USE32 PUBLIC 'CODE'
_TEXT	ENDS
;	COMDAT ?InsertMenus@CAxFrameWindow@ATL@@UAGJPAUHMENU__@@PAUtagOleMenuGroupWidths@@@Z
_TEXT	SEGMENT PARA USE32 PUBLIC 'CODE'
_TEXT	ENDS
;	COMDAT ?SetMenu@CAxFrameWindow@ATL@@UAGJPAUHMENU__@@PAXPAUHWND__@@@Z
_TEXT	SEGMENT PARA USE32 PUBLIC 'CODE'
_TEXT	ENDS
;	COMDAT ?RemoveMenus@CAxFrameWindow@ATL@@UAGJPAUHMENU__@@@Z
_TEXT	SEGMENT PARA USE32 PUBLIC 'CODE'
_TEXT	ENDS
;	COMDAT ?SetStatusText@CAxFrameWindow@ATL@@UAGJPBG@Z
_TEXT	SEGMENT PARA USE32 PUBLIC 'CODE'
_TEXT	ENDS
;	COMDAT ?EnableModeless@CAxFrameWindow@ATL@@UAGJH@Z
_TEXT	SEGMENT PARA USE32 PUBLIC 'CODE'
_TEXT	ENDS
;	COMDAT ?TranslateAcceleratorA@CAxFrameWindow@ATL@@UAGJPAUtagMSG@@G@Z
_TEXT	SEGMENT PARA USE32 PUBLIC 'CODE'
_TEXT	ENDS
;	COMDAT ??_7?$CComObject@VCAxFrameWindow@ATL@@@ATL@@6B?$CWindowImpl@VCAxFrameWindow@ATL@@VCWindow@2@V?$CWinTraits@$0FGAAAAAA@$0A@@2@@1@@
CONST	SEGMENT DWORD USE32 PUBLIC 'CONST'
CONST	ENDS
;	COMDAT ?ProcessWindowMessage@CAxFrameWindow@ATL@@UAEHPAUHWND__@@IIJAAJK@Z
_TEXT	SEGMENT PARA USE32 PUBLIC 'CODE'
_TEXT	ENDS
;	COMDAT ??_G?$CComObject@VCAxFrameWindow@ATL@@@ATL@@UAEPAXI@Z
_TEXT	SEGMENT PARA USE32 PUBLIC 'CODE'
_TEXT	ENDS
;	COMDAT ??1?$CComObject@VCAxFrameWindow@ATL@@@ATL@@UAE@XZ
_TEXT	SEGMENT PARA USE32 PUBLIC 'CODE'
_TEXT	ENDS
;	COMDAT ?FinalRelease@CAxFrameWindow@ATL@@QAEXXZ
_TEXT	SEGMENT PARA USE32 PUBLIC 'CODE'
_TEXT	ENDS
;	COMDAT ??1CAxFrameWindow@ATL@@UAE@XZ
_TEXT	SEGMENT PARA USE32 PUBLIC 'CODE'
_TEXT	ENDS
;	COMDAT ??1?$CWindowImpl@VCAxFrameWindow@ATL@@VCWindow@2@V?$CWinTraits@$0FGAAAAAA@$0A@@2@@ATL@@UAE@XZ
_TEXT	SEGMENT PARA USE32 PUBLIC 'CODE'
_TEXT	ENDS
;	COMDAT ??0CAxFrameWindow@ATL@@QAE@XZ
_TEXT	SEGMENT PARA USE32 PUBLIC 'CODE'
_TEXT	ENDS
;	COMDAT ??0?$CWindowImpl@VCAxFrameWindow@ATL@@VCWindow@2@V?$CWinTraits@$0FGAAAAAA@$0A@@2@@ATL@@QAE@XZ
_TEXT	SEGMENT PARA USE32 PUBLIC 'CODE'
_TEXT	ENDS
;	COMDAT ??0IOleInPlaceFrame@@QAE@XZ
_TEXT	SEGMENT PARA USE32 PUBLIC 'CODE'
_TEXT	ENDS
;	COMDAT ?PrepareWrite@?$CSimpleStringT@D$0A@@ATL@@AAEPADH@Z
_TEXT	SEGMENT PARA USE32 PUBLIC 'CODE'
_TEXT	ENDS
;	COMDAT ?PrepareWrite2@?$CSimpleStringT@D$0A@@ATL@@AAEXH@Z
_TEXT	SEGMENT PARA USE32 PUBLIC 'CODE'
_TEXT	ENDS
;	COMDAT ?IsShared@CStringData@ATL@@QBE_NXZ
_TEXT	SEGMENT PARA USE32 PUBLIC 'CODE'
_TEXT	ENDS
;	COMDAT ?Fork@?$CSimpleStringT@D$0A@@ATL@@AAEXH@Z
_TEXT	SEGMENT PARA USE32 PUBLIC 'CODE'
_TEXT	ENDS
;	COMDAT ?Reallocate@?$CSimpleStringT@D$0A@@ATL@@AAEXH@Z
_TEXT	SEGMENT PARA USE32 PUBLIC 'CODE'
_TEXT	ENDS
;	COMDAT ??_C@_0CB@GFHAPKDK@pOldData?9?$DOnAllocLength?5?$DM?5nLength@
CONST	SEGMENT DWORD USE32 PUBLIC 'CONST'
CONST	ENDS
;	COMDAT ?Length@CComBSTR@ATL@@QBEIXZ
_TEXT	SEGMENT PARA USE32 PUBLIC 'CODE'
_TEXT	ENDS
;	COMDAT ??4CComBSTR@ATL@@QAEAAV01@PBG@Z
_TEXT	SEGMENT PARA USE32 PUBLIC 'CODE'
_TEXT	ENDS
;	COMDAT ??_7SigException@@6B@
CONST	SEGMENT DWORD USE32 PUBLIC 'CONST'
CONST	ENDS
;	COMDAT ??4CComVariant@ATL@@QAEAAV01@ABV01@@Z
_TEXT	SEGMENT PARA USE32 PUBLIC 'CODE'
_TEXT	ENDS
;	COMDAT ?InternalCopy@CComVariant@ATL@@QAEXPBUtagVARIANT@@@Z
_TEXT	SEGMENT PARA USE32 PUBLIC 'CODE'
_TEXT	ENDS
;	COMDAT ?Copy@CComVariant@ATL@@QAEJPBUtagVARIANT@@@Z
_TEXT	SEGMENT PARA USE32 PUBLIC 'CODE'
_TEXT	ENDS
;	COMDAT ??1CComVariant@ATL@@QAE@XZ
_TEXT	SEGMENT PARA USE32 PUBLIC 'CODE'
_TEXT	ENDS
;	COMDAT ??0CComVariant@ATL@@QAE@ABUtagVARIANT@@@Z
_TEXT	SEGMENT PARA USE32 PUBLIC 'CODE'
_TEXT	ENDS
;	COMDAT ?pMap@?1??GetCategoryMap@CSignature@@SAPBU_ATL_CATMAP_ENTRY@ATL@@XZ@4QBU34@B
CONST	SEGMENT DWORD USE32 PUBLIC 'CONST'
CONST	ENDS
;	COMDAT ?UpdateRegistryFromResourceS@CComModule@ATL@@UAGJIHPAU_ATL_REGMAP_ENTRY@2@@Z
_TEXT	SEGMENT PARA USE32 PUBLIC 'CODE'
_TEXT	ENDS
;	COMDAT ?UpdateRegistryFromResourceS@CAtlModule@ATL@@QAGJIHPAU_ATL_REGMAP_ENTRY@2@@Z
_TEXT	SEGMENT PARA USE32 PUBLIC 'CODE'
_TEXT	ENDS
;	COMDAT ??0CRegObject@ATL@@QAE@XZ
_TEXT	SEGMENT PARA USE32 PUBLIC 'CODE'
_TEXT	ENDS
;	COMDAT ??0IRegistrarBase@@QAE@XZ
_TEXT	SEGMENT PARA USE32 PUBLIC 'CODE'
_TEXT	ENDS
;	COMDAT ??_7CRegObject@ATL@@6B@
CONST	SEGMENT DWORD USE32 PUBLIC 'CONST'
CONST	ENDS
;	COMDAT ?QueryInterface@CRegObject@ATL@@UAGJABU_GUID@@PAPAX@Z
_TEXT	SEGMENT PARA USE32 PUBLIC 'CODE'
_TEXT	ENDS
;	COMDAT ??_C@_0EO@FOFJGMBM@statically?5linked?5in?5CRegObject?5@
CONST	SEGMENT DWORD USE32 PUBLIC 'CONST'
CONST	ENDS
;	COMDAT ??_C@_0FA@KFANAKFG@?$CCstatically?5linked?5in?5CRegObject@
CONST	SEGMENT DWORD USE32 PUBLIC 'CONST'
CONST	ENDS
;	COMDAT ??_C@_0FA@NNGGBFPH@C?3?2Program?5Files?2Microsoft?5Visua@
CONST	SEGMENT DWORD USE32 PUBLIC 'CONST'
CONST	ENDS
;	COMDAT ?AddRef@CRegObject@ATL@@UAGKXZ
_TEXT	SEGMENT PARA USE32 PUBLIC 'CODE'
_TEXT	ENDS
;	COMDAT ?Release@CRegObject@ATL@@UAGKXZ
_TEXT	SEGMENT PARA USE32 PUBLIC 'CODE'
_TEXT	ENDS
;	COMDAT ?ClearReplacements@CRegObject@ATL@@UAGJXZ
_TEXT	SEGMENT PARA USE32 PUBLIC 'CODE'
_TEXT	ENDS
;	COMDAT ?Lock@CComFakeCriticalSection@ATL@@QAEJXZ
_TEXT	SEGMENT PARA USE32 PUBLIC 'CODE'
_TEXT	ENDS
;	COMDAT ?ClearReplacements@CExpansionVector@ATL@@QAEJXZ
_TEXT	SEGMENT PARA USE32 PUBLIC 'CODE'
_TEXT	ENDS
;	COMDAT ?GetSize@?$CSimpleMap@PADPAGVCExpansionVectorEqualHelper@ATL@@@ATL@@QBEHXZ
_TEXT	SEGMENT PARA USE32 PUBLIC 'CODE'
_TEXT	ENDS
;	COMDAT ?GetKeyAt@?$CSimpleMap@PADPAGVCExpansionVectorEqualHelper@ATL@@@ATL@@QBEAAPADH@Z
_TEXT	SEGMENT PARA USE32 PUBLIC 'CODE'
_TEXT	ENDS
;	COMDAT ?GetValueAt@?$CSimpleMap@PADPAGVCExpansionVectorEqualHelper@ATL@@@ATL@@QBEAAPAGH@Z
_TEXT	SEGMENT PARA USE32 PUBLIC 'CODE'
_TEXT	ENDS
;	COMDAT ?RemoveAll@?$CSimpleMap@PADPAGVCExpansionVectorEqualHelper@ATL@@@ATL@@QAEXXZ
_TEXT	SEGMENT PARA USE32 PUBLIC 'CODE'
_TEXT	ENDS
;	COMDAT ?Unlock@CComFakeCriticalSection@ATL@@QAEJXZ
_TEXT	SEGMENT PARA USE32 PUBLIC 'CODE'
_TEXT	ENDS
;	COMDAT ??_GCRegObject@ATL@@UAEPAXI@Z
_TEXT	SEGMENT PARA USE32 PUBLIC 'CODE'
_TEXT	ENDS
;	COMDAT ??0CExpansionVector@ATL@@QAE@XZ
_TEXT	SEGMENT PARA USE32 PUBLIC 'CODE'
_TEXT	ENDS
;	COMDAT ??0?$CSimpleMap@PADPAGVCExpansionVectorEqualHelper@ATL@@@ATL@@QAE@XZ
_TEXT	SEGMENT PARA USE32 PUBLIC 'CODE'
_TEXT	ENDS
;	COMDAT ??1?$CSimpleMap@PADPAGVCExpansionVectorEqualHelper@ATL@@@ATL@@QAE@XZ
_TEXT	SEGMENT PARA USE32 PUBLIC 'CODE'
_TEXT	ENDS
;	COMDAT ??1CExpansionVector@ATL@@QAE@XZ
_TEXT	SEGMENT PARA USE32 PUBLIC 'CODE'
_TEXT	ENDS
;	COMDAT ??1CRegObject@ATL@@UAE@XZ
_TEXT	SEGMENT PARA USE32 PUBLIC 'CODE'
_TEXT	ENDS
;	COMDAT ??_C@_0BJ@MKNPNODP@0?5?$CB?$DN?5pMapEntries?9?$DOszData?$AA@
CONST	SEGMENT DWORD USE32 PUBLIC 'CONST'
CONST	ENDS
;	COMDAT ?EscapeSingleQuote@CAtlModule@ATL@@SAXPAGPBG@Z
_TEXT	SEGMENT PARA USE32 PUBLIC 'CODE'
_TEXT	ENDS
;	COMDAT ??_C@_1O@MNLDABAF@?$AAM?$AAo?$AAd?$AAu?$AAl?$AAe?$AA?$AA@
CONST	SEGMENT DWORD USE32 PUBLIC 'CONST'
CONST	ENDS
;	COMDAT ?AddReplacement@CRegObject@ATL@@UAGJPBG0@Z
_TEXT	SEGMENT PARA USE32 PUBLIC 'CODE'
_TEXT	ENDS
;	COMDAT ?Add@CExpansionVector@ATL@@QAEHPBDPBG@Z
_TEXT	SEGMENT PARA USE32 PUBLIC 'CODE'
_TEXT	ENDS
;	COMDAT ??_C@_0BP@DILLEFPO@lpszKey?5?$CB?$DN?50?5?$CG?$CG?5lpszValue?5?$CB?$DN?50?$AA@
CONST	SEGMENT DWORD USE32 PUBLIC 'CONST'
CONST	ENDS
;	COMDAT ?Add@?$CSimpleMap@PADPAGVCExpansionVectorEqualHelper@ATL@@@ATL@@QAEHABQADABQAG@Z
_TEXT	SEGMENT PARA USE32 PUBLIC 'CODE'
_TEXT	ENDS
;	COMDAT ?InternalSetAtIndex@?$CSimpleMap@PADPAGVCExpansionVectorEqualHelper@ATL@@@ATL@@QAEXHABQADABQAG@Z
_TEXT	SEGMENT PARA USE32 PUBLIC 'CODE'
_TEXT	ENDS
;	COMDAT ??$?2PAD@?$Wrapper@PAD@?$CSimpleMap@PADPAGVCExpansionVectorEqualHelper@ATL@@@ATL@@SAPAXIPAPAD@Z
_TEXT	SEGMENT PARA USE32 PUBLIC 'CODE'
_TEXT	ENDS
;	COMDAT ??$?3PAD@?$Wrapper@PAD@?$CSimpleMap@PADPAGVCExpansionVectorEqualHelper@ATL@@@ATL@@SAXPAXPAPAD@Z
_TEXT	SEGMENT PARA USE32 PUBLIC 'CODE'
_TEXT	ENDS
;	COMDAT ??0?$Wrapper@PAD@?$CSimpleMap@PADPAGVCExpansionVectorEqualHelper@ATL@@@ATL@@QAE@ABQAD@Z
_TEXT	SEGMENT PARA USE32 PUBLIC 'CODE'
_TEXT	ENDS
;	COMDAT ??$?2PAG@?$Wrapper@PAG@?$CSimpleMap@PADPAGVCExpansionVectorEqualHelper@ATL@@@ATL@@SAPAXIPAPAG@Z
_TEXT	SEGMENT PARA USE32 PUBLIC 'CODE'
_TEXT	ENDS
;	COMDAT ??$?3PAG@?$Wrapper@PAG@?$CSimpleMap@PADPAGVCExpansionVectorEqualHelper@ATL@@@ATL@@SAXPAXPAPAG@Z
_TEXT	SEGMENT PARA USE32 PUBLIC 'CODE'
_TEXT	ENDS
;	COMDAT ??0?$Wrapper@PAG@?$CSimpleMap@PADPAGVCExpansionVectorEqualHelper@ATL@@@ATL@@QAE@ABQAG@Z
_TEXT	SEGMENT PARA USE32 PUBLIC 'CODE'
_TEXT	ENDS
;	COMDAT ??_C@_1BG@JBACFMF@?$AAM?$AAo?$AAd?$AAu?$AAl?$AAe?$AA_?$AAR?$AAa?$AAw?$AA?$AA@
CONST	SEGMENT DWORD USE32 PUBLIC 'CONST'
CONST	ENDS
;	COMDAT ??_C@_1BC@KAILKFFG@?$AAR?$AAE?$AAG?$AAI?$AAS?$AAT?$AAR?$AAY?$AA?$AA@
CONST	SEGMENT DWORD USE32 PUBLIC 'CONST'
CONST	ENDS
;	COMDAT ?ResourceRegister@CRegObject@ATL@@QAGJPBGI0@Z
_TEXT	SEGMENT PARA USE32 PUBLIC 'CODE'
_TEXT	ENDS
;	COMDAT ?RegisterFromResource@CRegObject@ATL@@IAEJPBGPBD1H@Z
_TEXT	SEGMENT PARA USE32 PUBLIC 'CODE'
_TEXT	ENDS
;	COMDAT ??0CRegParser@ATL@@QAE@PAVCRegObject@1@@Z
_TEXT	SEGMENT PARA USE32 PUBLIC 'CODE'
_TEXT	ENDS
;	COMDAT ??0?$CTempBuffer@D$0EAA@VCCRTAllocator@ATL@@@ATL@@QAE@XZ
_TEXT	SEGMENT PARA USE32 PUBLIC 'CODE'
_TEXT	ENDS
;	COMDAT ??1?$CTempBuffer@D$0EAA@VCCRTAllocator@ATL@@@ATL@@QAE@XZ
_TEXT	SEGMENT PARA USE32 PUBLIC 'CODE'
_TEXT	ENDS
;	COMDAT ?FreeHeap@?$CTempBuffer@D$0EAA@VCCRTAllocator@ATL@@@ATL@@AAEXXZ
_TEXT	SEGMENT PARA USE32 PUBLIC 'CODE'
_TEXT	ENDS
;	COMDAT ?Free@CCRTAllocator@ATL@@SAXPAX@Z
_TEXT	SEGMENT PARA USE32 PUBLIC 'CODE'
_TEXT	ENDS
;	COMDAT ??_C@_0BN@HGJLNPOD@Failed?5to?5LoadLibrary?5on?5?$CFs?6?$AA@
CONST	SEGMENT DWORD USE32 PUBLIC 'CONST'
CONST	ENDS
;	COMDAT ??_C@_0CJ@KJDBLEOI@Failed?5to?5FindResource?5on?5ID?3?$CFd?5@
CONST	SEGMENT DWORD USE32 PUBLIC 'CONST'
CONST	ENDS
;	COMDAT ??_C@_0CJ@COPMGFKA@Failed?5to?5FindResource?5on?5ID?3?$CFs?5@
CONST	SEGMENT DWORD USE32 PUBLIC 'CONST'
CONST	ENDS
;	COMDAT ??_C@_0BI@LNHJMEOP@Failed?5to?5LoadResource?6?$AA@
CONST	SEGMENT DWORD USE32 PUBLIC 'CONST'
CONST	ENDS
;	COMDAT ?Allocate@?$CTempBuffer@D$0EAA@VCCRTAllocator@ATL@@@ATL@@QAEPADI@Z
_TEXT	SEGMENT PARA USE32 PUBLIC 'CODE'
_TEXT	ENDS
;	COMDAT ?AllocateBytes@?$CTempBuffer@D$0EAA@VCCRTAllocator@ATL@@@ATL@@QAEPADI@Z
_TEXT	SEGMENT PARA USE32 PUBLIC 'CODE'
_TEXT	ENDS
;	COMDAT ??_C@_08GPODJFIN@m_p?5?$DN?$DN?50?$AA@
CONST	SEGMENT DWORD USE32 PUBLIC 'CONST'
CONST	ENDS
;	COMDAT ??_C@_0FB@IAFJMJBP@C?3?2Program?5Files?2Microsoft?5Visua@
CONST	SEGMENT DWORD USE32 PUBLIC 'CONST'
CONST	ENDS
;	COMDAT ?AllocateHeap@?$CTempBuffer@D$0EAA@VCCRTAllocator@ATL@@@ATL@@AAEXI@Z
_TEXT	SEGMENT PARA USE32 PUBLIC 'CODE'
_TEXT	ENDS
;	COMDAT ?Allocate@CCRTAllocator@ATL@@SAPAXI@Z
_TEXT	SEGMENT PARA USE32 PUBLIC 'CODE'
_TEXT	ENDS
;	COMDAT ?RegisterBuffer@CRegParser@ATL@@QAEJPADH@Z
_TEXT	SEGMENT PARA USE32 PUBLIC 'CODE'
_TEXT	ENDS
;	COMDAT ?PreProcessBuffer@CRegParser@ATL@@QAEJPADPAPAD@Z
_TEXT	SEGMENT PARA USE32 PUBLIC 'CODE'
_TEXT	ENDS
;	COMDAT ??_C@_0N@FCNKJMCG@lpszReg?5?$CB?$DN?50?$AA@
CONST	SEGMENT DWORD USE32 PUBLIC 'CONST'
CONST	ENDS
;	COMDAT ??_C@_0N@HMGHIDAH@ppszReg?5?$CB?$DN?50?$AA@
CONST	SEGMENT DWORD USE32 PUBLIC 'CONST'
CONST	ENDS
;	COMDAT ??0CParseBuffer@CRegParser@ATL@@QAE@H@Z
_TEXT	SEGMENT PARA USE32 PUBLIC 'CODE'
_TEXT	ENDS
;	COMDAT ??1CParseBuffer@CRegParser@ATL@@QAE@XZ
_TEXT	SEGMENT PARA USE32 PUBLIC 'CODE'
_TEXT	ENDS
;	COMDAT ?StrChrA@CRegParser@ATL@@KAPADPADD@Z
_TEXT	SEGMENT PARA USE32 PUBLIC 'CODE'
_TEXT	ENDS
;	COMDAT ??_C@_0BK@LLGNALDE@Error?5no?5closing?5?$CF?5found?6?$AA@
CONST	SEGMENT DWORD USE32 PUBLIC 'CONST'
CONST	ENDS
;	COMDAT ?StrFromMap@CRegObject@ATL@@QAEPBGPAD@Z
_TEXT	SEGMENT PARA USE32 PUBLIC 'CODE'
_TEXT	ENDS
;	COMDAT ?Lookup@?$CSimpleMap@PADPAGVCExpansionVectorEqualHelper@ATL@@@ATL@@QBEPAGABQAD@Z
_TEXT	SEGMENT PARA USE32 PUBLIC 'CODE'
_TEXT	ENDS
;	COMDAT ?FindKey@?$CSimpleMap@PADPAGVCExpansionVectorEqualHelper@ATL@@@ATL@@QBEHABQAD@Z
_TEXT	SEGMENT PARA USE32 PUBLIC 'CODE'
_TEXT	ENDS
;	COMDAT ?IsEqualKey@CExpansionVectorEqualHelper@ATL@@SA_NQAD0@Z
_TEXT	SEGMENT PARA USE32 PUBLIC 'CODE'
_TEXT	ENDS
;	COMDAT ??_C@_0BF@KHDDAOIJ@Map?5Entry?5not?5found?6?$AA@
CONST	SEGMENT DWORD USE32 PUBLIC 'CONST'
CONST	ENDS
;	COMDAT ?AddString@CParseBuffer@CRegParser@ATL@@QAEHPBG@Z
_TEXT	SEGMENT PARA USE32 PUBLIC 'CODE'
_TEXT	ENDS
;	COMDAT ?Append@CParseBuffer@CRegParser@ATL@@QAEHPBDH@Z
_TEXT	SEGMENT PARA USE32 PUBLIC 'CODE'
_TEXT	ENDS
;	COMDAT ??_C@_06JALMKDEH@p?5?$CB?$DN?50?$AA@
CONST	SEGMENT DWORD USE32 PUBLIC 'CONST'
CONST	ENDS
;	COMDAT ?AddChar@CParseBuffer@CRegParser@ATL@@QAEHPBD@Z
_TEXT	SEGMENT PARA USE32 PUBLIC 'CODE'
_TEXT	ENDS
;	COMDAT ?Detach@CParseBuffer@CRegParser@ATL@@QAEPADXZ
_TEXT	SEGMENT PARA USE32 PUBLIC 'CODE'
_TEXT	ENDS
;	COMDAT ??_C@_01EEMJAFIK@?6?$AA@
CONST	SEGMENT DWORD USE32 PUBLIC 'CONST'
CONST	ENDS
;	COMDAT ?HKeyFromString@CRegParser@ATL@@KAPAUHKEY__@@PAD@Z
_TEXT	SEGMENT PARA USE32 PUBLIC 'CODE'
_TEXT	ENDS
;	COMDAT ??_C@_04OHBKMIBJ@HKCR?$AA@
CONST	SEGMENT DWORD USE32 PUBLIC 'CONST'
CONST	ENDS
;	COMDAT ??_C@_04KIFLFONO@HKCU?$AA@
CONST	SEGMENT DWORD USE32 PUBLIC 'CONST'
CONST	ENDS
;	COMDAT ??_C@_04CBBMIBLK@HKLM?$AA@
CONST	SEGMENT DWORD USE32 PUBLIC 'CONST'
CONST	ENDS
;	COMDAT ??_C@_03DLBIJLAB@HKU?$AA@
CONST	SEGMENT DWORD USE32 PUBLIC 'CONST'
CONST	ENDS
;	COMDAT ??_C@_04OFOCGAOH@HKPD?$AA@
CONST	SEGMENT DWORD USE32 PUBLIC 'CONST'
CONST	ENDS
;	COMDAT ??_C@_04POMNGLEL@HKDD?$AA@
CONST	SEGMENT DWORD USE32 PUBLIC 'CONST'
CONST	ENDS
;	COMDAT ??_C@_04LEMDOLAJ@HKCC?$AA@
CONST	SEGMENT DWORD USE32 PUBLIC 'CONST'
CONST	ENDS
;	COMDAT ??_C@_0BC@JBJOLKMF@HKEY_CLASSES_ROOT?$AA@
CONST	SEGMENT DWORD USE32 PUBLIC 'CONST'
CONST	ENDS
;	COMDAT ??_C@_0BC@GMMMKLBI@HKEY_CURRENT_USER?$AA@
CONST	SEGMENT DWORD USE32 PUBLIC 'CONST'
CONST	ENDS
;	COMDAT ??_C@_0BD@GIIFIKDM@HKEY_LOCAL_MACHINE?$AA@
CONST	SEGMENT DWORD USE32 PUBLIC 'CONST'
CONST	ENDS
;	COMDAT ??_C@_0L@OEMMANAM@HKEY_USERS?$AA@
CONST	SEGMENT DWORD USE32 PUBLIC 'CONST'
CONST	ENDS
;	COMDAT ??_C@_0BG@IDBEHNDO@HKEY_PERFORMANCE_DATA?$AA@
CONST	SEGMENT DWORD USE32 PUBLIC 'CONST'
CONST	ENDS
;	COMDAT ??_C@_0O@MJDLIIGK@HKEY_DYN_DATA?$AA@
CONST	SEGMENT DWORD USE32 PUBLIC 'CONST'
CONST	ENDS
;	COMDAT ??_C@_0BE@NLNNHLLF@HKEY_CURRENT_CONFIG?$AA@
CONST	SEGMENT DWORD USE32 PUBLIC 'CONST'
CONST	ENDS
;	COMDAT ?map@?2??HKeyFromString@CRegParser@ATL@@KAPAUHKEY__@@PAD@Z@4QBUkeymap@23@B
CONST	SEGMENT DWORD USE32 PUBLIC 'CONST'
CONST	ENDS
;	COMDAT ??_C@_0BN@HJIJAHEL@HKeyFromString?5failed?5on?5?$CFs?6?$AA@
CONST	SEGMENT DWORD USE32 PUBLIC 'CONST'
CONST	ENDS
;	COMDAT ?NextToken@CRegParser@ATL@@IAEJPAD@Z
_TEXT	SEGMENT PARA USE32 PUBLIC 'CODE'
_TEXT	ENDS
;	COMDAT ?EndOfVar@CRegParser@ATL@@IAEHXZ
_TEXT	SEGMENT PARA USE32 PUBLIC 'CODE'
_TEXT	ENDS
;	COMDAT ??_C@_0CE@HPLFHOFC@NextToken?5?3?5Unexpected?5End?5of?5Fi@
CONST	SEGMENT DWORD USE32 PUBLIC 'CONST'
CONST	ENDS
;	COMDAT ?IsSpace@CRegParser@ATL@@IAEHD@Z
_TEXT	SEGMENT PARA USE32 PUBLIC 'CODE'
_TEXT	ENDS
;	COMDAT ??_C@_0CJ@JJEGIHLG@Syntax?5error?0?5expecting?5a?5?$HL?0?5fou@
CONST	SEGMENT DWORD USE32 PUBLIC 'CONST'
CONST	ENDS
;	COMDAT ?GenerateError@CRegParser@ATL@@IAEJI@Z
_TEXT	SEGMENT PARA USE32 PUBLIC 'CODE'
_TEXT	ENDS
;	COMDAT ??_C@_0CC@MOJNOPNN@Failed?5to?5register?0?5cleaning?5up?$CB@
CONST	SEGMENT DWORD USE32 PUBLIC 'CONST'
CONST	ENDS
;	COMDAT ?RegisterSubkeys@CRegParser@ATL@@IAEJPADPAUHKEY__@@HH@Z
_TEXT	SEGMENT PARA USE32 PUBLIC 'CODE'
_TEXT	ENDS
;	COMDAT ??_C@_0O@EHICPHFJ@Num?5Els?5?$DN?5?$CFd?6?$AA@
CONST	SEGMENT DWORD USE32 PUBLIC 'CONST'
CONST	ENDS
;	COMDAT ??_C@_0N@GKIPNAL@Deleting?5?$CFs?6?$AA@
CONST	SEGMENT DWORD USE32 PUBLIC 'CONST'
CONST	ENDS
;	COMDAT ?DeleteValue@CRegKey@ATL@@QAEJPBD@Z
_TEXT	SEGMENT PARA USE32 PUBLIC 'CODE'
_TEXT	ENDS
;	COMDAT ??_C@_0M@LINKMMAA@m_hKey?5?$CB?$DN?50?$AA@
CONST	SEGMENT DWORD USE32 PUBLIC 'CONST'
CONST	ENDS
;	COMDAT ??_C@_0BB@POOIJOEN@Creating?5key?5?$CFs?6?$AA@
CONST	SEGMENT DWORD USE32 PUBLIC 'CONST'
CONST	ENDS
;	COMDAT ?Create@CRegKey@ATL@@QAEJPAUHKEY__@@PBDPADKKPAU_SECURITY_ATTRIBUTES@@PAK@Z
_TEXT	SEGMENT PARA USE32 PUBLIC 'CODE'
_TEXT	ENDS
;	COMDAT ??_C@_0BA@PCGOHLCP@hKeyParent?5?$CB?$DN?50?$AA@
CONST	SEGMENT DWORD USE32 PUBLIC 'CONST'
CONST	ENDS
;	COMDAT ?AddValue@CRegParser@ATL@@IAEJAAVCRegKey@2@PBDPAD@Z
_TEXT	SEGMENT PARA USE32 PUBLIC 'CODE'
_TEXT	ENDS
;	COMDAT ?VTFromRegType@CRegParser@ATL@@KAHPBDAAG@Z
_TEXT	SEGMENT PARA USE32 PUBLIC 'CODE'
_TEXT	ENDS
;	COMDAT ?map@?2??VTFromRegType@CRegParser@ATL@@KAHPBDAAG@Z@4QBUtypemap@23@B
_DATA	SEGMENT DWORD USE32 PUBLIC 'DATA'
_DATA	ENDS
;	COMDAT ?$S4@?2??VTFromRegType@CRegParser@ATL@@KAHPBDAAG@Z@4IA
_BSS	SEGMENT DWORD USE32 PUBLIC 'BSS'
_BSS	ENDS
;	COMDAT ??_C@_0BH@IHOFLOMJ@?$CFs?5Type?5not?5supported?6?$AA@
CONST	SEGMENT DWORD USE32 PUBLIC 'CONST'
CONST	ENDS
;	COMDAT ?SetStringValue@CRegKey@ATL@@QAEJPBD0K@Z
_TEXT	SEGMENT PARA USE32 PUBLIC 'CODE'
_TEXT	ENDS
;	COMDAT ??_C@_0O@DKGIOJGA@pszValue?5?$CB?$DN?50?$AA@
CONST	SEGMENT DWORD USE32 PUBLIC 'CONST'
CONST	ENDS
;	COMDAT ??_C@_0CH@EEDIHPHE@?$CIdwType?5?$DN?$DN?5?$CI?51?5?$CJ?$CJ?5?$HM?$HM?5?$CIdwType?5?$DN?$DN?5@
CONST	SEGMENT DWORD USE32 PUBLIC 'CONST'
CONST	ENDS
;	COMDAT ??_C@_0BI@MFJDFJCO@Setting?5Value?5?$CFs?5at?5?$CFs?6?$AA@
CONST	SEGMENT DWORD USE32 PUBLIC 'CONST'
CONST	ENDS
;	COMDAT ??0?$CTempBuffer@D$0BAA@VCCRTAllocator@ATL@@@ATL@@QAE@XZ
_TEXT	SEGMENT PARA USE32 PUBLIC 'CODE'
_TEXT	ENDS
;	COMDAT ??1?$CTempBuffer@D$0BAA@VCCRTAllocator@ATL@@@ATL@@QAE@XZ
_TEXT	SEGMENT PARA USE32 PUBLIC 'CODE'
_TEXT	ENDS
;	COMDAT ?FreeHeap@?$CTempBuffer@D$0BAA@VCCRTAllocator@ATL@@@ATL@@AAEXXZ
_TEXT	SEGMENT PARA USE32 PUBLIC 'CODE'
_TEXT	ENDS
;	COMDAT ?Allocate@?$CTempBuffer@D$0BAA@VCCRTAllocator@ATL@@@ATL@@QAEPADI@Z
_TEXT	SEGMENT PARA USE32 PUBLIC 'CODE'
_TEXT	ENDS
;	COMDAT ?AllocateBytes@?$CTempBuffer@D$0BAA@VCCRTAllocator@ATL@@@ATL@@QAEPADI@Z
_TEXT	SEGMENT PARA USE32 PUBLIC 'CODE'
_TEXT	ENDS
;	COMDAT ?AllocateHeap@?$CTempBuffer@D$0BAA@VCCRTAllocator@ATL@@@ATL@@AAEXI@Z
_TEXT	SEGMENT PARA USE32 PUBLIC 'CODE'
_TEXT	ENDS
;	COMDAT ?SetMultiStringValue@CRegKey@ATL@@QAEJPBD0@Z
_TEXT	SEGMENT PARA USE32 PUBLIC 'CODE'
_TEXT	ENDS
;	COMDAT ??B?$CTempBuffer@D$0BAA@VCCRTAllocator@ATL@@@ATL@@QBEPADXZ
_TEXT	SEGMENT PARA USE32 PUBLIC 'CODE'
_TEXT	ENDS
;	COMDAT ?SetDWORDValue@CRegKey@ATL@@QAEJPBDK@Z
_TEXT	SEGMENT PARA USE32 PUBLIC 'CODE'
_TEXT	ENDS
;	COMDAT ??_C@_07DLHCIBDH@default?$AA@
CONST	SEGMENT DWORD USE32 PUBLIC 'CONST'
CONST	ENDS
;	COMDAT ??_C@_0BI@NDCHGJG@Setting?5Value?5?$CFd?5at?5?$CFs?6?$AA@
CONST	SEGMENT DWORD USE32 PUBLIC 'CONST'
CONST	ENDS
;	COMDAT ??_C@_0CN@BAKOHBFP@Binary?5Data?5does?5not?5fall?5on?5BYT@
CONST	SEGMENT DWORD USE32 PUBLIC 'CONST'
CONST	ENDS
;	COMDAT ??0?$CTempBuffer@E$0BAA@VCCRTAllocator@ATL@@@ATL@@QAE@XZ
_TEXT	SEGMENT PARA USE32 PUBLIC 'CODE'
_TEXT	ENDS
;	COMDAT ??1?$CTempBuffer@E$0BAA@VCCRTAllocator@ATL@@@ATL@@QAE@XZ
_TEXT	SEGMENT PARA USE32 PUBLIC 'CODE'
_TEXT	ENDS
;	COMDAT ?FreeHeap@?$CTempBuffer@E$0BAA@VCCRTAllocator@ATL@@@ATL@@AAEXXZ
_TEXT	SEGMENT PARA USE32 PUBLIC 'CODE'
_TEXT	ENDS
;	COMDAT ?Allocate@?$CTempBuffer@E$0BAA@VCCRTAllocator@ATL@@@ATL@@QAEPAEI@Z
_TEXT	SEGMENT PARA USE32 PUBLIC 'CODE'
_TEXT	ENDS
;	COMDAT ?AllocateBytes@?$CTempBuffer@E$0BAA@VCCRTAllocator@ATL@@@ATL@@QAEPAEI@Z
_TEXT	SEGMENT PARA USE32 PUBLIC 'CODE'
_TEXT	ENDS
;	COMDAT ?AllocateHeap@?$CTempBuffer@E$0BAA@VCCRTAllocator@ATL@@@ATL@@AAEXI@Z
_TEXT	SEGMENT PARA USE32 PUBLIC 'CODE'
_TEXT	ENDS
;	COMDAT ?ChToByte@CRegParser@ATL@@KAED@Z
_TEXT	SEGMENT PARA USE32 PUBLIC 'CODE'
_TEXT	ENDS
;	COMDAT ??_C@_0CL@PILPOMLI@Bogus?5value?5?$CFc?5passed?5as?5binary?5@
CONST	SEGMENT DWORD USE32 PUBLIC 'CONST'
CONST	ENDS
;	COMDAT ??B?$CTempBuffer@E$0BAA@VCCRTAllocator@ATL@@@ATL@@QBEPAEXZ
_TEXT	SEGMENT PARA USE32 PUBLIC 'CODE'
_TEXT	ENDS
;	COMDAT ?Open@CRegKey@ATL@@QAEJPAUHKEY__@@PBDK@Z
_TEXT	SEGMENT PARA USE32 PUBLIC 'CODE'
_TEXT	ENDS
;	COMDAT ??_C@_0L@LBABFFHO@lRes?5?$DN?$DN?50L?$AA@
CONST	SEGMENT DWORD USE32 PUBLIC 'CONST'
CONST	ENDS
;	COMDAT ??_C@_0P@IONAJCEO@Opened?5Key?5?$CFs?6?$AA@
CONST	SEGMENT DWORD USE32 PUBLIC 'CONST'
CONST	ENDS
;	COMDAT ??_C@_0CM@LEFFDKCG@Ignoring?5Open?5key?5on?5?$CFs?5?3?5In?5Rec@
CONST	SEGMENT DWORD USE32 PUBLIC 'CONST'
CONST	ENDS
;	COMDAT ?SkipAssignment@CRegParser@ATL@@IAEJPAD@Z
_TEXT	SEGMENT PARA USE32 PUBLIC 'CODE'
_TEXT	ENDS
;	COMDAT ??_C@_0BG@OEFMOOAA@Ending?5Recovery?5Mode?6?$AA@
CONST	SEGMENT DWORD USE32 PUBLIC 'CONST'
CONST	ENDS
;	COMDAT ?HasSubKeys@CRegParser@ATL@@IAEHPAUHKEY__@@@Z
_TEXT	SEGMENT PARA USE32 PUBLIC 'CODE'
_TEXT	ENDS
;	COMDAT ??_C@_0BG@OFKLEKA@Should?5not?5be?5here?$CB?$CB?6?$AA@
CONST	SEGMENT DWORD USE32 PUBLIC 'CONST'
CONST	ENDS
;	COMDAT ??BCRegKey@ATL@@QBEPAUHKEY__@@XZ
_TEXT	SEGMENT PARA USE32 PUBLIC 'CODE'
_TEXT	ENDS
;	COMDAT ?CanForceRemoveKey@CRegParser@ATL@@IAEHPBD@Z
_TEXT	SEGMENT PARA USE32 PUBLIC 'CODE'
_TEXT	ENDS
;	COMDAT ?rgszNeverDelete@CRegParser@ATL@@1QBQBDB
CONST	SEGMENT DWORD USE32 PUBLIC 'CONST'
CONST	ENDS
;	COMDAT ??_C@_0CH@OEJDLABI@Deleting?5non?9empty?5subkey?5?$CFs?5by?5@
CONST	SEGMENT DWORD USE32 PUBLIC 'CONST'
CONST	ENDS
;	COMDAT ?RecurseDeleteKey@CRegKey@ATL@@QAEJPBD@Z
_TEXT	SEGMENT PARA USE32 PUBLIC 'CODE'
_TEXT	ENDS
;	COMDAT ??_C@_0DP@JOHDIOJH@CRegKey?3?3RecurseDeleteKey?5?3?5Fail@
CONST	SEGMENT DWORD USE32 PUBLIC 'CONST'
CONST	ENDS
;	COMDAT ?Close@CRegKey@ATL@@QAEJXZ
_TEXT	SEGMENT PARA USE32 PUBLIC 'CODE'
_TEXT	ENDS
;	COMDAT ??_C@_0BB@FDAMNOMP@Deleting?5Key?5?$CFs?6?$AA@
CONST	SEGMENT DWORD USE32 PUBLIC 'CONST'
CONST	ENDS
;	COMDAT ??0CRegKey@ATL@@QAE@XZ
_TEXT	SEGMENT PARA USE32 PUBLIC 'CODE'
_TEXT	ENDS
;	COMDAT ??1CRegKey@ATL@@QAE@XZ
_TEXT	SEGMENT PARA USE32 PUBLIC 'CODE'
_TEXT	ENDS
;	COMDAT ?Attach@CRegKey@ATL@@QAEXPAUHKEY__@@@Z
_TEXT	SEGMENT PARA USE32 PUBLIC 'CODE'
_TEXT	ENDS
;	COMDAT ??_C@_0M@BNMKLGID@m_hKey?5?$DN?$DN?50?$AA@
CONST	SEGMENT DWORD USE32 PUBLIC 'CONST'
CONST	ENDS
;	COMDAT ?DeleteSubKey@CRegKey@ATL@@QAEJPBD@Z
_TEXT	SEGMENT PARA USE32 PUBLIC 'CODE'
_TEXT	ENDS
;	COMDAT ?Detach@CRegKey@ATL@@QAEPAUHKEY__@@XZ
_TEXT	SEGMENT PARA USE32 PUBLIC 'CODE'
_TEXT	ENDS
;	COMDAT ?AtlHresultFromWin32@ATL@@YAJK@Z
_TEXT	SEGMENT PARA USE32 PUBLIC 'CODE'
_TEXT	ENDS
;	COMDAT ?SkipWhiteSpace@CRegParser@ATL@@IAEXXZ
_TEXT	SEGMENT PARA USE32 PUBLIC 'CODE'
_TEXT	ENDS
;	COMDAT ??B?$CTempBuffer@D$0EAA@VCCRTAllocator@ATL@@@ATL@@QBEPADXZ
_TEXT	SEGMENT PARA USE32 PUBLIC 'CODE'
_TEXT	ENDS
;	COMDAT ?ResourceUnregister@CRegObject@ATL@@QAGJPBGI0@Z
_TEXT	SEGMENT PARA USE32 PUBLIC 'CODE'
_TEXT	ENDS
;	COMDAT ?_entries@?1??_GetEntries@CSignature@@SGPBU_ATL_INTMAP_ENTRY@ATL@@XZ@4QBU34@B
CONST	SEGMENT DWORD USE32 PUBLIC 'CONST'
CONST	ENDS
;	COMDAT __GUID_fc4801a3_2ba9_11cf_a229_00aa003d7352
CONST	SEGMENT DWORD USE32 PUBLIC 'CONST'
CONST	ENDS
;	COMDAT __GUID_b722bccb_4e68_101b_a2bc_00aa00404770
CONST	SEGMENT DWORD USE32 PUBLIC 'CONST'
CONST	ENDS
;	COMDAT __GUID_00020400_0000_0000_c000_000000000046
CONST	SEGMENT DWORD USE32 PUBLIC 'CONST'
CONST	ENDS
;	COMDAT __GUID_62ec64dc_b26d_46ce_9e33_24289bcf5f63
CONST	SEGMENT DWORD USE32 PUBLIC 'CONST'
CONST	ENDS
;	COMDAT ?InternalQueryInterface@CComObjectRootBase@ATL@@SGJPAXPBU_ATL_INTMAP_ENTRY@2@ABU_GUID@@PAPAX@Z
_TEXT	SEGMENT PARA USE32 PUBLIC 'CODE'
_TEXT	ENDS
;	COMDAT ??_C@_0L@DBHNDLKF@pThis?5?$CB?$DN?50?$AA@
CONST	SEGMENT DWORD USE32 PUBLIC 'CONST'
CONST	ENDS
;	COMDAT ??_C@_0DC@BBKMJDPM@pEntries?9?$DOpFunc?5?$DN?$DN?5?$CI?$CIATL?3?3_ATL_C@
CONST	SEGMENT DWORD USE32 PUBLIC 'CONST'
CONST	ENDS
;	COMDAT ??_C@_0DJ@HNJMKNAP@_GetEntries?$CI?$CJ?$FL0?$FN?4pFunc?5?$DN?$DN?5?$CI?$CIATL?3@
CONST	SEGMENT DWORD USE32 PUBLIC 'CONST'
CONST	ENDS
;	COMDAT ?Unlock@?$CComObjectRootEx@VCComSingleThreadModel@ATL@@@ATL@@QAEXXZ
_TEXT	SEGMENT PARA USE32 PUBLIC 'CODE'
_TEXT	ENDS
;	COMDAT ?_Cache@CComObjectRootBase@ATL@@SGJPAXABU_GUID@@PAPAXK@Z
_TEXT	SEGMENT PARA USE32 PUBLIC 'CODE'
_TEXT	ENDS
;	COMDAT ?Lock@?$CComObjectRootEx@VCComSingleThreadModel@ATL@@@ATL@@QAEXXZ
_TEXT	SEGMENT PARA USE32 PUBLIC 'CODE'
_TEXT	ENDS
;	COMDAT ?InternalRelease@?$CComObjectRootEx@VCComSingleThreadModel@ATL@@@ATL@@QAEKXZ
_TEXT	SEGMENT PARA USE32 PUBLIC 'CODE'
_TEXT	ENDS
;	COMDAT ?Decrement@CComSingleThreadModel@ATL@@SGKPAJ@Z
_TEXT	SEGMENT PARA USE32 PUBLIC 'CODE'
_TEXT	ENDS
;	COMDAT ??_C@_0EC@FOHBGNDM@0?5?$CG?$CG?5?$CCRelease?5called?5on?5a?5pointe@
CONST	SEGMENT DWORD USE32 PUBLIC 'CONST'
CONST	ENDS
;	COMDAT ?InternalAddRef@?$CComObjectRootEx@VCComSingleThreadModel@ATL@@@ATL@@QAEKXZ
_TEXT	SEGMENT PARA USE32 PUBLIC 'CODE'
_TEXT	ENDS
;	COMDAT ??_C@_0P@IDNKKMJE@m_dwRef?5?$CB?$DN?5?91L?$AA@
CONST	SEGMENT DWORD USE32 PUBLIC 'CONST'
CONST	ENDS
;	COMDAT ?Increment@CComSingleThreadModel@ATL@@SGKPAJ@Z
_TEXT	SEGMENT PARA USE32 PUBLIC 'CODE'
_TEXT	ENDS
;	COMDAT __GUID_c8be4864_227a_4a1b_84ee_473681bd4872
CONST	SEGMENT DWORD USE32 PUBLIC 'CONST'
CONST	ENDS
;	COMDAT __GUID_0d61aa35_48d5_47f5_8249_f685f75250fd
CONST	SEGMENT DWORD USE32 PUBLIC 'CONST'
CONST	ENDS
;	COMDAT __GUID_00000000_0000_0000_0000_000000000000
CONST	SEGMENT DWORD USE32 PUBLIC 'CONST'
CONST	ENDS
;	COMDAT ??_7_com_error@@6B@
CONST	SEGMENT DWORD USE32 PUBLIC 'CONST'
CONST	ENDS
;	COMDAT ??1?$CDialogImplBaseT@VCWindow@ATL@@@ATL@@UAE@XZ
_TEXT	SEGMENT PARA USE32 PUBLIC 'CODE'
_TEXT	ENDS
;	COMDAT ??BCWindow@ATL@@QBEPAUHWND__@@XZ
_TEXT	SEGMENT PARA USE32 PUBLIC 'CODE'
_TEXT	ENDS
;	COMDAT ?MessageBoxA@CWindow@ATL@@QAEHPBD0I@Z
_TEXT	SEGMENT PARA USE32 PUBLIC 'CODE'
_TEXT	ENDS
;	COMDAT ?SendMessageA@CWindow@ATL@@QAEJIIJ@Z
_TEXT	SEGMENT PARA USE32 PUBLIC 'CODE'
_TEXT	ENDS
;	COMDAT ?GetDlgItem@CWindow@ATL@@QBE?AV12@H@Z
_TEXT	SEGMENT PARA USE32 PUBLIC 'CODE'
_TEXT	ENDS
;	COMDAT ?CenterWindow@CWindow@ATL@@QAEHPAUHWND__@@@Z
_TEXT	SEGMENT PARA USE32 PUBLIC 'CODE'
_TEXT	ENDS
;	COMDAT ??_C@_0BH@ENLIMLGL@?3?3IsWindow?$CIhWndParent?$CJ?$AA@
CONST	SEGMENT DWORD USE32 PUBLIC 'CONST'
CONST	ENDS
;	COMDAT ??_C@_0BH@LBNLFONB@?3?3IsWindow?$CIhWndCenter?$CJ?$AA@
CONST	SEGMENT DWORD USE32 PUBLIC 'CONST'
CONST	ENDS
;	COMDAT ?A2WBSTR@@YAPAGPBDH@Z
_TEXT	SEGMENT PARA USE32 PUBLIC 'CODE'
_TEXT	ENDS
;	COMDAT ??_C@_0BJ@OGJFCAD@nResult?5?$DN?$DN?5nConvertedLen?$AA@
CONST	SEGMENT DWORD USE32 PUBLIC 'CONST'
CONST	ENDS
;	COMDAT ??_C@_0FA@OHHMODBN@C?3?2Program?5Files?2Microsoft?5Visua@
CONST	SEGMENT DWORD USE32 PUBLIC 'CONST'
CONST	ENDS
;	COMDAT ??BCComBSTR@ATL@@QBEPAGXZ
_TEXT	SEGMENT PARA USE32 PUBLIC 'CODE'
_TEXT	ENDS
;	COMDAT ?LoadStringA@CComBSTR@ATL@@QAE_NI@Z
_TEXT	SEGMENT PARA USE32 PUBLIC 'CODE'
_TEXT	ENDS
;	COMDAT ?LoadStringResource@CComBSTR@ATL@@SA_NIAAPAG@Z
_TEXT	SEGMENT PARA USE32 PUBLIC 'CODE'
_TEXT	ENDS
;	COMDAT ??_C@_0O@LPAFDJOF@bstrText?5?$DN?$DN?50?$AA@
CONST	SEGMENT DWORD USE32 PUBLIC 'CONST'
CONST	ENDS
;	COMDAT ?AtlGetStringResourceImage@ATL@@YAPBUATLSTRINGRESOURCEIMAGE@1@I@Z
_TEXT	SEGMENT PARA USE32 PUBLIC 'CODE'
_TEXT	ENDS
;	COMDAT ??1CComBSTR@ATL@@QAE@XZ
_TEXT	SEGMENT PARA USE32 PUBLIC 'CODE'
_TEXT	ENDS
;	COMDAT ??0CComBSTR@ATL@@QAE@XZ
_TEXT	SEGMENT PARA USE32 PUBLIC 'CODE'
_TEXT	ENDS
;	COMDAT ??_C@_0BN@BNLFFEBD@Invalid?5message?5map?5ID?5?$CI?$CFi?$CJ?6?$AA@
CONST	SEGMENT DWORD USE32 PUBLIC 'CONST'
CONST	ENDS
;	COMDAT ?EnableWindow@CWindow@ATL@@QAEHH@Z
_TEXT	SEGMENT PARA USE32 PUBLIC 'CODE'
_TEXT	ENDS
;	COMDAT ??_7CShowSelectCert@@6B@
CONST	SEGMENT DWORD USE32 PUBLIC 'CONST'
CONST	ENDS
;	COMDAT ?licenseTimeout@CLicense@@0HB
CONST	SEGMENT DWORD USE32 PUBLIC 'CONST'
CONST	ENDS
;	COMDAT ??_C@_01GBGANLPD@0?$AA@
CONST	SEGMENT DWORD USE32 PUBLIC 'CONST'
CONST	ENDS
;	COMDAT ?szInvalidDateTimeSpan@ATL@@3QBDB
CONST	SEGMENT DWORD USE32 PUBLIC 'CONST'
CONST	ENDS
;	COMDAT ?szInvalidDateTime@ATL@@3QBDB
CONST	SEGMENT DWORD USE32 PUBLIC 'CONST'
CONST	ENDS
;	COMDAT ?Week@CFileTime@ATL@@2_KB
CONST	SEGMENT DWORD USE32 PUBLIC 'CONST'
CONST	ENDS
;	COMDAT ?Day@CFileTime@ATL@@2_KB
CONST	SEGMENT DWORD USE32 PUBLIC 'CONST'
CONST	ENDS
;	COMDAT ?Hour@CFileTime@ATL@@2_KB
CONST	SEGMENT DWORD USE32 PUBLIC 'CONST'
CONST	ENDS
;	COMDAT ?Minute@CFileTime@ATL@@2_KB
CONST	SEGMENT DWORD USE32 PUBLIC 'CONST'
CONST	ENDS
;	COMDAT ?Second@CFileTime@ATL@@2_KB
CONST	SEGMENT DWORD USE32 PUBLIC 'CONST'
CONST	ENDS
;	COMDAT ?Millisecond@CFileTime@ATL@@2_KB
CONST	SEGMENT DWORD USE32 PUBLIC 'CONST'
CONST	ENDS
;	COMDAT ?c_bIsMFCDLLTraits@?$_MFCDLLTraitsCheck@GV?$StrTraitATL@GV?$ChTraitsCRT@G@ATL@@@ATL@@@_CSTRING_IMPL_@ATL@@2_NB
CONST	SEGMENT DWORD USE32 PUBLIC 'CONST'
CONST	ENDS
;	COMDAT ?c_bIsMFCDLLTraits@?$_MFCDLLTraitsCheck@DV?$StrTraitATL@DV?$ChTraitsCRT@D@ATL@@@ATL@@@_CSTRING_IMPL_@ATL@@2_NB
CONST	SEGMENT DWORD USE32 PUBLIC 'CONST'
CONST	ENDS
;	COMDAT ??_C@_09BBJEMDLA@nRet?5?$CB?$DN?50?$AA@
CONST	SEGMENT DWORD USE32 PUBLIC 'CONST'
CONST	ENDS
;	COMDAT ?AddRef@CStringData@ATL@@QAEXXZ
_TEXT	SEGMENT PARA USE32 PUBLIC 'CODE'
_TEXT	ENDS
;	COMDAT ??_C@_09EEBKLCFA@nRefs?5?$DO?50?$AA@
CONST	SEGMENT DWORD USE32 PUBLIC 'CONST'
CONST	ENDS
;	COMDAT ?SetManager@CNilStringData@ATL@@QAEXPAUIAtlStringMgr@2@@Z
_TEXT	SEGMENT PARA USE32 PUBLIC 'CODE'
_TEXT	ENDS
;	COMDAT ??_C@_0BA@MLJMCNFJ@pStringMgr?5?$DN?$DN?50?$AA@
CONST	SEGMENT DWORD USE32 PUBLIC 'CONST'
CONST	ENDS
;	COMDAT ??0CNilStringData@ATL@@QAE@XZ
_TEXT	SEGMENT PARA USE32 PUBLIC 'CODE'
_TEXT	ENDS
;	COMDAT ??_7CAtlStringMgr@ATL@@6B@
CONST	SEGMENT DWORD USE32 PUBLIC 'CONST'
CONST	ENDS
;	COMDAT ??_7IFixedStringLog@ATL@@6B@
CONST	SEGMENT DWORD USE32 PUBLIC 'CONST'
CONST	ENDS
;	COMDAT ??BCTraceCategory@ATL@@QBEKXZ
_TEXT	SEGMENT PARA USE32 PUBLIC 'CODE'
_TEXT	ENDS
;	COMDAT ??0CTraceFileAndLineInfo@ATL@@QAE@PBDH@Z
_TEXT	SEGMENT PARA USE32 PUBLIC 'CODE'
_TEXT	ENDS
;	COMDAT ??RCTraceFileAndLineInfo@ATL@@QBAXKIPBDZZ
_TEXT	SEGMENT PARA USE32 PUBLIC 'CODE'
_TEXT	ENDS
;	COMDAT ?TraceV@CTrace@ATL@@QBAXPBDHKI0PAD@Z
_TEXT	SEGMENT PARA USE32 PUBLIC 'CODE'
_TEXT	ENDS
;	COMDAT ??_7CFixedStringLog@ATL@@6B@
CONST	SEGMENT DWORD USE32 PUBLIC 'CONST'
CONST	ENDS
;	COMDAT ?s_pLog@CFixedStringMgr@ATL@@2PAVIFixedStringLog@2@A
_DATA	SEGMENT DWORD USE32 PUBLIC 'DATA'
_DATA	ENDS
;	COMDAT ?data@CStringData@ATL@@QAEPAXXZ
_TEXT	SEGMENT PARA USE32 PUBLIC 'CODE'
_TEXT	ENDS
;	COMDAT ??_7CFixedStringMgr@ATL@@6B@
CONST	SEGMENT DWORD USE32 PUBLIC 'CONST'
CONST	ENDS
;	COMDAT ?AtlA2WHelper@@YGPAGPAGPBDHI@Z
_TEXT	SEGMENT PARA USE32 PUBLIC 'CODE'
_TEXT	ENDS
;	COMDAT ??_C@_08DMHHBMMN@lpa?5?$CB?$DN?50?$AA@
CONST	SEGMENT DWORD USE32 PUBLIC 'CONST'
CONST	ENDS
;	COMDAT ??_C@_08DIHJLFDJ@lpw?5?$CB?$DN?50?$AA@
CONST	SEGMENT DWORD USE32 PUBLIC 'CONST'
CONST	ENDS
;	COMDAT ?AtlThrow@ATL@@YGXJ@Z
_TEXT	SEGMENT PARA USE32 PUBLIC 'CODE'
_TEXT	ENDS
;	COMDAT ??_C@_0FC@CFIFHLCH@C?3?2Program?5Files?2Microsoft?5Visua@
CONST	SEGMENT DWORD USE32 PUBLIC 'CONST'
CONST	ENDS
;	COMDAT ??_C@_0BF@IAAKIJDJ@AtlThrow?3?5hr?5?$DN?50x?$CFx?6?$AA@
CONST	SEGMENT DWORD USE32 PUBLIC 'CONST'
CONST	ENDS
;	COMDAT ??0CAtlException@ATL@@QAE@J@Z
_TEXT	SEGMENT PARA USE32 PUBLIC 'CODE'
_TEXT	ENDS
;	COMDAT __TI1?AVCAtlException@ATL@@
xdata$x	SEGMENT DWORD USE32 PUBLIC 'CONST'
xdata$x	ENDS
;	COMDAT __CTA1?AVCAtlException@ATL@@
xdata$x	SEGMENT DWORD USE32 PUBLIC 'CONST'
xdata$x	ENDS
;	COMDAT __CT??_R0?AVCAtlException@ATL@@@84
xdata$x	SEGMENT DWORD USE32 PUBLIC 'CONST'
xdata$x	ENDS
;	COMDAT ??_R0?AVCAtlException@ATL@@@8
_DATA	SEGMENT DWORD USE32 PUBLIC 'DATA'
_DATA	ENDS
;	COMDAT ?Allocate@?$CAtlSafeAllocBufferManager@VCCRTAllocator@ATL@@@_ATL_SAFE_ALLOCA_IMPL@ATL@@QAEPAXK@Z
_TEXT	SEGMENT PARA USE32 PUBLIC 'CODE'
_TEXT	ENDS
;	COMDAT ?GetData@CAtlSafeAllocBufferNode@?$CAtlSafeAllocBufferManager@VCCRTAllocator@ATL@@@_ATL_SAFE_ALLOCA_IMPL@ATL@@QAEPAXXZ
_TEXT	SEGMENT PARA USE32 PUBLIC 'CODE'
_TEXT	ENDS
;	COMDAT ?_AtlVerifyStackAvailable@_ATL_SAFE_ALLOCA_IMPL@ATL@@YA_NK@Z
_TEXT	SEGMENT PARA USE32 PUBLIC 'CODE'
_TEXT	ENDS
;	COMDAT ?AtlW2AHelper@@YGPADPADPBGHI@Z
_TEXT	SEGMENT PARA USE32 PUBLIC 'CODE'
_TEXT	ENDS
;	COMDAT ??1?$CAtlSafeAllocBufferManager@VCCRTAllocator@ATL@@@_ATL_SAFE_ALLOCA_IMPL@ATL@@QAE@XZ
_TEXT	SEGMENT PARA USE32 PUBLIC 'CODE'
_TEXT	ENDS
;	COMDAT ??0?$CAtlSafeAllocBufferManager@VCCRTAllocator@ATL@@@_ATL_SAFE_ALLOCA_IMPL@ATL@@QAE@XZ
_TEXT	SEGMENT PARA USE32 PUBLIC 'CODE'
_TEXT	ENDS
;	COMDAT ?_strthunks@ATL@@3U_AtlStringThunks@1@A
_DATA	SEGMENT DWORD USE32 PUBLIC 'DATA'
_DATA	ENDS
;	COMDAT ??B?$CTempBuffer@D$0IA@VCCRTAllocator@ATL@@@ATL@@QBEPADXZ
_TEXT	SEGMENT PARA USE32 PUBLIC 'CODE'
_TEXT	ENDS
;	COMDAT ?Allocate@?$CTempBuffer@D$0IA@VCCRTAllocator@ATL@@@ATL@@QAEPADI@Z
_TEXT	SEGMENT PARA USE32 PUBLIC 'CODE'
_TEXT	ENDS
;	COMDAT ?AllocateBytes@?$CTempBuffer@D$0IA@VCCRTAllocator@ATL@@@ATL@@QAEPADI@Z
_TEXT	SEGMENT PARA USE32 PUBLIC 'CODE'
_TEXT	ENDS
;	COMDAT ?AllocateHeap@?$CTempBuffer@D$0IA@VCCRTAllocator@ATL@@@ATL@@AAEXI@Z
_TEXT	SEGMENT PARA USE32 PUBLIC 'CODE'
_TEXT	ENDS
;	COMDAT ??1?$CTempBuffer@D$0IA@VCCRTAllocator@ATL@@@ATL@@QAE@XZ
_TEXT	SEGMENT PARA USE32 PUBLIC 'CODE'
_TEXT	ENDS
;	COMDAT ?FreeHeap@?$CTempBuffer@D$0IA@VCCRTAllocator@ATL@@@ATL@@AAEXXZ
_TEXT	SEGMENT PARA USE32 PUBLIC 'CODE'
_TEXT	ENDS
;	COMDAT ??0?$CTempBuffer@D$0IA@VCCRTAllocator@ATL@@@ATL@@QAE@XZ
_TEXT	SEGMENT PARA USE32 PUBLIC 'CODE'
_TEXT	ENDS
;	COMDAT ?InterlockedExchangePointer@@YGPAXPAPAXPAX@Z
_TEXT	SEGMENT PARA USE32 PUBLIC 'CODE'
_TEXT	ENDS
;	COMDAT ?s_bWin9x@?1??_AtlInstallStringThunk@ATL@@YAXPAPAXPAX1@Z@4_NA
_BSS	SEGMENT DWORD USE32 PUBLIC 'BSS'
_BSS	ENDS
;	COMDAT ??_B?1??_AtlInstallStringThunk@ATL@@YAXPAPAXPAX1@Z@51
_BSS	SEGMENT DWORD USE32 PUBLIC 'BSS'
_BSS	ENDS
;	COMDAT ?_AtlGetConversionACP@ATL@@YGIXZ
_TEXT	SEGMENT PARA USE32 PUBLIC 'CODE'
_TEXT	ENDS
;	COMDAT ?g_pfnGetThreadACP@ATL@@3P6GIXZA
_DATA	SEGMENT DWORD USE32 PUBLIC 'DATA'
_DATA	ENDS
;	COMDAT ?_AtlGetThreadACPThunk@ATL@@YGIXZ
_TEXT	SEGMENT PARA USE32 PUBLIC 'CODE'
_TEXT	ENDS
;	COMDAT ?_AtlGetThreadACPReal@ATL@@YGIXZ
_TEXT	SEGMENT PARA USE32 PUBLIC 'CODE'
_TEXT	ENDS
;	COMDAT ?_AtlGetThreadACPFake@ATL@@YGIXZ
_TEXT	SEGMENT PARA USE32 PUBLIC 'CODE'
_TEXT	ENDS
;	COMDAT ??_7ios_base@std@@6B@
CONST	SEGMENT DWORD USE32 PUBLIC 'CONST'
CONST	ENDS
;	COMDAT ??_7failure@ios_base@std@@6B@
CONST	SEGMENT DWORD USE32 PUBLIC 'CONST'
CONST	ENDS
;	COMDAT ?end@?$_Iosb@H@std@@2W4_Seekdir@12@B
CONST	SEGMENT DWORD USE32 PUBLIC 'CONST'
CONST	ENDS
;	COMDAT ?cur@?$_Iosb@H@std@@2W4_Seekdir@12@B
CONST	SEGMENT DWORD USE32 PUBLIC 'CONST'
CONST	ENDS
;	COMDAT ?beg@?$_Iosb@H@std@@2W4_Seekdir@12@B
CONST	SEGMENT DWORD USE32 PUBLIC 'CONST'
CONST	ENDS
;	COMDAT ?binary@?$_Iosb@H@std@@2W4_Openmode@12@B
CONST	SEGMENT DWORD USE32 PUBLIC 'CONST'
CONST	ENDS
;	COMDAT ?_Noreplace@?$_Iosb@H@std@@2W4_Openmode@12@B
CONST	SEGMENT DWORD USE32 PUBLIC 'CONST'
CONST	ENDS
;	COMDAT ?_Nocreate@?$_Iosb@H@std@@2W4_Openmode@12@B
CONST	SEGMENT DWORD USE32 PUBLIC 'CONST'
CONST	ENDS
;	COMDAT ?trunc@?$_Iosb@H@std@@2W4_Openmode@12@B
CONST	SEGMENT DWORD USE32 PUBLIC 'CONST'
CONST	ENDS
;	COMDAT ?app@?$_Iosb@H@std@@2W4_Openmode@12@B
CONST	SEGMENT DWORD USE32 PUBLIC 'CONST'
CONST	ENDS
;	COMDAT ?ate@?$_Iosb@H@std@@2W4_Openmode@12@B
CONST	SEGMENT DWORD USE32 PUBLIC 'CONST'
CONST	ENDS
;	COMDAT ?out@?$_Iosb@H@std@@2W4_Openmode@12@B
CONST	SEGMENT DWORD USE32 PUBLIC 'CONST'
CONST	ENDS
;	COMDAT ?in@?$_Iosb@H@std@@2W4_Openmode@12@B
CONST	SEGMENT DWORD USE32 PUBLIC 'CONST'
CONST	ENDS
;	COMDAT ?_Hardfail@?$_Iosb@H@std@@2W4_Iostate@12@B
CONST	SEGMENT DWORD USE32 PUBLIC 'CONST'
CONST	ENDS
;	COMDAT ?badbit@?$_Iosb@H@std@@2W4_Iostate@12@B
CONST	SEGMENT DWORD USE32 PUBLIC 'CONST'
CONST	ENDS
;	COMDAT ?failbit@?$_Iosb@H@std@@2W4_Iostate@12@B
CONST	SEGMENT DWORD USE32 PUBLIC 'CONST'
CONST	ENDS
;	COMDAT ?eofbit@?$_Iosb@H@std@@2W4_Iostate@12@B
CONST	SEGMENT DWORD USE32 PUBLIC 'CONST'
CONST	ENDS
;	COMDAT ?goodbit@?$_Iosb@H@std@@2W4_Iostate@12@B
CONST	SEGMENT DWORD USE32 PUBLIC 'CONST'
CONST	ENDS
;	COMDAT ?floatfield@?$_Iosb@H@std@@2W4_Fmtflags@12@B
CONST	SEGMENT DWORD USE32 PUBLIC 'CONST'
CONST	ENDS
;	COMDAT ?basefield@?$_Iosb@H@std@@2W4_Fmtflags@12@B
CONST	SEGMENT DWORD USE32 PUBLIC 'CONST'
CONST	ENDS
;	COMDAT ?adjustfield@?$_Iosb@H@std@@2W4_Fmtflags@12@B
CONST	SEGMENT DWORD USE32 PUBLIC 'CONST'
CONST	ENDS
;	COMDAT ?_Stdio@?$_Iosb@H@std@@2W4_Fmtflags@12@B
CONST	SEGMENT DWORD USE32 PUBLIC 'CONST'
CONST	ENDS
;	COMDAT ?boolalpha@?$_Iosb@H@std@@2W4_Fmtflags@12@B
CONST	SEGMENT DWORD USE32 PUBLIC 'CONST'
CONST	ENDS
;	COMDAT ?fixed@?$_Iosb@H@std@@2W4_Fmtflags@12@B
CONST	SEGMENT DWORD USE32 PUBLIC 'CONST'
CONST	ENDS
;	COMDAT ?scientific@?$_Iosb@H@std@@2W4_Fmtflags@12@B
CONST	SEGMENT DWORD USE32 PUBLIC 'CONST'
CONST	ENDS
;	COMDAT ?hex@?$_Iosb@H@std@@2W4_Fmtflags@12@B
CONST	SEGMENT DWORD USE32 PUBLIC 'CONST'
CONST	ENDS
;	COMDAT ?oct@?$_Iosb@H@std@@2W4_Fmtflags@12@B
CONST	SEGMENT DWORD USE32 PUBLIC 'CONST'
CONST	ENDS
;	COMDAT ?dec@?$_Iosb@H@std@@2W4_Fmtflags@12@B
CONST	SEGMENT DWORD USE32 PUBLIC 'CONST'
CONST	ENDS
;	COMDAT ?internal@?$_Iosb@H@std@@2W4_Fmtflags@12@B
CONST	SEGMENT DWORD USE32 PUBLIC 'CONST'
CONST	ENDS
;	COMDAT ?right@?$_Iosb@H@std@@2W4_Fmtflags@12@B
CONST	SEGMENT DWORD USE32 PUBLIC 'CONST'
CONST	ENDS
;	COMDAT ?left@?$_Iosb@H@std@@2W4_Fmtflags@12@B
CONST	SEGMENT DWORD USE32 PUBLIC 'CONST'
CONST	ENDS
;	COMDAT ?showpos@?$_Iosb@H@std@@2W4_Fmtflags@12@B
CONST	SEGMENT DWORD USE32 PUBLIC 'CONST'
CONST	ENDS
;	COMDAT ?showpoint@?$_Iosb@H@std@@2W4_Fmtflags@12@B
CONST	SEGMENT DWORD USE32 PUBLIC 'CONST'
CONST	ENDS
;	COMDAT ?showbase@?$_Iosb@H@std@@2W4_Fmtflags@12@B
CONST	SEGMENT DWORD USE32 PUBLIC 'CONST'
CONST	ENDS
;	COMDAT ?uppercase@?$_Iosb@H@std@@2W4_Fmtflags@12@B
CONST	SEGMENT DWORD USE32 PUBLIC 'CONST'
CONST	ENDS
;	COMDAT ?unitbuf@?$_Iosb@H@std@@2W4_Fmtflags@12@B
CONST	SEGMENT DWORD USE32 PUBLIC 'CONST'
CONST	ENDS
;	COMDAT ?skipws@?$_Iosb@H@std@@2W4_Fmtflags@12@B
CONST	SEGMENT DWORD USE32 PUBLIC 'CONST'
CONST	ENDS
;	COMDAT ??_7?$ctype@G@std@@6B@
CONST	SEGMENT DWORD USE32 PUBLIC 'CONST'
CONST	ENDS
;	COMDAT ??_7?$ctype@D@std@@6B@
CONST	SEGMENT DWORD USE32 PUBLIC 'CONST'
CONST	ENDS
;	COMDAT ??_7ctype_base@std@@6B@
CONST	SEGMENT DWORD USE32 PUBLIC 'CONST'
CONST	ENDS
;	COMDAT ??_7?$codecvt@GDH@std@@6B@
CONST	SEGMENT DWORD USE32 PUBLIC 'CONST'
CONST	ENDS
;	COMDAT ??_7codecvt_base@std@@6B@
CONST	SEGMENT DWORD USE32 PUBLIC 'CONST'
CONST	ENDS
;	COMDAT ??_7facet@locale@std@@6B@
CONST	SEGMENT DWORD USE32 PUBLIC 'CONST'
CONST	ENDS
;	COMDAT ?none@?$_Locbase@H@std@@2HB
CONST	SEGMENT DWORD USE32 PUBLIC 'CONST'
CONST	ENDS
;	COMDAT ?all@?$_Locbase@H@std@@2HB
CONST	SEGMENT DWORD USE32 PUBLIC 'CONST'
CONST	ENDS
;	COMDAT ?messages@?$_Locbase@H@std@@2HB
CONST	SEGMENT DWORD USE32 PUBLIC 'CONST'
CONST	ENDS
;	COMDAT ?time@?$_Locbase@H@std@@2HB
CONST	SEGMENT DWORD USE32 PUBLIC 'CONST'
CONST	ENDS
;	COMDAT ?numeric@?$_Locbase@H@std@@2HB
CONST	SEGMENT DWORD USE32 PUBLIC 'CONST'
CONST	ENDS
;	COMDAT ?monetary@?$_Locbase@H@std@@2HB
CONST	SEGMENT DWORD USE32 PUBLIC 'CONST'
CONST	ENDS
;	COMDAT ?ctype@?$_Locbase@H@std@@2HB
CONST	SEGMENT DWORD USE32 PUBLIC 'CONST'
CONST	ENDS
;	COMDAT ?collate@?$_Locbase@H@std@@2HB
CONST	SEGMENT DWORD USE32 PUBLIC 'CONST'
CONST	ENDS
;	COMDAT ??_C@_05LAPONLG@false?$AA@
CONST	SEGMENT DWORD USE32 PUBLIC 'CONST'
CONST	ENDS
;	COMDAT ??_7range_error@std@@6B@
CONST	SEGMENT DWORD USE32 PUBLIC 'CONST'
CONST	ENDS
;	COMDAT ??_7underflow_error@std@@6B@
CONST	SEGMENT DWORD USE32 PUBLIC 'CONST'
CONST	ENDS
;	COMDAT ??_7overflow_error@std@@6B@
CONST	SEGMENT DWORD USE32 PUBLIC 'CONST'
CONST	ENDS
;	COMDAT ??_7runtime_error@std@@6B@
CONST	SEGMENT DWORD USE32 PUBLIC 'CONST'
CONST	ENDS
;	COMDAT ??_7out_of_range@std@@6B@
CONST	SEGMENT DWORD USE32 PUBLIC 'CONST'
CONST	ENDS
;	COMDAT ??_7length_error@std@@6B@
CONST	SEGMENT DWORD USE32 PUBLIC 'CONST'
CONST	ENDS
;	COMDAT ??_7invalid_argument@std@@6B@
CONST	SEGMENT DWORD USE32 PUBLIC 'CONST'
CONST	ENDS
;	COMDAT ??_7domain_error@std@@6B@
CONST	SEGMENT DWORD USE32 PUBLIC 'CONST'
CONST	ENDS
;	COMDAT ??_7logic_error@std@@6B@
CONST	SEGMENT DWORD USE32 PUBLIC 'CONST'
CONST	ENDS
;	COMDAT ??_7bad_alloc@std@@6B@
CONST	SEGMENT DWORD USE32 PUBLIC 'CONST'
CONST	ENDS
;	COMDAT ??_7bad_exception@std@@6B@
CONST	SEGMENT DWORD USE32 PUBLIC 'CONST'
CONST	ENDS
;	COMDAT ??_7CBufferVariant@@6B@
CONST	SEGMENT DWORD USE32 PUBLIC 'CONST'
CONST	ENDS
;	COMDAT ??_7CConfig@@6B@
CONST	SEGMENT DWORD USE32 PUBLIC 'CONST'
CONST	ENDS
sxdata	SEGMENT DWORD USE32 'SXDATA'
sxdata	ENDS
FLAT	GROUP _DATA, CONST, _BSS, CRT$XCU
	ASSUME	CS: FLAT, DS: FLAT, SS: FLAT
endif

INCLUDELIB LIBCMTD
INCLUDELIB OLDNAMES

PUBLIC	?g_pfnGetThreadACP@ATL@@3P6GIXZA		; ATL::g_pfnGetThreadACP
PUBLIC	?_AtlGetThreadACPThunk@ATL@@YGIXZ		; ATL::_AtlGetThreadACPThunk
PUBLIC	?_pAtlModule@ATL@@3PAVCAtlModule@1@A		; ATL::_pAtlModule
PUBLIC	?m_libid@CAtlModule@ATL@@2U_GUID@@A		; ATL::CAtlModule::m_libid
PUBLIC	?appSettings@CConfig@@2PBEB			; CConfig::appSettings
PUBLIC	?envelopingFlag@CConfig@@2PBEB			; CConfig::envelopingFlag
PUBLIC	?addWindowImage@CConfig@@2PBEB			; CConfig::addWindowImage
PUBLIC	?captureOnce@CConfig@@2PBEB			; CConfig::captureOnce
PUBLIC	?crlChecking@CConfig@@2PBEB			; CConfig::crlChecking
PUBLIC	?physicalSignatureFile@CConfig@@2PBEB		; CConfig::physicalSignatureFile
PUBLIC	?physicalSignatureUsage@CConfig@@2PBEB		; CConfig::physicalSignatureUsage
PUBLIC	?timeStampURL@CConfig@@2PBEB			; CConfig::timeStampURL
PUBLIC	?timeStamping@CConfig@@2PBEB			; CConfig::timeStamping
PUBLIC	?timeStampFormat@CConfig@@2PBEB			; CConfig::timeStampFormat
PUBLIC	?timeStampCritical@CConfig@@2PBEB		; CConfig::timeStampCritical
PUBLIC	?doDCompliance@CConfig@@2PBEB			; CConfig::doDCompliance
PUBLIC	?certificateTrustExplicit@CConfig@@2PBEB	; CConfig::certificateTrustExplicit
PUBLIC	?trustedRootCount@CConfig@@2PBEB		; CConfig::trustedRootCount
PUBLIC	?trustedRoot@CConfig@@2PBEB			; CConfig::trustedRoot
PUBLIC	?certificatePolicyExplicit@CConfig@@2PBEB	; CConfig::certificatePolicyExplicit
PUBLIC	?certificatePathLengthChecking@CConfig@@2PBEB	; CConfig::certificatePathLengthChecking
PUBLIC	?certificateChainValidation@CConfig@@2PBEB	; CConfig::certificateChainValidation
PUBLIC	?certificatePolicyChecking@CConfig@@2PBEB	; CConfig::certificatePolicyChecking
PUBLIC	?certificatePolicyCount@CConfig@@2PBEB		; CConfig::certificatePolicyCount
PUBLIC	?certificatePolicy@CConfig@@2PBEB		; CConfig::certificatePolicy
PUBLIC	?cRLLocationCount@CConfig@@2PBEB		; CConfig::cRLLocationCount
PUBLIC	?cRLLocation@CConfig@@2PBEB			; CConfig::cRLLocation
PUBLIC	?overwriteFile@CConfig@@2PBEB			; CConfig::overwriteFile
PUBLIC	?excludeSignerCertificate@CConfig@@2PBEB	; CConfig::excludeSignerCertificate
PUBLIC	?detailedVerificationFlag@CConfig@@2PBEB	; CConfig::detailedVerificationFlag
PUBLIC	?base64EncodeXML@CConfig@@2PBEB			; CConfig::base64EncodeXML
PUBLIC	?base64DecodeXML@CConfig@@2PBEB			; CConfig::base64DecodeXML
PUBLIC	?includeCamResponse@CConfig@@2PBEB		; CConfig::includeCamResponse
PUBLIC	?camServerHost@CConfig@@2PBEB			; CConfig::camServerHost
PUBLIC	?camServerPort@CConfig@@2PBEB			; CConfig::camServerPort
PUBLIC	?useCam@CConfig@@2PBEB				; CConfig::useCam
PUBLIC	?agencyId@CConfig@@2PBEB			; CConfig::agencyId
PUBLIC	?allowedCertIssuerCount@CConfig@@2PBEB		; CConfig::allowedCertIssuerCount
PUBLIC	?allowedCertIssuerName@CConfig@@2PBEB		; CConfig::allowedCertIssuerName
PUBLIC	?crlCacheDbConnectionString@CConfig@@2PBEB	; CConfig::crlCacheDbConnectionString
PUBLIC	?useCRLCache@CConfig@@2PBEB			; CConfig::useCRLCache
PUBLIC	?crlCacheTimeoutInMinutes@CConfig@@2PBEB	; CConfig::crlCacheTimeoutInMinutes
PUBLIC	?c_bIsMFCDLLTraits@?$_MFCDLLTraitsCheck@DV?$StrTraitATL@DV?$ChTraitsCRT@D@ATL@@@ATL@@@_CSTRING_IMPL_@ATL@@2_NB ; ATL::_CSTRING_IMPL_::_MFCDLLTraitsCheck<char,ATL::StrTraitATL<char,ATL::ChTraitsCRT<char> > >::c_bIsMFCDLLTraits
PUBLIC	?skipws@?$_Iosb@H@std@@2W4_Fmtflags@12@B	; std::_Iosb<int>::skipws
PUBLIC	?unitbuf@?$_Iosb@H@std@@2W4_Fmtflags@12@B	; std::_Iosb<int>::unitbuf
PUBLIC	?uppercase@?$_Iosb@H@std@@2W4_Fmtflags@12@B	; std::_Iosb<int>::uppercase
PUBLIC	?showbase@?$_Iosb@H@std@@2W4_Fmtflags@12@B	; std::_Iosb<int>::showbase
PUBLIC	?showpoint@?$_Iosb@H@std@@2W4_Fmtflags@12@B	; std::_Iosb<int>::showpoint
PUBLIC	?showpos@?$_Iosb@H@std@@2W4_Fmtflags@12@B	; std::_Iosb<int>::showpos
PUBLIC	?left@?$_Iosb@H@std@@2W4_Fmtflags@12@B		; std::_Iosb<int>::left
PUBLIC	?right@?$_Iosb@H@std@@2W4_Fmtflags@12@B		; std::_Iosb<int>::right
PUBLIC	?internal@?$_Iosb@H@std@@2W4_Fmtflags@12@B	; std::_Iosb<int>::internal
PUBLIC	?dec@?$_Iosb@H@std@@2W4_Fmtflags@12@B		; std::_Iosb<int>::dec
PUBLIC	?oct@?$_Iosb@H@std@@2W4_Fmtflags@12@B		; std::_Iosb<int>::oct
PUBLIC	?hex@?$_Iosb@H@std@@2W4_Fmtflags@12@B		; std::_Iosb<int>::hex
PUBLIC	?scientific@?$_Iosb@H@std@@2W4_Fmtflags@12@B	; std::_Iosb<int>::scientific
PUBLIC	?fixed@?$_Iosb@H@std@@2W4_Fmtflags@12@B		; std::_Iosb<int>::fixed
PUBLIC	?boolalpha@?$_Iosb@H@std@@2W4_Fmtflags@12@B	; std::_Iosb<int>::boolalpha
PUBLIC	?_Stdio@?$_Iosb@H@std@@2W4_Fmtflags@12@B	; std::_Iosb<int>::_Stdio
PUBLIC	?adjustfield@?$_Iosb@H@std@@2W4_Fmtflags@12@B	; std::_Iosb<int>::adjustfield
PUBLIC	?basefield@?$_Iosb@H@std@@2W4_Fmtflags@12@B	; std::_Iosb<int>::basefield
PUBLIC	?floatfield@?$_Iosb@H@std@@2W4_Fmtflags@12@B	; std::_Iosb<int>::floatfield
PUBLIC	?goodbit@?$_Iosb@H@std@@2W4_Iostate@12@B	; std::_Iosb<int>::goodbit
PUBLIC	?eofbit@?$_Iosb@H@std@@2W4_Iostate@12@B		; std::_Iosb<int>::eofbit
PUBLIC	?failbit@?$_Iosb@H@std@@2W4_Iostate@12@B	; std::_Iosb<int>::failbit
PUBLIC	?badbit@?$_Iosb@H@std@@2W4_Iostate@12@B		; std::_Iosb<int>::badbit
PUBLIC	?_Hardfail@?$_Iosb@H@std@@2W4_Iostate@12@B	; std::_Iosb<int>::_Hardfail
PUBLIC	?in@?$_Iosb@H@std@@2W4_Openmode@12@B		; std::_Iosb<int>::in
PUBLIC	?out@?$_Iosb@H@std@@2W4_Openmode@12@B		; std::_Iosb<int>::out
PUBLIC	?ate@?$_Iosb@H@std@@2W4_Openmode@12@B		; std::_Iosb<int>::ate
PUBLIC	?app@?$_Iosb@H@std@@2W4_Openmode@12@B		; std::_Iosb<int>::app
PUBLIC	?trunc@?$_Iosb@H@std@@2W4_Openmode@12@B		; std::_Iosb<int>::trunc
PUBLIC	?_Nocreate@?$_Iosb@H@std@@2W4_Openmode@12@B	; std::_Iosb<int>::_Nocreate
PUBLIC	?_Noreplace@?$_Iosb@H@std@@2W4_Openmode@12@B	; std::_Iosb<int>::_Noreplace
PUBLIC	?binary@?$_Iosb@H@std@@2W4_Openmode@12@B	; std::_Iosb<int>::binary
PUBLIC	?beg@?$_Iosb@H@std@@2W4_Seekdir@12@B		; std::_Iosb<int>::beg
PUBLIC	?cur@?$_Iosb@H@std@@2W4_Seekdir@12@B		; std::_Iosb<int>::cur
PUBLIC	?end@?$_Iosb@H@std@@2W4_Seekdir@12@B		; std::_Iosb<int>::end
PUBLIC	?Millisecond@CFileTime@ATL@@2_KB		; ATL::CFileTime::Millisecond
PUBLIC	?Second@CFileTime@ATL@@2_KB			; ATL::CFileTime::Second
PUBLIC	?Minute@CFileTime@ATL@@2_KB			; ATL::CFileTime::Minute
PUBLIC	?Hour@CFileTime@ATL@@2_KB			; ATL::CFileTime::Hour
PUBLIC	?Day@CFileTime@ATL@@2_KB			; ATL::CFileTime::Day
PUBLIC	?Week@CFileTime@ATL@@2_KB			; ATL::CFileTime::Week
PUBLIC	?szInvalidDateTime@ATL@@3QBDB			; ATL::szInvalidDateTime
PUBLIC	?szInvalidDateTimeSpan@ATL@@3QBDB		; ATL::szInvalidDateTimeSpan
PUBLIC	?s_pLog@CFixedStringMgr@ATL@@2PAVIFixedStringLog@2@A ; ATL::CFixedStringMgr::s_pLog
PUBLIC	?m_bInitFailed@CAtlBaseModule@ATL@@2_NA		; ATL::CAtlBaseModule::m_bInitFailed
PUBLIC	?rgszNeverDelete@CRegParser@ATL@@1QBQBDB	; ATL::CRegParser::rgszNeverDelete
PUBLIC	?c_bIsMFCDLLTraits@?$_MFCDLLTraitsCheck@GV?$StrTraitATL@GV?$ChTraitsCRT@G@ATL@@@ATL@@@_CSTRING_IMPL_@ATL@@2_NB ; ATL::_CSTRING_IMPL_::_MFCDLLTraitsCheck<unsigned short,ATL::StrTraitATL<unsigned short,ATL::ChTraitsCRT<unsigned short> > >::c_bIsMFCDLLTraits
PUBLIC	?_strthunks@ATL@@3U_AtlStringThunks@1@A		; ATL::_strthunks
PUBLIC	?GetEnvironmentVariableWThunk@ATL@@YGKPBGPAGK@Z	; ATL::GetEnvironmentVariableWThunk
PUBLIC	?licenseTimeout@CLicense@@0HB			; CLicense::licenseTimeout
PUBLIC	?CompareStringWThunk@ATL@@YGHKKPBGH0H@Z		; ATL::CompareStringWThunk
PUBLIC	?rcDefault@CWindow@ATL@@2UtagRECT@@A		; ATL::CWindow::rcDefault
PUBLIC	?GetStringTypeExWThunk@ATL@@YGHKKPBGHPAG@Z	; ATL::GetStringTypeExWThunk
PUBLIC	?lstrcmpiWThunk@ATL@@YGHPBG0@Z			; ATL::lstrcmpiWThunk
PUBLIC	?CharLowerWThunk@ATL@@YGPAGPAG@Z		; ATL::CharLowerWThunk
PUBLIC	?collate@?$_Locbase@H@std@@2HB			; std::_Locbase<int>::collate
PUBLIC	?ctype@?$_Locbase@H@std@@2HB			; std::_Locbase<int>::ctype
PUBLIC	?monetary@?$_Locbase@H@std@@2HB			; std::_Locbase<int>::monetary
PUBLIC	?numeric@?$_Locbase@H@std@@2HB			; std::_Locbase<int>::numeric
PUBLIC	?time@?$_Locbase@H@std@@2HB			; std::_Locbase<int>::time
PUBLIC	?messages@?$_Locbase@H@std@@2HB			; std::_Locbase<int>::messages
PUBLIC	?CharUpperWThunk@ATL@@YGPAGPAG@Z		; ATL::CharUpperWThunk
PUBLIC	?all@?$_Locbase@H@std@@2HB			; std::_Locbase<int>::all
PUBLIC	?none@?$_Locbase@H@std@@2HB			; std::_Locbase<int>::none
PUBLIC	?WM_ATLGETHOST@ATL@@3IA				; ATL::WM_ATLGETHOST
PUBLIC	?WM_ATLGETCONTROL@ATL@@3IA			; ATL::WM_ATLGETCONTROL
;	COMDAT ?_pAtlModule@ATL@@3PAVCAtlModule@1@A
_BSS	SEGMENT
?_pAtlModule@ATL@@3PAVCAtlModule@1@A DD 01H DUP (?)	; ATL::_pAtlModule
_BSS	ENDS
;	COMDAT ?m_libid@CAtlModule@ATL@@2U_GUID@@A
_BSS	SEGMENT
?m_libid@CAtlModule@ATL@@2U_GUID@@A DB 010H DUP (?)	; ATL::CAtlModule::m_libid
_BSS	ENDS
;	COMDAT ?s_pLog@CFixedStringMgr@ATL@@2PAVIFixedStringLog@2@A
_BSS	SEGMENT
?s_pLog@CFixedStringMgr@ATL@@2PAVIFixedStringLog@2@A DD 01H DUP (?) ; ATL::CFixedStringMgr::s_pLog
_BSS	ENDS
;	COMDAT ?m_bInitFailed@CAtlBaseModule@ATL@@2_NA
_BSS	SEGMENT
?m_bInitFailed@CAtlBaseModule@ATL@@2_NA DB 01H DUP (?)	; ATL::CAtlBaseModule::m_bInitFailed
_BSS	ENDS
;	COMDAT ?WM_ATLGETHOST@ATL@@3IA
_BSS	SEGMENT
?WM_ATLGETHOST@ATL@@3IA DD 01H DUP (?)			; ATL::WM_ATLGETHOST
_BSS	ENDS
;	COMDAT ?WM_ATLGETCONTROL@ATL@@3IA
_BSS	SEGMENT
?WM_ATLGETCONTROL@ATL@@3IA DD 01H DUP (?)		; ATL::WM_ATLGETCONTROL
_BSS	ENDS
;	COMDAT ?collate@?$_Locbase@H@std@@2HB
CONST	SEGMENT
?collate@?$_Locbase@H@std@@2HB DD 01H			; std::_Locbase<int>::collate
CONST	ENDS
;	COMDAT ?ctype@?$_Locbase@H@std@@2HB
CONST	SEGMENT
?ctype@?$_Locbase@H@std@@2HB DD 02H			; std::_Locbase<int>::ctype
CONST	ENDS
;	COMDAT ?monetary@?$_Locbase@H@std@@2HB
CONST	SEGMENT
?monetary@?$_Locbase@H@std@@2HB DD 04H			; std::_Locbase<int>::monetary
CONST	ENDS
;	COMDAT ?numeric@?$_Locbase@H@std@@2HB
CONST	SEGMENT
?numeric@?$_Locbase@H@std@@2HB DD 08H			; std::_Locbase<int>::numeric
CONST	ENDS
;	COMDAT ?time@?$_Locbase@H@std@@2HB
CONST	SEGMENT
?time@?$_Locbase@H@std@@2HB DD 010H			; std::_Locbase<int>::time
CONST	ENDS
;	COMDAT ?messages@?$_Locbase@H@std@@2HB
CONST	SEGMENT
?messages@?$_Locbase@H@std@@2HB DD 020H			; std::_Locbase<int>::messages
CONST	ENDS
;	COMDAT ?all@?$_Locbase@H@std@@2HB
CONST	SEGMENT
?all@?$_Locbase@H@std@@2HB DD 03fH			; std::_Locbase<int>::all
CONST	ENDS
;	COMDAT ?none@?$_Locbase@H@std@@2HB
CONST	SEGMENT
?none@?$_Locbase@H@std@@2HB DD 00H			; std::_Locbase<int>::none
CONST	ENDS
;	COMDAT ?skipws@?$_Iosb@H@std@@2W4_Fmtflags@12@B
CONST	SEGMENT
?skipws@?$_Iosb@H@std@@2W4_Fmtflags@12@B DD 01H		; std::_Iosb<int>::skipws
CONST	ENDS
;	COMDAT ?unitbuf@?$_Iosb@H@std@@2W4_Fmtflags@12@B
CONST	SEGMENT
?unitbuf@?$_Iosb@H@std@@2W4_Fmtflags@12@B DD 02H	; std::_Iosb<int>::unitbuf
CONST	ENDS
;	COMDAT ?uppercase@?$_Iosb@H@std@@2W4_Fmtflags@12@B
CONST	SEGMENT
?uppercase@?$_Iosb@H@std@@2W4_Fmtflags@12@B DD 04H	; std::_Iosb<int>::uppercase
CONST	ENDS
;	COMDAT ?showbase@?$_Iosb@H@std@@2W4_Fmtflags@12@B
CONST	SEGMENT
?showbase@?$_Iosb@H@std@@2W4_Fmtflags@12@B DD 08H	; std::_Iosb<int>::showbase
CONST	ENDS
;	COMDAT ?showpoint@?$_Iosb@H@std@@2W4_Fmtflags@12@B
CONST	SEGMENT
?showpoint@?$_Iosb@H@std@@2W4_Fmtflags@12@B DD 010H	; std::_Iosb<int>::showpoint
CONST	ENDS
;	COMDAT ?showpos@?$_Iosb@H@std@@2W4_Fmtflags@12@B
CONST	SEGMENT
?showpos@?$_Iosb@H@std@@2W4_Fmtflags@12@B DD 020H	; std::_Iosb<int>::showpos
CONST	ENDS
;	COMDAT ?left@?$_Iosb@H@std@@2W4_Fmtflags@12@B
CONST	SEGMENT
?left@?$_Iosb@H@std@@2W4_Fmtflags@12@B DD 040H		; std::_Iosb<int>::left
CONST	ENDS
;	COMDAT ?right@?$_Iosb@H@std@@2W4_Fmtflags@12@B
CONST	SEGMENT
?right@?$_Iosb@H@std@@2W4_Fmtflags@12@B DD 080H		; std::_Iosb<int>::right
CONST	ENDS
;	COMDAT ?internal@?$_Iosb@H@std@@2W4_Fmtflags@12@B
CONST	SEGMENT
?internal@?$_Iosb@H@std@@2W4_Fmtflags@12@B DD 0100H	; std::_Iosb<int>::internal
CONST	ENDS
;	COMDAT ?dec@?$_Iosb@H@std@@2W4_Fmtflags@12@B
CONST	SEGMENT
?dec@?$_Iosb@H@std@@2W4_Fmtflags@12@B DD 0200H		; std::_Iosb<int>::dec
CONST	ENDS
;	COMDAT ?oct@?$_Iosb@H@std@@2W4_Fmtflags@12@B
CONST	SEGMENT
?oct@?$_Iosb@H@std@@2W4_Fmtflags@12@B DD 0400H		; std::_Iosb<int>::oct
CONST	ENDS
;	COMDAT ?hex@?$_Iosb@H@std@@2W4_Fmtflags@12@B
CONST	SEGMENT
?hex@?$_Iosb@H@std@@2W4_Fmtflags@12@B DD 0800H		; std::_Iosb<int>::hex
CONST	ENDS
;	COMDAT ?scientific@?$_Iosb@H@std@@2W4_Fmtflags@12@B
CONST	SEGMENT
?scientific@?$_Iosb@H@std@@2W4_Fmtflags@12@B DD 01000H	; std::_Iosb<int>::scientific
CONST	ENDS
;	COMDAT ?fixed@?$_Iosb@H@std@@2W4_Fmtflags@12@B
CONST	SEGMENT
?fixed@?$_Iosb@H@std@@2W4_Fmtflags@12@B DD 02000H	; std::_Iosb<int>::fixed
CONST	ENDS
;	COMDAT ?boolalpha@?$_Iosb@H@std@@2W4_Fmtflags@12@B
CONST	SEGMENT
?boolalpha@?$_Iosb@H@std@@2W4_Fmtflags@12@B DD 04000H	; std::_Iosb<int>::boolalpha
CONST	ENDS
;	COMDAT ?_Stdio@?$_Iosb@H@std@@2W4_Fmtflags@12@B
CONST	SEGMENT
?_Stdio@?$_Iosb@H@std@@2W4_Fmtflags@12@B DD 08000H	; std::_Iosb<int>::_Stdio
CONST	ENDS
;	COMDAT ?adjustfield@?$_Iosb@H@std@@2W4_Fmtflags@12@B
CONST	SEGMENT
?adjustfield@?$_Iosb@H@std@@2W4_Fmtflags@12@B DD 01c0H	; std::_Iosb<int>::adjustfield
CONST	ENDS
;	COMDAT ?basefield@?$_Iosb@H@std@@2W4_Fmtflags@12@B
CONST	SEGMENT
?basefield@?$_Iosb@H@std@@2W4_Fmtflags@12@B DD 0e00H	; std::_Iosb<int>::basefield
CONST	ENDS
;	COMDAT ?floatfield@?$_Iosb@H@std@@2W4_Fmtflags@12@B
CONST	SEGMENT
?floatfield@?$_Iosb@H@std@@2W4_Fmtflags@12@B DD 03000H	; std::_Iosb<int>::floatfield
CONST	ENDS
;	COMDAT ?goodbit@?$_Iosb@H@std@@2W4_Iostate@12@B
CONST	SEGMENT
?goodbit@?$_Iosb@H@std@@2W4_Iostate@12@B DD 00H		; std::_Iosb<int>::goodbit
CONST	ENDS
;	COMDAT ?eofbit@?$_Iosb@H@std@@2W4_Iostate@12@B
CONST	SEGMENT
?eofbit@?$_Iosb@H@std@@2W4_Iostate@12@B DD 01H		; std::_Iosb<int>::eofbit
CONST	ENDS
;	COMDAT ?failbit@?$_Iosb@H@std@@2W4_Iostate@12@B
CONST	SEGMENT
?failbit@?$_Iosb@H@std@@2W4_Iostate@12@B DD 02H		; std::_Iosb<int>::failbit
CONST	ENDS
;	COMDAT ?badbit@?$_Iosb@H@std@@2W4_Iostate@12@B
CONST	SEGMENT
?badbit@?$_Iosb@H@std@@2W4_Iostate@12@B DD 04H		; std::_Iosb<int>::badbit
CONST	ENDS
;	COMDAT ?_Hardfail@?$_Iosb@H@std@@2W4_Iostate@12@B
CONST	SEGMENT
?_Hardfail@?$_Iosb@H@std@@2W4_Iostate@12@B DD 010H	; std::_Iosb<int>::_Hardfail
CONST	ENDS
;	COMDAT ?in@?$_Iosb@H@std@@2W4_Openmode@12@B
CONST	SEGMENT
?in@?$_Iosb@H@std@@2W4_Openmode@12@B DD 01H		; std::_Iosb<int>::in
CONST	ENDS
;	COMDAT ?out@?$_Iosb@H@std@@2W4_Openmode@12@B
CONST	SEGMENT
?out@?$_Iosb@H@std@@2W4_Openmode@12@B DD 02H		; std::_Iosb<int>::out
CONST	ENDS
;	COMDAT ?ate@?$_Iosb@H@std@@2W4_Openmode@12@B
CONST	SEGMENT
?ate@?$_Iosb@H@std@@2W4_Openmode@12@B DD 04H		; std::_Iosb<int>::ate
CONST	ENDS
;	COMDAT ?app@?$_Iosb@H@std@@2W4_Openmode@12@B
CONST	SEGMENT
?app@?$_Iosb@H@std@@2W4_Openmode@12@B DD 08H		; std::_Iosb<int>::app
CONST	ENDS
;	COMDAT ?trunc@?$_Iosb@H@std@@2W4_Openmode@12@B
CONST	SEGMENT
?trunc@?$_Iosb@H@std@@2W4_Openmode@12@B DD 010H		; std::_Iosb<int>::trunc
CONST	ENDS
;	COMDAT ?_Nocreate@?$_Iosb@H@std@@2W4_Openmode@12@B
CONST	SEGMENT
?_Nocreate@?$_Iosb@H@std@@2W4_Openmode@12@B DD 040H	; std::_Iosb<int>::_Nocreate
CONST	ENDS
;	COMDAT ?_Noreplace@?$_Iosb@H@std@@2W4_Openmode@12@B
CONST	SEGMENT
?_Noreplace@?$_Iosb@H@std@@2W4_Openmode@12@B DD 080H	; std::_Iosb<int>::_Noreplace
CONST	ENDS
;	COMDAT ?binary@?$_Iosb@H@std@@2W4_Openmode@12@B
CONST	SEGMENT
?binary@?$_Iosb@H@std@@2W4_Openmode@12@B DD 020H	; std::_Iosb<int>::binary
CONST	ENDS
;	COMDAT ?beg@?$_Iosb@H@std@@2W4_Seekdir@12@B
CONST	SEGMENT
?beg@?$_Iosb@H@std@@2W4_Seekdir@12@B DD 00H		; std::_Iosb<int>::beg
CONST	ENDS
;	COMDAT ?cur@?$_Iosb@H@std@@2W4_Seekdir@12@B
CONST	SEGMENT
?cur@?$_Iosb@H@std@@2W4_Seekdir@12@B DD 01H		; std::_Iosb<int>::cur
CONST	ENDS
;	COMDAT ?end@?$_Iosb@H@std@@2W4_Seekdir@12@B
CONST	SEGMENT
?end@?$_Iosb@H@std@@2W4_Seekdir@12@B DD 02H		; std::_Iosb<int>::end
CONST	ENDS
;	COMDAT ?_strthunks@ATL@@3U_AtlStringThunks@1@A
_DATA	SEGMENT
?_strthunks@ATL@@3U_AtlStringThunks@1@A DD FLAT:?CompareStringWThunk@ATL@@YGHKKPBGH0H@Z ; ATL::_strthunks
	DD	FLAT:?GetStringTypeExWThunk@ATL@@YGHKKPBGHPAG@Z
	DD	FLAT:?lstrcmpiWThunk@ATL@@YGHPBG0@Z
	DD	FLAT:?CharLowerWThunk@ATL@@YGPAGPAG@Z
	DD	FLAT:?CharUpperWThunk@ATL@@YGPAGPAG@Z
	DD	FLAT:?GetEnvironmentVariableWThunk@ATL@@YGKPBGPAGK@Z
_DATA	ENDS
;	COMDAT ?c_bIsMFCDLLTraits@?$_MFCDLLTraitsCheck@DV?$StrTraitATL@DV?$ChTraitsCRT@D@ATL@@@ATL@@@_CSTRING_IMPL_@ATL@@2_NB
CONST	SEGMENT
?c_bIsMFCDLLTraits@?$_MFCDLLTraitsCheck@DV?$StrTraitATL@DV?$ChTraitsCRT@D@ATL@@@ATL@@@_CSTRING_IMPL_@ATL@@2_NB DB 00H ; ATL::_CSTRING_IMPL_::_MFCDLLTraitsCheck<char,ATL::StrTraitATL<char,ATL::ChTraitsCRT<char> > >::c_bIsMFCDLLTraits
CONST	ENDS
;	COMDAT ?c_bIsMFCDLLTraits@?$_MFCDLLTraitsCheck@GV?$StrTraitATL@GV?$ChTraitsCRT@G@ATL@@@ATL@@@_CSTRING_IMPL_@ATL@@2_NB
CONST	SEGMENT
?c_bIsMFCDLLTraits@?$_MFCDLLTraitsCheck@GV?$StrTraitATL@GV?$ChTraitsCRT@G@ATL@@@ATL@@@_CSTRING_IMPL_@ATL@@2_NB DB 00H ; ATL::_CSTRING_IMPL_::_MFCDLLTraitsCheck<unsigned short,ATL::StrTraitATL<unsigned short,ATL::ChTraitsCRT<unsigned short> > >::c_bIsMFCDLLTraits
CONST	ENDS
;	COMDAT ?Millisecond@CFileTime@ATL@@2_KB
CONST	SEGMENT
?Millisecond@CFileTime@ATL@@2_KB DQ 0000000000002710H	; ATL::CFileTime::Millisecond
CONST	ENDS
;	COMDAT ?Second@CFileTime@ATL@@2_KB
CONST	SEGMENT
?Second@CFileTime@ATL@@2_KB DQ 0000000000989680H	; ATL::CFileTime::Second
CONST	ENDS
;	COMDAT ?Minute@CFileTime@ATL@@2_KB
CONST	SEGMENT
?Minute@CFileTime@ATL@@2_KB DQ 0000000023c34600H	; ATL::CFileTime::Minute
CONST	ENDS
;	COMDAT ?Hour@CFileTime@ATL@@2_KB
CONST	SEGMENT
?Hour@CFileTime@ATL@@2_KB DQ 0000000861c46800H		; ATL::CFileTime::Hour
CONST	ENDS
;	COMDAT ?Day@CFileTime@ATL@@2_KB
CONST	SEGMENT
?Day@CFileTime@ATL@@2_KB DQ 000000c92a69c000H		; ATL::CFileTime::Day
CONST	ENDS
;	COMDAT ?Week@CFileTime@ATL@@2_KB
CONST	SEGMENT
?Week@CFileTime@ATL@@2_KB DQ 0000058028e44000H		; ATL::CFileTime::Week
CONST	ENDS
CONST	SEGMENT
$SG201160 DB	'Invalid DateTime', 00H
CONST	ENDS
;	COMDAT ?szInvalidDateTime@ATL@@3QBDB
CONST	SEGMENT
?szInvalidDateTime@ATL@@3QBDB DD FLAT:$SG201160		; ATL::szInvalidDateTime
CONST	ENDS
CONST	SEGMENT
	ORG $+3
$SG201162 DB	'Invalid DateTimeSpan', 00H
CONST	ENDS
;	COMDAT ?szInvalidDateTimeSpan@ATL@@3QBDB
CONST	SEGMENT
?szInvalidDateTimeSpan@ATL@@3QBDB DD FLAT:$SG201162	; ATL::szInvalidDateTimeSpan
CONST	ENDS
;	COMDAT ?licenseTimeout@CLicense@@0HB
CONST	SEGMENT
?licenseTimeout@CLicense@@0HB DD 01eH			; CLicense::licenseTimeout
CONST	ENDS
CONST	SEGMENT
	ORG $+3
$SG207767 DB	'appSettings', 00H
CONST	ENDS
_DATA	SEGMENT
?appSettings@CConfig@@2PBEB DD FLAT:$SG207767		; CConfig::appSettings
_DATA	ENDS
CONST	SEGMENT
$SG207769 DB	'EnvelopingFlag', 00H
CONST	ENDS
_DATA	SEGMENT
?envelopingFlag@CConfig@@2PBEB DD FLAT:$SG207769	; CConfig::envelopingFlag
_DATA	ENDS
CONST	SEGMENT
	ORG $+1
$SG207771 DB	'AddWindowImage', 00H
CONST	ENDS
_DATA	SEGMENT
?addWindowImage@CConfig@@2PBEB DD FLAT:$SG207771	; CConfig::addWindowImage
_DATA	ENDS
CONST	SEGMENT
	ORG $+1
$SG207773 DB	'CaptureOnce', 00H
CONST	ENDS
_DATA	SEGMENT
?captureOnce@CConfig@@2PBEB DD FLAT:$SG207773		; CConfig::captureOnce
_DATA	ENDS
CONST	SEGMENT
$SG207775 DB	'CrlChecking', 00H
CONST	ENDS
_DATA	SEGMENT
?crlChecking@CConfig@@2PBEB DD FLAT:$SG207775		; CConfig::crlChecking
_DATA	ENDS
CONST	SEGMENT
$SG207777 DB	'PhysicalSignatureFile', 00H
CONST	ENDS
_DATA	SEGMENT
?physicalSignatureFile@CConfig@@2PBEB DD FLAT:$SG207777	; CConfig::physicalSignatureFile
_DATA	ENDS
CONST	SEGMENT
	ORG $+2
$SG207779 DB	'PhysicalSignatureUsage', 00H
CONST	ENDS
_DATA	SEGMENT
?physicalSignatureUsage@CConfig@@2PBEB DD FLAT:$SG207779 ; CConfig::physicalSignatureUsage
_DATA	ENDS
CONST	SEGMENT
	ORG $+1
$SG207781 DB	'TimeStampURL', 00H
CONST	ENDS
_DATA	SEGMENT
?timeStampURL@CConfig@@2PBEB DD FLAT:$SG207781		; CConfig::timeStampURL
_DATA	ENDS
CONST	SEGMENT
	ORG $+3
$SG207783 DB	'TimeStamping', 00H
CONST	ENDS
_DATA	SEGMENT
?timeStamping@CConfig@@2PBEB DD FLAT:$SG207783		; CConfig::timeStamping
_DATA	ENDS
CONST	SEGMENT
	ORG $+3
$SG207785 DB	'TimeStampFormat', 00H
CONST	ENDS
_DATA	SEGMENT
?timeStampFormat@CConfig@@2PBEB DD FLAT:$SG207785	; CConfig::timeStampFormat
_DATA	ENDS
CONST	SEGMENT
$SG207787 DB	'TimeStampCritical', 00H
CONST	ENDS
_DATA	SEGMENT
?timeStampCritical@CConfig@@2PBEB DD FLAT:$SG207787	; CConfig::timeStampCritical
_DATA	ENDS
CONST	SEGMENT
	ORG $+2
$SG207789 DB	'DoDCompliance', 00H
CONST	ENDS
_DATA	SEGMENT
?doDCompliance@CConfig@@2PBEB DD FLAT:$SG207789		; CConfig::doDCompliance
_DATA	ENDS
CONST	SEGMENT
	ORG $+2
$SG207791 DB	'CertificateTrustExplicit', 00H
CONST	ENDS
_DATA	SEGMENT
?certificateTrustExplicit@CConfig@@2PBEB DD FLAT:$SG207791 ; CConfig::certificateTrustExplicit
_DATA	ENDS
CONST	SEGMENT
	ORG $+3
$SG207793 DB	'TrustedRootCount', 00H
CONST	ENDS
_DATA	SEGMENT
?trustedRootCount@CConfig@@2PBEB DD FLAT:$SG207793	; CConfig::trustedRootCount
_DATA	ENDS
CONST	SEGMENT
	ORG $+3
$SG207795 DB	'TrustedRoot', 00H
CONST	ENDS
_DATA	SEGMENT
?trustedRoot@CConfig@@2PBEB DD FLAT:$SG207795		; CConfig::trustedRoot
_DATA	ENDS
CONST	SEGMENT
$SG207797 DB	'CertificatePolicyExplicit', 00H
CONST	ENDS
_DATA	SEGMENT
?certificatePolicyExplicit@CConfig@@2PBEB DD FLAT:$SG207797 ; CConfig::certificatePolicyExplicit
_DATA	ENDS
CONST	SEGMENT
	ORG $+2
$SG207799 DB	'CertificatePathLengthChecking', 00H
CONST	ENDS
_DATA	SEGMENT
?certificatePathLengthChecking@CConfig@@2PBEB DD FLAT:$SG207799 ; CConfig::certificatePathLengthChecking
_DATA	ENDS
CONST	SEGMENT
	ORG $+2
$SG207801 DB	'CertificateChainValidation', 00H
CONST	ENDS
_DATA	SEGMENT
?certificateChainValidation@CConfig@@2PBEB DD FLAT:$SG207801 ; CConfig::certificateChainValidation
_DATA	ENDS
CONST	SEGMENT
	ORG $+1
$SG207803 DB	'CertificatePolicyChecking', 00H
CONST	ENDS
_DATA	SEGMENT
?certificatePolicyChecking@CConfig@@2PBEB DD FLAT:$SG207803 ; CConfig::certificatePolicyChecking
_DATA	ENDS
CONST	SEGMENT
	ORG $+2
$SG207805 DB	'CertificatePolicyCount', 00H
CONST	ENDS
_DATA	SEGMENT
?certificatePolicyCount@CConfig@@2PBEB DD FLAT:$SG207805 ; CConfig::certificatePolicyCount
_DATA	ENDS
CONST	SEGMENT
	ORG $+1
$SG207807 DB	'CertificatePolicy', 00H
CONST	ENDS
_DATA	SEGMENT
?certificatePolicy@CConfig@@2PBEB DD FLAT:$SG207807	; CConfig::certificatePolicy
_DATA	ENDS
CONST	SEGMENT
	ORG $+2
$SG207809 DB	'CRLLocationCount', 00H
CONST	ENDS
_DATA	SEGMENT
?cRLLocationCount@CConfig@@2PBEB DD FLAT:$SG207809	; CConfig::cRLLocationCount
_DATA	ENDS
CONST	SEGMENT
	ORG $+3
$SG207811 DB	'CRLLocation', 00H
CONST	ENDS
_DATA	SEGMENT
?cRLLocation@CConfig@@2PBEB DD FLAT:$SG207811		; CConfig::cRLLocation
_DATA	ENDS
CONST	SEGMENT
$SG207813 DB	'OverwriteFile', 00H
CONST	ENDS
_DATA	SEGMENT
?overwriteFile@CConfig@@2PBEB DD FLAT:$SG207813		; CConfig::overwriteFile
_DATA	ENDS
CONST	SEGMENT
	ORG $+2
$SG207815 DB	'ExcludeSignerCertificate', 00H
CONST	ENDS
_DATA	SEGMENT
?excludeSignerCertificate@CConfig@@2PBEB DD FLAT:$SG207815 ; CConfig::excludeSignerCertificate
_DATA	ENDS
CONST	SEGMENT
	ORG $+3
$SG207817 DB	'DetailedVerificationFlag', 00H
CONST	ENDS
_DATA	SEGMENT
?detailedVerificationFlag@CConfig@@2PBEB DD FLAT:$SG207817 ; CConfig::detailedVerificationFlag
_DATA	ENDS
CONST	SEGMENT
	ORG $+3
$SG207819 DB	'Base64EncodeXML', 00H
CONST	ENDS
_DATA	SEGMENT
?base64EncodeXML@CConfig@@2PBEB DD FLAT:$SG207819	; CConfig::base64EncodeXML
_DATA	ENDS
CONST	SEGMENT
$SG207821 DB	'Base64DecodeXML', 00H
CONST	ENDS
_DATA	SEGMENT
?base64DecodeXML@CConfig@@2PBEB DD FLAT:$SG207821	; CConfig::base64DecodeXML
_DATA	ENDS
CONST	SEGMENT
$SG207823 DB	'IncludeCamResponse', 00H
CONST	ENDS
_DATA	SEGMENT
?includeCamResponse@CConfig@@2PBEB DD FLAT:$SG207823	; CConfig::includeCamResponse
_DATA	ENDS
CONST	SEGMENT
	ORG $+1
$SG207825 DB	'CamServerHost', 00H
CONST	ENDS
_DATA	SEGMENT
?camServerHost@CConfig@@2PBEB DD FLAT:$SG207825		; CConfig::camServerHost
_DATA	ENDS
CONST	SEGMENT
	ORG $+2
$SG207827 DB	'CamServerPort', 00H
CONST	ENDS
_DATA	SEGMENT
?camServerPort@CConfig@@2PBEB DD FLAT:$SG207827		; CConfig::camServerPort
_DATA	ENDS
CONST	SEGMENT
	ORG $+2
$SG207829 DB	'UseCam', 00H
CONST	ENDS
_DATA	SEGMENT
?useCam@CConfig@@2PBEB DD FLAT:$SG207829		; CConfig::useCam
_DATA	ENDS
CONST	SEGMENT
	ORG $+1
$SG207831 DB	'AgencyId', 00H
CONST	ENDS
_DATA	SEGMENT
?agencyId@CConfig@@2PBEB DD FLAT:$SG207831		; CConfig::agencyId
_DATA	ENDS
CONST	SEGMENT
	ORG $+3
$SG207833 DB	'AllowedCertIssuerCount', 00H
CONST	ENDS
_DATA	SEGMENT
?allowedCertIssuerCount@CConfig@@2PBEB DD FLAT:$SG207833 ; CConfig::allowedCertIssuerCount
_DATA	ENDS
CONST	SEGMENT
	ORG $+1
$SG207835 DB	'AllowedCertIssuerName', 00H
CONST	ENDS
_DATA	SEGMENT
?allowedCertIssuerName@CConfig@@2PBEB DD FLAT:$SG207835	; CConfig::allowedCertIssuerName
_DATA	ENDS
CONST	SEGMENT
	ORG $+2
$SG207837 DB	'CRLCacheDbConnectionString', 00H
CONST	ENDS
_DATA	SEGMENT
?crlCacheDbConnectionString@CConfig@@2PBEB DD FLAT:$SG207837 ; CConfig::crlCacheDbConnectionString
_DATA	ENDS
CONST	SEGMENT
	ORG $+1
$SG207839 DB	'UseCRLCache', 00H
CONST	ENDS
_DATA	SEGMENT
?useCRLCache@CConfig@@2PBEB DD FLAT:$SG207839		; CConfig::useCRLCache
_DATA	ENDS
CONST	SEGMENT
$SG207841 DB	'CRLCacheTimeoutInMinutes', 00H
CONST	ENDS
_DATA	SEGMENT
?crlCacheTimeoutInMinutes@CConfig@@2PBEB DD FLAT:$SG207841 ; CConfig::crlCacheTimeoutInMinutes
_DATA	ENDS
CONST	SEGMENT
	ORG $+3
$SG207847 DB	'http://time-b.timefreq.bldrdoc.gov:13', 00H
	ORG $+2
$SG207849 DB	'addressbook', 00H
$SG207884 DB	'appSettings', 00H
$SG207892 DB	'key', 00H
$SG207895 DB	'value', 00H
	ORG $+2
$SG209405 DB	'pThis != 0', 00H
	ORG $+5
$SG209406 DB	'C:\Program Files\Microsoft Visual Studio .NET 2003\Vc7\a'
	DB	'tlmfc\include\atlwin.h', 00H
	ORG $+1
$SG209416 DB	'C:\Program Files\Microsoft Visual Studio .NET 2003\Vc7\a'
	DB	'tlmfc\include\atlwin.h', 00H
	ORG $+1
$SG209417 DB	'Subclassing through a hook discarded.', 0aH, 00H
	ORG $+1
$SG209423 DB	'pp != 0', 00H
$SG209424 DB	'C:\Program Files\Microsoft Visual Studio .NET 2003\Vc7\a'
	DB	'tlmfc\include\atlcom.h', 00H
CONST	ENDS
;	COMDAT ?g_pfnGetThreadACP@ATL@@3P6GIXZA
_DATA	SEGMENT
?g_pfnGetThreadACP@ATL@@3P6GIXZA DD FLAT:?_AtlGetThreadACPThunk@ATL@@YGIXZ ; ATL::g_pfnGetThreadACP
_DATA	ENDS
CONST	SEGMENT
	ORG $+1
$SG89605 DB	'S', 00H
	ORG $+2
_szStringVal DD	FLAT:$SG89605
$SG89607 DB	'M', 00H
	ORG $+2
_multiszStringVal DD FLAT:$SG89607
$SG89609 DB	'D', 00H
	ORG $+2
_szDwordVal DD	FLAT:$SG89609
$SG89611 DB	'B', 00H
	ORG $+2
_szBinaryVal DD	FLAT:$SG89611
$SG89613 DB	'Val', 00H
_szValToken DD	FLAT:$SG89613
$SG89615 DB	'ForceRemove', 00H
_szForceRemove DD FLAT:$SG89615
$SG89617 DB	'NoRemove', 00H
	ORG $+3
_szNoRemove DD	FLAT:$SG89617
$SG89619 DB	'Delete', 00H
	ORG $+1
_szDelete DD	FLAT:$SG89619
$SG90266 DB	'AppID', 00H
	ORG $+2
$SG90267 DB	'CLSID', 00H
	ORG $+2
$SG90268 DB	'Component Categories', 00H
	ORG $+3
$SG90269 DB	'FileType', 00H
	ORG $+3
$SG90270 DB	'Interface', 00H
	ORG $+2
$SG90271 DB	'Hardware', 00H
	ORG $+3
$SG90272 DB	'Mime', 00H
	ORG $+3
$SG90273 DB	'SAM', 00H
$SG90274 DB	'SECURITY', 00H
	ORG $+3
$SG90275 DB	'SYSTEM', 00H
	ORG $+1
$SG90276 DB	'Software', 00H
	ORG $+3
$SG90277 DB	'TypeLib', 00H
CONST	ENDS
;	COMDAT ?rgszNeverDelete@CRegParser@ATL@@1QBQBDB
CONST	SEGMENT
?rgszNeverDelete@CRegParser@ATL@@1QBQBDB DD FLAT:$SG90266 ; ATL::CRegParser::rgszNeverDelete
	DD	FLAT:$SG90267
	DD	FLAT:$SG90268
	DD	FLAT:$SG90269
	DD	FLAT:$SG90270
	DD	FLAT:$SG90271
	DD	FLAT:$SG90272
	DD	FLAT:$SG90273
	DD	FLAT:$SG90274
	DD	FLAT:$SG90275
	DD	FLAT:$SG90276
	DD	FLAT:$SG90277
CONST	ENDS
;	COMDAT ?rcDefault@CWindow@ATL@@2UtagRECT@@A
_DATA	SEGMENT
?rcDefault@CWindow@ATL@@2UtagRECT@@A DD 080000000H	; ATL::CWindow::rcDefault
	DD	080000000H
	DD	00H
	DD	00H
_DATA	ENDS
CONST	SEGMENT
$SG147460 DB	'ppvObj', 00H
	ORG $+5
$SG147461 DB	'C:\Program Files\Microsoft Visual Studio .NET 2003\Vc7\a'
	DB	'tlmfc\include\atlhost.h', 00H
$SG147486 DB	':', 00H
$SG151553 DB	00H
	ORG $+5
$SG151579 DB	'C:\Program Files\Microsoft Visual Studio .NET 2003\Vc7\a'
	DB	'tlmfc\include\atlhost.h', 00H
$SG151580 DB	'Control creation failed for ''%s''', 0aH, 00H
	ORG $+6
$SG151582 DB	'C:\Program Files\Microsoft Visual Studio .NET 2003\Vc7\a'
	DB	'tlmfc\include\atlhost.h', 00H
$SG151583 DB	'Error code: 0x%x - %s', 00H
	ORG $+2
$SG151598 DB	'lParam', 00H
	ORG $+1
$SG151599 DB	'C:\Program Files\Microsoft Visual Studio .NET 2003\Vc7\a'
	DB	'tlmfc\include\atlhost.h', 00H
$SG151621 DB	00H
	ORG $+7
$SG151651 DB	'C:\Program Files\Microsoft Visual Studio .NET 2003\Vc7\a'
	DB	'tlmfc\include\atlhost.h', 00H
$SG151652 DB	'Control creation failed for ''%s''', 0aH, 00H
	ORG $+6
$SG151654 DB	'C:\Program Files\Microsoft Visual Studio .NET 2003\Vc7\a'
	DB	'tlmfc\include\atlhost.h', 00H
$SG151655 DB	'Error code: 0x%x - %s', 00H
	ORG $+2
$SG151670 DB	'lParam', 00H
	ORG $+1
$SG151671 DB	'C:\Program Files\Microsoft Visual Studio .NET 2003\Vc7\a'
	DB	'tlmfc\include\atlhost.h', 00H
$SG164286 DB	'pThis->m_pCurrentMsg == &msg', 00H
	ORG $+3
$SG164287 DB	'C:\Program Files\Microsoft Visual Studio .NET 2003\Vc7\a'
	DB	'tlmfc\include\atlwin.h', 00H
	ORG $+1
$SG164311 DB	'pThis != 0', 00H
	ORG $+5
$SG164312 DB	'C:\Program Files\Microsoft Visual Studio .NET 2003\Vc7\a'
	DB	'tlmfc\include\atlwin.h', 00H
	ORG $+1
$SG164319 DB	'C:\Program Files\Microsoft Visual Studio .NET 2003\Vc7\a'
	DB	'tlmfc\include\atlwin.h', 00H
	ORG $+1
$SG164320 DB	'Subclassing through a hook discarded.', 0aH, 00H
	ORG $+1
$SG164336 DB	'pThis->m_pCurrentMsg == &msg', 00H
	ORG $+3
$SG164337 DB	'C:\Program Files\Microsoft Visual Studio .NET 2003\Vc7\a'
	DB	'tlmfc\include\atlwin.h', 00H
	ORG $+1
$SG164360 DB	'm_hWnd == 0', 00H
	ORG $+4
$SG164361 DB	'C:\Program Files\Microsoft Visual Studio .NET 2003\Vc7\a'
	DB	'tlmfc\include\atlwin.h', 00H
	ORG $+1
$SG164372 DB	'm_hWnd == hWnd', 00H
	ORG $+1
$SG164373 DB	'C:\Program Files\Microsoft Visual Studio .NET 2003\Vc7\a'
	DB	'tlmfc\include\atlwin.h', 00H
	ORG $+1
$SG164381 DB	'm_hWnd == 0', 00H
	ORG $+4
$SG164382 DB	'C:\Program Files\Microsoft Visual Studio .NET 2003\Vc7\a'
	DB	'tlmfc\include\atlwin.h', 00H
	ORG $+1
$SG164384 DB	'::IsWindow(hWnd)', 00H
	ORG $+7
$SG164385 DB	'C:\Program Files\Microsoft Visual Studio .NET 2003\Vc7\a'
	DB	'tlmfc\include\atlwin.h', 00H
	ORG $+1
$SG164398 DB	'm_hWnd != 0', 00H
	ORG $+4
$SG164399 DB	'C:\Program Files\Microsoft Visual Studio .NET 2003\Vc7\a'
	DB	'tlmfc\include\atlwin.h', 00H
	ORG $+1
$SG164419 DB	'pp != 0', 00H
$SG164420 DB	'C:\Program Files\Microsoft Visual Studio .NET 2003\Vc7\a'
	DB	'tlmfc\include\atlcom.h', 00H
	ORG $+1
$SG164441 DB	'pp != 0', 00H
$SG164442 DB	'C:\Program Files\Microsoft Visual Studio .NET 2003\Vc7\a'
	DB	'tlmfc\include\atlcom.h', 00H
	ORG $+1
$SG164583 DB	'm_begin == 0', 00H
	ORG $+3
$SG164584 DB	'C:\Program Files\Microsoft Visual Studio .NET 2003\Vc7\a'
	DB	'tlmfc\include\atlcom.h', 00H
CONST	ENDS
PUBLIC	?InterlockedExchangePointer@@YGPAXPAPAXPAX@Z	; InterlockedExchangePointer
PUBLIC	?_AtlGetThreadACPFake@ATL@@YGIXZ		; ATL::_AtlGetThreadACPFake
PUBLIC	?_AtlGetThreadACPReal@ATL@@YGIXZ		; ATL::_AtlGetThreadACPReal
EXTRN	__imp__GetVersionExA@4:NEAR
EXTRN	__RTC_InitBase:NEAR
EXTRN	__RTC_Shutdown:NEAR
EXTRN	__RTC_CheckEsp:NEAR
EXTRN	___security_cookie:DWORD
EXTRN	@_RTC_CheckStackVars@8:NEAR
EXTRN	@__security_check_cookie@4:NEAR
;	COMDAT rtc$IMZ
; File c:\program files\microsoft visual studio .net 2003\vc7\atlmfc\include\atlconv.h
rtc$IMZ	SEGMENT
__RTC_InitBase.rtc$IMZ DD FLAT:__RTC_InitBase
rtc$IMZ	ENDS
;	COMDAT rtc$TMZ
rtc$TMZ	SEGMENT
__RTC_Shutdown.rtc$TMZ DD FLAT:__RTC_Shutdown
; Function compile flags: /Odt /RTCsu
rtc$TMZ	ENDS
;	COMDAT ?_AtlGetThreadACPThunk@ATL@@YGIXZ
_TEXT	SEGMENT
_pfnGetThreadACP$ = -164				; size = 4
_ver$ = -156						; size = 148
__$ArrayPad$ = -4					; size = 4
__$ReturnAddr$ = 4					; size = 4
?_AtlGetThreadACPThunk@ATL@@YGIXZ PROC NEAR		; ATL::_AtlGetThreadACPThunk, COMDAT

; 134  : {

	push	ebp
	mov	ebp, esp
	sub	esp, 164				; 000000a4H
	push	esi
	push	edi
	lea	edi, DWORD PTR [ebp-164]
	mov	ecx, 41					; 00000029H
	mov	eax, -858993460				; ccccccccH
	rep stosd
	mov	eax, DWORD PTR ___security_cookie
	mov	DWORD PTR __$ArrayPad$[ebp], eax

; 135  : 	OSVERSIONINFO ver;
; 136  : 	ATLGETTHREADACP pfnGetThreadACP;
; 137  : 
; 138  : 	ver.dwOSVersionInfoSize = sizeof( ver );

	mov	DWORD PTR _ver$[ebp], 148		; 00000094H

; 139  : 	::GetVersionEx( &ver );

	mov	esi, esp
	lea	eax, DWORD PTR _ver$[ebp]
	push	eax
	call	DWORD PTR __imp__GetVersionExA@4
	cmp	esi, esp
	call	__RTC_CheckEsp

; 140  : 	if( (ver.dwPlatformId == VER_PLATFORM_WIN32_NT) && (ver.dwMajorVersion >= 5) )

	cmp	DWORD PTR _ver$[ebp+16], 2
	jne	SHORT $L75781
	cmp	DWORD PTR _ver$[ebp+4], 5
	jb	SHORT $L75781

; 141  : 	{
; 142  : 		// On Win2K, CP_THREAD_ACP is supported
; 143  : 		pfnGetThreadACP = _AtlGetThreadACPReal;

	mov	DWORD PTR _pfnGetThreadACP$[ebp], OFFSET FLAT:?_AtlGetThreadACPReal@ATL@@YGIXZ ; ATL::_AtlGetThreadACPReal

; 144  : 	}
; 145  : 	else

	jmp	SHORT $L75782
$L75781:

; 146  : 	{
; 147  : 		pfnGetThreadACP = _AtlGetThreadACPFake;

	mov	DWORD PTR _pfnGetThreadACP$[ebp], OFFSET FLAT:?_AtlGetThreadACPFake@ATL@@YGIXZ ; ATL::_AtlGetThreadACPFake
$L75782:

; 148  : 	}
; 149  : 	InterlockedExchangePointer( reinterpret_cast< void** >(&g_pfnGetThreadACP), pfnGetThreadACP );

	mov	ecx, DWORD PTR _pfnGetThreadACP$[ebp]
	push	ecx
	push	OFFSET FLAT:?g_pfnGetThreadACP@ATL@@3P6GIXZA ; ATL::g_pfnGetThreadACP
	call	?InterlockedExchangePointer@@YGPAXPAPAXPAX@Z ; InterlockedExchangePointer

; 150  : 
; 151  : 	return( g_pfnGetThreadACP() );

	mov	esi, esp
	call	DWORD PTR ?g_pfnGetThreadACP@ATL@@3P6GIXZA ; ATL::g_pfnGetThreadACP
	cmp	esi, esp
	call	__RTC_CheckEsp

; 152  : }

	push	edx
	mov	ecx, ebp
	push	eax
	lea	edx, DWORD PTR $L211577
	call	@_RTC_CheckStackVars@8
	pop	eax
	pop	edx
	mov	ecx, DWORD PTR __$ArrayPad$[ebp]
	call	@__security_check_cookie@4
	pop	edi
	pop	esi
	add	esp, 164				; 000000a4H
	cmp	ebp, esp
	call	__RTC_CheckEsp
	mov	esp, ebp
	pop	ebp
	ret	0
$L211577:
	DD	1
	DD	$L211576
$L211576:
	DD	-156					; ffffff64H
	DD	148					; 00000094H
	DD	$L211573
$L211573:
	DB	118					; 00000076H
	DB	101					; 00000065H
	DB	114					; 00000072H
	DB	0
?_AtlGetThreadACPThunk@ATL@@YGIXZ ENDP			; ATL::_AtlGetThreadACPThunk
_TEXT	ENDS
EXTRN	__imp__InterlockedExchange@8:NEAR
; Function compile flags: /Odt /RTCsu
;	COMDAT ?InterlockedExchangePointer@@YGPAXPAPAXPAX@Z
_TEXT	SEGMENT
_pp$ = 8						; size = 4
_pNew$ = 12						; size = 4
?InterlockedExchangePointer@@YGPAXPAPAXPAX@Z PROC NEAR	; InterlockedExchangePointer, COMDAT

; 91   : {

	push	ebp
	mov	ebp, esp
	push	esi

; 92   : 	return( reinterpret_cast<void*>(static_cast<LONG_PTR>(::InterlockedExchange(reinterpret_cast<LONG*>(pp), static_cast<LONG>(reinterpret_cast<LONG_PTR>(pNew))))) );

	mov	esi, esp
	mov	eax, DWORD PTR _pNew$[ebp]
	push	eax
	mov	ecx, DWORD PTR _pp$[ebp]
	push	ecx
	call	DWORD PTR __imp__InterlockedExchange@8
	cmp	esi, esp
	call	__RTC_CheckEsp

; 93   : }

	pop	esi
	cmp	ebp, esp
	call	__RTC_CheckEsp
	pop	ebp
	ret	8
?InterlockedExchangePointer@@YGPAXPAPAXPAX@Z ENDP	; InterlockedExchangePointer
_TEXT	ENDS
EXTRN	__imp__GetACP@0:NEAR
EXTRN	__imp__GetLocaleInfoA@16:NEAR
EXTRN	__imp__GetThreadLocale@0:NEAR
; Function compile flags: /Odt /RTCsu
;	COMDAT ?_AtlGetThreadACPFake@ATL@@YGIXZ
_TEXT	SEGMENT
_pch$75769 = -32					; size = 4
_szACP$ = -24						; size = 7
_lcidThread$ = -12					; size = 4
_nACP$ = -8						; size = 4
__$ArrayPad$ = -4					; size = 4
__$ReturnAddr$ = 4					; size = 4
?_AtlGetThreadACPFake@ATL@@YGIXZ PROC NEAR		; ATL::_AtlGetThreadACPFake, COMDAT

; 101  : {

	push	ebp
	mov	ebp, esp
	sub	esp, 32					; 00000020H
	push	esi
	mov	eax, -858993460				; ccccccccH
	mov	DWORD PTR [ebp-32], eax
	mov	DWORD PTR [ebp-28], eax
	mov	DWORD PTR [ebp-24], eax
	mov	DWORD PTR [ebp-20], eax
	mov	DWORD PTR [ebp-16], eax
	mov	DWORD PTR [ebp-12], eax
	mov	DWORD PTR [ebp-8], eax
	mov	DWORD PTR [ebp-4], eax
	mov	eax, DWORD PTR ___security_cookie
	mov	DWORD PTR __$ArrayPad$[ebp], eax

; 102  : 	UINT nACP = 0;

	mov	DWORD PTR _nACP$[ebp], 0

; 103  : 
; 104  : 	LCID lcidThread = ::GetThreadLocale();

	mov	esi, esp
	call	DWORD PTR __imp__GetThreadLocale@0
	cmp	esi, esp
	call	__RTC_CheckEsp
	mov	DWORD PTR _lcidThread$[ebp], eax

; 105  : 
; 106  : 	char szACP[7];
; 107  : 	// GetLocaleInfoA will fail for a Unicode-only LCID, but those are only supported on 
; 108  : 	// Windows 2000.  Since Windows 2000 supports CP_THREAD_ACP, this code path is never
; 109  : 	// executed on Windows 2000.
; 110  : 	if (::GetLocaleInfoA(lcidThread, LOCALE_IDEFAULTANSICODEPAGE, szACP, 7) != 0)

	mov	esi, esp
	push	7
	lea	eax, DWORD PTR _szACP$[ebp]
	push	eax
	push	4100					; 00001004H
	mov	ecx, DWORD PTR _lcidThread$[ebp]
	push	ecx
	call	DWORD PTR __imp__GetLocaleInfoA@16
	cmp	esi, esp
	call	__RTC_CheckEsp
	test	eax, eax
	je	SHORT $L75768

; 111  : 	{
; 112  : 		char* pch = szACP;

	lea	edx, DWORD PTR _szACP$[ebp]
	mov	DWORD PTR _pch$75769[ebp], edx
$L75771:

; 113  : 		while (*pch != '\0')

	mov	eax, DWORD PTR _pch$75769[ebp]
	movsx	ecx, BYTE PTR [eax]
	test	ecx, ecx
	je	SHORT $L75768

; 114  : 		{
; 115  : 			nACP *= 10;

	mov	edx, DWORD PTR _nACP$[ebp]
	imul	edx, 10					; 0000000aH
	mov	DWORD PTR _nACP$[ebp], edx

; 116  : 			nACP += *pch++ - '0';

	mov	eax, DWORD PTR _pch$75769[ebp]
	movsx	ecx, BYTE PTR [eax]
	mov	edx, DWORD PTR _nACP$[ebp]
	lea	eax, DWORD PTR [edx+ecx-48]
	mov	DWORD PTR _nACP$[ebp], eax
	mov	ecx, DWORD PTR _pch$75769[ebp]
	add	ecx, 1
	mov	DWORD PTR _pch$75769[ebp], ecx

; 117  : 		}

	jmp	SHORT $L75771
$L75768:

; 118  : 	}
; 119  : 	// Use the Default ANSI Code Page if we were unable to get the thread ACP or if one does not exist.
; 120  : 	if (nACP == 0)

	cmp	DWORD PTR _nACP$[ebp], 0
	jne	SHORT $L75773

; 121  : 		nACP = ::GetACP();

	mov	esi, esp
	call	DWORD PTR __imp__GetACP@0
	cmp	esi, esp
	call	__RTC_CheckEsp
	mov	DWORD PTR _nACP$[ebp], eax
$L75773:

; 122  : 
; 123  : 	return nACP;

	mov	eax, DWORD PTR _nACP$[ebp]

; 124  : }

	push	edx
	mov	ecx, ebp
	push	eax
	lea	edx, DWORD PTR $L211590
	call	@_RTC_CheckStackVars@8
	pop	eax
	pop	edx
	mov	ecx, DWORD PTR __$ArrayPad$[ebp]
	call	@__security_check_cookie@4
	pop	esi
	add	esp, 32					; 00000020H
	cmp	ebp, esp
	call	__RTC_CheckEsp
	mov	esp, ebp
	pop	ebp
	ret	0
$L211590:
	DD	1
	DD	$L211589
$L211589:
	DD	-24					; ffffffe8H
	DD	7
	DD	$L211587
$L211587:
	DB	115					; 00000073H
	DB	122					; 0000007aH
	DB	65					; 00000041H
	DB	67					; 00000043H
	DB	80					; 00000050H
	DB	0
?_AtlGetThreadACPFake@ATL@@YGIXZ ENDP			; ATL::_AtlGetThreadACPFake
; Function compile flags: /Odt /RTCsu
_TEXT	ENDS
;	COMDAT ?_AtlGetThreadACPReal@ATL@@YGIXZ
_TEXT	SEGMENT
?_AtlGetThreadACPReal@ATL@@YGIXZ PROC NEAR		; ATL::_AtlGetThreadACPReal, COMDAT

; 127  : {

	push	ebp
	mov	ebp, esp

; 128  : 	return( CP_THREAD_ACP );

	mov	eax, 3

; 129  : }

	pop	ebp
	ret	0
?_AtlGetThreadACPReal@ATL@@YGIXZ ENDP			; ATL::_AtlGetThreadACPReal
_TEXT	ENDS
PUBLIC	?_AtlInstallStringThunk@ATL@@YAXPAPAXPAX1@Z	; ATL::_AtlInstallStringThunk
PUBLIC	?GetEnvironmentVariableWFake@ATL@@YGKPBGPAGK@Z	; ATL::GetEnvironmentVariableWFake
EXTRN	__imp__GetEnvironmentVariableW@12:NEAR
; Function compile flags: /Odt /RTCsu
; File c:\program files\microsoft visual studio .net 2003\vc7\atlmfc\include\cstringt.h
;	COMDAT ?GetEnvironmentVariableWThunk@ATL@@YGKPBGPAGK@Z
_TEXT	SEGMENT
_pszName$ = 8						; size = 4
_pszBuffer$ = 12					; size = 4
_nSize$ = 16						; size = 4
?GetEnvironmentVariableWThunk@ATL@@YGKPBGPAGK@Z PROC NEAR ; ATL::GetEnvironmentVariableWThunk, COMDAT

; 183  : {

	push	ebp
	mov	ebp, esp
	push	esi

; 184  : 	_AtlInstallStringThunk(reinterpret_cast<void**>(&_strthunks.pfnGetEnvironmentVariableW), 
; 185  : 		GetEnvironmentVariableWFake, ::GetEnvironmentVariableW);

	mov	eax, DWORD PTR __imp__GetEnvironmentVariableW@12
	push	eax
	push	OFFSET FLAT:?GetEnvironmentVariableWFake@ATL@@YGKPBGPAGK@Z ; ATL::GetEnvironmentVariableWFake
	push	OFFSET FLAT:?_strthunks@ATL@@3U_AtlStringThunks@1@A+20
	call	?_AtlInstallStringThunk@ATL@@YAXPAPAXPAX1@Z ; ATL::_AtlInstallStringThunk
	add	esp, 12					; 0000000cH

; 186  : 
; 187  : 	return _strthunks.pfnGetEnvironmentVariableW(pszName, pszBuffer, nSize);

	mov	esi, esp
	mov	ecx, DWORD PTR _nSize$[ebp]
	push	ecx
	mov	edx, DWORD PTR _pszBuffer$[ebp]
	push	edx
	mov	eax, DWORD PTR _pszName$[ebp]
	push	eax
	call	DWORD PTR ?_strthunks@ATL@@3U_AtlStringThunks@1@A+20
	cmp	esi, esp
	call	__RTC_CheckEsp

; 188  : }

	pop	esi
	cmp	ebp, esp
	call	__RTC_CheckEsp
	pop	ebp
	ret	12					; 0000000cH
?GetEnvironmentVariableWThunk@ATL@@YGKPBGPAGK@Z ENDP	; ATL::GetEnvironmentVariableWThunk
_TEXT	ENDS
PUBLIC	?s_bWin9x@?1??_AtlInstallStringThunk@ATL@@YAXPAPAXPAX1@Z@4_NA ; `ATL::_AtlInstallStringThunk'::`2'::s_bWin9x
PUBLIC	??_B?1??_AtlInstallStringThunk@ATL@@YAXPAPAXPAX1@Z@51 ; `ATL::_AtlInstallStringThunk'::`2'::`local static guard'
EXTRN	__imp__GetVersion@0:NEAR
;	COMDAT ?s_bWin9x@?1??_AtlInstallStringThunk@ATL@@YAXPAPAXPAX1@Z@4_NA
_BSS	SEGMENT
?s_bWin9x@?1??_AtlInstallStringThunk@ATL@@YAXPAPAXPAX1@Z@4_NA DB 01H DUP (?) ; `ATL::_AtlInstallStringThunk'::`2'::s_bWin9x
_BSS	ENDS
;	COMDAT ??_B?1??_AtlInstallStringThunk@ATL@@YAXPAPAXPAX1@Z@51
_BSS	SEGMENT
??_B?1??_AtlInstallStringThunk@ATL@@YAXPAPAXPAX1@Z@51 DD 01H DUP (?) ; `ATL::_AtlInstallStringThunk'::`2'::`local static guard'
; Function compile flags: /Odt /RTCsu
_BSS	ENDS
;	COMDAT ?_AtlInstallStringThunk@ATL@@YAXPAPAXPAX1@Z
_TEXT	SEGMENT
_pfn$ = -4						; size = 4
_ppThunk$ = 8						; size = 4
_pfnWin9x$ = 12						; size = 4
_pfnNT$ = 16						; size = 4
?_AtlInstallStringThunk@ATL@@YAXPAPAXPAX1@Z PROC NEAR	; ATL::_AtlInstallStringThunk, COMDAT

; 115  : {

	push	ebp
	mov	ebp, esp
	push	ecx
	push	esi
	mov	DWORD PTR [ebp-4], -858993460		; ccccccccH

; 116  : #pragma warning (push)
; 117  : #pragma warning (disable : 4640)	// construction of local static object is not thread-safe
; 118  : 
; 119  : 	static bool s_bWin9x = (::GetVersion()&0x80000000) != 0;

	mov	eax, DWORD PTR ??_B?1??_AtlInstallStringThunk@ATL@@YAXPAPAXPAX1@Z@51
	and	eax, 1
	jne	SHORT $L198440
	mov	ecx, DWORD PTR ??_B?1??_AtlInstallStringThunk@ATL@@YAXPAPAXPAX1@Z@51
	or	ecx, 1
	mov	DWORD PTR ??_B?1??_AtlInstallStringThunk@ATL@@YAXPAPAXPAX1@Z@51, ecx
	mov	esi, esp
	call	DWORD PTR __imp__GetVersion@0
	cmp	esi, esp
	call	__RTC_CheckEsp
	and	eax, -2147483648			; 80000000H
	neg	eax
	sbb	eax, eax
	neg	eax
	mov	BYTE PTR ?s_bWin9x@?1??_AtlInstallStringThunk@ATL@@YAXPAPAXPAX1@Z@4_NA, al ; `ATL::_AtlInstallStringThunk'::`2'::s_bWin9x
$L198440:

; 120  : 	
; 121  : #pragma warning (pop)
; 122  : 
; 123  : 	void* pfn;
; 124  : 	if (s_bWin9x)

	movzx	edx, BYTE PTR ?s_bWin9x@?1??_AtlInstallStringThunk@ATL@@YAXPAPAXPAX1@Z@4_NA ; `ATL::_AtlInstallStringThunk'::`2'::s_bWin9x
	test	edx, edx
	je	SHORT $L198442

; 125  : 		pfn = pfnWin9x;

	mov	eax, DWORD PTR _pfnWin9x$[ebp]
	mov	DWORD PTR _pfn$[ebp], eax

; 126  : 	else

	jmp	SHORT $L198443
$L198442:

; 127  : 	{
; 128  : #ifdef _CSTRING_ALWAYS_THUNK
; 129  : 		pfn = pfnWin9x;
; 130  : 		(void)pfnNT;
; 131  : #else
; 132  : 		pfn = pfnNT;

	mov	ecx, DWORD PTR _pfnNT$[ebp]
	mov	DWORD PTR _pfn$[ebp], ecx
$L198443:

; 133  : #endif
; 134  : 	}
; 135  : 	InterlockedExchangePointer(ppThunk, pfn);

	mov	edx, DWORD PTR _pfn$[ebp]
	push	edx
	mov	eax, DWORD PTR _ppThunk$[ebp]
	push	eax
	call	?InterlockedExchangePointer@@YGPAXPAPAXPAX@Z ; InterlockedExchangePointer

; 136  : }

	pop	esi
	add	esp, 4
	cmp	ebp, esp
	call	__RTC_CheckEsp
	mov	esp, ebp
	pop	ebp
	ret	0
?_AtlInstallStringThunk@ATL@@YAXPAPAXPAX1@Z ENDP	; ATL::_AtlInstallStringThunk
_TEXT	ENDS
PUBLIC	?_AtlGetConversionACP@ATL@@YGIXZ		; ATL::_AtlGetConversionACP
PUBLIC	??_C@_0FB@DNILBHEN@C?3?2Program?5Files?2Microsoft?5Visua@ ; `string'
PUBLIC	??0?$CW2AEX@$0IA@@ATL@@QAE@PBG@Z		; ATL::CW2AEX<128>::CW2AEX<128>
PUBLIC	??1?$CW2AEX@$0IA@@ATL@@QAE@XZ			; ATL::CW2AEX<128>::~CW2AEX<128>
PUBLIC	??B?$CW2AEX@$0IA@@ATL@@QBEPADXZ			; ATL::CW2AEX<128>::operator char *
PUBLIC	??_C@_0BA@CLMJJCOM@nSize?5?$DO?$DN?5nSizeW?$AA@	; `string'
PUBLIC	??0?$CTempBuffer@D$0IA@VCCRTAllocator@ATL@@@ATL@@QAE@XZ ; ATL::CTempBuffer<char,128,ATL::CCRTAllocator>::CTempBuffer<char,128,ATL::CCRTAllocator>
PUBLIC	??1?$CTempBuffer@D$0IA@VCCRTAllocator@ATL@@@ATL@@QAE@XZ ; ATL::CTempBuffer<char,128,ATL::CCRTAllocator>::~CTempBuffer<char,128,ATL::CCRTAllocator>
PUBLIC	??B?$CTempBuffer@D$0IA@VCCRTAllocator@ATL@@@ATL@@QBEPADXZ ; ATL::CTempBuffer<char,128,ATL::CCRTAllocator>::operator char *
PUBLIC	?Allocate@?$CTempBuffer@D$0IA@VCCRTAllocator@ATL@@@ATL@@QAEPADI@Z ; ATL::CTempBuffer<char,128,ATL::CCRTAllocator>::Allocate
EXTRN	__imp__MultiByteToWideChar@24:NEAR
EXTRN	__imp__GetEnvironmentVariableA@12:NEAR
EXTRN	__except_list:DWORD
EXTRN	___CxxFrameHandler:NEAR
EXTRN	__CrtDbgReport:NEAR
;	COMDAT xdata$x
xdata$x	SEGMENT
$T211617 DD	0ffffffffH
	DD	FLAT:$L211604
	DD	00H
	DD	FLAT:$L211605
$T211609 DD	019930520H
	DD	02H
	DD	FLAT:$T211617
	DD	2 DUP(00H)
	DD	2 DUP(00H)
xdata$x	ENDS
;	COMDAT ??_C@_0BA@CLMJJCOM@nSize?5?$DO?$DN?5nSizeW?$AA@
CONST	SEGMENT
??_C@_0BA@CLMJJCOM@nSize?5?$DO?$DN?5nSizeW?$AA@ DB 'nSize >= nSizeW', 00H ; `string'
CONST	ENDS
;	COMDAT ??_C@_0FB@DNILBHEN@C?3?2Program?5Files?2Microsoft?5Visua@
CONST	SEGMENT
??_C@_0FB@DNILBHEN@C?3?2Program?5Files?2Microsoft?5Visua@ DB 'C:\Program '
	DB	'Files\Microsoft Visual Studio .NET 2003\Vc7\atlmfc\include\cs'
	DB	'tringt.h', 00H				; `string'
; Function compile flags: /Odt /RTCsu
CONST	ENDS
;	COMDAT ?GetEnvironmentVariableWFake@ATL@@YGKPBGPAGK@Z
_TEXT	SEGMENT
$T211603 = -316						; size = 4
$T211601 = -312						; size = 4
$T211600 = -308						; size = 4
_pszNameA$ = -300					; size = 132
_pszBufferA$ = -160					; size = 132
_nSizeW$ = -24						; size = 4
_nSizeA$ = -20						; size = 4
__$ArrayPad$ = -16					; size = 4
__$EHRec$ = -12						; size = 12
__$ReturnAddr$ = 4					; size = 4
_pszName$ = 8						; size = 4
_pszBuffer$ = 12					; size = 4
_nSize$ = 16						; size = 4
?GetEnvironmentVariableWFake@ATL@@YGKPBGPAGK@Z PROC NEAR ; ATL::GetEnvironmentVariableWFake, COMDAT

; 159  : {

	push	ebp
	mov	ebp, esp
	push	-1
	push	__ehhandler$?GetEnvironmentVariableWFake@ATL@@YGKPBGPAGK@Z
	mov	eax, DWORD PTR fs:__except_list
	push	eax
	mov	DWORD PTR fs:__except_list, esp
	sub	esp, 304				; 00000130H
	push	esi
	push	edi
	lea	edi, DWORD PTR [ebp-316]
	mov	ecx, 76					; 0000004cH
	mov	eax, -858993460				; ccccccccH
	rep stosd
	mov	eax, DWORD PTR ___security_cookie
	mov	DWORD PTR __$ArrayPad$[ebp], eax

; 160  : 	ULONG nSizeA;
; 161  : 	ULONG nSizeW;
; 162  : 	CTempBuffer<char> pszBufferA;

	lea	ecx, DWORD PTR _pszBufferA$[ebp]
	call	??0?$CTempBuffer@D$0IA@VCCRTAllocator@ATL@@@ATL@@QAE@XZ ; ATL::CTempBuffer<char,128,ATL::CCRTAllocator>::CTempBuffer<char,128,ATL::CCRTAllocator>
	mov	DWORD PTR __$EHRec$[ebp+8], 0

; 163  : 	CW2A pszNameA(pszName);

	mov	eax, DWORD PTR _pszName$[ebp]
	push	eax
	lea	ecx, DWORD PTR _pszNameA$[ebp]
	call	??0?$CW2AEX@$0IA@@ATL@@QAE@PBG@Z	; ATL::CW2AEX<128>::CW2AEX<128>
	mov	BYTE PTR __$EHRec$[ebp+8], 1

; 164  : 
; 165  : 	nSizeA = ::GetEnvironmentVariableA(pszNameA, NULL, 0);

	mov	esi, esp
	push	0
	push	0
	lea	ecx, DWORD PTR _pszNameA$[ebp]
	call	??B?$CW2AEX@$0IA@@ATL@@QBEPADXZ		; ATL::CW2AEX<128>::operator char *
	push	eax
	call	DWORD PTR __imp__GetEnvironmentVariableA@12
	cmp	esi, esp
	call	__RTC_CheckEsp
	mov	DWORD PTR _nSizeA$[ebp], eax

; 166  : 	if (nSizeA == 0)

	cmp	DWORD PTR _nSizeA$[ebp], 0
	jne	SHORT $L198514

; 167  : 		return 0;

	mov	DWORD PTR $T211600[ebp], 0
	mov	BYTE PTR __$EHRec$[ebp+8], 0
	lea	ecx, DWORD PTR _pszNameA$[ebp]
	call	??1?$CW2AEX@$0IA@@ATL@@QAE@XZ		; ATL::CW2AEX<128>::~CW2AEX<128>
	mov	DWORD PTR __$EHRec$[ebp+8], -1
	lea	ecx, DWORD PTR _pszBufferA$[ebp]
	call	??1?$CTempBuffer@D$0IA@VCCRTAllocator@ATL@@@ATL@@QAE@XZ ; ATL::CTempBuffer<char,128,ATL::CCRTAllocator>::~CTempBuffer<char,128,ATL::CCRTAllocator>
	mov	eax, DWORD PTR $T211600[ebp]
	jmp	$L198486
$L198514:

; 168  : 
; 169  : 	pszBufferA.Allocate(nSizeA*2);

	mov	ecx, DWORD PTR _nSizeA$[ebp]
	shl	ecx, 1
	push	ecx
	lea	ecx, DWORD PTR _pszBufferA$[ebp]
	call	?Allocate@?$CTempBuffer@D$0IA@VCCRTAllocator@ATL@@@ATL@@QAEPADI@Z ; ATL::CTempBuffer<char,128,ATL::CCRTAllocator>::Allocate

; 170  : 	::GetEnvironmentVariableA(pszNameA, pszBufferA, nSizeA);

	mov	esi, esp
	mov	edx, DWORD PTR _nSizeA$[ebp]
	push	edx
	lea	ecx, DWORD PTR _pszBufferA$[ebp]
	call	??B?$CTempBuffer@D$0IA@VCCRTAllocator@ATL@@@ATL@@QBEPADXZ ; ATL::CTempBuffer<char,128,ATL::CCRTAllocator>::operator char *
	push	eax
	lea	ecx, DWORD PTR _pszNameA$[ebp]
	call	??B?$CW2AEX@$0IA@@ATL@@QBEPADXZ		; ATL::CW2AEX<128>::operator char *
	push	eax
	call	DWORD PTR __imp__GetEnvironmentVariableA@12
	cmp	esi, esp
	call	__RTC_CheckEsp

; 171  : 
; 172  : 	nSizeW = ::MultiByteToWideChar(_AtlGetConversionACP(), 0, pszBufferA, -1, NULL, 0);

	mov	esi, esp
	push	0
	push	0
	push	-1
	lea	ecx, DWORD PTR _pszBufferA$[ebp]
	call	??B?$CTempBuffer@D$0IA@VCCRTAllocator@ATL@@@ATL@@QBEPADXZ ; ATL::CTempBuffer<char,128,ATL::CCRTAllocator>::operator char *
	push	eax
	push	0
	call	?_AtlGetConversionACP@ATL@@YGIXZ	; ATL::_AtlGetConversionACP
	push	eax
	call	DWORD PTR __imp__MultiByteToWideChar@24
	cmp	esi, esp
	call	__RTC_CheckEsp
	mov	DWORD PTR _nSizeW$[ebp], eax

; 173  : 	if (nSize == 0)

	cmp	DWORD PTR _nSize$[ebp], 0
	jne	SHORT $L198516

; 174  : 		return nSizeW;

	mov	eax, DWORD PTR _nSizeW$[ebp]
	mov	DWORD PTR $T211601[ebp], eax
	mov	BYTE PTR __$EHRec$[ebp+8], 0
	lea	ecx, DWORD PTR _pszNameA$[ebp]
	call	??1?$CW2AEX@$0IA@@ATL@@QAE@XZ		; ATL::CW2AEX<128>::~CW2AEX<128>
	mov	DWORD PTR __$EHRec$[ebp+8], -1
	lea	ecx, DWORD PTR _pszBufferA$[ebp]
	call	??1?$CTempBuffer@D$0IA@VCCRTAllocator@ATL@@@ATL@@QAE@XZ ; ATL::CTempBuffer<char,128,ATL::CCRTAllocator>::~CTempBuffer<char,128,ATL::CCRTAllocator>
	mov	eax, DWORD PTR $T211601[ebp]
	jmp	$L198486
$L198516:

; 175  : 	ATLASSERT(nSize >= nSizeW);

	mov	ecx, DWORD PTR _nSize$[ebp]
	cmp	ecx, DWORD PTR _nSizeW$[ebp]
	jae	SHORT $L211602
	push	OFFSET FLAT:??_C@_0BA@CLMJJCOM@nSize?5?$DO?$DN?5nSizeW?$AA@
	push	0
	push	175					; 000000afH
	push	OFFSET FLAT:??_C@_0FB@DNILBHEN@C?3?2Program?5Files?2Microsoft?5Visua@
	push	2
	call	__CrtDbgReport
	add	esp, 20					; 00000014H
	cmp	eax, 1
	jne	SHORT $L211602
	int	3
$L211602:

; 176  : 	::MultiByteToWideChar(_AtlGetConversionACP(), 0, pszBufferA, -1, pszBuffer, nSizeW);

	mov	esi, esp
	mov	eax, DWORD PTR _nSizeW$[ebp]
	push	eax
	mov	ecx, DWORD PTR _pszBuffer$[ebp]
	push	ecx
	push	-1
	lea	ecx, DWORD PTR _pszBufferA$[ebp]
	call	??B?$CTempBuffer@D$0IA@VCCRTAllocator@ATL@@@ATL@@QBEPADXZ ; ATL::CTempBuffer<char,128,ATL::CCRTAllocator>::operator char *
	push	eax
	push	0
	call	?_AtlGetConversionACP@ATL@@YGIXZ	; ATL::_AtlGetConversionACP
	push	eax
	call	DWORD PTR __imp__MultiByteToWideChar@24
	cmp	esi, esp
	call	__RTC_CheckEsp

; 177  : 
; 178  : 	return nSizeW;

	mov	edx, DWORD PTR _nSizeW$[ebp]
	mov	DWORD PTR $T211603[ebp], edx
	mov	BYTE PTR __$EHRec$[ebp+8], 0
	lea	ecx, DWORD PTR _pszNameA$[ebp]
	call	??1?$CW2AEX@$0IA@@ATL@@QAE@XZ		; ATL::CW2AEX<128>::~CW2AEX<128>
	mov	DWORD PTR __$EHRec$[ebp+8], -1
	lea	ecx, DWORD PTR _pszBufferA$[ebp]
	call	??1?$CTempBuffer@D$0IA@VCCRTAllocator@ATL@@@ATL@@QAE@XZ ; ATL::CTempBuffer<char,128,ATL::CCRTAllocator>::~CTempBuffer<char,128,ATL::CCRTAllocator>
	mov	eax, DWORD PTR $T211603[ebp]
$L198486:

; 179  : }

	push	edx
	mov	ecx, ebp
	push	eax
	lea	edx, DWORD PTR $L211616
	call	@_RTC_CheckStackVars@8
	pop	eax
	pop	edx
	mov	ecx, DWORD PTR __$EHRec$[ebp]
	mov	DWORD PTR fs:__except_list, ecx
	mov	ecx, DWORD PTR __$ArrayPad$[ebp]
	call	@__security_check_cookie@4
	pop	edi
	pop	esi
	add	esp, 316				; 0000013cH
	cmp	ebp, esp
	call	__RTC_CheckEsp
	mov	esp, ebp
	pop	ebp
	ret	12					; 0000000cH
$L211616:
	DD	2
	DD	$L211615
$L211615:
	DD	-160					; ffffff60H
	DD	132					; 00000084H
	DD	$L211610
	DD	-300					; fffffed4H
	DD	132					; 00000084H
	DD	$L211611
$L211611:
	DB	112					; 00000070H
	DB	115					; 00000073H
	DB	122					; 0000007aH
	DB	78					; 0000004eH
	DB	97					; 00000061H
	DB	109					; 0000006dH
	DB	101					; 00000065H
	DB	65					; 00000041H
	DB	0
$L211610:
	DB	112					; 00000070H
	DB	115					; 00000073H
	DB	122					; 0000007aH
	DB	66					; 00000042H
	DB	117					; 00000075H
	DB	102					; 00000066H
	DB	102					; 00000066H
	DB	101					; 00000065H
	DB	114					; 00000072H
	DB	65					; 00000041H
	DB	0
_TEXT	ENDS
;	COMDAT text$x
text$x	SEGMENT
$L211604:
	lea	ecx, DWORD PTR _pszBufferA$[ebp]
	jmp	??1?$CTempBuffer@D$0IA@VCCRTAllocator@ATL@@@ATL@@QAE@XZ ; ATL::CTempBuffer<char,128,ATL::CCRTAllocator>::~CTempBuffer<char,128,ATL::CCRTAllocator>
$L211605:
	lea	ecx, DWORD PTR _pszNameA$[ebp]
	jmp	??1?$CW2AEX@$0IA@@ATL@@QAE@XZ		; ATL::CW2AEX<128>::~CW2AEX<128>
__ehhandler$?GetEnvironmentVariableWFake@ATL@@YGKPBGPAGK@Z:
	mov	eax, OFFSET FLAT:$T211609
	jmp	___CxxFrameHandler
text$x	ENDS
?GetEnvironmentVariableWFake@ATL@@YGKPBGPAGK@Z ENDP	; ATL::GetEnvironmentVariableWFake
; Function compile flags: /Odt /RTCsu
; File c:\program files\microsoft visual studio .net 2003\vc7\atlmfc\include\atlconv.h
;	COMDAT ?_AtlGetConversionACP@ATL@@YGIXZ
_TEXT	SEGMENT
?_AtlGetConversionACP@ATL@@YGIXZ PROC NEAR		; ATL::_AtlGetConversionACP, COMDAT

; 157  : {

	push	ebp
	mov	ebp, esp
	push	esi

; 158  : 	return( g_pfnGetThreadACP() );

	mov	esi, esp
	call	DWORD PTR ?g_pfnGetThreadACP@ATL@@3P6GIXZA ; ATL::g_pfnGetThreadACP
	cmp	esi, esp
	call	__RTC_CheckEsp

; 159  : }

	pop	esi
	cmp	ebp, esp
	call	__RTC_CheckEsp
	pop	ebp
	ret	0
?_AtlGetConversionACP@ATL@@YGIXZ ENDP			; ATL::_AtlGetConversionACP
_TEXT	ENDS
PUBLIC	?CompareStringWFake@ATL@@YGHKKPBGH0H@Z		; ATL::CompareStringWFake
EXTRN	__imp__CompareStringW@24:NEAR
; Function compile flags: /Odt /RTCsu
; File c:\program files\microsoft visual studio .net 2003\vc7\atlmfc\include\cstringt.h
;	COMDAT ?CompareStringWThunk@ATL@@YGHKKPBGH0H@Z
_TEXT	SEGMENT
_lcid$ = 8						; size = 4
_dwFlags$ = 12						; size = 4
_pszString1$ = 16					; size = 4
_nLength1$ = 20						; size = 4
_pszString2$ = 24					; size = 4
_nLength2$ = 28						; size = 4
?CompareStringWThunk@ATL@@YGHKKPBGH0H@Z PROC NEAR	; ATL::CompareStringWThunk, COMDAT

; 216  : {

	push	ebp
	mov	ebp, esp
	push	esi

; 217  : 	_AtlInstallStringThunk(reinterpret_cast<void**>(&_strthunks.pfnCompareStringW), CompareStringWFake, ::CompareStringW);

	mov	eax, DWORD PTR __imp__CompareStringW@24
	push	eax
	push	OFFSET FLAT:?CompareStringWFake@ATL@@YGHKKPBGH0H@Z ; ATL::CompareStringWFake
	push	OFFSET FLAT:?_strthunks@ATL@@3U_AtlStringThunks@1@A ; ATL::_strthunks
	call	?_AtlInstallStringThunk@ATL@@YAXPAPAXPAX1@Z ; ATL::_AtlInstallStringThunk
	add	esp, 12					; 0000000cH

; 218  : 
; 219  : 	return _strthunks.pfnCompareStringW(lcid, dwFlags, pszString1, nLength1, pszString2, nLength2);

	mov	esi, esp
	mov	ecx, DWORD PTR _nLength2$[ebp]
	push	ecx
	mov	edx, DWORD PTR _pszString2$[ebp]
	push	edx
	mov	eax, DWORD PTR _nLength1$[ebp]
	push	eax
	mov	ecx, DWORD PTR _pszString1$[ebp]
	push	ecx
	mov	edx, DWORD PTR _dwFlags$[ebp]
	push	edx
	mov	eax, DWORD PTR _lcid$[ebp]
	push	eax
	call	DWORD PTR ?_strthunks@ATL@@3U_AtlStringThunks@1@A
	cmp	esi, esp
	call	__RTC_CheckEsp

; 220  : }

	pop	esi
	cmp	ebp, esp
	call	__RTC_CheckEsp
	pop	ebp
	ret	24					; 00000018H
?CompareStringWThunk@ATL@@YGHKKPBGH0H@Z ENDP		; ATL::CompareStringWThunk
_TEXT	ENDS
PUBLIC	?AtlW2AHelper@@YGPADPADPBGHI@Z			; AtlW2AHelper
PUBLIC	??0?$CAtlSafeAllocBufferManager@VCCRTAllocator@ATL@@@_ATL_SAFE_ALLOCA_IMPL@ATL@@QAE@XZ ; ATL::_ATL_SAFE_ALLOCA_IMPL::CAtlSafeAllocBufferManager<ATL::CCRTAllocator>::CAtlSafeAllocBufferManager<ATL::CCRTAllocator>
PUBLIC	?Allocate@?$CAtlSafeAllocBufferManager@VCCRTAllocator@ATL@@@_ATL_SAFE_ALLOCA_IMPL@ATL@@QAEPAXK@Z ; ATL::_ATL_SAFE_ALLOCA_IMPL::CAtlSafeAllocBufferManager<ATL::CCRTAllocator>::Allocate
PUBLIC	??1?$CAtlSafeAllocBufferManager@VCCRTAllocator@ATL@@@_ATL_SAFE_ALLOCA_IMPL@ATL@@QAE@XZ ; ATL::_ATL_SAFE_ALLOCA_IMPL::CAtlSafeAllocBufferManager<ATL::CCRTAllocator>::~CAtlSafeAllocBufferManager<ATL::CCRTAllocator>
PUBLIC	?AtlThrow@ATL@@YGXJ@Z				; ATL::AtlThrow
PUBLIC	?_AtlVerifyStackAvailable@_ATL_SAFE_ALLOCA_IMPL@ATL@@YA_NK@Z ; ATL::_ATL_SAFE_ALLOCA_IMPL::_AtlVerifyStackAvailable
EXTRN	__imp__lstrlenW@4:NEAR
EXTRN	__imp__CompareStringA@24:NEAR
EXTRN	__alloca_probe:NEAR
;	COMDAT xdata$x
xdata$x	SEGMENT
$T211644 DD	0ffffffffH
	DD	FLAT:$L211636
$T211638 DD	019930520H
	DD	01H
	DD	FLAT:$T211644
	DD	2 DUP(00H)
	DD	2 DUP(00H)
; Function compile flags: /Odt /RTCsu
xdata$x	ENDS
;	COMDAT ?CompareStringWFake@ATL@@YGHKKPBGH0H@Z
_TEXT	SEGMENT
tv147 = -76						; size = 4
tv142 = -72						; size = 4
tv149 = -68						; size = 4
tv89 = -64						; size = 4
tv84 = -60						; size = 4
tv91 = -56						; size = 4
$T211635 = -52						; size = 4
_pszAString2$ = -48					; size = 4
_pszAString1$ = -44					; size = 4
__AtlSafeAllocaManager$ = -36				; size = 4
__lpa_ex$ = -28						; size = 4
__lpw_ex$ = -24						; size = 4
__acp_ex$ = -20						; size = 4
__convert_ex$ = -16					; size = 4
__$EHRec$ = -12						; size = 12
_lcid$ = 8						; size = 4
_dwFlags$ = 12						; size = 4
_pszString1$ = 16					; size = 4
_nLength1$ = 20						; size = 4
_pszString2$ = 24					; size = 4
_nLength2$ = 28						; size = 4
?CompareStringWFake@ATL@@YGHKKPBGH0H@Z PROC NEAR	; ATL::CompareStringWFake, COMDAT

; 192  : {

	push	ebp
	mov	ebp, esp
	push	-1
	push	__ehhandler$?CompareStringWFake@ATL@@YGHKKPBGH0H@Z
	mov	eax, DWORD PTR fs:__except_list
	push	eax
	mov	DWORD PTR fs:__except_list, esp
	sub	esp, 64					; 00000040H
	push	esi
	push	edi
	lea	edi, DWORD PTR [ebp-76]
	mov	ecx, 16					; 00000010H
	mov	eax, -858993460				; ccccccccH
	rep stosd

; 193  : 	USES_CONVERSION_EX;

	mov	DWORD PTR __convert_ex$[ebp], 0
	call	?_AtlGetConversionACP@ATL@@YGIXZ	; ATL::_AtlGetConversionACP
	mov	DWORD PTR __acp_ex$[ebp], eax
	mov	DWORD PTR __lpw_ex$[ebp], 0
	mov	DWORD PTR __lpa_ex$[ebp], 0
	lea	ecx, DWORD PTR __AtlSafeAllocaManager$[ebp]
	call	??0?$CAtlSafeAllocBufferManager@VCCRTAllocator@ATL@@@_ATL_SAFE_ALLOCA_IMPL@ATL@@QAE@XZ ; ATL::_ATL_SAFE_ALLOCA_IMPL::CAtlSafeAllocBufferManager<ATL::CCRTAllocator>::CAtlSafeAllocBufferManager<ATL::CCRTAllocator>
	mov	DWORD PTR __$EHRec$[ebp+8], 0

; 194  : 	
; 195  : 	LPCSTR pszAString1 = NULL;

	mov	DWORD PTR _pszAString1$[ebp], 0

; 196  : 	if(pszString1 != NULL)

	cmp	DWORD PTR _pszString1$[ebp], 0
	je	$L198541

; 197  : 	{
; 198  : 		pszAString1 = W2A_EX(pszString1,_ATL_SAFE_ALLOCA_DEF_THRESHOLD);

	mov	eax, DWORD PTR _pszString1$[ebp]
	mov	DWORD PTR __lpw_ex$[ebp], eax
	cmp	DWORD PTR __lpw_ex$[ebp], 0
	jne	SHORT $L211629
	mov	DWORD PTR tv91[ebp], 0
	jmp	SHORT $L211630
$L211629:
	mov	esi, esp
	mov	ecx, DWORD PTR __lpw_ex$[ebp]
	push	ecx
	call	DWORD PTR __imp__lstrlenW@4
	cmp	esi, esp
	call	__RTC_CheckEsp
	lea	edx, DWORD PTR [eax+eax+2]
	mov	DWORD PTR __convert_ex$[ebp], edx
	cmp	DWORD PTR __convert_ex$[ebp], 1024	; 00000400H
	jg	SHORT $L211627
	mov	eax, DWORD PTR __convert_ex$[ebp]
	push	eax
	call	?_AtlVerifyStackAvailable@_ATL_SAFE_ALLOCA_IMPL@ATL@@YA_NK@Z ; ATL::_ATL_SAFE_ALLOCA_IMPL::_AtlVerifyStackAvailable
	add	esp, 4
	movzx	ecx, al
	test	ecx, ecx
	je	SHORT $L211627
	mov	eax, DWORD PTR __convert_ex$[ebp]
	add	eax, 3
	and	eax, -4					; fffffffcH
	call	__alloca_probe
	mov	DWORD PTR tv84[ebp], esp
	mov	edx, DWORD PTR tv84[ebp]
	mov	DWORD PTR tv89[ebp], edx
	jmp	SHORT $L211628
$L211627:
	mov	eax, DWORD PTR __convert_ex$[ebp]
	push	eax
	lea	ecx, DWORD PTR __AtlSafeAllocaManager$[ebp]
	call	?Allocate@?$CAtlSafeAllocBufferManager@VCCRTAllocator@ATL@@@_ATL_SAFE_ALLOCA_IMPL@ATL@@QAEPAXK@Z ; ATL::_ATL_SAFE_ALLOCA_IMPL::CAtlSafeAllocBufferManager<ATL::CCRTAllocator>::Allocate
	mov	DWORD PTR tv89[ebp], eax
$L211628:
	mov	ecx, DWORD PTR __acp_ex$[ebp]
	push	ecx
	mov	edx, DWORD PTR __convert_ex$[ebp]
	push	edx
	mov	eax, DWORD PTR __lpw_ex$[ebp]
	push	eax
	mov	ecx, DWORD PTR tv89[ebp]
	push	ecx
	call	?AtlW2AHelper@@YGPADPADPBGHI@Z		; AtlW2AHelper
	mov	DWORD PTR tv91[ebp], eax
$L211630:
	mov	edx, DWORD PTR tv91[ebp]
	mov	DWORD PTR _pszAString1$[ebp], edx

; 199  : 		if(pszAString1 == NULL)

	cmp	DWORD PTR _pszAString1$[ebp], 0
	jne	SHORT $L198541

; 200  : 			AtlThrow(E_OUTOFMEMORY);

	push	-2147024882				; 8007000eH
	call	?AtlThrow@ATL@@YGXJ@Z			; ATL::AtlThrow
$L198541:

; 201  : 	}
; 202  : 
; 203  : 	LPCSTR pszAString2 = NULL;

	mov	DWORD PTR _pszAString2$[ebp], 0

; 204  : 	if(pszString2 != NULL)

	cmp	DWORD PTR _pszString2$[ebp], 0
	je	$L198547

; 205  : 	{
; 206  : 		pszAString2 = W2A_EX(pszString2,_ATL_SAFE_ALLOCA_DEF_THRESHOLD);

	mov	eax, DWORD PTR _pszString2$[ebp]
	mov	DWORD PTR __lpw_ex$[ebp], eax
	cmp	DWORD PTR __lpw_ex$[ebp], 0
	jne	SHORT $L211633
	mov	DWORD PTR tv149[ebp], 0
	jmp	SHORT $L211634
$L211633:
	mov	esi, esp
	mov	ecx, DWORD PTR __lpw_ex$[ebp]
	push	ecx
	call	DWORD PTR __imp__lstrlenW@4
	cmp	esi, esp
	call	__RTC_CheckEsp
	lea	edx, DWORD PTR [eax+eax+2]
	mov	DWORD PTR __convert_ex$[ebp], edx
	cmp	DWORD PTR __convert_ex$[ebp], 1024	; 00000400H
	jg	SHORT $L211631
	mov	eax, DWORD PTR __convert_ex$[ebp]
	push	eax
	call	?_AtlVerifyStackAvailable@_ATL_SAFE_ALLOCA_IMPL@ATL@@YA_NK@Z ; ATL::_ATL_SAFE_ALLOCA_IMPL::_AtlVerifyStackAvailable
	add	esp, 4
	movzx	ecx, al
	test	ecx, ecx
	je	SHORT $L211631
	mov	eax, DWORD PTR __convert_ex$[ebp]
	add	eax, 3
	and	eax, -4					; fffffffcH
	call	__alloca_probe
	mov	DWORD PTR tv142[ebp], esp
	mov	edx, DWORD PTR tv142[ebp]
	mov	DWORD PTR tv147[ebp], edx
	jmp	SHORT $L211632
$L211631:
	mov	eax, DWORD PTR __convert_ex$[ebp]
	push	eax
	lea	ecx, DWORD PTR __AtlSafeAllocaManager$[ebp]
	call	?Allocate@?$CAtlSafeAllocBufferManager@VCCRTAllocator@ATL@@@_ATL_SAFE_ALLOCA_IMPL@ATL@@QAEPAXK@Z ; ATL::_ATL_SAFE_ALLOCA_IMPL::CAtlSafeAllocBufferManager<ATL::CCRTAllocator>::Allocate
	mov	DWORD PTR tv147[ebp], eax
$L211632:
	mov	ecx, DWORD PTR __acp_ex$[ebp]
	push	ecx
	mov	edx, DWORD PTR __convert_ex$[ebp]
	push	edx
	mov	eax, DWORD PTR __lpw_ex$[ebp]
	push	eax
	mov	ecx, DWORD PTR tv147[ebp]
	push	ecx
	call	?AtlW2AHelper@@YGPADPADPBGHI@Z		; AtlW2AHelper
	mov	DWORD PTR tv149[ebp], eax
$L211634:
	mov	edx, DWORD PTR tv149[ebp]
	mov	DWORD PTR _pszAString2$[ebp], edx

; 207  : 		if(pszAString2 == NULL)

	cmp	DWORD PTR _pszAString2$[ebp], 0
	jne	SHORT $L198547

; 208  : 			AtlThrow(E_OUTOFMEMORY);

	push	-2147024882				; 8007000eH
	call	?AtlThrow@ATL@@YGXJ@Z			; ATL::AtlThrow
$L198547:

; 209  : 	}
; 210  : 
; 211  : 	return ::CompareStringA(lcid, dwFlags, pszAString1, nLength1, pszAString2, nLength2);

	mov	esi, esp
	mov	eax, DWORD PTR _nLength2$[ebp]
	push	eax
	mov	ecx, DWORD PTR _pszAString2$[ebp]
	push	ecx
	mov	edx, DWORD PTR _nLength1$[ebp]
	push	edx
	mov	eax, DWORD PTR _pszAString1$[ebp]
	push	eax
	mov	ecx, DWORD PTR _dwFlags$[ebp]
	push	ecx
	mov	edx, DWORD PTR _lcid$[ebp]
	push	edx
	call	DWORD PTR __imp__CompareStringA@24
	cmp	esi, esp
	call	__RTC_CheckEsp
	mov	DWORD PTR $T211635[ebp], eax
	mov	DWORD PTR __$EHRec$[ebp+8], -1
	lea	ecx, DWORD PTR __AtlSafeAllocaManager$[ebp]
	call	??1?$CAtlSafeAllocBufferManager@VCCRTAllocator@ATL@@@_ATL_SAFE_ALLOCA_IMPL@ATL@@QAE@XZ ; ATL::_ATL_SAFE_ALLOCA_IMPL::CAtlSafeAllocBufferManager<ATL::CCRTAllocator>::~CAtlSafeAllocBufferManager<ATL::CCRTAllocator>
	mov	eax, DWORD PTR $T211635[ebp]
$L211626:

; 212  : }

	lea	esp, DWORD PTR [ebp-84]
	push	edx
	mov	ecx, ebp
	push	eax
	lea	edx, DWORD PTR $L211643
	call	@_RTC_CheckStackVars@8
	pop	eax
	pop	edx
	mov	ecx, DWORD PTR __$EHRec$[ebp]
	mov	DWORD PTR fs:__except_list, ecx
	pop	edi
	pop	esi
	mov	esp, ebp
	pop	ebp
	ret	24					; 00000018H
$L211643:
	DD	1
	DD	$L211642
$L211642:
	DD	-36					; ffffffdcH
	DD	4
	DD	$L211640
$L211640:
	DB	95					; 0000005fH
	DB	65					; 00000041H
	DB	116					; 00000074H
	DB	108					; 0000006cH
	DB	83					; 00000053H
	DB	97					; 00000061H
	DB	102					; 00000066H
	DB	101					; 00000065H
	DB	65					; 00000041H
	DB	108					; 0000006cH
	DB	108					; 0000006cH
	DB	111					; 0000006fH
	DB	99					; 00000063H
	DB	97					; 00000061H
	DB	77					; 0000004dH
	DB	97					; 00000061H
	DB	110					; 0000006eH
	DB	97					; 00000061H
	DB	103					; 00000067H
	DB	101					; 00000065H
	DB	114					; 00000072H
	DB	0
_TEXT	ENDS
;	COMDAT text$x
text$x	SEGMENT
$L211636:
	lea	ecx, DWORD PTR __AtlSafeAllocaManager$[ebp]
	jmp	??1?$CAtlSafeAllocBufferManager@VCCRTAllocator@ATL@@@_ATL_SAFE_ALLOCA_IMPL@ATL@@QAE@XZ ; ATL::_ATL_SAFE_ALLOCA_IMPL::CAtlSafeAllocBufferManager<ATL::CCRTAllocator>::~CAtlSafeAllocBufferManager<ATL::CCRTAllocator>
__ehhandler$?CompareStringWFake@ATL@@YGHKKPBGH0H@Z:
	mov	eax, OFFSET FLAT:$T211638
	jmp	___CxxFrameHandler
text$x	ENDS
?CompareStringWFake@ATL@@YGHKKPBGH0H@Z ENDP		; ATL::CompareStringWFake
EXTRN	__resetstkoflw:NEAR
EXTRN	__except_handler3:NEAR
;	COMDAT CONST
; File c:\program files\microsoft visual studio .net 2003\vc7\atlmfc\include\atlalloc.h
CONST	SEGMENT
$T211655 DD	0ffffffffH
	DD	FLAT:$L211650
	DD	FLAT:$L211651
; Function compile flags: /Odt /RTCsu
CONST	ENDS
;	COMDAT ?_AtlVerifyStackAvailable@_ATL_SAFE_ALLOCA_IMPL@ATL@@YA_NK@Z
_TEXT	SEGMENT
tv65 = -48						; size = 4
$T211654 = -44						; size = 4
_p$75736 = -36						; size = 4
_bStackAvailable$ = -25					; size = 1
__$SEHRec$ = -24					; size = 24
_Size$ = 8						; size = 4
?_AtlVerifyStackAvailable@_ATL_SAFE_ALLOCA_IMPL@ATL@@YA_NK@Z PROC NEAR ; ATL::_ATL_SAFE_ALLOCA_IMPL::_AtlVerifyStackAvailable, COMDAT

; 331  : {

	push	ebp
	mov	ebp, esp
	push	-1
	push	OFFSET FLAT:$T211655
	push	OFFSET FLAT:__except_handler3
	mov	eax, DWORD PTR fs:__except_list
	push	eax
	mov	DWORD PTR fs:__except_list, esp
	add	esp, -32				; ffffffe0H
	push	ebx
	push	esi
	push	edi
	mov	eax, -858993460				; ccccccccH
	mov	DWORD PTR [ebp-48], eax
	mov	DWORD PTR [ebp-44], eax
	mov	DWORD PTR [ebp-40], eax
	mov	DWORD PTR [ebp-36], eax
	mov	DWORD PTR [ebp-32], eax
	mov	DWORD PTR [ebp-28], eax
	mov	DWORD PTR __$SEHRec$[ebp], esp

; 332  :     bool bStackAvailable = true;

	mov	BYTE PTR _bStackAvailable$[ebp], 1

; 333  : 
; 334  :     __try

	mov	DWORD PTR __$SEHRec$[ebp+20], 0

; 335  :     {
; 336  :         PVOID p = _alloca(Size + _ATL_STACK_MARGIN);

	mov	eax, DWORD PTR _Size$[ebp]
	add	eax, 8195				; 00002003H
	and	eax, -4					; fffffffcH
	call	__alloca_probe
	mov	DWORD PTR tv65[ebp], esp
	mov	DWORD PTR __$SEHRec$[ebp], esp
	mov	eax, DWORD PTR tv65[ebp]
	mov	DWORD PTR _p$75736[ebp], eax
	mov	DWORD PTR __$SEHRec$[ebp+20], -1
	jmp	SHORT $L211653
$L211650:
$L211662:

; 337  :         (p);
; 338  :     }
; 339  :     __except ((EXCEPTION_STACK_OVERFLOW == GetExceptionCode()) ?
; 340  :                    EXCEPTION_EXECUTE_HANDLER :
; 341  :                    EXCEPTION_CONTINUE_SEARCH)

	mov	ecx, DWORD PTR __$SEHRec$[ebp+4]
	mov	edx, DWORD PTR [ecx]
	mov	eax, DWORD PTR [edx]
	mov	DWORD PTR $T211654[ebp], eax
	mov	eax, DWORD PTR $T211654[ebp]
	sub	eax, -1073741571			; c00000fdH
	neg	eax
	sbb	eax, eax
	inc	eax
$L211652:
$L211661:
	ret	0
$L211651:
	mov	esp, DWORD PTR __$SEHRec$[ebp]

; 342  :     {
; 343  :         bStackAvailable = false;

	mov	BYTE PTR _bStackAvailable$[ebp], 0

; 344  :         _resetstkoflw();

	call	__resetstkoflw
	mov	DWORD PTR __$SEHRec$[ebp+20], -1
$L211653:

; 345  :     }
; 346  :     return bStackAvailable;

	mov	al, BYTE PTR _bStackAvailable$[ebp]
$L211649:

; 347  : }

	lea	esp, DWORD PTR [ebp-60]
	push	edx
	mov	ecx, ebp
	push	eax
	lea	edx, DWORD PTR $L211660
	call	@_RTC_CheckStackVars@8
	pop	eax
	pop	edx
	mov	ecx, DWORD PTR __$SEHRec$[ebp+8]
	mov	DWORD PTR fs:__except_list, ecx
	pop	edi
	pop	esi
	pop	ebx
	mov	esp, ebp
	pop	ebp
	ret	0
$L211660:
	DD	1
	DD	$L211659
$L211659:
	DD	-36					; ffffffdcH
	DD	4
	DD	$L211657
$L211657:
	DB	112					; 00000070H
	DB	0
?_AtlVerifyStackAvailable@_ATL_SAFE_ALLOCA_IMPL@ATL@@YA_NK@Z ENDP ; ATL::_ATL_SAFE_ALLOCA_IMPL::_AtlVerifyStackAvailable
_TEXT	ENDS
PUBLIC	??_C@_08DMHHBMMN@lpa?5?$CB?$DN?50?$AA@		; `string'
PUBLIC	??_C@_0FA@OHHMODBN@C?3?2Program?5Files?2Microsoft?5Visua@ ; `string'
PUBLIC	??_C@_08DIHJLFDJ@lpw?5?$CB?$DN?50?$AA@		; `string'
PUBLIC	??_C@_01GBGANLPD@0?$AA@				; `string'
EXTRN	__imp__WideCharToMultiByte@32:NEAR
;	COMDAT ??_C@_08DIHJLFDJ@lpw?5?$CB?$DN?50?$AA@
; File c:\program files\microsoft visual studio .net 2003\vc7\atlmfc\include\atlconv.h
CONST	SEGMENT
??_C@_08DIHJLFDJ@lpw?5?$CB?$DN?50?$AA@ DB 'lpw != 0', 00H ; `string'
CONST	ENDS
;	COMDAT ??_C@_0FA@OHHMODBN@C?3?2Program?5Files?2Microsoft?5Visua@
CONST	SEGMENT
??_C@_0FA@OHHMODBN@C?3?2Program?5Files?2Microsoft?5Visua@ DB 'C:\Program '
	DB	'Files\Microsoft Visual Studio .NET 2003\Vc7\atlmfc\include\at'
	DB	'lconv.h', 00H				; `string'
CONST	ENDS
;	COMDAT ??_C@_08DMHHBMMN@lpa?5?$CB?$DN?50?$AA@
CONST	SEGMENT
??_C@_08DMHHBMMN@lpa?5?$CB?$DN?50?$AA@ DB 'lpa != 0', 00H ; `string'
CONST	ENDS
;	COMDAT ??_C@_01GBGANLPD@0?$AA@
CONST	SEGMENT
??_C@_01GBGANLPD@0?$AA@ DB '0', 00H			; `string'
; Function compile flags: /Odt /RTCsu
CONST	ENDS
;	COMDAT ?AtlW2AHelper@@YGPADPADPBGHI@Z
_TEXT	SEGMENT
_ret$ = -4						; size = 4
_lpa$ = 8						; size = 4
_lpw$ = 12						; size = 4
_nChars$ = 16						; size = 4
_acp$ = 20						; size = 4
?AtlW2AHelper@@YGPADPADPBGHI@Z PROC NEAR		; AtlW2AHelper, COMDAT

; 573  : {

	push	ebp
	mov	ebp, esp
	push	ecx
	push	esi
	mov	DWORD PTR [ebp-4], -858993460		; ccccccccH

; 574  : 	ATLASSERT(lpw != NULL);

	cmp	DWORD PTR _lpw$[ebp], 0
	jne	SHORT $L211667
	push	OFFSET FLAT:??_C@_08DIHJLFDJ@lpw?5?$CB?$DN?50?$AA@
	push	0
	push	574					; 0000023eH
	push	OFFSET FLAT:??_C@_0FA@OHHMODBN@C?3?2Program?5Files?2Microsoft?5Visua@
	push	2
	call	__CrtDbgReport
	add	esp, 20					; 00000014H
	cmp	eax, 1
	jne	SHORT $L211667
	int	3
$L211667:

; 575  : 	ATLASSERT(lpa != NULL);

	cmp	DWORD PTR _lpa$[ebp], 0
	jne	SHORT $L211668
	push	OFFSET FLAT:??_C@_08DMHHBMMN@lpa?5?$CB?$DN?50?$AA@
	push	0
	push	575					; 0000023fH
	push	OFFSET FLAT:??_C@_0FA@OHHMODBN@C?3?2Program?5Files?2Microsoft?5Visua@
	push	2
	call	__CrtDbgReport
	add	esp, 20					; 00000014H
	cmp	eax, 1
	jne	SHORT $L211668
	int	3
$L211668:

; 576  : 	if (lpa == NULL || lpw == NULL)

	cmp	DWORD PTR _lpa$[ebp], 0
	je	SHORT $L75957
	cmp	DWORD PTR _lpw$[ebp], 0
	jne	SHORT $L75956
$L75957:

; 577  : 		return NULL;

	xor	eax, eax
	jmp	SHORT $L75953
$L75956:

; 578  : 	// verify that no illegal character present
; 579  : 	// since lpa was allocated based on the size of lpw
; 580  : 	// don't worry about the number of chars
; 581  : 	lpa[0] = '\0';

	mov	edx, DWORD PTR _lpa$[ebp]
	mov	BYTE PTR [edx], 0

; 582  : 	int ret = WideCharToMultiByte(acp, 0, lpw, -1, lpa, nChars, NULL, NULL);

	mov	esi, esp
	push	0
	push	0
	mov	eax, DWORD PTR _nChars$[ebp]
	push	eax
	mov	ecx, DWORD PTR _lpa$[ebp]
	push	ecx
	push	-1
	mov	edx, DWORD PTR _lpw$[ebp]
	push	edx
	push	0
	mov	eax, DWORD PTR _acp$[ebp]
	push	eax
	call	DWORD PTR __imp__WideCharToMultiByte@32
	cmp	esi, esp
	call	__RTC_CheckEsp
	mov	DWORD PTR _ret$[ebp], eax

; 583  : 	if(ret == 0)

	cmp	DWORD PTR _ret$[ebp], 0
	jne	SHORT $L75959

; 584  : 	{
; 585  : 		ATLASSERT(FALSE);

	xor	ecx, ecx
	jne	SHORT $L211669
	push	OFFSET FLAT:??_C@_01GBGANLPD@0?$AA@
	push	0
	push	585					; 00000249H
	push	OFFSET FLAT:??_C@_0FA@OHHMODBN@C?3?2Program?5Files?2Microsoft?5Visua@
	push	2
	call	__CrtDbgReport
	add	esp, 20					; 00000014H
	cmp	eax, 1
	jne	SHORT $L211669
	int	3
$L211669:

; 586  : 		return NULL;

	xor	eax, eax
	jmp	SHORT $L75953
$L75959:

; 587  : 	}
; 588  : 	return lpa;

	mov	eax, DWORD PTR _lpa$[ebp]
$L75953:

; 589  : }

	pop	esi
	add	esp, 4
	cmp	ebp, esp
	call	__RTC_CheckEsp
	mov	esp, ebp
	pop	ebp
	ret	16					; 00000010H
?AtlW2AHelper@@YGPADPADPBGHI@Z ENDP			; AtlW2AHelper
_TEXT	ENDS
PUBLIC	??BCTraceCategory@ATL@@QBEKXZ			; ATL::CTraceCategory::operator unsigned long
PUBLIC	??0CTraceFileAndLineInfo@ATL@@QAE@PBDH@Z	; ATL::CTraceFileAndLineInfo::CTraceFileAndLineInfo
PUBLIC	??RCTraceFileAndLineInfo@ATL@@QBAXKIPBDZZ	; ATL::CTraceFileAndLineInfo::operator()
PUBLIC	??0CAtlException@ATL@@QAE@J@Z			; ATL::CAtlException::CAtlException
PUBLIC	??_C@_0FC@CFIFHLCH@C?3?2Program?5Files?2Microsoft?5Visua@ ; `string'
PUBLIC	??_C@_0BF@IAAKIJDJ@AtlThrow?3?5hr?5?$DN?50x?$CFx?6?$AA@ ; `string'
PUBLIC	__TI1?AVCAtlException@ATL@@
PUBLIC	__CTA1?AVCAtlException@ATL@@
PUBLIC	??_R0?AVCAtlException@ATL@@@8			; ATL::CAtlException `RTTI Type Descriptor'
PUBLIC	__CT??_R0?AVCAtlException@ATL@@@84
EXTRN	?atlTraceException@ATL@@3VCTraceCategory@1@A:DWORD ; ATL::atlTraceException
EXTRN	??_7type_info@@6B@:DWORD			; type_info::`vftable'
EXTRN	__CxxThrowException@8:NEAR
;	COMDAT ??_C@_0BF@IAAKIJDJ@AtlThrow?3?5hr?5?$DN?50x?$CFx?6?$AA@
; File c:\program files\microsoft visual studio .net 2003\vc7\atlmfc\include\atlexcept.h
CONST	SEGMENT
??_C@_0BF@IAAKIJDJ@AtlThrow?3?5hr?5?$DN?50x?$CFx?6?$AA@ DB 'AtlThrow: hr '
	DB	'= 0x%x', 0aH, 00H				; `string'
CONST	ENDS
;	COMDAT ??_C@_0FC@CFIFHLCH@C?3?2Program?5Files?2Microsoft?5Visua@
CONST	SEGMENT
??_C@_0FC@CFIFHLCH@C?3?2Program?5Files?2Microsoft?5Visua@ DB 'C:\Program '
	DB	'Files\Microsoft Visual Studio .NET 2003\Vc7\atlmfc\include\at'
	DB	'lexcept.h', 00H				; `string'
CONST	ENDS
;	COMDAT __TI1?AVCAtlException@ATL@@
xdata$x	SEGMENT
__TI1?AVCAtlException@ATL@@ DD 00H
	DD	00H
	DD	00H
	DD	FLAT:__CTA1?AVCAtlException@ATL@@
xdata$x	ENDS
;	COMDAT __CTA1?AVCAtlException@ATL@@
xdata$x	SEGMENT
__CTA1?AVCAtlException@ATL@@ DD 01H
	DD	FLAT:__CT??_R0?AVCAtlException@ATL@@@84
xdata$x	ENDS
;	COMDAT __CT??_R0?AVCAtlException@ATL@@@84
xdata$x	SEGMENT
__CT??_R0?AVCAtlException@ATL@@@84 DD 00H
	DD	FLAT:??_R0?AVCAtlException@ATL@@@8
	DD	00H
	DD	0ffffffffH
	ORG $+4
	DD	04H
	DD	00H
xdata$x	ENDS
;	COMDAT ??_R0?AVCAtlException@ATL@@@8
_DATA	SEGMENT
??_R0?AVCAtlException@ATL@@@8 DD FLAT:??_7type_info@@6B@ ; ATL::CAtlException `RTTI Type Descriptor'
	DD	00H
	DB	'.?AVCAtlException@ATL@@', 00H
; Function compile flags: /Odt /RTCsu
_DATA	ENDS
;	COMDAT ?AtlThrow@ATL@@YGXJ@Z
_TEXT	SEGMENT
$T211674 = -16						; size = 4
$T211673 = -12						; size = 4
$T211672 = -8						; size = 8
_hr$ = 8						; size = 4
?AtlThrow@ATL@@YGXJ@Z PROC NEAR				; ATL::AtlThrow, COMDAT

; 61   : {

	push	ebp
	mov	ebp, esp
	sub	esp, 16					; 00000010H
	mov	eax, -858993460				; ccccccccH
	mov	DWORD PTR [ebp-16], eax
	mov	DWORD PTR [ebp-12], eax
	mov	DWORD PTR [ebp-8], eax
	mov	DWORD PTR [ebp-4], eax

; 62   : 	ATLTRACE(atlTraceException, 0, _T("AtlThrow: hr = 0x%x\n"), hr );

	mov	eax, DWORD PTR _hr$[ebp]
	push	eax
	push	OFFSET FLAT:??_C@_0BF@IAAKIJDJ@AtlThrow?3?5hr?5?$DN?50x?$CFx?6?$AA@
	push	0
	mov	ecx, OFFSET FLAT:?atlTraceException@ATL@@3VCTraceCategory@1@A ; ATL::atlTraceException
	call	??BCTraceCategory@ATL@@QBEKXZ		; ATL::CTraceCategory::operator unsigned long
	push	eax
	push	62					; 0000003eH
	push	OFFSET FLAT:??_C@_0FC@CFIFHLCH@C?3?2Program?5Files?2Microsoft?5Visua@
	lea	ecx, DWORD PTR $T211672[ebp]
	call	??0CTraceFileAndLineInfo@ATL@@QAE@PBDH@Z ; ATL::CTraceFileAndLineInfo::CTraceFileAndLineInfo
	push	eax
	call	??RCTraceFileAndLineInfo@ATL@@QBAXKIPBDZZ ; ATL::CTraceFileAndLineInfo::operator()
	add	esp, 20					; 00000014H

; 63   : #ifdef _AFX
; 64   : 	if( hr == E_OUTOFMEMORY )
; 65   : 	{
; 66   : 		AfxThrowMemoryException();
; 67   : 	}
; 68   : 	else
; 69   : 	{
; 70   : 		AfxThrowOleException( hr );
; 71   : 	}
; 72   : #else
; 73   : 	throw CAtlException( hr );

	mov	ecx, DWORD PTR _hr$[ebp]
	push	ecx
	lea	ecx, DWORD PTR $T211674[ebp]
	call	??0CAtlException@ATL@@QAE@J@Z		; ATL::CAtlException::CAtlException
	mov	edx, DWORD PTR [eax]
	mov	DWORD PTR $T211673[ebp], edx
	push	OFFSET FLAT:__TI1?AVCAtlException@ATL@@
	lea	eax, DWORD PTR $T211673[ebp]
	push	eax
	call	__CxxThrowException@8
$L211671:

; 74   : #endif
; 75   : };

	add	esp, 16					; 00000010H
	cmp	ebp, esp
	call	__RTC_CheckEsp
	mov	esp, ebp
	pop	ebp
	ret	4
?AtlThrow@ATL@@YGXJ@Z ENDP				; ATL::AtlThrow
; Function compile flags: /Odt /RTCsu
; File c:\program files\microsoft visual studio .net 2003\vc7\atlmfc\include\atltrace.h
_TEXT	ENDS
;	COMDAT ??0CTraceFileAndLineInfo@ATL@@QAE@PBDH@Z
_TEXT	SEGMENT
_this$ = -4						; size = 4
_pszFileName$ = 8					; size = 4
_nLineNo$ = 12						; size = 4
??0CTraceFileAndLineInfo@ATL@@QAE@PBDH@Z PROC NEAR	; ATL::CTraceFileAndLineInfo::CTraceFileAndLineInfo, COMDAT
; _this$ = ecx

; 158  : 	{}

	push	ebp
	mov	ebp, esp
	push	ecx
	mov	DWORD PTR [ebp-4], -858993460		; ccccccccH
	mov	DWORD PTR _this$[ebp], ecx
	mov	eax, DWORD PTR _this$[ebp]
	mov	ecx, DWORD PTR _pszFileName$[ebp]
	mov	DWORD PTR [eax], ecx
	mov	edx, DWORD PTR _this$[ebp]
	mov	eax, DWORD PTR _nLineNo$[ebp]
	mov	DWORD PTR [edx+4], eax
	mov	eax, DWORD PTR _this$[ebp]
	mov	esp, ebp
	pop	ebp
	ret	8
??0CTraceFileAndLineInfo@ATL@@QAE@PBDH@Z ENDP		; ATL::CTraceFileAndLineInfo::CTraceFileAndLineInfo
_TEXT	ENDS
PUBLIC	?TraceV@CTrace@ATL@@QBAXPBDHKI0PAD@Z		; ATL::CTrace::TraceV
EXTRN	?s_trace@CTrace@ATL@@2V12@A:QWORD		; ATL::CTrace::s_trace
; Function compile flags: /Odt /RTCsu
;	COMDAT ??RCTraceFileAndLineInfo@ATL@@QBAXKIPBDZZ
_TEXT	SEGMENT
_ptr$ = -4						; size = 4
_this$ = 8						; size = 4
_dwCategory$ = 12					; size = 4
_nLevel$ = 16						; size = 4
_pszFmt$ = 20						; size = 4
??RCTraceFileAndLineInfo@ATL@@QBAXKIPBDZZ PROC NEAR	; ATL::CTraceFileAndLineInfo::operator(), COMDAT

; 161  : 	{

	push	ebp
	mov	ebp, esp
	push	ecx
	mov	DWORD PTR [ebp-4], -858993460		; ccccccccH

; 162  : 		va_list ptr; va_start(ptr, pszFmt);

	lea	eax, DWORD PTR _pszFmt$[ebp+4]
	mov	DWORD PTR _ptr$[ebp], eax

; 163  : 		ATL::CTrace::s_trace.TraceV(m_pszFileName, m_nLineNo, dwCategory, nLevel, pszFmt, ptr);

	mov	ecx, DWORD PTR _ptr$[ebp]
	push	ecx
	mov	edx, DWORD PTR _pszFmt$[ebp]
	push	edx
	mov	eax, DWORD PTR _nLevel$[ebp]
	push	eax
	mov	ecx, DWORD PTR _dwCategory$[ebp]
	push	ecx
	mov	edx, DWORD PTR _this$[ebp]
	mov	eax, DWORD PTR [edx+4]
	push	eax
	mov	ecx, DWORD PTR _this$[ebp]
	mov	edx, DWORD PTR [ecx]
	push	edx
	push	OFFSET FLAT:?s_trace@CTrace@ATL@@2V12@A
	call	?TraceV@CTrace@ATL@@QBAXPBDHKI0PAD@Z	; ATL::CTrace::TraceV
	add	esp, 28					; 0000001cH

; 164  : 		va_end(ptr);

	mov	DWORD PTR _ptr$[ebp], 0

; 165  : 	}

	add	esp, 4
	cmp	ebp, esp
	call	__RTC_CheckEsp
	mov	esp, ebp
	pop	ebp
	ret	0
??RCTraceFileAndLineInfo@ATL@@QBAXKIPBDZZ ENDP		; ATL::CTraceFileAndLineInfo::operator()
_TEXT	ENDS
EXTRN	_AtlTraceVA:NEAR
; Function compile flags: /Odt /RTCsu
;	COMDAT ?TraceV@CTrace@ATL@@QBAXPBDHKI0PAD@Z
_TEXT	SEGMENT
_this$ = 8						; size = 4
_pszFileName$ = 12					; size = 4
_nLine$ = 16						; size = 4
_dwCategory$ = 20					; size = 4
_nLevel$ = 24						; size = 4
_pszFmt$ = 28						; size = 4
_args$ = 32						; size = 4
?TraceV@CTrace@ATL@@QBAXPBDHKI0PAD@Z PROC NEAR		; ATL::CTrace::TraceV, COMDAT

; 121  : 	{

	push	ebp
	mov	ebp, esp

; 122  : 		AtlTraceVA(m_dwModule, pszFileName, nLine, dwCategory, nLevel, pszFmt, args);

	mov	eax, DWORD PTR _args$[ebp]
	push	eax
	mov	ecx, DWORD PTR _pszFmt$[ebp]
	push	ecx
	mov	edx, DWORD PTR _nLevel$[ebp]
	push	edx
	mov	eax, DWORD PTR _dwCategory$[ebp]
	push	eax
	mov	ecx, DWORD PTR _nLine$[ebp]
	push	ecx
	mov	edx, DWORD PTR _pszFileName$[ebp]
	push	edx
	mov	eax, DWORD PTR _this$[ebp]
	mov	ecx, DWORD PTR [eax+4]
	push	ecx
	call	_AtlTraceVA
	add	esp, 28					; 0000001cH

; 123  : 	}

	cmp	ebp, esp
	call	__RTC_CheckEsp
	pop	ebp
	ret	0
?TraceV@CTrace@ATL@@QBAXPBDHKI0PAD@Z ENDP		; ATL::CTrace::TraceV
; Function compile flags: /Odt /RTCsu
_TEXT	ENDS
;	COMDAT ??BCTraceCategory@ATL@@QBEKXZ
_TEXT	SEGMENT
_this$ = -4						; size = 4
??BCTraceCategory@ATL@@QBEKXZ PROC NEAR			; ATL::CTraceCategory::operator unsigned long, COMDAT
; _this$ = ecx

; 202  : {

	push	ebp
	mov	ebp, esp
	push	ecx
	mov	DWORD PTR [ebp-4], -858993460		; ccccccccH
	mov	DWORD PTR _this$[ebp], ecx

; 203  : 	return( m_dwCategory );

	mov	eax, DWORD PTR _this$[ebp]
	mov	eax, DWORD PTR [eax]

; 204  : }

	mov	esp, ebp
	pop	ebp
	ret	0
??BCTraceCategory@ATL@@QBEKXZ ENDP			; ATL::CTraceCategory::operator unsigned long
; Function compile flags: /Odt /RTCsu
; File c:\program files\microsoft visual studio .net 2003\vc7\atlmfc\include\atlexcept.h
_TEXT	ENDS
;	COMDAT ??0CAtlException@ATL@@QAE@J@Z
_TEXT	SEGMENT
_this$ = -4						; size = 4
_hr$ = 8						; size = 4
??0CAtlException@ATL@@QAE@J@Z PROC NEAR			; ATL::CAtlException::CAtlException, COMDAT
; _this$ = ecx

; 40   : 	{

	push	ebp
	mov	ebp, esp
	push	ecx
	mov	DWORD PTR [ebp-4], -858993460		; ccccccccH
	mov	DWORD PTR _this$[ebp], ecx
	mov	eax, DWORD PTR _this$[ebp]
	mov	ecx, DWORD PTR _hr$[ebp]
	mov	DWORD PTR [eax], ecx

; 41   : 	}

	mov	eax, DWORD PTR _this$[ebp]
	mov	esp, ebp
	pop	ebp
	ret	4
??0CAtlException@ATL@@QAE@J@Z ENDP			; ATL::CAtlException::CAtlException
_TEXT	ENDS
PUBLIC	?GetStringTypeExWFake@ATL@@YGHKKPBGHPAG@Z	; ATL::GetStringTypeExWFake
EXTRN	__imp__GetStringTypeExW@20:NEAR
; Function compile flags: /Odt /RTCsu
; File c:\program files\microsoft visual studio .net 2003\vc7\atlmfc\include\cstringt.h
;	COMDAT ?GetStringTypeExWThunk@ATL@@YGHKKPBGHPAG@Z
_TEXT	SEGMENT
_lcid$ = 8						; size = 4
_dwInfoType$ = 12					; size = 4
_pszSrc$ = 16						; size = 4
_nLength$ = 20						; size = 4
_pwCharType$ = 24					; size = 4
?GetStringTypeExWThunk@ATL@@YGHKKPBGHPAG@Z PROC NEAR	; ATL::GetStringTypeExWThunk, COMDAT

; 240  : {

	push	ebp
	mov	ebp, esp
	push	esi

; 241  : 	_AtlInstallStringThunk(reinterpret_cast<void**>(&_strthunks.pfnGetStringTypeExW), GetStringTypeExWFake, ::GetStringTypeExW);

	mov	eax, DWORD PTR __imp__GetStringTypeExW@20
	push	eax
	push	OFFSET FLAT:?GetStringTypeExWFake@ATL@@YGHKKPBGHPAG@Z ; ATL::GetStringTypeExWFake
	push	OFFSET FLAT:?_strthunks@ATL@@3U_AtlStringThunks@1@A+4
	call	?_AtlInstallStringThunk@ATL@@YAXPAPAXPAX1@Z ; ATL::_AtlInstallStringThunk
	add	esp, 12					; 0000000cH

; 242  : 
; 243  : 	return _strthunks.pfnGetStringTypeExW(lcid, dwInfoType, pszSrc, nLength, pwCharType);

	mov	esi, esp
	mov	ecx, DWORD PTR _pwCharType$[ebp]
	push	ecx
	mov	edx, DWORD PTR _nLength$[ebp]
	push	edx
	mov	eax, DWORD PTR _pszSrc$[ebp]
	push	eax
	mov	ecx, DWORD PTR _dwInfoType$[ebp]
	push	ecx
	mov	edx, DWORD PTR _lcid$[ebp]
	push	edx
	call	DWORD PTR ?_strthunks@ATL@@3U_AtlStringThunks@1@A+4
	cmp	esi, esp
	call	__RTC_CheckEsp

; 244  : }

	pop	esi
	cmp	ebp, esp
	call	__RTC_CheckEsp
	pop	ebp
	ret	20					; 00000014H
?GetStringTypeExWThunk@ATL@@YGHKKPBGHPAG@Z ENDP		; ATL::GetStringTypeExWThunk
_TEXT	ENDS
EXTRN	__imp__GetStringTypeExA@20:NEAR
;	COMDAT xdata$x
xdata$x	SEGMENT
$T211700 DD	0ffffffffH
	DD	FLAT:$L211692
$T211694 DD	019930520H
	DD	01H
	DD	FLAT:$T211700
	DD	2 DUP(00H)
	DD	2 DUP(00H)
; Function compile flags: /Odt /RTCsu
xdata$x	ENDS
;	COMDAT ?GetStringTypeExWFake@ATL@@YGHKKPBGHPAG@Z
_TEXT	SEGMENT
$T211691 = -164						; size = 4
_pszA$ = -156						; size = 132
_nLengthA$ = -20					; size = 4
__$ArrayPad$ = -16					; size = 4
__$EHRec$ = -12						; size = 12
__$ReturnAddr$ = 4					; size = 4
_lcid$ = 8						; size = 4
_dwInfoType$ = 12					; size = 4
_pszSrc$ = 16						; size = 4
_nLength$ = 20						; size = 4
_pwCharType$ = 24					; size = 4
?GetStringTypeExWFake@ATL@@YGHKKPBGHPAG@Z PROC NEAR	; ATL::GetStringTypeExWFake, COMDAT

; 224  : {

	push	ebp
	mov	ebp, esp
	push	-1
	push	__ehhandler$?GetStringTypeExWFake@ATL@@YGHKKPBGHPAG@Z
	mov	eax, DWORD PTR fs:__except_list
	push	eax
	mov	DWORD PTR fs:__except_list, esp
	sub	esp, 152				; 00000098H
	push	esi
	push	edi
	lea	edi, DWORD PTR [ebp-164]
	mov	ecx, 38					; 00000026H
	mov	eax, -858993460				; ccccccccH
	rep stosd
	mov	eax, DWORD PTR ___security_cookie
	mov	DWORD PTR __$ArrayPad$[ebp], eax

; 225  : 	int nLengthA;
; 226  : 	CTempBuffer<char> pszA;

	lea	ecx, DWORD PTR _pszA$[ebp]
	call	??0?$CTempBuffer@D$0IA@VCCRTAllocator@ATL@@@ATL@@QAE@XZ ; ATL::CTempBuffer<char,128,ATL::CCRTAllocator>::CTempBuffer<char,128,ATL::CCRTAllocator>
	mov	DWORD PTR __$EHRec$[ebp+8], 0

; 227  : 
; 228  : 	nLengthA = ::WideCharToMultiByte(_AtlGetConversionACP(), 0, pszSrc, nLength, NULL, 0, NULL, NULL);

	mov	esi, esp
	push	0
	push	0
	push	0
	push	0
	mov	eax, DWORD PTR _nLength$[ebp]
	push	eax
	mov	ecx, DWORD PTR _pszSrc$[ebp]
	push	ecx
	push	0
	call	?_AtlGetConversionACP@ATL@@YGIXZ	; ATL::_AtlGetConversionACP
	push	eax
	call	DWORD PTR __imp__WideCharToMultiByte@32
	cmp	esi, esp
	call	__RTC_CheckEsp
	mov	DWORD PTR _nLengthA$[ebp], eax

; 229  : 	pszA.Allocate(nLengthA);

	mov	edx, DWORD PTR _nLengthA$[ebp]
	push	edx
	lea	ecx, DWORD PTR _pszA$[ebp]
	call	?Allocate@?$CTempBuffer@D$0IA@VCCRTAllocator@ATL@@@ATL@@QAEPADI@Z ; ATL::CTempBuffer<char,128,ATL::CCRTAllocator>::Allocate

; 230  : 	::WideCharToMultiByte(_AtlGetConversionACP(), 0, pszSrc, nLength, pszA, nLengthA, NULL, NULL);

	mov	esi, esp
	push	0
	push	0
	mov	eax, DWORD PTR _nLengthA$[ebp]
	push	eax
	lea	ecx, DWORD PTR _pszA$[ebp]
	call	??B?$CTempBuffer@D$0IA@VCCRTAllocator@ATL@@@ATL@@QBEPADXZ ; ATL::CTempBuffer<char,128,ATL::CCRTAllocator>::operator char *
	push	eax
	mov	ecx, DWORD PTR _nLength$[ebp]
	push	ecx
	mov	edx, DWORD PTR _pszSrc$[ebp]
	push	edx
	push	0
	call	?_AtlGetConversionACP@ATL@@YGIXZ	; ATL::_AtlGetConversionACP
	push	eax
	call	DWORD PTR __imp__WideCharToMultiByte@32
	cmp	esi, esp
	call	__RTC_CheckEsp

; 231  : 
; 232  : 	if (nLength == -1)

	cmp	DWORD PTR _nLength$[ebp], -1
	jne	SHORT $L198573

; 233  : 		nLengthA = -1;

	mov	DWORD PTR _nLengthA$[ebp], -1
$L198573:

; 234  : 
; 235  : 	return ::GetStringTypeExA(lcid, dwInfoType, pszA, nLengthA, pwCharType);

	mov	esi, esp
	mov	eax, DWORD PTR _pwCharType$[ebp]
	push	eax
	mov	ecx, DWORD PTR _nLengthA$[ebp]
	push	ecx
	lea	ecx, DWORD PTR _pszA$[ebp]
	call	??B?$CTempBuffer@D$0IA@VCCRTAllocator@ATL@@@ATL@@QBEPADXZ ; ATL::CTempBuffer<char,128,ATL::CCRTAllocator>::operator char *
	push	eax
	mov	edx, DWORD PTR _dwInfoType$[ebp]
	push	edx
	mov	eax, DWORD PTR _lcid$[ebp]
	push	eax
	call	DWORD PTR __imp__GetStringTypeExA@20
	cmp	esi, esp
	call	__RTC_CheckEsp
	mov	DWORD PTR $T211691[ebp], eax
	mov	DWORD PTR __$EHRec$[ebp+8], -1
	lea	ecx, DWORD PTR _pszA$[ebp]
	call	??1?$CTempBuffer@D$0IA@VCCRTAllocator@ATL@@@ATL@@QAE@XZ ; ATL::CTempBuffer<char,128,ATL::CCRTAllocator>::~CTempBuffer<char,128,ATL::CCRTAllocator>
	mov	eax, DWORD PTR $T211691[ebp]

; 236  : }

	push	edx
	mov	ecx, ebp
	push	eax
	lea	edx, DWORD PTR $L211699
	call	@_RTC_CheckStackVars@8
	pop	eax
	pop	edx
	mov	ecx, DWORD PTR __$EHRec$[ebp]
	mov	DWORD PTR fs:__except_list, ecx
	mov	ecx, DWORD PTR __$ArrayPad$[ebp]
	call	@__security_check_cookie@4
	pop	edi
	pop	esi
	add	esp, 164				; 000000a4H
	cmp	ebp, esp
	call	__RTC_CheckEsp
	mov	esp, ebp
	pop	ebp
	ret	20					; 00000014H
$L211699:
	DD	1
	DD	$L211698
$L211698:
	DD	-156					; ffffff64H
	DD	132					; 00000084H
	DD	$L211695
$L211695:
	DB	112					; 00000070H
	DB	115					; 00000073H
	DB	122					; 0000007aH
	DB	65					; 00000041H
	DB	0
_TEXT	ENDS
;	COMDAT text$x
text$x	SEGMENT
$L211692:
	lea	ecx, DWORD PTR _pszA$[ebp]
	jmp	??1?$CTempBuffer@D$0IA@VCCRTAllocator@ATL@@@ATL@@QAE@XZ ; ATL::CTempBuffer<char,128,ATL::CCRTAllocator>::~CTempBuffer<char,128,ATL::CCRTAllocator>
__ehhandler$?GetStringTypeExWFake@ATL@@YGHKKPBGHPAG@Z:
	mov	eax, OFFSET FLAT:$T211694
	jmp	___CxxFrameHandler
text$x	ENDS
?GetStringTypeExWFake@ATL@@YGHKKPBGHPAG@Z ENDP		; ATL::GetStringTypeExWFake
PUBLIC	?lstrcmpiWFake@ATL@@YGHPBG0@Z			; ATL::lstrcmpiWFake
EXTRN	__imp__lstrcmpiW@8:NEAR
; Function compile flags: /Odt /RTCsu
;	COMDAT ?lstrcmpiWThunk@ATL@@YGHPBG0@Z
_TEXT	SEGMENT
_psz1$ = 8						; size = 4
_psz2$ = 12						; size = 4
?lstrcmpiWThunk@ATL@@YGHPBG0@Z PROC NEAR		; ATL::lstrcmpiWThunk, COMDAT

; 254  : {

	push	ebp
	mov	ebp, esp
	push	esi

; 255  : 	_AtlInstallStringThunk(reinterpret_cast<void**>(&_strthunks.pfnlstrcmpiW), lstrcmpiWFake, ::lstrcmpiW);

	mov	eax, DWORD PTR __imp__lstrcmpiW@8
	push	eax
	push	OFFSET FLAT:?lstrcmpiWFake@ATL@@YGHPBG0@Z ; ATL::lstrcmpiWFake
	push	OFFSET FLAT:?_strthunks@ATL@@3U_AtlStringThunks@1@A+8
	call	?_AtlInstallStringThunk@ATL@@YAXPAPAXPAX1@Z ; ATL::_AtlInstallStringThunk
	add	esp, 12					; 0000000cH

; 256  : 
; 257  : 	return _strthunks.pfnlstrcmpiW(psz1, psz2);

	mov	esi, esp
	mov	ecx, DWORD PTR _psz2$[ebp]
	push	ecx
	mov	edx, DWORD PTR _psz1$[ebp]
	push	edx
	call	DWORD PTR ?_strthunks@ATL@@3U_AtlStringThunks@1@A+8
	cmp	esi, esp
	call	__RTC_CheckEsp

; 258  : }

	pop	esi
	cmp	ebp, esp
	call	__RTC_CheckEsp
	pop	ebp
	ret	8
?lstrcmpiWThunk@ATL@@YGHPBG0@Z ENDP			; ATL::lstrcmpiWThunk
_TEXT	ENDS
EXTRN	__imp__lstrcmpiA@8:NEAR
; Function compile flags: /Odt /RTCsu
;	COMDAT ?lstrcmpiWFake@ATL@@YGHPBG0@Z
_TEXT	SEGMENT
tv91 = -32						; size = 4
tv94 = -28						; size = 4
tv76 = -24						; size = 4
tv79 = -20						; size = 4
__lpa$ = -16						; size = 4
__lpw$ = -12						; size = 4
__acp$ = -8						; size = 4
__convert$ = -4						; size = 4
_psz1$ = 8						; size = 4
_psz2$ = 12						; size = 4
?lstrcmpiWFake@ATL@@YGHPBG0@Z PROC NEAR			; ATL::lstrcmpiWFake, COMDAT

; 247  : {

	push	ebp
	mov	ebp, esp
	sub	esp, 32					; 00000020H
	push	esi
	mov	eax, -858993460				; ccccccccH
	mov	DWORD PTR [ebp-32], eax
	mov	DWORD PTR [ebp-28], eax
	mov	DWORD PTR [ebp-24], eax
	mov	DWORD PTR [ebp-20], eax
	mov	DWORD PTR [ebp-16], eax
	mov	DWORD PTR [ebp-12], eax
	mov	DWORD PTR [ebp-8], eax
	mov	DWORD PTR [ebp-4], eax

; 248  : 	USES_CONVERSION;

	mov	DWORD PTR __convert$[ebp], 0
	call	?_AtlGetConversionACP@ATL@@YGIXZ	; ATL::_AtlGetConversionACP
	mov	DWORD PTR __acp$[ebp], eax
	mov	DWORD PTR __lpw$[ebp], 0
	mov	DWORD PTR __lpa$[ebp], 0

; 249  : 
; 250  : 	return ::lstrcmpiA(W2A(psz1), W2A(psz2));

	mov	eax, DWORD PTR _psz2$[ebp]
	mov	DWORD PTR __lpw$[ebp], eax
	cmp	DWORD PTR __lpw$[ebp], 0
	jne	SHORT $L211707
	mov	DWORD PTR tv79[ebp], 0
	jmp	SHORT $L211708
$L211707:
	mov	esi, esp
	mov	ecx, DWORD PTR __lpw$[ebp]
	push	ecx
	call	DWORD PTR __imp__lstrlenW@4
	cmp	esi, esp
	call	__RTC_CheckEsp
	lea	edx, DWORD PTR [eax+eax+2]
	mov	DWORD PTR __convert$[ebp], edx
	mov	eax, DWORD PTR __convert$[ebp]
	add	eax, 3
	and	eax, -4					; fffffffcH
	call	__alloca_probe
	mov	DWORD PTR tv76[ebp], esp
	mov	eax, DWORD PTR __acp$[ebp]
	push	eax
	mov	ecx, DWORD PTR __convert$[ebp]
	push	ecx
	mov	edx, DWORD PTR __lpw$[ebp]
	push	edx
	mov	eax, DWORD PTR tv76[ebp]
	push	eax
	call	?AtlW2AHelper@@YGPADPADPBGHI@Z		; AtlW2AHelper
	mov	DWORD PTR tv79[ebp], eax
$L211708:
	mov	ecx, DWORD PTR _psz1$[ebp]
	mov	DWORD PTR __lpw$[ebp], ecx
	cmp	DWORD PTR __lpw$[ebp], 0
	jne	SHORT $L211709
	mov	DWORD PTR tv94[ebp], 0
	jmp	SHORT $L211710
$L211709:
	mov	esi, esp
	mov	edx, DWORD PTR __lpw$[ebp]
	push	edx
	call	DWORD PTR __imp__lstrlenW@4
	cmp	esi, esp
	call	__RTC_CheckEsp
	lea	eax, DWORD PTR [eax+eax+2]
	mov	DWORD PTR __convert$[ebp], eax
	mov	eax, DWORD PTR __convert$[ebp]
	add	eax, 3
	and	eax, -4					; fffffffcH
	call	__alloca_probe
	mov	DWORD PTR tv91[ebp], esp
	mov	ecx, DWORD PTR __acp$[ebp]
	push	ecx
	mov	edx, DWORD PTR __convert$[ebp]
	push	edx
	mov	eax, DWORD PTR __lpw$[ebp]
	push	eax
	mov	ecx, DWORD PTR tv91[ebp]
	push	ecx
	call	?AtlW2AHelper@@YGPADPADPBGHI@Z		; AtlW2AHelper
	mov	DWORD PTR tv94[ebp], eax
$L211710:
	mov	esi, esp
	mov	edx, DWORD PTR tv79[ebp]
	push	edx
	mov	eax, DWORD PTR tv94[ebp]
	push	eax
	call	DWORD PTR __imp__lstrcmpiA@8
	cmp	esi, esp
	call	__RTC_CheckEsp

; 251  : }

	lea	esp, DWORD PTR [ebp-36]
	pop	esi
	mov	esp, ebp
	pop	ebp
	ret	8
?lstrcmpiWFake@ATL@@YGHPBG0@Z ENDP			; ATL::lstrcmpiWFake
_TEXT	ENDS
PUBLIC	?CharLowerWFake@ATL@@YGPAGPAG@Z			; ATL::CharLowerWFake
EXTRN	__imp__CharLowerW@4:NEAR
; Function compile flags: /Odt /RTCsu
;	COMDAT ?CharLowerWThunk@ATL@@YGPAGPAG@Z
_TEXT	SEGMENT
_psz$ = 8						; size = 4
?CharLowerWThunk@ATL@@YGPAGPAG@Z PROC NEAR		; ATL::CharLowerWThunk, COMDAT

; 273  : {

	push	ebp
	mov	ebp, esp
	push	esi

; 274  : 	_AtlInstallStringThunk(reinterpret_cast<void**>(&_strthunks.pfnCharLowerW), CharLowerWFake, ::CharLowerW);

	mov	eax, DWORD PTR __imp__CharLowerW@4
	push	eax
	push	OFFSET FLAT:?CharLowerWFake@ATL@@YGPAGPAG@Z ; ATL::CharLowerWFake
	push	OFFSET FLAT:?_strthunks@ATL@@3U_AtlStringThunks@1@A+12
	call	?_AtlInstallStringThunk@ATL@@YAXPAPAXPAX1@Z ; ATL::_AtlInstallStringThunk
	add	esp, 12					; 0000000cH

; 275  : 
; 276  : 	return _strthunks.pfnCharLowerW(psz);

	mov	esi, esp
	mov	ecx, DWORD PTR _psz$[ebp]
	push	ecx
	call	DWORD PTR ?_strthunks@ATL@@3U_AtlStringThunks@1@A+12
	cmp	esi, esp
	call	__RTC_CheckEsp

; 277  : }

	pop	esi
	cmp	ebp, esp
	call	__RTC_CheckEsp
	pop	ebp
	ret	4
?CharLowerWThunk@ATL@@YGPAGPAG@Z ENDP			; ATL::CharLowerWThunk
_TEXT	ENDS
PUBLIC	?AtlA2WHelper@@YGPAGPAGPBDHI@Z			; AtlA2WHelper
EXTRN	__imp__CharLowerA@4:NEAR
EXTRN	__imp__lstrlenA@4:NEAR
EXTRN	_wcscpy:NEAR
; Function compile flags: /Odt /RTCsu
;	COMDAT ?CharLowerWFake@ATL@@YGPAGPAG@Z
_TEXT	SEGMENT
tv90 = -36						; size = 4
tv94 = -32						; size = 4
tv75 = -28						; size = 4
tv78 = -24						; size = 4
_pszA$ = -20						; size = 4
__lpa$ = -16						; size = 4
__lpw$ = -12						; size = 4
__acp$ = -8						; size = 4
__convert$ = -4						; size = 4
_psz$ = 8						; size = 4
?CharLowerWFake@ATL@@YGPAGPAG@Z PROC NEAR		; ATL::CharLowerWFake, COMDAT

; 261  : {

	push	ebp
	mov	ebp, esp
	sub	esp, 36					; 00000024H
	push	esi
	mov	eax, -858993460				; ccccccccH
	mov	DWORD PTR [ebp-36], eax
	mov	DWORD PTR [ebp-32], eax
	mov	DWORD PTR [ebp-28], eax
	mov	DWORD PTR [ebp-24], eax
	mov	DWORD PTR [ebp-20], eax
	mov	DWORD PTR [ebp-16], eax
	mov	DWORD PTR [ebp-12], eax
	mov	DWORD PTR [ebp-8], eax
	mov	DWORD PTR [ebp-4], eax

; 262  : 	USES_CONVERSION;

	mov	DWORD PTR __convert$[ebp], 0
	call	?_AtlGetConversionACP@ATL@@YGIXZ	; ATL::_AtlGetConversionACP
	mov	DWORD PTR __acp$[ebp], eax
	mov	DWORD PTR __lpw$[ebp], 0
	mov	DWORD PTR __lpa$[ebp], 0

; 263  : 	LPSTR pszA;
; 264  : 
; 265  : 	pszA = W2A(psz);

	mov	eax, DWORD PTR _psz$[ebp]
	mov	DWORD PTR __lpw$[ebp], eax
	cmp	DWORD PTR __lpw$[ebp], 0
	jne	SHORT $L211715
	mov	DWORD PTR tv78[ebp], 0
	jmp	SHORT $L211716
$L211715:
	mov	esi, esp
	mov	ecx, DWORD PTR __lpw$[ebp]
	push	ecx
	call	DWORD PTR __imp__lstrlenW@4
	cmp	esi, esp
	call	__RTC_CheckEsp
	lea	edx, DWORD PTR [eax+eax+2]
	mov	DWORD PTR __convert$[ebp], edx
	mov	eax, DWORD PTR __convert$[ebp]
	add	eax, 3
	and	eax, -4					; fffffffcH
	call	__alloca_probe
	mov	DWORD PTR tv75[ebp], esp
	mov	eax, DWORD PTR __acp$[ebp]
	push	eax
	mov	ecx, DWORD PTR __convert$[ebp]
	push	ecx
	mov	edx, DWORD PTR __lpw$[ebp]
	push	edx
	mov	eax, DWORD PTR tv75[ebp]
	push	eax
	call	?AtlW2AHelper@@YGPADPADPBGHI@Z		; AtlW2AHelper
	mov	DWORD PTR tv78[ebp], eax
$L211716:
	mov	ecx, DWORD PTR tv78[ebp]
	mov	DWORD PTR _pszA$[ebp], ecx

; 266  : 	::CharLowerA(pszA);

	mov	esi, esp
	mov	edx, DWORD PTR _pszA$[ebp]
	push	edx
	call	DWORD PTR __imp__CharLowerA@4
	cmp	esi, esp
	call	__RTC_CheckEsp

; 267  : 	wcscpy(psz, A2W(pszA));

	mov	eax, DWORD PTR _pszA$[ebp]
	mov	DWORD PTR __lpa$[ebp], eax
	cmp	DWORD PTR __lpa$[ebp], 0
	jne	SHORT $L211717
	mov	DWORD PTR tv94[ebp], 0
	jmp	SHORT $L211718
$L211717:
	mov	esi, esp
	mov	ecx, DWORD PTR __lpa$[ebp]
	push	ecx
	call	DWORD PTR __imp__lstrlenA@4
	cmp	esi, esp
	call	__RTC_CheckEsp
	add	eax, 1
	mov	DWORD PTR __convert$[ebp], eax
	mov	eax, DWORD PTR __convert$[ebp]
	shl	eax, 1
	add	eax, 3
	and	eax, -4					; fffffffcH
	call	__alloca_probe
	mov	DWORD PTR tv90[ebp], esp
	mov	edx, DWORD PTR __acp$[ebp]
	push	edx
	mov	eax, DWORD PTR __convert$[ebp]
	push	eax
	mov	ecx, DWORD PTR __lpa$[ebp]
	push	ecx
	mov	edx, DWORD PTR tv90[ebp]
	push	edx
	call	?AtlA2WHelper@@YGPAGPAGPBDHI@Z		; AtlA2WHelper
	mov	DWORD PTR tv94[ebp], eax
$L211718:
	mov	eax, DWORD PTR tv94[ebp]
	push	eax
	mov	ecx, DWORD PTR _psz$[ebp]
	push	ecx
	call	_wcscpy
	add	esp, 8

; 268  : 
; 269  : 	return psz;

	mov	eax, DWORD PTR _psz$[ebp]

; 270  : }

	lea	esp, DWORD PTR [ebp-40]
	pop	esi
	mov	esp, ebp
	pop	ebp
	ret	4
?CharLowerWFake@ATL@@YGPAGPAG@Z ENDP			; ATL::CharLowerWFake
; Function compile flags: /Odt /RTCsu
; File c:\program files\microsoft visual studio .net 2003\vc7\atlmfc\include\atlconv.h
_TEXT	ENDS
;	COMDAT ?AtlA2WHelper@@YGPAGPAGPBDHI@Z
_TEXT	SEGMENT
_ret$ = -4						; size = 4
_lpw$ = 8						; size = 4
_lpa$ = 12						; size = 4
_nChars$ = 16						; size = 4
_acp$ = 20						; size = 4
?AtlA2WHelper@@YGPAGPAGPBDHI@Z PROC NEAR		; AtlA2WHelper, COMDAT

; 554  : {

	push	ebp
	mov	ebp, esp
	push	ecx
	push	esi
	mov	DWORD PTR [ebp-4], -858993460		; ccccccccH

; 555  : 	ATLASSERT(lpa != NULL);

	cmp	DWORD PTR _lpa$[ebp], 0
	jne	SHORT $L211721
	push	OFFSET FLAT:??_C@_08DMHHBMMN@lpa?5?$CB?$DN?50?$AA@
	push	0
	push	555					; 0000022bH
	push	OFFSET FLAT:??_C@_0FA@OHHMODBN@C?3?2Program?5Files?2Microsoft?5Visua@
	push	2
	call	__CrtDbgReport
	add	esp, 20					; 00000014H
	cmp	eax, 1
	jne	SHORT $L211721
	int	3
$L211721:

; 556  : 	ATLASSERT(lpw != NULL);

	cmp	DWORD PTR _lpw$[ebp], 0
	jne	SHORT $L211722
	push	OFFSET FLAT:??_C@_08DIHJLFDJ@lpw?5?$CB?$DN?50?$AA@
	push	0
	push	556					; 0000022cH
	push	OFFSET FLAT:??_C@_0FA@OHHMODBN@C?3?2Program?5Files?2Microsoft?5Visua@
	push	2
	call	__CrtDbgReport
	add	esp, 20					; 00000014H
	cmp	eax, 1
	jne	SHORT $L211722
	int	3
$L211722:

; 557  : 	if (lpw == NULL || lpa == NULL)

	cmp	DWORD PTR _lpw$[ebp], 0
	je	SHORT $L75943
	cmp	DWORD PTR _lpa$[ebp], 0
	jne	SHORT $L75942
$L75943:

; 558  : 		return NULL;

	xor	eax, eax
	jmp	SHORT $L75936
$L75942:

; 559  : 	// verify that no illegal character present
; 560  : 	// since lpw was allocated based on the size of lpa
; 561  : 	// don't worry about the number of chars
; 562  : 	lpw[0] = '\0';

	mov	edx, DWORD PTR _lpw$[ebp]
	mov	WORD PTR [edx], 0

; 563  : 	int ret = MultiByteToWideChar(acp, 0, lpa, -1, lpw, nChars);

	mov	esi, esp
	mov	eax, DWORD PTR _nChars$[ebp]
	push	eax
	mov	ecx, DWORD PTR _lpw$[ebp]
	push	ecx
	push	-1
	mov	edx, DWORD PTR _lpa$[ebp]
	push	edx
	push	0
	mov	eax, DWORD PTR _acp$[ebp]
	push	eax
	call	DWORD PTR __imp__MultiByteToWideChar@24
	cmp	esi, esp
	call	__RTC_CheckEsp
	mov	DWORD PTR _ret$[ebp], eax

; 564  : 	if(ret == 0)

	cmp	DWORD PTR _ret$[ebp], 0
	jne	SHORT $L75945

; 565  : 	{
; 566  : 		ATLASSERT(FALSE);

	xor	ecx, ecx
	jne	SHORT $L211723
	push	OFFSET FLAT:??_C@_01GBGANLPD@0?$AA@
	push	0
	push	566					; 00000236H
	push	OFFSET FLAT:??_C@_0FA@OHHMODBN@C?3?2Program?5Files?2Microsoft?5Visua@
	push	2
	call	__CrtDbgReport
	add	esp, 20					; 00000014H
	cmp	eax, 1
	jne	SHORT $L211723
	int	3
$L211723:

; 567  : 		return NULL;

	xor	eax, eax
	jmp	SHORT $L75936
$L75945:

; 568  : 	}		
; 569  : 	return lpw;

	mov	eax, DWORD PTR _lpw$[ebp]
$L75936:

; 570  : }

	pop	esi
	add	esp, 4
	cmp	ebp, esp
	call	__RTC_CheckEsp
	mov	esp, ebp
	pop	ebp
	ret	16					; 00000010H
?AtlA2WHelper@@YGPAGPAGPBDHI@Z ENDP			; AtlA2WHelper
_TEXT	ENDS
PUBLIC	?CharUpperWFake@ATL@@YGPAGPAG@Z			; ATL::CharUpperWFake
EXTRN	__imp__CharUpperW@4:NEAR
; Function compile flags: /Odt /RTCsu
; File c:\program files\microsoft visual studio .net 2003\vc7\atlmfc\include\cstringt.h
;	COMDAT ?CharUpperWThunk@ATL@@YGPAGPAG@Z
_TEXT	SEGMENT
_psz$ = 8						; size = 4
?CharUpperWThunk@ATL@@YGPAGPAG@Z PROC NEAR		; ATL::CharUpperWThunk, COMDAT

; 292  : {

	push	ebp
	mov	ebp, esp
	push	esi

; 293  : 	_AtlInstallStringThunk(reinterpret_cast<void**>(&_strthunks.pfnCharUpperW), CharUpperWFake, ::CharUpperW);

	mov	eax, DWORD PTR __imp__CharUpperW@4
	push	eax
	push	OFFSET FLAT:?CharUpperWFake@ATL@@YGPAGPAG@Z ; ATL::CharUpperWFake
	push	OFFSET FLAT:?_strthunks@ATL@@3U_AtlStringThunks@1@A+16
	call	?_AtlInstallStringThunk@ATL@@YAXPAPAXPAX1@Z ; ATL::_AtlInstallStringThunk
	add	esp, 12					; 0000000cH

; 294  : 
; 295  : 	return _strthunks.pfnCharUpperW(psz);

	mov	esi, esp
	mov	ecx, DWORD PTR _psz$[ebp]
	push	ecx
	call	DWORD PTR ?_strthunks@ATL@@3U_AtlStringThunks@1@A+16
	cmp	esi, esp
	call	__RTC_CheckEsp

; 296  : }

	pop	esi
	cmp	ebp, esp
	call	__RTC_CheckEsp
	pop	ebp
	ret	4
?CharUpperWThunk@ATL@@YGPAGPAG@Z ENDP			; ATL::CharUpperWThunk
_TEXT	ENDS
EXTRN	__imp__CharUpperA@4:NEAR
; Function compile flags: /Odt /RTCsu
;	COMDAT ?CharUpperWFake@ATL@@YGPAGPAG@Z
_TEXT	SEGMENT
tv90 = -36						; size = 4
tv94 = -32						; size = 4
tv75 = -28						; size = 4
tv78 = -24						; size = 4
_pszA$ = -20						; size = 4
__lpa$ = -16						; size = 4
__lpw$ = -12						; size = 4
__acp$ = -8						; size = 4
__convert$ = -4						; size = 4
_psz$ = 8						; size = 4
?CharUpperWFake@ATL@@YGPAGPAG@Z PROC NEAR		; ATL::CharUpperWFake, COMDAT

; 280  : {

	push	ebp
	mov	ebp, esp
	sub	esp, 36					; 00000024H
	push	esi
	mov	eax, -858993460				; ccccccccH
	mov	DWORD PTR [ebp-36], eax
	mov	DWORD PTR [ebp-32], eax
	mov	DWORD PTR [ebp-28], eax
	mov	DWORD PTR [ebp-24], eax
	mov	DWORD PTR [ebp-20], eax
	mov	DWORD PTR [ebp-16], eax
	mov	DWORD PTR [ebp-12], eax
	mov	DWORD PTR [ebp-8], eax
	mov	DWORD PTR [ebp-4], eax

; 281  : 	USES_CONVERSION;

	mov	DWORD PTR __convert$[ebp], 0
	call	?_AtlGetConversionACP@ATL@@YGIXZ	; ATL::_AtlGetConversionACP
	mov	DWORD PTR __acp$[ebp], eax
	mov	DWORD PTR __lpw$[ebp], 0
	mov	DWORD PTR __lpa$[ebp], 0

; 282  : 	LPSTR pszA;
; 283  : 
; 284  : 	pszA = W2A(psz);

	mov	eax, DWORD PTR _psz$[ebp]
	mov	DWORD PTR __lpw$[ebp], eax
	cmp	DWORD PTR __lpw$[ebp], 0
	jne	SHORT $L211728
	mov	DWORD PTR tv78[ebp], 0
	jmp	SHORT $L211729
$L211728:
	mov	esi, esp
	mov	ecx, DWORD PTR __lpw$[ebp]
	push	ecx
	call	DWORD PTR __imp__lstrlenW@4
	cmp	esi, esp
	call	__RTC_CheckEsp
	lea	edx, DWORD PTR [eax+eax+2]
	mov	DWORD PTR __convert$[ebp], edx
	mov	eax, DWORD PTR __convert$[ebp]
	add	eax, 3
	and	eax, -4					; fffffffcH
	call	__alloca_probe
	mov	DWORD PTR tv75[ebp], esp
	mov	eax, DWORD PTR __acp$[ebp]
	push	eax
	mov	ecx, DWORD PTR __convert$[ebp]
	push	ecx
	mov	edx, DWORD PTR __lpw$[ebp]
	push	edx
	mov	eax, DWORD PTR tv75[ebp]
	push	eax
	call	?AtlW2AHelper@@YGPADPADPBGHI@Z		; AtlW2AHelper
	mov	DWORD PTR tv78[ebp], eax
$L211729:
	mov	ecx, DWORD PTR tv78[ebp]
	mov	DWORD PTR _pszA$[ebp], ecx

; 285  : 	::CharUpperA(pszA);

	mov	esi, esp
	mov	edx, DWORD PTR _pszA$[ebp]
	push	edx
	call	DWORD PTR __imp__CharUpperA@4
	cmp	esi, esp
	call	__RTC_CheckEsp

; 286  : 	wcscpy(psz, A2W(pszA));

	mov	eax, DWORD PTR _pszA$[ebp]
	mov	DWORD PTR __lpa$[ebp], eax
	cmp	DWORD PTR __lpa$[ebp], 0
	jne	SHORT $L211730
	mov	DWORD PTR tv94[ebp], 0
	jmp	SHORT $L211731
$L211730:
	mov	esi, esp
	mov	ecx, DWORD PTR __lpa$[ebp]
	push	ecx
	call	DWORD PTR __imp__lstrlenA@4
	cmp	esi, esp
	call	__RTC_CheckEsp
	add	eax, 1
	mov	DWORD PTR __convert$[ebp], eax
	mov	eax, DWORD PTR __convert$[ebp]
	shl	eax, 1
	add	eax, 3
	and	eax, -4					; fffffffcH
	call	__alloca_probe
	mov	DWORD PTR tv90[ebp], esp
	mov	edx, DWORD PTR __acp$[ebp]
	push	edx
	mov	eax, DWORD PTR __convert$[ebp]
	push	eax
	mov	ecx, DWORD PTR __lpa$[ebp]
	push	ecx
	mov	edx, DWORD PTR tv90[ebp]
	push	edx
	call	?AtlA2WHelper@@YGPAGPAGPBDHI@Z		; AtlA2WHelper
	mov	DWORD PTR tv94[ebp], eax
$L211731:
	mov	eax, DWORD PTR tv94[ebp]
	push	eax
	mov	ecx, DWORD PTR _psz$[ebp]
	push	ecx
	call	_wcscpy
	add	esp, 8

; 287  : 
; 288  : 	return psz;

	mov	eax, DWORD PTR _psz$[ebp]

; 289  : }

	lea	esp, DWORD PTR [ebp-40]
	pop	esi
	mov	esp, ebp
	pop	ebp
	ret	4
?CharUpperWFake@ATL@@YGPAGPAG@Z ENDP			; ATL::CharUpperWFake
_TEXT	ENDS
PUBLIC	??0CConfig@@QAE@PAVCSignature@@@Z		; CConfig::CConfig
PUBLIC	??_7CConfig@@6B@				; CConfig::`vftable'
PUBLIC	??_GCConfig@@UAEPAXI@Z				; CConfig::`scalar deleting destructor'
PUBLIC	?A2WBSTR@@YAPAGPBDH@Z				; A2WBSTR
PUBLIC	??4CComBSTR@ATL@@QAEAAV01@PBG@Z			; ATL::CComBSTR::operator=
EXTRN	??_ECConfig@@UAEPAXI@Z:NEAR			; CConfig::`vector deleting destructor'
;	COMDAT ??_7CConfig@@6B@
; File c:\activex\xmlsign\config.cpp
CONST	SEGMENT
??_7CConfig@@6B@ DD FLAT:??_ECConfig@@UAEPAXI@Z		; CConfig::`vftable'
; Function compile flags: /Odt /RTCsu
CONST	ENDS
_TEXT	SEGMENT
_this$ = -4						; size = 4
_theSigObj$ = 8						; size = 4
??0CConfig@@QAE@PAVCSignature@@@Z PROC NEAR		; CConfig::CConfig
; _this$ = ecx

; 130  : {

	push	ebp
	mov	ebp, esp
	push	ecx
	mov	DWORD PTR [ebp-4], -858993460		; ccccccccH
	mov	DWORD PTR _this$[ebp], ecx
	mov	eax, DWORD PTR _this$[ebp]
	mov	DWORD PTR [eax], OFFSET FLAT:??_7CConfig@@6B@

; 131  : 	curSig = theSigObj;

	mov	ecx, DWORD PTR _this$[ebp]
	mov	edx, DWORD PTR _theSigObj$[ebp]
	mov	DWORD PTR [ecx+12], edx

; 132  : 	ConfigFile = NULL;

	mov	eax, DWORD PTR _this$[ebp]
	mov	DWORD PTR [eax+4], 0

; 133  : 
; 134  : 	curSig->EnvelopingFlag = 0;

	mov	ecx, DWORD PTR _this$[ebp]
	mov	edx, DWORD PTR [ecx+12]
	mov	WORD PTR [edx+688], 0

; 135  : 	curSig->AddWindowImageFlag = FALSE;

	mov	eax, DWORD PTR _this$[ebp]
	mov	ecx, DWORD PTR [eax+12]
	mov	DWORD PTR [ecx+1796], 0

; 136  : 	curSig->CaptureSigOnce = FALSE;

	mov	edx, DWORD PTR _this$[ebp]
	mov	eax, DWORD PTR [edx+12]
	mov	DWORD PTR [eax+960], 0

; 137  : 	curSig->DoDCompliance = FALSE;

	mov	ecx, DWORD PTR _this$[ebp]
	mov	edx, DWORD PTR [ecx+12]
	mov	DWORD PTR [edx+952], 0

; 138  : 	curSig->PhysicalSigUsage = NO_PHYSICAL_SIG;

	mov	eax, DWORD PTR _this$[ebp]
	mov	ecx, DWORD PTR [eax+12]
	mov	DWORD PTR [ecx+956], 0

; 139  : 	curSig->TimeStampURL = A2WBSTR((LPCSTR) defaultTimeServiceUrl);;

	push	-1
	push	OFFSET FLAT:$SG207847
	call	?A2WBSTR@@YAPAGPBDH@Z			; A2WBSTR
	add	esp, 8
	push	eax
	mov	edx, DWORD PTR _this$[ebp]
	mov	ecx, DWORD PTR [edx+12]
	add	ecx, 936				; 000003a8H
	call	??4CComBSTR@ATL@@QAEAAV01@PBG@Z		; ATL::CComBSTR::operator=

; 140  : 	curSig->TimeStampOption = 0;

	mov	eax, DWORD PTR _this$[ebp]
	mov	ecx, DWORD PTR [eax+12]
	mov	DWORD PTR [ecx+940], 0

; 141  : 	curSig->TimeStampFormat = TIME_RFC;

	mov	edx, DWORD PTR _this$[ebp]
	mov	eax, DWORD PTR [edx+12]
	mov	DWORD PTR [eax+944], 0

; 142  : 	curSig->TimeStampCritical = FALSE;

	mov	ecx, DWORD PTR _this$[ebp]
	mov	edx, DWORD PTR [ecx+12]
	mov	DWORD PTR [edx+948], 0

; 143  : 
; 144  : 	curSig->PfxPassword.pbData = NULL;

	mov	eax, DWORD PTR _this$[ebp]
	mov	ecx, DWORD PTR [eax+12]
	mov	DWORD PTR [ecx+900], 0

; 145  : 	curSig->PfxX509Cert = NULL;

	mov	edx, DWORD PTR _this$[ebp]
	mov	eax, DWORD PTR [edx+12]
	mov	DWORD PTR [eax+916], 0

; 146  : 	curSig->B64PfxDataPtr = NULL;

	mov	ecx, DWORD PTR _this$[ebp]
	mov	edx, DWORD PTR [ecx+12]
	mov	DWORD PTR [edx+920], 0

; 147  : 	curSig->PfxCertDataBlob.cbData = 0;

	mov	eax, DWORD PTR _this$[ebp]
	mov	ecx, DWORD PTR [eax+12]
	mov	DWORD PTR [ecx+928], 0

; 148  : 	curSig->PfxCertDataBlob.pbData = NULL;

	mov	edx, DWORD PTR _this$[ebp]
	mov	eax, DWORD PTR [edx+12]
	mov	DWORD PTR [eax+924], 0

; 149  : 	curSig->RecipientCertificateStore = A2WBSTR((LPCSTR)"addressbook");

	push	-1
	push	OFFSET FLAT:$SG207849
	call	?A2WBSTR@@YAPAGPBDH@Z			; A2WBSTR
	add	esp, 8
	push	eax
	mov	ecx, DWORD PTR _this$[ebp]
	mov	ecx, DWORD PTR [ecx+12]
	add	ecx, 684				; 000002acH
	call	??4CComBSTR@ATL@@QAEAAV01@PBG@Z		; ATL::CComBSTR::operator=

; 150  : 	curSig->SignatureCaptured = FALSE;

	mov	edx, DWORD PTR _this$[ebp]
	mov	eax, DWORD PTR [edx+12]
	mov	DWORD PTR [eax+964], 0

; 151  : 
; 152  : 	curSig->DetailedVerificationReportFlag = TRUE;

	mov	ecx, DWORD PTR _this$[ebp]
	mov	edx, DWORD PTR [ecx+12]
	mov	DWORD PTR [edx+1816], 1

; 153  : 	curSig->ExcludeSignerCertificateFlag = FALSE;

	mov	eax, DWORD PTR _this$[ebp]
	mov	ecx, DWORD PTR [eax+12]
	mov	DWORD PTR [ecx+1820], 0

; 154  : 	curSig->OverwriteFileFlag = FALSE;

	mov	edx, DWORD PTR _this$[ebp]
	mov	eax, DWORD PTR [edx+12]
	mov	DWORD PTR [eax+1824], 0

; 155  : 	curSig->UseHMAC = FALSE;

	mov	ecx, DWORD PTR _this$[ebp]
	mov	edx, DWORD PTR [ecx+12]
	mov	DWORD PTR [edx+1800], 0

; 156  : 	curSig->camServerHost=NULL;

	mov	eax, DWORD PTR _this$[ebp]
	mov	ecx, DWORD PTR [eax+12]
	mov	DWORD PTR [ecx+1896], 0

; 157  : 	curSig->camServerPort=7777;

	mov	edx, DWORD PTR _this$[ebp]
	mov	eax, DWORD PTR [edx+12]
	mov	WORD PTR [eax+1900], 7777		; 00001e61H

; 158  : 	curSig->useCam = FALSE;

	mov	ecx, DWORD PTR _this$[ebp]
	mov	edx, DWORD PTR [ecx+12]
	mov	DWORD PTR [edx+1908], 0

; 159  : 	curSig->Base64EncodeXML = FALSE;

	mov	eax, DWORD PTR _this$[ebp]
	mov	ecx, DWORD PTR [eax+12]
	mov	DWORD PTR [ecx+2180], 0

; 160  : 	curSig->Base64DecodeXML = FALSE;

	mov	edx, DWORD PTR _this$[ebp]
	mov	eax, DWORD PTR [edx+12]
	mov	DWORD PTR [eax+2184], 0

; 161  : 	curSig->allowedCertIssuerCount = 0;

	mov	ecx, DWORD PTR _this$[ebp]
	mov	edx, DWORD PTR [ecx+12]
	mov	DWORD PTR [edx+3332], 0

; 162  : 	curSig->allowedCertIssuerNames = NULL;

	mov	eax, DWORD PTR _this$[ebp]
	mov	ecx, DWORD PTR [eax+12]
	mov	DWORD PTR [ecx+3328], 0

; 163  : }

	mov	eax, DWORD PTR _this$[ebp]
	add	esp, 4
	cmp	ebp, esp
	call	__RTC_CheckEsp
	mov	esp, ebp
	pop	ebp
	ret	4
??0CConfig@@QAE@PAVCSignature@@@Z ENDP			; CConfig::CConfig
_TEXT	ENDS
PUBLIC	??1CConfig@@UAE@XZ				; CConfig::~CConfig
EXTRN	??3@YAXPAX@Z:NEAR				; operator delete
; Function compile flags: /Odt /RTCsu
;	COMDAT ??_GCConfig@@UAEPAXI@Z
_TEXT	SEGMENT
_this$ = -4						; size = 4
___flags$ = 8						; size = 4
??_GCConfig@@UAEPAXI@Z PROC NEAR			; CConfig::`scalar deleting destructor', COMDAT
; _this$ = ecx
	push	ebp
	mov	ebp, esp
	push	ecx
	mov	DWORD PTR [ebp-4], -858993460		; ccccccccH
	mov	DWORD PTR _this$[ebp], ecx
	mov	ecx, DWORD PTR _this$[ebp]
	call	??1CConfig@@UAE@XZ			; CConfig::~CConfig
	mov	eax, DWORD PTR ___flags$[ebp]
	and	eax, 1
	je	SHORT $L188632
	mov	ecx, DWORD PTR _this$[ebp]
	push	ecx
	call	??3@YAXPAX@Z				; operator delete
	add	esp, 4
$L188632:
	mov	eax, DWORD PTR _this$[ebp]
	add	esp, 4
	cmp	ebp, esp
	call	__RTC_CheckEsp
	mov	esp, ebp
	pop	ebp
	ret	4
??_GCConfig@@UAEPAXI@Z ENDP				; CConfig::`scalar deleting destructor'
_TEXT	ENDS
PUBLIC	??_C@_0BJ@OGJFCAD@nResult?5?$DN?$DN?5nConvertedLen?$AA@ ; `string'
EXTRN	__imp__SysAllocStringLen@8:NEAR
EXTRN	__imp__SysFreeString@4:NEAR
;	COMDAT xdata$x
; File c:\program files\microsoft visual studio .net 2003\vc7\atlmfc\include\atlconv.h
xdata$x	SEGMENT
$T211747 DD	0ffffffffH
	DD	FLAT:$L211740
$T211742 DD	019930520H
	DD	01H
	DD	FLAT:$T211747
	DD	2 DUP(00H)
	DD	2 DUP(00H)
xdata$x	ENDS
;	COMDAT ??_C@_0BJ@OGJFCAD@nResult?5?$DN?$DN?5nConvertedLen?$AA@
CONST	SEGMENT
??_C@_0BJ@OGJFCAD@nResult?5?$DN?$DN?5nConvertedLen?$AA@ DB 'nResult == nC'
	DB	'onvertedLen', 00H				; `string'
; Function compile flags: /Odt /RTCsu
CONST	ENDS
;	COMDAT ?A2WBSTR@@YAPAGPBDH@Z
_TEXT	SEGMENT
$T211739 = -64						; size = 4
$T211738 = -60						; size = 4
_nResult$76112 = -56					; size = 4
_nAllocLen$ = -52					; size = 4
_nConvertedLen$ = -48					; size = 4
_str$ = -44						; size = 4
__AtlSafeAllocaManager$ = -36				; size = 4
__lpa_ex$ = -28						; size = 4
__lpw_ex$ = -24						; size = 4
__acp_ex$ = -20						; size = 4
__convert_ex$ = -16					; size = 4
__$EHRec$ = -12						; size = 12
_lp$ = 8						; size = 4
_nLen$ = 12						; size = 4
?A2WBSTR@@YAPAGPBDH@Z PROC NEAR				; A2WBSTR, COMDAT

; 775  : {

	push	ebp
	mov	ebp, esp
	push	-1
	push	__ehhandler$?A2WBSTR@@YAPAGPBDH@Z
	mov	eax, DWORD PTR fs:__except_list
	push	eax
	mov	DWORD PTR fs:__except_list, esp
	sub	esp, 52					; 00000034H
	push	esi
	push	edi
	lea	edi, DWORD PTR [ebp-64]
	mov	ecx, 13					; 0000000dH
	mov	eax, -858993460				; ccccccccH
	rep stosd

; 776  : 	if (lp == NULL || nLen == 0)

	cmp	DWORD PTR _lp$[ebp], 0
	je	SHORT $L76085
	cmp	DWORD PTR _nLen$[ebp], 0
	jne	SHORT $L76084
$L76085:

; 777  : 		return NULL;

	xor	eax, eax
	jmp	$L76083
$L76084:

; 778  : 	USES_CONVERSION_EX;

	mov	DWORD PTR __convert_ex$[ebp], 0
	call	?_AtlGetConversionACP@ATL@@YGIXZ	; ATL::_AtlGetConversionACP
	mov	DWORD PTR __acp_ex$[ebp], eax
	mov	DWORD PTR __lpw_ex$[ebp], 0
	mov	DWORD PTR __lpa_ex$[ebp], 0
	lea	ecx, DWORD PTR __AtlSafeAllocaManager$[ebp]
	call	??0?$CAtlSafeAllocBufferManager@VCCRTAllocator@ATL@@@_ATL_SAFE_ALLOCA_IMPL@ATL@@QAE@XZ ; ATL::_ATL_SAFE_ALLOCA_IMPL::CAtlSafeAllocBufferManager<ATL::CCRTAllocator>::CAtlSafeAllocBufferManager<ATL::CCRTAllocator>
	mov	DWORD PTR __$EHRec$[ebp+8], 0

; 779  : 	BSTR str = NULL;

	mov	DWORD PTR _str$[ebp], 0

; 780  : 	int nConvertedLen = MultiByteToWideChar(_acp_ex, 0, lp,
; 781  : 		nLen, NULL, NULL);

	mov	esi, esp
	push	0
	push	0
	mov	eax, DWORD PTR _nLen$[ebp]
	push	eax
	mov	ecx, DWORD PTR _lp$[ebp]
	push	ecx
	push	0
	mov	edx, DWORD PTR __acp_ex$[ebp]
	push	edx
	call	DWORD PTR __imp__MultiByteToWideChar@24
	cmp	esi, esp
	call	__RTC_CheckEsp
	mov	DWORD PTR _nConvertedLen$[ebp], eax

; 782  : 	int nAllocLen = nConvertedLen;

	mov	eax, DWORD PTR _nConvertedLen$[ebp]
	mov	DWORD PTR _nAllocLen$[ebp], eax

; 783  : 	if (nLen == -1)

	cmp	DWORD PTR _nLen$[ebp], -1
	jne	SHORT $L76110

; 784  : 		nAllocLen -= 1;  // Don't allocate terminating '\0'

	mov	ecx, DWORD PTR _nAllocLen$[ebp]
	sub	ecx, 1
	mov	DWORD PTR _nAllocLen$[ebp], ecx
$L76110:

; 785  : 	str = ::SysAllocStringLen(NULL, nAllocLen);

	mov	esi, esp
	mov	edx, DWORD PTR _nAllocLen$[ebp]
	push	edx
	push	0
	call	DWORD PTR __imp__SysAllocStringLen@8
	cmp	esi, esp
	call	__RTC_CheckEsp
	mov	DWORD PTR _str$[ebp], eax

; 786  : 
; 787  : 	if (str != NULL)

	cmp	DWORD PTR _str$[ebp], 0
	je	$L76111

; 788  : 	{
; 789  : 		int nResult;
; 790  : 		nResult = MultiByteToWideChar(_acp_ex, 0, lp, nLen, str, nConvertedLen);

	mov	esi, esp
	mov	eax, DWORD PTR _nConvertedLen$[ebp]
	push	eax
	mov	ecx, DWORD PTR _str$[ebp]
	push	ecx
	mov	edx, DWORD PTR _nLen$[ebp]
	push	edx
	mov	eax, DWORD PTR _lp$[ebp]
	push	eax
	push	0
	mov	ecx, DWORD PTR __acp_ex$[ebp]
	push	ecx
	call	DWORD PTR __imp__MultiByteToWideChar@24
	cmp	esi, esp
	call	__RTC_CheckEsp
	mov	DWORD PTR _nResult$76112[ebp], eax

; 791  : 		ATLASSERT(nResult == nConvertedLen);

	mov	edx, DWORD PTR _nResult$76112[ebp]
	cmp	edx, DWORD PTR _nConvertedLen$[ebp]
	je	SHORT $L211737
	push	OFFSET FLAT:??_C@_0BJ@OGJFCAD@nResult?5?$DN?$DN?5nConvertedLen?$AA@
	push	0
	push	791					; 00000317H
	push	OFFSET FLAT:??_C@_0FA@OHHMODBN@C?3?2Program?5Files?2Microsoft?5Visua@
	push	2
	call	__CrtDbgReport
	add	esp, 20					; 00000014H
	cmp	eax, 1
	jne	SHORT $L211737
	int	3
$L211737:

; 792  : 		if(nResult != nConvertedLen)

	mov	ecx, DWORD PTR _nResult$76112[ebp]
	cmp	ecx, DWORD PTR _nConvertedLen$[ebp]
	je	SHORT $L76111

; 793  : 		{
; 794  : 			SysFreeString(str);

	mov	esi, esp
	mov	edx, DWORD PTR _str$[ebp]
	push	edx
	call	DWORD PTR __imp__SysFreeString@4
	cmp	esi, esp
	call	__RTC_CheckEsp

; 795  : 			return NULL;

	mov	DWORD PTR $T211738[ebp], 0
	mov	DWORD PTR __$EHRec$[ebp+8], -1
	lea	ecx, DWORD PTR __AtlSafeAllocaManager$[ebp]
	call	??1?$CAtlSafeAllocBufferManager@VCCRTAllocator@ATL@@@_ATL_SAFE_ALLOCA_IMPL@ATL@@QAE@XZ ; ATL::_ATL_SAFE_ALLOCA_IMPL::CAtlSafeAllocBufferManager<ATL::CCRTAllocator>::~CAtlSafeAllocBufferManager<ATL::CCRTAllocator>
	mov	eax, DWORD PTR $T211738[ebp]
	jmp	SHORT $L76083
$L76111:

; 796  : 		}
; 797  : 
; 798  : 	}
; 799  : 	return str;

	mov	eax, DWORD PTR _str$[ebp]
	mov	DWORD PTR $T211739[ebp], eax
	mov	DWORD PTR __$EHRec$[ebp+8], -1
	lea	ecx, DWORD PTR __AtlSafeAllocaManager$[ebp]
	call	??1?$CAtlSafeAllocBufferManager@VCCRTAllocator@ATL@@@_ATL_SAFE_ALLOCA_IMPL@ATL@@QAE@XZ ; ATL::_ATL_SAFE_ALLOCA_IMPL::CAtlSafeAllocBufferManager<ATL::CCRTAllocator>::~CAtlSafeAllocBufferManager<ATL::CCRTAllocator>
	mov	eax, DWORD PTR $T211739[ebp]
$L76083:

; 800  : }

	push	edx
	mov	ecx, ebp
	push	eax
	lea	edx, DWORD PTR $L211746
	call	@_RTC_CheckStackVars@8
	pop	eax
	pop	edx
	mov	ecx, DWORD PTR __$EHRec$[ebp]
	mov	DWORD PTR fs:__except_list, ecx
	pop	edi
	pop	esi
	add	esp, 64					; 00000040H
	cmp	ebp, esp
	call	__RTC_CheckEsp
	mov	esp, ebp
	pop	ebp
	ret	0
$L211746:
	DD	1
	DD	$L211745
$L211745:
	DD	-36					; ffffffdcH
	DD	4
	DD	$L211743
$L211743:
	DB	95					; 0000005fH
	DB	65					; 00000041H
	DB	116					; 00000074H
	DB	108					; 0000006cH
	DB	83					; 00000053H
	DB	97					; 00000061H
	DB	102					; 00000066H
	DB	101					; 00000065H
	DB	65					; 00000041H
	DB	108					; 0000006cH
	DB	108					; 0000006cH
	DB	111					; 0000006fH
	DB	99					; 00000063H
	DB	97					; 00000061H
	DB	77					; 0000004dH
	DB	97					; 00000061H
	DB	110					; 0000006eH
	DB	97					; 00000061H
	DB	103					; 00000067H
	DB	101					; 00000065H
	DB	114					; 00000072H
	DB	0
_TEXT	ENDS
;	COMDAT text$x
text$x	SEGMENT
$L211740:
	lea	ecx, DWORD PTR __AtlSafeAllocaManager$[ebp]
	jmp	??1?$CAtlSafeAllocBufferManager@VCCRTAllocator@ATL@@@_ATL_SAFE_ALLOCA_IMPL@ATL@@QAE@XZ ; ATL::_ATL_SAFE_ALLOCA_IMPL::CAtlSafeAllocBufferManager<ATL::CCRTAllocator>::~CAtlSafeAllocBufferManager<ATL::CCRTAllocator>
__ehhandler$?A2WBSTR@@YAPAGPBDH@Z:
	mov	eax, OFFSET FLAT:$T211742
	jmp	___CxxFrameHandler
text$x	ENDS
?A2WBSTR@@YAPAGPBDH@Z ENDP				; A2WBSTR
EXTRN	__imp__SysAllocString@4:NEAR
; Function compile flags: /Odt /RTCsu
; File c:\program files\microsoft visual studio .net 2003\vc7\atlmfc\include\atlcomcli.h
;	COMDAT ??4CComBSTR@ATL@@QAEAAV01@PBG@Z
_TEXT	SEGMENT
_this$ = -4						; size = 4
_pSrc$ = 8						; size = 4
??4CComBSTR@ATL@@QAEAAV01@PBG@Z PROC NEAR		; ATL::CComBSTR::operator=, COMDAT
; _this$ = ecx

; 611  : 	{

	push	ebp
	mov	ebp, esp
	push	ecx
	push	esi
	mov	DWORD PTR [ebp-4], -858993460		; ccccccccH
	mov	DWORD PTR _this$[ebp], ecx

; 612  : 		if (pSrc != m_str)

	mov	eax, DWORD PTR _this$[ebp]
	mov	ecx, DWORD PTR _pSrc$[ebp]
	cmp	ecx, DWORD PTR [eax]
	je	SHORT $L81714

; 613  : 		{
; 614  : 			::SysFreeString(m_str);

	mov	esi, esp
	mov	edx, DWORD PTR _this$[ebp]
	mov	eax, DWORD PTR [edx]
	push	eax
	call	DWORD PTR __imp__SysFreeString@4
	cmp	esi, esp
	call	__RTC_CheckEsp

; 615  : 			if (pSrc != NULL)

	cmp	DWORD PTR _pSrc$[ebp], 0
	je	SHORT $L81715

; 616  : 			{
; 617  : 				m_str = ::SysAllocString(pSrc);

	mov	esi, esp
	mov	ecx, DWORD PTR _pSrc$[ebp]
	push	ecx
	call	DWORD PTR __imp__SysAllocString@4
	cmp	esi, esp
	call	__RTC_CheckEsp
	mov	edx, DWORD PTR _this$[ebp]
	mov	DWORD PTR [edx], eax

; 618  : 				if (m_str == NULL)

	mov	eax, DWORD PTR _this$[ebp]
	cmp	DWORD PTR [eax], 0
	jne	SHORT $L81716

; 619  : 					AtlThrow(E_OUTOFMEMORY);

	push	-2147024882				; 8007000eH
	call	?AtlThrow@ATL@@YGXJ@Z			; ATL::AtlThrow
$L81716:

; 620  : 			}
; 621  : 			else

	jmp	SHORT $L81714
$L81715:

; 622  : 				m_str = NULL;

	mov	ecx, DWORD PTR _this$[ebp]
	mov	DWORD PTR [ecx], 0
$L81714:

; 623  : 		}
; 624  : 		return *this;

	mov	eax, DWORD PTR _this$[ebp]
$L211751:

; 625  : 	}

	pop	esi
	add	esp, 4
	cmp	ebp, esp
	call	__RTC_CheckEsp
	mov	esp, ebp
	pop	ebp
	ret	4
??4CComBSTR@ATL@@QAEAAV01@PBG@Z ENDP			; ATL::CComBSTR::operator=
_TEXT	ENDS
EXTRN	_rFree:NEAR
; Function compile flags: /Odt /RTCsu
; File c:\activex\xmlsign\config.cpp
_TEXT	SEGMENT
_this$ = -4						; size = 4
??1CConfig@@UAE@XZ PROC NEAR				; CConfig::~CConfig
; _this$ = ecx

; 166  : {

	push	ebp
	mov	ebp, esp
	push	ecx
	mov	DWORD PTR [ebp-4], -858993460		; ccccccccH
	mov	DWORD PTR _this$[ebp], ecx
	mov	eax, DWORD PTR _this$[ebp]
	mov	DWORD PTR [eax], OFFSET FLAT:??_7CConfig@@6B@

; 167  : 	if (ConfigFile != NULL)

	mov	ecx, DWORD PTR _this$[ebp]
	cmp	DWORD PTR [ecx+4], 0
	je	SHORT $L207853

; 168  : 		zFree(ConfigFile);

	mov	edx, DWORD PTR _this$[ebp]
	mov	eax, DWORD PTR [edx+4]
	push	eax
	call	_rFree
	add	esp, 4
$L207853:

; 169  : 	ConfigFile = NULL;

	mov	ecx, DWORD PTR _this$[ebp]
	mov	DWORD PTR [ecx+4], 0

; 170  : }

	add	esp, 4
	cmp	ebp, esp
	call	__RTC_CheckEsp
	mov	esp, ebp
	pop	ebp
	ret	0
??1CConfig@@UAE@XZ ENDP					; CConfig::~CConfig
_TEXT	ENDS
PUBLIC	?getConfigDetailsFromDom@CConfig@@QAEXPAU_xmlNode@@@Z ; CConfig::getConfigDetailsFromDom
PUBLIC	?SetCRLTimeOut@CRLCache@@QAEXK@Z		; CRLCache::SetCRLTimeOut
PUBLIC	??_GCRLCache@@QAEPAXI@Z				; CRLCache::`scalar deleting destructor'
PUBLIC	??_GCCAMClient@@QAEPAXI@Z			; CCAMClient::`scalar deleting destructor'
EXTRN	_setError:NEAR
EXTRN	??2@YAPAXI@Z:NEAR				; operator new
EXTRN	__imp__GetClientRect@8:NEAR
EXTRN	_base64encodeSize:NEAR
EXTRN	_base64encode:NEAR
EXTRN	_xsDereferenceURI:NEAR
EXTRN	_malloc:NEAR
EXTRN	__imp__SysAllocStringByteLen@8:NEAR
EXTRN	_xmlFree:DWORD
EXTRN	??0CRLCache@@QAE@PAGPAU_GLOBAL_SIG@@@Z:NEAR	; CRLCache::CRLCache
EXTRN	_atoi:NEAR
EXTRN	__imp__GetDesktopWindow@0:NEAR
EXTRN	_memcpy:NEAR
EXTRN	??0CCAMClient@@QAE@XZ:NEAR			; CCAMClient::CCAMClient
EXTRN	_memset:NEAR
EXTRN	_strcpy:NEAR
EXTRN	_strlen:NEAR
EXTRN	_xmlGetProp:NEAR
EXTRN	_strchr:NEAR
EXTRN	?UTF8ToUTF16LE@@YAHPAEPAHPBE1@Z:NEAR		; UTF8ToUTF16LE
EXTRN	?Base64Chars@@3PAEA:BYTE			; Base64Chars
EXTRN	_xmlStrcmp:NEAR
xdata$x	SEGMENT
$T211786 DD	0ffffffffH
	DD	FLAT:$L211775
	DD	0ffffffffH
	DD	FLAT:$L211776
	DD	0ffffffffH
	DD	FLAT:$L211777
$T211779 DD	019930520H
	DD	03H
	DD	FLAT:$T211786
	DD	2 DUP(00H)
	DD	2 DUP(00H)
; Function compile flags: /Odt /RTCsu
xdata$x	ENDS
_TEXT	SEGMENT
tv1052 = -244						; size = 4
tv1026 = -240						; size = 4
tv1004 = -236						; size = 4
tv511 = -232						; size = 4
tv496 = -228						; size = 4
$T211772 = -224						; size = 4
$T211771 = -220						; size = 4
$T211768 = -216						; size = 4
$T211767 = -212						; size = 4
$T211764 = -208						; size = 4
$T211763 = -204						; size = 4
$T211760 = -200						; size = 4
$T211759 = -196						; size = 4
$T211756 = -192						; size = 4
$T211755 = -188						; size = 4
_newVal$208109 = -184					; size = 4
_bstrCurKeyValue$208102 = -180				; size = 4
_utf8ByteLen$208098 = -172				; size = 4
_utf16ByteLen$208097 = -160				; size = 4
_utf16CharStr$208096 = -152				; size = 4
_i$208086 = -148					; size = 4
_i$208069 = -144					; size = 4
_i$208052 = -140					; size = 4
_i$208044 = -136					; size = 4
_i$208033 = -132					; size = 4
_i$208028 = -128					; size = 4
_i$208013 = -124					; size = 4
_desktopHwnd$207957 = -120				; size = 4
_filePathSize$207948 = -116				; size = 4
_CrlCheckEnabled$207907 = -112				; size = 4
__lpa$ = -108						; size = 4
__lpw$ = -104						; size = 4
__acp$ = -100						; size = 4
__convert$ = -96					; size = 4
_allowedCertIssuerItemNumber$ = -92			; size = 4
_allowedCertIssuerItemCount$ = -88			; size = 4
_newVal$ = -84						; size = 4
_policyItemCount$ = -80					; size = 4
_policyItemNumber$ = -76				; size = 4
_crlItemCount$ = -72					; size = 4
_crlItemNumber$ = -68					; size = 4
_encodedDataPtr$ = -64					; size = 4
_encodedDataSize$ = -60					; size = 4
_dataSize$ = -52					; size = 4
_rootCertData$ = -44					; size = 4
_dataPtr$ = -40						; size = 4
_trustRootItemCount$ = -36				; size = 4
_trustRootItemNumber$ = -32				; size = 4
_curr$ = -28						; size = 4
_curKeyValue$ = -24					; size = 4
_curKeyName$ = -20					; size = 4
_this$ = -16						; size = 4
__$EHRec$ = -12						; size = 12
_startNode$ = 8						; size = 4
?getConfigDetailsFromDom@CConfig@@QAEXPAU_xmlNode@@@Z PROC NEAR ; CConfig::getConfigDetailsFromDom
; _this$ = ecx

; 174  : {

	push	ebp
	mov	ebp, esp
	push	-1
	push	__ehhandler$?getConfigDetailsFromDom@CConfig@@QAEXPAU_xmlNode@@@Z
	mov	eax, DWORD PTR fs:__except_list
	push	eax
	mov	DWORD PTR fs:__except_list, esp
	sub	esp, 232				; 000000e8H
	push	esi
	push	edi
	push	ecx
	lea	edi, DWORD PTR [ebp-244]
	mov	ecx, 58					; 0000003aH
	mov	eax, -858993460				; ccccccccH
	rep stosd
	pop	ecx
	mov	DWORD PTR _this$[ebp], ecx

; 175  : 	xmlChar *curKeyName  = NULL;

	mov	DWORD PTR _curKeyName$[ebp], 0

; 176  : 	xmlChar *curKeyValue = NULL;

	mov	DWORD PTR _curKeyValue$[ebp], 0

; 177  : 	xmlNodePtr curr = startNode;

	mov	eax, DWORD PTR _startNode$[ebp]
	mov	DWORD PTR _curr$[ebp], eax

; 178  : 	UINT trustRootItemNumber = 0;

	mov	DWORD PTR _trustRootItemNumber$[ebp], 0

; 179  : 	UINT trustRootItemCount = 0;

	mov	DWORD PTR _trustRootItemCount$[ebp], 0

; 180  : 	BYTE *dataPtr=NULL, *rootCertData=NULL;

	mov	DWORD PTR _dataPtr$[ebp], 0
	mov	DWORD PTR _rootCertData$[ebp], 0

; 181  : 	DWORD dataSize;
; 182  : 	DWORD encodedDataSize;
; 183  : 	BYTE *encodedDataPtr;
; 184  : 	UINT crlItemNumber = 0;

	mov	DWORD PTR _crlItemNumber$[ebp], 0

; 185  : 	UINT crlItemCount = 0;

	mov	DWORD PTR _crlItemCount$[ebp], 0

; 186  : 	UINT policyItemNumber = 0;

	mov	DWORD PTR _policyItemNumber$[ebp], 0

; 187  : 	UINT policyItemCount = 0;

	mov	DWORD PTR _policyItemCount$[ebp], 0

; 188  : 	BOOL newVal;
; 189  : 	UINT allowedCertIssuerItemCount = 0;

	mov	DWORD PTR _allowedCertIssuerItemCount$[ebp], 0

; 190  : 	UINT allowedCertIssuerItemNumber = 0;

	mov	DWORD PTR _allowedCertIssuerItemNumber$[ebp], 0

; 191  : 
; 192  : 
; 193  : USES_CONVERSION;

	mov	DWORD PTR __convert$[ebp], 0
	call	?_AtlGetConversionACP@ATL@@YGIXZ	; ATL::_AtlGetConversionACP
	mov	DWORD PTR __acp$[ebp], eax
	mov	DWORD PTR __lpw$[ebp], 0
	mov	DWORD PTR __lpa$[ebp], 0

; 194  : 
; 195  : 	for ( ; curr != NULL; curr = curr->next) 

	jmp	SHORT $L207879
$L207880:
	mov	ecx, DWORD PTR _curr$[ebp]
	mov	edx, DWORD PTR [ecx+24]
	mov	DWORD PTR _curr$[ebp], edx
$L207879:
	cmp	DWORD PTR _curr$[ebp], 0
	je	SHORT $L207881

; 196  : 	{
; 197  : 		if (! xmlStrcmp(curr->name, (const unsigned char *)"appSettings"))

	push	OFFSET FLAT:$SG207884
	mov	eax, DWORD PTR _curr$[ebp]
	mov	ecx, DWORD PTR [eax+8]
	push	ecx
	call	_xmlStrcmp
	add	esp, 8
	test	eax, eax
	jne	SHORT $L207883

; 198  : 			break;

	jmp	SHORT $L207881
$L207883:

; 199  : 	}

	jmp	SHORT $L207880
$L207881:

; 200  : 
; 201  : 	if (curr != NULL)

	cmp	DWORD PTR _curr$[ebp], 0
	je	SHORT $L207885

; 202  : 		curr = curr->xmlChildrenNode;

	mov	edx, DWORD PTR _curr$[ebp]
	mov	eax, DWORD PTR [edx+12]
	mov	DWORD PTR _curr$[ebp], eax
$L207885:

; 203  : 
; 204  : 	for ( ; curr != NULL; curr = curr->next) 

	jmp	SHORT $L207886
$L207887:
	mov	ecx, DWORD PTR _curr$[ebp]
	mov	edx, DWORD PTR [ecx+24]
	mov	DWORD PTR _curr$[ebp], edx
$L207886:
	cmp	DWORD PTR _curr$[ebp], 0
	je	$L207857

; 205  : 	{	
; 206  : 
; 207  : 		if (curKeyName != NULL)

	cmp	DWORD PTR _curKeyName$[ebp], 0
	je	SHORT $L207889

; 208  : 		{
; 209  : 			xmlFree(curKeyName);

	mov	esi, esp
	mov	eax, DWORD PTR _curKeyName$[ebp]
	push	eax
	call	DWORD PTR _xmlFree
	add	esp, 4
	cmp	esi, esp
	call	__RTC_CheckEsp

; 210  : 			curKeyName = NULL;

	mov	DWORD PTR _curKeyName$[ebp], 0
$L207889:

; 211  : 		}
; 212  : 		
; 213  : 		if (curKeyValue != NULL)

	cmp	DWORD PTR _curKeyValue$[ebp], 0
	je	SHORT $L207890

; 214  : 		{
; 215  : 			xmlFree(curKeyValue);

	mov	esi, esp
	mov	ecx, DWORD PTR _curKeyValue$[ebp]
	push	ecx
	call	DWORD PTR _xmlFree
	add	esp, 4
	cmp	esi, esp
	call	__RTC_CheckEsp

; 216  : 			curKeyValue = NULL;

	mov	DWORD PTR _curKeyValue$[ebp], 0
$L207890:

; 217  : 		}
; 218  : 		
; 219  : 		curKeyName	=  xmlGetProp(curr, (const unsigned char *)"key");

	push	OFFSET FLAT:$SG207892
	mov	edx, DWORD PTR _curr$[ebp]
	push	edx
	call	_xmlGetProp
	add	esp, 8
	mov	DWORD PTR _curKeyName$[ebp], eax

; 220  : 		
; 221  : 		if (curKeyName == NULL)

	cmp	DWORD PTR _curKeyName$[ebp], 0
	jne	SHORT $L207893

; 222  : 			continue;

	jmp	SHORT $L207887
$L207893:

; 223  : 		
; 224  : 		curKeyValue	=  xmlGetProp(curr, (const unsigned char *)"value");

	push	OFFSET FLAT:$SG207895
	mov	eax, DWORD PTR _curr$[ebp]
	push	eax
	call	_xmlGetProp
	add	esp, 8
	mov	DWORD PTR _curKeyValue$[ebp], eax

; 225  : 
; 226  : 		if (curKeyValue == NULL)

	cmp	DWORD PTR _curKeyValue$[ebp], 0
	jne	SHORT $L207896

; 227  : 			continue;

	jmp	$L207887
$L207896:

; 228  : 		
; 229  : //DebugBreak();		
; 230  : 		if (! xmlStrcmp(curKeyName, envelopingFlag)) 

	mov	ecx, DWORD PTR ?envelopingFlag@CConfig@@2PBEB ; CConfig::envelopingFlag
	push	ecx
	mov	edx, DWORD PTR _curKeyName$[ebp]
	push	edx
	call	_xmlStrcmp
	add	esp, 8
	test	eax, eax
	jne	SHORT $L207897

; 231  : 		{			
; 232  : 			curSig->EnvelopingFlag = (BOOL)(atoi((const char *)curKeyValue));			

	mov	eax, DWORD PTR _curKeyValue$[ebp]
	push	eax
	call	_atoi
	add	esp, 4
	mov	ecx, DWORD PTR _this$[ebp]
	mov	edx, DWORD PTR [ecx+12]
	mov	WORD PTR [edx+688], ax

; 233  : 			continue;

	jmp	$L207887
$L207897:

; 234  : 		}
; 235  : 
; 236  : 		if (! xmlStrcmp(curKeyName, addWindowImage)) 

	mov	eax, DWORD PTR ?addWindowImage@CConfig@@2PBEB ; CConfig::addWindowImage
	push	eax
	mov	ecx, DWORD PTR _curKeyName$[ebp]
	push	ecx
	call	_xmlStrcmp
	add	esp, 8
	test	eax, eax
	jne	SHORT $L207900

; 237  : 		{			
; 238  : 			curSig->AddWindowImageFlag = (BOOL)(atoi((const char *)curKeyValue));			

	mov	edx, DWORD PTR _curKeyValue$[ebp]
	push	edx
	call	_atoi
	add	esp, 4
	mov	ecx, DWORD PTR _this$[ebp]
	mov	edx, DWORD PTR [ecx+12]
	mov	DWORD PTR [edx+1796], eax

; 239  : 			continue;

	jmp	$L207887
$L207900:

; 240  : 		}
; 241  : 
; 242  : 		if (! xmlStrcmp(curKeyName, captureOnce)) 

	mov	eax, DWORD PTR ?captureOnce@CConfig@@2PBEB ; CConfig::captureOnce
	push	eax
	mov	ecx, DWORD PTR _curKeyName$[ebp]
	push	ecx
	call	_xmlStrcmp
	add	esp, 8
	test	eax, eax
	jne	SHORT $L207903

; 243  : 		{			
; 244  : 			curSig->CaptureSigOnce = (BOOL)(atoi((const char *)curKeyValue));			

	mov	edx, DWORD PTR _curKeyValue$[ebp]
	push	edx
	call	_atoi
	add	esp, 4
	mov	ecx, DWORD PTR _this$[ebp]
	mov	edx, DWORD PTR [ecx+12]
	mov	DWORD PTR [edx+960], eax

; 245  : 			continue;

	jmp	$L207887
$L207903:

; 246  : 		}
; 247  : 		if (! xmlStrcmp(curKeyName, crlChecking)) 

	mov	eax, DWORD PTR ?crlChecking@CConfig@@2PBEB ; CConfig::crlChecking
	push	eax
	mov	ecx, DWORD PTR _curKeyName$[ebp]
	push	ecx
	call	_xmlStrcmp
	add	esp, 8
	test	eax, eax
	jne	SHORT $L207906

; 248  : 		{			
; 249  : 			BOOL CrlCheckEnabled = (BOOL) (atoi((const char *)curKeyValue));

	mov	edx, DWORD PTR _curKeyValue$[ebp]
	push	edx
	call	_atoi
	add	esp, 4
	mov	DWORD PTR _CrlCheckEnabled$207907[ebp], eax

; 250  : 			if (curSig->DoDCompliance == FALSE)

	mov	eax, DWORD PTR _this$[ebp]
	mov	ecx, DWORD PTR [eax+12]
	cmp	DWORD PTR [ecx+952], 0
	jne	SHORT $L207910

; 251  : 				if (CrlCheckEnabled)

	cmp	DWORD PTR _CrlCheckEnabled$207907[ebp], 0
	je	SHORT $L207911

; 252  : 					curSig->CertVerifyParams.verificationOptions |= VERIFY_CRL;

	mov	edx, DWORD PTR _this$[ebp]
	mov	eax, DWORD PTR [edx+12]
	mov	ecx, DWORD PTR [eax+1856]
	or	ecx, 1
	mov	edx, DWORD PTR _this$[ebp]
	mov	eax, DWORD PTR [edx+12]
	mov	DWORD PTR [eax+1856], ecx

; 253  : 				else

	jmp	SHORT $L207910
$L207911:

; 254  : 					curSig->CertVerifyParams.verificationOptions &= (~VERIFY_CRL);

	mov	ecx, DWORD PTR _this$[ebp]
	mov	edx, DWORD PTR [ecx+12]
	mov	eax, DWORD PTR [edx+1856]
	and	eax, -2					; fffffffeH
	mov	ecx, DWORD PTR _this$[ebp]
	mov	edx, DWORD PTR [ecx+12]
	mov	DWORD PTR [edx+1856], eax
$L207910:

; 255  : 			continue;

	jmp	$L207887
$L207906:

; 256  : 		}
; 257  : 		if (! xmlStrcmp(curKeyName, certificatePolicyChecking)) 

	mov	eax, DWORD PTR ?certificatePolicyChecking@CConfig@@2PBEB ; CConfig::certificatePolicyChecking
	push	eax
	mov	ecx, DWORD PTR _curKeyName$[ebp]
	push	ecx
	call	_xmlStrcmp
	add	esp, 8
	test	eax, eax
	jne	SHORT $L207913

; 258  : 		{			
; 259  : 			newVal = (BOOL) (atoi((const char *)curKeyValue));

	mov	edx, DWORD PTR _curKeyValue$[ebp]
	push	edx
	call	_atoi
	add	esp, 4
	mov	DWORD PTR _newVal$[ebp], eax

; 260  : 			if (curSig->DoDCompliance == FALSE)

	mov	eax, DWORD PTR _this$[ebp]
	mov	ecx, DWORD PTR [eax+12]
	cmp	DWORD PTR [ecx+952], 0
	jne	SHORT $L207916

; 261  : 				if (newVal)

	cmp	DWORD PTR _newVal$[ebp], 0
	je	SHORT $L207917

; 262  : 					curSig->CertVerifyParams.verificationOptions |= VERIFY_POLICY;

	mov	edx, DWORD PTR _this$[ebp]
	mov	eax, DWORD PTR [edx+12]
	mov	ecx, DWORD PTR [eax+1856]
	or	ecx, 2
	mov	edx, DWORD PTR _this$[ebp]
	mov	eax, DWORD PTR [edx+12]
	mov	DWORD PTR [eax+1856], ecx

; 263  : 				else

	jmp	SHORT $L207916
$L207917:

; 264  : 					curSig->CertVerifyParams.verificationOptions &= (~VERIFY_POLICY);

	mov	ecx, DWORD PTR _this$[ebp]
	mov	edx, DWORD PTR [ecx+12]
	mov	eax, DWORD PTR [edx+1856]
	and	eax, -3					; fffffffdH
	mov	ecx, DWORD PTR _this$[ebp]
	mov	edx, DWORD PTR [ecx+12]
	mov	DWORD PTR [edx+1856], eax
$L207916:

; 265  : 			continue;

	jmp	$L207887
$L207913:

; 266  : 		}
; 267  : 
; 268  : 		if (! xmlStrcmp(curKeyName, certificateTrustExplicit)) 

	mov	eax, DWORD PTR ?certificateTrustExplicit@CConfig@@2PBEB ; CConfig::certificateTrustExplicit
	push	eax
	mov	ecx, DWORD PTR _curKeyName$[ebp]
	push	ecx
	call	_xmlStrcmp
	add	esp, 8
	test	eax, eax
	jne	SHORT $L207919

; 269  : 		{			
; 270  : 			newVal = (BOOL) (atoi((const char *)curKeyValue));

	mov	edx, DWORD PTR _curKeyValue$[ebp]
	push	edx
	call	_atoi
	add	esp, 4
	mov	DWORD PTR _newVal$[ebp], eax

; 271  : 			if (curSig->DoDCompliance == FALSE)

	mov	eax, DWORD PTR _this$[ebp]
	mov	ecx, DWORD PTR [eax+12]
	cmp	DWORD PTR [ecx+952], 0
	jne	SHORT $L207922

; 272  : 				if (newVal)

	cmp	DWORD PTR _newVal$[ebp], 0
	je	SHORT $L207923

; 273  : 					curSig->CertVerifyParams.verificationOptions |= EXPLICIT_TRUST;

	mov	edx, DWORD PTR _this$[ebp]
	mov	eax, DWORD PTR [edx+12]
	mov	ecx, DWORD PTR [eax+1856]
	or	ecx, 32					; 00000020H
	mov	edx, DWORD PTR _this$[ebp]
	mov	eax, DWORD PTR [edx+12]
	mov	DWORD PTR [eax+1856], ecx

; 274  : 				else

	jmp	SHORT $L207922
$L207923:

; 275  : 					curSig->CertVerifyParams.verificationOptions &= (~EXPLICIT_TRUST);

	mov	ecx, DWORD PTR _this$[ebp]
	mov	edx, DWORD PTR [ecx+12]
	mov	eax, DWORD PTR [edx+1856]
	and	eax, -33				; ffffffdfH
	mov	ecx, DWORD PTR _this$[ebp]
	mov	edx, DWORD PTR [ecx+12]
	mov	DWORD PTR [edx+1856], eax
$L207922:

; 276  : 			continue;

	jmp	$L207887
$L207919:

; 277  : 		}
; 278  : 
; 279  : 		if (! xmlStrcmp(curKeyName, certificatePolicyExplicit)) 

	mov	eax, DWORD PTR ?certificatePolicyExplicit@CConfig@@2PBEB ; CConfig::certificatePolicyExplicit
	push	eax
	mov	ecx, DWORD PTR _curKeyName$[ebp]
	push	ecx
	call	_xmlStrcmp
	add	esp, 8
	test	eax, eax
	jne	SHORT $L207925

; 280  : 		{			
; 281  : 			newVal = (BOOL) (atoi((const char *)curKeyValue));

	mov	edx, DWORD PTR _curKeyValue$[ebp]
	push	edx
	call	_atoi
	add	esp, 4
	mov	DWORD PTR _newVal$[ebp], eax

; 282  : 			if (newVal)

	cmp	DWORD PTR _newVal$[ebp], 0
	je	SHORT $L207928

; 283  : 				curSig->CertVerifyParams.verificationOptions |= POLICY_EXPLICIT;

	mov	eax, DWORD PTR _this$[ebp]
	mov	ecx, DWORD PTR [eax+12]
	mov	edx, DWORD PTR [ecx+1856]
	or	edx, 16					; 00000010H
	mov	eax, DWORD PTR _this$[ebp]
	mov	ecx, DWORD PTR [eax+12]
	mov	DWORD PTR [ecx+1856], edx

; 284  : 			else

	jmp	SHORT $L207929
$L207928:

; 285  : 				curSig->CertVerifyParams.verificationOptions &= (~POLICY_EXPLICIT);

	mov	edx, DWORD PTR _this$[ebp]
	mov	eax, DWORD PTR [edx+12]
	mov	ecx, DWORD PTR [eax+1856]
	and	ecx, -17				; ffffffefH
	mov	edx, DWORD PTR _this$[ebp]
	mov	eax, DWORD PTR [edx+12]
	mov	DWORD PTR [eax+1856], ecx
$L207929:

; 286  : 			continue;

	jmp	$L207887
$L207925:

; 287  : 		}
; 288  : 
; 289  : 		if (! xmlStrcmp(curKeyName, certificateChainValidation)) 

	mov	ecx, DWORD PTR ?certificateChainValidation@CConfig@@2PBEB ; CConfig::certificateChainValidation
	push	ecx
	mov	edx, DWORD PTR _curKeyName$[ebp]
	push	edx
	call	_xmlStrcmp
	add	esp, 8
	test	eax, eax
	jne	$L207930

; 290  : 		{			
; 291  : 			newVal = (BOOL) (atoi((const char *)curKeyValue));

	mov	eax, DWORD PTR _curKeyValue$[ebp]
	push	eax
	call	_atoi
	add	esp, 4
	mov	DWORD PTR _newVal$[ebp], eax

; 292  : 			if (curSig->DoDCompliance == FALSE)

	mov	ecx, DWORD PTR _this$[ebp]
	mov	edx, DWORD PTR [ecx+12]
	cmp	DWORD PTR [edx+952], 0
	jne	SHORT $L207933

; 293  : 				if (newVal)

	cmp	DWORD PTR _newVal$[ebp], 0
	je	SHORT $L207934

; 294  : 				{
; 295  : 					curSig->CertVerifyParams.verificationOptions |= VERIFY_CHAIN;

	mov	eax, DWORD PTR _this$[ebp]
	mov	ecx, DWORD PTR [eax+12]
	mov	edx, DWORD PTR [ecx+1856]
	or	edx, 4
	mov	eax, DWORD PTR _this$[ebp]
	mov	ecx, DWORD PTR [eax+12]
	mov	DWORD PTR [ecx+1856], edx

; 296  : 					curSig->CertVerifyParams.verificationOptions |= VERIFY_PATH_LENGTH;

	mov	edx, DWORD PTR _this$[ebp]
	mov	eax, DWORD PTR [edx+12]
	mov	ecx, DWORD PTR [eax+1856]
	or	ecx, 8
	mov	edx, DWORD PTR _this$[ebp]
	mov	eax, DWORD PTR [edx+12]
	mov	DWORD PTR [eax+1856], ecx

; 297  : 				}
; 298  : 				else

	jmp	SHORT $L207933
$L207934:

; 299  : 				{
; 300  : 					curSig->CertVerifyParams.verificationOptions &= (~VERIFY_CHAIN);

	mov	ecx, DWORD PTR _this$[ebp]
	mov	edx, DWORD PTR [ecx+12]
	mov	eax, DWORD PTR [edx+1856]
	and	eax, -5					; fffffffbH
	mov	ecx, DWORD PTR _this$[ebp]
	mov	edx, DWORD PTR [ecx+12]
	mov	DWORD PTR [edx+1856], eax

; 301  : 					curSig->CertVerifyParams.verificationOptions &= (~VERIFY_PATH_LENGTH);

	mov	eax, DWORD PTR _this$[ebp]
	mov	ecx, DWORD PTR [eax+12]
	mov	edx, DWORD PTR [ecx+1856]
	and	edx, -9					; fffffff7H
	mov	eax, DWORD PTR _this$[ebp]
	mov	ecx, DWORD PTR [eax+12]
	mov	DWORD PTR [ecx+1856], edx
$L207933:

; 302  : 				}
; 303  : 			continue;

	jmp	$L207887
$L207930:

; 304  : 		}
; 305  : 
; 306  : 		if (! xmlStrcmp(curKeyName, certificatePathLengthChecking)) 

	mov	edx, DWORD PTR ?certificatePathLengthChecking@CConfig@@2PBEB ; CConfig::certificatePathLengthChecking
	push	edx
	mov	eax, DWORD PTR _curKeyName$[ebp]
	push	eax
	call	_xmlStrcmp
	add	esp, 8
	test	eax, eax
	jne	SHORT $L207936

; 307  : 		{			
; 308  : 			newVal = (BOOL) (atoi((const char *)curKeyValue));

	mov	ecx, DWORD PTR _curKeyValue$[ebp]
	push	ecx
	call	_atoi
	add	esp, 4
	mov	DWORD PTR _newVal$[ebp], eax

; 309  : 			if (curSig->DoDCompliance == FALSE)

	mov	edx, DWORD PTR _this$[ebp]
	mov	eax, DWORD PTR [edx+12]
	cmp	DWORD PTR [eax+952], 0
	jne	SHORT $L207939

; 310  : 				if (newVal)

	cmp	DWORD PTR _newVal$[ebp], 0
	je	SHORT $L207940

; 311  : 					curSig->CertVerifyParams.verificationOptions |= VERIFY_PATH_LENGTH;

	mov	ecx, DWORD PTR _this$[ebp]
	mov	edx, DWORD PTR [ecx+12]
	mov	eax, DWORD PTR [edx+1856]
	or	eax, 8
	mov	ecx, DWORD PTR _this$[ebp]
	mov	edx, DWORD PTR [ecx+12]
	mov	DWORD PTR [edx+1856], eax

; 312  : 				else

	jmp	SHORT $L207939
$L207940:

; 313  : 					curSig->CertVerifyParams.verificationOptions &= (~VERIFY_PATH_LENGTH);

	mov	eax, DWORD PTR _this$[ebp]
	mov	ecx, DWORD PTR [eax+12]
	mov	edx, DWORD PTR [ecx+1856]
	and	edx, -9					; fffffff7H
	mov	eax, DWORD PTR _this$[ebp]
	mov	ecx, DWORD PTR [eax+12]
	mov	DWORD PTR [ecx+1856], edx
$L207939:

; 314  : 			continue;

	jmp	$L207887
$L207936:

; 315  : 		}
; 316  : 
; 317  : 		if (! xmlStrcmp(curKeyName, doDCompliance)) 

	mov	edx, DWORD PTR ?doDCompliance@CConfig@@2PBEB ; CConfig::doDCompliance
	push	edx
	mov	eax, DWORD PTR _curKeyName$[ebp]
	push	eax
	call	_xmlStrcmp
	add	esp, 8
	test	eax, eax
	jne	$L207942

; 318  : 		{			
; 319  : 			curSig->DoDCompliance = (BOOL) (atoi((const char *)curKeyValue));

	mov	ecx, DWORD PTR _curKeyValue$[ebp]
	push	ecx
	call	_atoi
	add	esp, 4
	mov	edx, DWORD PTR _this$[ebp]
	mov	ecx, DWORD PTR [edx+12]
	mov	DWORD PTR [ecx+952], eax

; 320  : 			if (curSig->DoDCompliance)

	mov	edx, DWORD PTR _this$[ebp]
	mov	eax, DWORD PTR [edx+12]
	cmp	DWORD PTR [eax+952], 0
	je	SHORT $L207945

; 321  : 				curSig->CertVerifyParams.verificationOptions |=	(VERIFY_CRL | 
; 322  : 													VERIFY_POLICY | 
; 323  : 													VERIFY_CHAIN | 
; 324  : 													VERIFY_PATH_LENGTH |
; 325  : 													EXPLICIT_TRUST);

	mov	ecx, DWORD PTR _this$[ebp]
	mov	edx, DWORD PTR [ecx+12]
	mov	eax, DWORD PTR [edx+1856]
	or	eax, 47					; 0000002fH
	mov	ecx, DWORD PTR _this$[ebp]
	mov	edx, DWORD PTR [ecx+12]
	mov	DWORD PTR [edx+1856], eax

; 326  : 			else

	jmp	$L207946
$L207945:

; 327  : 			{
; 328  : 				curSig->CertVerifyParams.verificationOptions &= (~VERIFY_CRL);

	mov	eax, DWORD PTR _this$[ebp]
	mov	ecx, DWORD PTR [eax+12]
	mov	edx, DWORD PTR [ecx+1856]
	and	edx, -2					; fffffffeH
	mov	eax, DWORD PTR _this$[ebp]
	mov	ecx, DWORD PTR [eax+12]
	mov	DWORD PTR [ecx+1856], edx

; 329  : 				curSig->CertVerifyParams.verificationOptions &= (~VERIFY_POLICY);

	mov	edx, DWORD PTR _this$[ebp]
	mov	eax, DWORD PTR [edx+12]
	mov	ecx, DWORD PTR [eax+1856]
	and	ecx, -3					; fffffffdH
	mov	edx, DWORD PTR _this$[ebp]
	mov	eax, DWORD PTR [edx+12]
	mov	DWORD PTR [eax+1856], ecx

; 330  : 				curSig->CertVerifyParams.verificationOptions &= (~VERIFY_CHAIN);

	mov	ecx, DWORD PTR _this$[ebp]
	mov	edx, DWORD PTR [ecx+12]
	mov	eax, DWORD PTR [edx+1856]
	and	eax, -5					; fffffffbH
	mov	ecx, DWORD PTR _this$[ebp]
	mov	edx, DWORD PTR [ecx+12]
	mov	DWORD PTR [edx+1856], eax

; 331  : 				curSig->CertVerifyParams.verificationOptions &= (~VERIFY_PATH_LENGTH);

	mov	eax, DWORD PTR _this$[ebp]
	mov	ecx, DWORD PTR [eax+12]
	mov	edx, DWORD PTR [ecx+1856]
	and	edx, -9					; fffffff7H
	mov	eax, DWORD PTR _this$[ebp]
	mov	ecx, DWORD PTR [eax+12]
	mov	DWORD PTR [ecx+1856], edx

; 332  : 				curSig->CertVerifyParams.verificationOptions &= (~EXPLICIT_TRUST);

	mov	edx, DWORD PTR _this$[ebp]
	mov	eax, DWORD PTR [edx+12]
	mov	ecx, DWORD PTR [eax+1856]
	and	ecx, -33				; ffffffdfH
	mov	edx, DWORD PTR _this$[ebp]
	mov	eax, DWORD PTR [edx+12]
	mov	DWORD PTR [eax+1856], ecx
$L207946:

; 333  : 			}
; 334  : 			continue;

	jmp	$L207887
$L207942:

; 335  : 		}
; 336  : 
; 337  : 		if (! xmlStrcmp(curKeyName, physicalSignatureFile)) 

	mov	ecx, DWORD PTR ?physicalSignatureFile@CConfig@@2PBEB ; CConfig::physicalSignatureFile
	push	ecx
	mov	edx, DWORD PTR _curKeyName$[ebp]
	push	edx
	call	_xmlStrcmp
	add	esp, 8
	test	eax, eax
	jne	SHORT $L207947

; 338  : 		{
; 339  : 			int filePathSize = strlen((const char *)curKeyValue);

	mov	eax, DWORD PTR _curKeyValue$[ebp]
	push	eax
	call	_strlen
	add	esp, 4
	mov	DWORD PTR _filePathSize$207948[ebp], eax

; 340  : 
; 341  : 			if (filePathSize < MAX_PATH)

	cmp	DWORD PTR _filePathSize$207948[ebp], 260 ; 00000104H
	jge	SHORT $L207950

; 342  : 				strcpy((char *) curSig->PhysicalSignatureFileName,(const char *)curKeyValue);

	mov	ecx, DWORD PTR _curKeyValue$[ebp]
	push	ecx
	mov	edx, DWORD PTR _this$[ebp]
	mov	eax, DWORD PTR [edx+12]
	add	eax, 968				; 000003c8H
	push	eax
	call	_strcpy
	add	esp, 8

; 343  : 			else

	jmp	SHORT $L207953
$L207950:

; 344  : 				setError(curSig->SigHandle, FILE_PATH_TOO_LONG);

	push	62					; 0000003eH
	mov	ecx, DWORD PTR _this$[ebp]
	mov	edx, DWORD PTR [ecx+12]
	mov	eax, DWORD PTR [edx+692]
	push	eax
	call	_setError
	add	esp, 8
$L207953:

; 345  : 			continue;

	jmp	$L207887
$L207947:

; 346  : 		}
; 347  : 
; 348  : 		if (! xmlStrcmp(curKeyName, physicalSignatureUsage)) 

	mov	ecx, DWORD PTR ?physicalSignatureUsage@CConfig@@2PBEB ; CConfig::physicalSignatureUsage
	push	ecx
	mov	edx, DWORD PTR _curKeyName$[ebp]
	push	edx
	call	_xmlStrcmp
	add	esp, 8
	test	eax, eax
	jne	$L207954

; 349  : 		{			
; 350  : 			curSig->PhysicalSigUsage = atoi((const char *)curKeyValue);

	mov	eax, DWORD PTR _curKeyValue$[ebp]
	push	eax
	call	_atoi
	add	esp, 4
	mov	ecx, DWORD PTR _this$[ebp]
	mov	edx, DWORD PTR [ecx+12]
	mov	DWORD PTR [edx+956], eax

; 351  : 			if (curSig->PhysicalSigUsage != NO_PHYSICAL_SIG)

	mov	eax, DWORD PTR _this$[ebp]
	mov	ecx, DWORD PTR [eax+12]
	cmp	DWORD PTR [ecx+956], 0
	je	$L207956

; 352  : 			{		
; 353  : #ifdef WIN32
; 354  : 				HWND desktopHwnd;
; 355  : 				desktopHwnd = GetDesktopWindow();	

	mov	esi, esp
	call	DWORD PTR __imp__GetDesktopWindow@0
	cmp	esi, esp
	call	__RTC_CheckEsp
	mov	DWORD PTR _desktopHwnd$207957[ebp], eax

; 356  : 				GetClientRect(desktopHwnd, &curSig->SignatureCaptureWindowDim);		

	mov	edx, DWORD PTR _this$[ebp]
	mov	eax, DWORD PTR [edx+12]
	add	eax, 1752				; 000006d8H
	mov	esi, esp
	push	eax
	mov	ecx, DWORD PTR _desktopHwnd$207957[ebp]
	push	ecx
	call	DWORD PTR __imp__GetClientRect@8
	cmp	esi, esp
	call	__RTC_CheckEsp

; 357  : 				curSig->SignatureCaptureWindowDim.left = (curSig->SignatureCaptureWindowDim.right / 2) - 175; // UpperX		

	mov	edx, DWORD PTR _this$[ebp]
	mov	eax, DWORD PTR [edx+12]
	mov	eax, DWORD PTR [eax+1760]
	cdq
	sub	eax, edx
	sar	eax, 1
	sub	eax, 175				; 000000afH
	mov	ecx, DWORD PTR _this$[ebp]
	mov	edx, DWORD PTR [ecx+12]
	mov	DWORD PTR [edx+1752], eax

; 358  : 				curSig->SignatureCaptureWindowDim.top = (curSig->SignatureCaptureWindowDim.bottom / 2) - 125; // UpperY		

	mov	eax, DWORD PTR _this$[ebp]
	mov	ecx, DWORD PTR [eax+12]
	mov	eax, DWORD PTR [ecx+1764]
	cdq
	sub	eax, edx
	sar	eax, 1
	sub	eax, 125				; 0000007dH
	mov	edx, DWORD PTR _this$[ebp]
	mov	ecx, DWORD PTR [edx+12]
	mov	DWORD PTR [ecx+1756], eax

; 359  : 				curSig->SignatureCaptureWindowDim.bottom = 250; // Height

	mov	edx, DWORD PTR _this$[ebp]
	mov	eax, DWORD PTR [edx+12]
	mov	DWORD PTR [eax+1764], 250		; 000000faH

; 360  : 				curSig->SignatureCaptureWindowDim.right = 350;  // Width

	mov	ecx, DWORD PTR _this$[ebp]
	mov	edx, DWORD PTR [ecx+12]
	mov	DWORD PTR [edx+1760], 350		; 0000015eH
$L207956:

; 361  : #endif
; 362  : 			}
; 363  : 
; 364  : 			continue;

	jmp	$L207887
$L207954:

; 365  : 		}
; 366  : 
; 367  : 		if (! xmlStrcmp(curKeyName, timeStampURL)) 

	mov	eax, DWORD PTR ?timeStampURL@CConfig@@2PBEB ; CConfig::timeStampURL
	push	eax
	mov	ecx, DWORD PTR _curKeyName$[ebp]
	push	ecx
	call	_xmlStrcmp
	add	esp, 8
	test	eax, eax
	jne	SHORT $L207958

; 368  : 		{			
; 369  : 			curSig->TimeStampURL = A2WBSTR((const char *)curKeyValue);	

	push	-1
	mov	edx, DWORD PTR _curKeyValue$[ebp]
	push	edx
	call	?A2WBSTR@@YAPAGPBDH@Z			; A2WBSTR
	add	esp, 8
	push	eax
	mov	eax, DWORD PTR _this$[ebp]
	mov	ecx, DWORD PTR [eax+12]
	add	ecx, 936				; 000003a8H
	call	??4CComBSTR@ATL@@QAEAAV01@PBG@Z		; ATL::CComBSTR::operator=

; 370  : 			continue;

	jmp	$L207887
$L207958:

; 371  : 		}
; 372  : 		if (! xmlStrcmp(curKeyName, timeStamping)) 

	mov	ecx, DWORD PTR ?timeStamping@CConfig@@2PBEB ; CConfig::timeStamping
	push	ecx
	mov	edx, DWORD PTR _curKeyName$[ebp]
	push	edx
	call	_xmlStrcmp
	add	esp, 8
	test	eax, eax
	jne	SHORT $L207960

; 373  : 		{			
; 374  : 			curSig->TimeStampOption = atoi((const char *)curKeyValue);

	mov	eax, DWORD PTR _curKeyValue$[ebp]
	push	eax
	call	_atoi
	add	esp, 4
	mov	ecx, DWORD PTR _this$[ebp]
	mov	edx, DWORD PTR [ecx+12]
	mov	DWORD PTR [edx+940], eax

; 375  : 			continue;

	jmp	$L207887
$L207960:

; 376  : 		}
; 377  : 
; 378  : 		if (! xmlStrcmp(curKeyName, timeStampFormat)) 

	mov	eax, DWORD PTR ?timeStampFormat@CConfig@@2PBEB ; CConfig::timeStampFormat
	push	eax
	mov	ecx, DWORD PTR _curKeyName$[ebp]
	push	ecx
	call	_xmlStrcmp
	add	esp, 8
	test	eax, eax
	jne	SHORT $L207962

; 379  : 		{			
; 380  : 			curSig->TimeStampFormat = atoi((const char *)curKeyValue);

	mov	edx, DWORD PTR _curKeyValue$[ebp]
	push	edx
	call	_atoi
	add	esp, 4
	mov	ecx, DWORD PTR _this$[ebp]
	mov	edx, DWORD PTR [ecx+12]
	mov	DWORD PTR [edx+944], eax

; 381  : 			continue;

	jmp	$L207887
$L207962:

; 382  : 		}
; 383  : 
; 384  : 		if (! xmlStrcmp(curKeyName, timeStampCritical)) 

	mov	eax, DWORD PTR ?timeStampCritical@CConfig@@2PBEB ; CConfig::timeStampCritical
	push	eax
	mov	ecx, DWORD PTR _curKeyName$[ebp]
	push	ecx
	call	_xmlStrcmp
	add	esp, 8
	test	eax, eax
	jne	SHORT $L207964

; 385  : 		{			
; 386  : 			curSig->TimeStampCritical = atoi((const char *)curKeyValue);

	mov	edx, DWORD PTR _curKeyValue$[ebp]
	push	edx
	call	_atoi
	add	esp, 4
	mov	ecx, DWORD PTR _this$[ebp]
	mov	edx, DWORD PTR [ecx+12]
	mov	DWORD PTR [edx+948], eax

; 387  : 			continue;

	jmp	$L207887
$L207964:

; 388  : 		}
; 389  : 
; 390  : 		if (! xmlStrcmp(curKeyName, detailedVerificationFlag)) 

	mov	eax, DWORD PTR ?detailedVerificationFlag@CConfig@@2PBEB ; CConfig::detailedVerificationFlag
	push	eax
	mov	ecx, DWORD PTR _curKeyName$[ebp]
	push	ecx
	call	_xmlStrcmp
	add	esp, 8
	test	eax, eax
	jne	SHORT $L207966

; 391  : 		{			
; 392  : 			curSig->DetailedVerificationReportFlag = (BOOL)(atoi((const char *)curKeyValue));

	mov	edx, DWORD PTR _curKeyValue$[ebp]
	push	edx
	call	_atoi
	add	esp, 4
	mov	ecx, DWORD PTR _this$[ebp]
	mov	edx, DWORD PTR [ecx+12]
	mov	DWORD PTR [edx+1816], eax

; 393  : 			continue;

	jmp	$L207887
$L207966:

; 394  : 		}
; 395  : 		if (! xmlStrcmp(curKeyName, excludeSignerCertificate)) 

	mov	eax, DWORD PTR ?excludeSignerCertificate@CConfig@@2PBEB ; CConfig::excludeSignerCertificate
	push	eax
	mov	ecx, DWORD PTR _curKeyName$[ebp]
	push	ecx
	call	_xmlStrcmp
	add	esp, 8
	test	eax, eax
	jne	SHORT $L207969

; 396  : 		{			
; 397  : 			curSig->ExcludeSignerCertificateFlag = (BOOL)(atoi((const char *)curKeyValue));

	mov	edx, DWORD PTR _curKeyValue$[ebp]
	push	edx
	call	_atoi
	add	esp, 4
	mov	ecx, DWORD PTR _this$[ebp]
	mov	edx, DWORD PTR [ecx+12]
	mov	DWORD PTR [edx+1820], eax

; 398  : 			continue;

	jmp	$L207887
$L207969:

; 399  : 		}
; 400  : 		if (! xmlStrcmp(curKeyName, overwriteFile)) 

	mov	eax, DWORD PTR ?overwriteFile@CConfig@@2PBEB ; CConfig::overwriteFile
	push	eax
	mov	ecx, DWORD PTR _curKeyName$[ebp]
	push	ecx
	call	_xmlStrcmp
	add	esp, 8
	test	eax, eax
	jne	SHORT $L207972

; 401  : 		{			
; 402  : 			curSig->OverwriteFileFlag = (BOOL)(atoi((const char *)curKeyValue));

	mov	edx, DWORD PTR _curKeyValue$[ebp]
	push	edx
	call	_atoi
	add	esp, 4
	mov	ecx, DWORD PTR _this$[ebp]
	mov	edx, DWORD PTR [ecx+12]
	mov	DWORD PTR [edx+1824], eax

; 403  : 			continue;

	jmp	$L207887
$L207972:

; 404  : 		}
; 405  : 		if (! xmlStrcmp(curKeyName, camServerHost)) 

	mov	eax, DWORD PTR ?camServerHost@CConfig@@2PBEB ; CConfig::camServerHost
	push	eax
	mov	ecx, DWORD PTR _curKeyName$[ebp]
	push	ecx
	call	_xmlStrcmp
	add	esp, 8
	test	eax, eax
	jne	SHORT $L207975

; 406  : 		{			
; 407  : 			curSig->camServerHost = (unsigned char *)zMalloc(strlen((const char *)curKeyValue) +1);

	mov	edx, DWORD PTR _curKeyValue$[ebp]
	push	edx
	call	_strlen
	add	esp, 4
	add	eax, 1
	push	eax
	call	_malloc
	add	esp, 4
	mov	ecx, DWORD PTR _this$[ebp]
	mov	edx, DWORD PTR [ecx+12]
	mov	DWORD PTR [edx+1896], eax

; 408  : 			strcpy((char *)curSig->camServerHost, (const char *)curKeyValue);

	mov	eax, DWORD PTR _curKeyValue$[ebp]
	push	eax
	mov	ecx, DWORD PTR _this$[ebp]
	mov	edx, DWORD PTR [ecx+12]
	mov	eax, DWORD PTR [edx+1896]
	push	eax
	call	_strcpy
	add	esp, 8

; 409  : 			continue;

	jmp	$L207887
$L207975:

; 410  : 		}
; 411  : 		if (! xmlStrcmp(curKeyName, camServerPort)) 

	mov	ecx, DWORD PTR ?camServerPort@CConfig@@2PBEB ; CConfig::camServerPort
	push	ecx
	mov	edx, DWORD PTR _curKeyName$[ebp]
	push	edx
	call	_xmlStrcmp
	add	esp, 8
	test	eax, eax
	jne	SHORT $L207980

; 412  : 		{			
; 413  : 			curSig->camServerPort = (USHORT)(atoi((const char *)curKeyValue));

	mov	eax, DWORD PTR _curKeyValue$[ebp]
	push	eax
	call	_atoi
	add	esp, 4
	mov	ecx, DWORD PTR _this$[ebp]
	mov	edx, DWORD PTR [ecx+12]
	mov	WORD PTR [edx+1900], ax

; 414  : 			if (curSig->pCamClient != NULL)

	mov	eax, DWORD PTR _this$[ebp]
	mov	ecx, DWORD PTR [eax+12]
	cmp	DWORD PTR [ecx+1904], 0
	je	SHORT $L207983

; 415  : 				curSig->pCamClient->camServerPortNumber = curSig->camServerPort;

	mov	edx, DWORD PTR _this$[ebp]
	mov	eax, DWORD PTR [edx+12]
	mov	ecx, DWORD PTR _this$[ebp]
	mov	edx, DWORD PTR [ecx+12]
	mov	ecx, DWORD PTR [edx+1904]
	mov	dx, WORD PTR [eax+1900]
	mov	WORD PTR [ecx], dx
$L207983:

; 416  : 			continue;

	jmp	$L207887
$L207980:

; 417  : 		}
; 418  : 		if (! xmlStrcmp(curKeyName, useCam)) 

	mov	eax, DWORD PTR ?useCam@CConfig@@2PBEB	; CConfig::useCam
	push	eax
	mov	ecx, DWORD PTR _curKeyName$[ebp]
	push	ecx
	call	_xmlStrcmp
	add	esp, 8
	test	eax, eax
	jne	$L207984

; 419  : 		{			
; 420  : 			newVal = (BOOL)(atoi((const char *)curKeyValue));

	mov	edx, DWORD PTR _curKeyValue$[ebp]
	push	edx
	call	_atoi
	add	esp, 4
	mov	DWORD PTR _newVal$[ebp], eax

; 421  : 			if (curSig->useCam) // Already enabled hence do nothing if newVal != 0

	mov	eax, DWORD PTR _this$[ebp]
	mov	ecx, DWORD PTR [eax+12]
	cmp	DWORD PTR [ecx+1908], 0
	je	$L207987

; 422  : 			{
; 423  : 				if (newVal == 0)

	cmp	DWORD PTR _newVal$[ebp], 0
	jne	SHORT $L207988

; 424  : 				{
; 425  : 					if (curSig->pCamClient != NULL)

	mov	edx, DWORD PTR _this$[ebp]
	mov	eax, DWORD PTR [edx+12]
	cmp	DWORD PTR [eax+1904], 0
	je	SHORT $L207989

; 426  : 					{
; 427  : 						delete curSig->pCamClient;

	mov	ecx, DWORD PTR _this$[ebp]
	mov	edx, DWORD PTR [ecx+12]
	mov	eax, DWORD PTR [edx+1904]
	mov	DWORD PTR $T211756[ebp], eax
	mov	ecx, DWORD PTR $T211756[ebp]
	mov	DWORD PTR $T211755[ebp], ecx
	cmp	DWORD PTR $T211755[ebp], 0
	je	SHORT $L211757
	push	1
	mov	ecx, DWORD PTR $T211755[ebp]
	call	??_GCCAMClient@@QAEPAXI@Z
	mov	DWORD PTR tv496[ebp], eax
	jmp	SHORT $L211758
$L211757:
	mov	DWORD PTR tv496[ebp], 0
$L211758:

; 428  : 						curSig->pCamClient = NULL;

	mov	edx, DWORD PTR _this$[ebp]
	mov	eax, DWORD PTR [edx+12]
	mov	DWORD PTR [eax+1904], 0
$L207989:

; 429  : 					}
; 430  : 					curSig->useCam = newVal;

	mov	ecx, DWORD PTR _this$[ebp]
	mov	edx, DWORD PTR [ecx+12]
	mov	eax, DWORD PTR _newVal$[ebp]
	mov	DWORD PTR [edx+1908], eax

; 431  : 					continue;

	jmp	$L207887
$L207988:

; 432  : 				}
; 433  : 				else
; 434  : 					continue;

	jmp	$L207887
$L207987:

; 435  : 			}
; 436  : 			else 
; 437  : 				if (newVal)

	cmp	DWORD PTR _newVal$[ebp], 0
	je	$L207993

; 438  : 				{
; 439  : 					curSig->pCamClient = new CCAMClient();

	push	4108					; 0000100cH
	call	??2@YAPAXI@Z				; operator new
	add	esp, 4
	mov	DWORD PTR $T211760[ebp], eax
	mov	DWORD PTR __$EHRec$[ebp+8], 0
	cmp	DWORD PTR $T211760[ebp], 0
	je	SHORT $L211761
	mov	ecx, DWORD PTR $T211760[ebp]
	call	??0CCAMClient@@QAE@XZ			; CCAMClient::CCAMClient
	mov	DWORD PTR tv511[ebp], eax
	jmp	SHORT $L211762
$L211761:
	mov	DWORD PTR tv511[ebp], 0
$L211762:
	mov	ecx, DWORD PTR tv511[ebp]
	mov	DWORD PTR $T211759[ebp], ecx
	mov	DWORD PTR __$EHRec$[ebp+8], -1
	mov	edx, DWORD PTR _this$[ebp]
	mov	eax, DWORD PTR [edx+12]
	mov	ecx, DWORD PTR $T211759[ebp]
	mov	DWORD PTR [eax+1904], ecx

; 440  : 					curSig->useCam = newVal;

	mov	edx, DWORD PTR _this$[ebp]
	mov	eax, DWORD PTR [edx+12]
	mov	ecx, DWORD PTR _newVal$[ebp]
	mov	DWORD PTR [eax+1908], ecx

; 441  : 					curSig->pCamClient->camServerPortNumber = curSig->camServerPort;

	mov	edx, DWORD PTR _this$[ebp]
	mov	eax, DWORD PTR [edx+12]
	mov	ecx, DWORD PTR _this$[ebp]
	mov	edx, DWORD PTR [ecx+12]
	mov	ecx, DWORD PTR [edx+1904]
	mov	dx, WORD PTR [eax+1900]
	mov	WORD PTR [ecx], dx
$L207993:

; 442  : 				}
; 443  : 			continue;

	jmp	$L207887
$L207984:

; 444  : 		}
; 445  : 		if (! xmlStrcmp(curKeyName, base64EncodeXML)) 

	mov	eax, DWORD PTR ?base64EncodeXML@CConfig@@2PBEB ; CConfig::base64EncodeXML
	push	eax
	mov	ecx, DWORD PTR _curKeyName$[ebp]
	push	ecx
	call	_xmlStrcmp
	add	esp, 8
	test	eax, eax
	jne	SHORT $L207999

; 446  : 		{			
; 447  : 			curSig->Base64EncodeXML = (BOOL)(atoi((const char *)curKeyValue));

	mov	edx, DWORD PTR _curKeyValue$[ebp]
	push	edx
	call	_atoi
	add	esp, 4
	mov	ecx, DWORD PTR _this$[ebp]
	mov	edx, DWORD PTR [ecx+12]
	mov	DWORD PTR [edx+2180], eax

; 448  : 			continue;

	jmp	$L207887
$L207999:

; 449  : 		}
; 450  : 		if (! xmlStrcmp(curKeyName, base64DecodeXML)) 

	mov	eax, DWORD PTR ?base64DecodeXML@CConfig@@2PBEB ; CConfig::base64DecodeXML
	push	eax
	mov	ecx, DWORD PTR _curKeyName$[ebp]
	push	ecx
	call	_xmlStrcmp
	add	esp, 8
	test	eax, eax
	jne	SHORT $L208002

; 451  : 		{			
; 452  : 			curSig->Base64DecodeXML = (BOOL)(atoi((const char *)curKeyValue));

	mov	edx, DWORD PTR _curKeyValue$[ebp]
	push	edx
	call	_atoi
	add	esp, 4
	mov	ecx, DWORD PTR _this$[ebp]
	mov	edx, DWORD PTR [ecx+12]
	mov	DWORD PTR [edx+2184], eax

; 453  : 			continue;

	jmp	$L207887
$L208002:

; 454  : 		}
; 455  : 		if (! xmlStrcmp(curKeyName, includeCamResponse)) 

	mov	eax, DWORD PTR ?includeCamResponse@CConfig@@2PBEB ; CConfig::includeCamResponse
	push	eax
	mov	ecx, DWORD PTR _curKeyName$[ebp]
	push	ecx
	call	_xmlStrcmp
	add	esp, 8
	test	eax, eax
	jne	SHORT $L208005

; 456  : 		{			
; 457  : 			curSig->IncludeCamResponse = (BOOL)(atoi((const char *)curKeyValue));

	mov	edx, DWORD PTR _curKeyValue$[ebp]
	push	edx
	call	_atoi
	add	esp, 4
	mov	ecx, DWORD PTR _this$[ebp]
	mov	edx, DWORD PTR [ecx+12]
	mov	DWORD PTR [edx+2188], eax

; 458  : 			continue;

	jmp	$L207887
$L208005:

; 459  : 		}
; 460  : 		if (! xmlStrcmp(curKeyName, agencyId)) 

	mov	eax, DWORD PTR ?agencyId@CConfig@@2PBEB	; CConfig::agencyId
	push	eax
	mov	ecx, DWORD PTR _curKeyName$[ebp]
	push	ecx
	call	_xmlStrcmp
	add	esp, 8
	test	eax, eax
	jne	SHORT $L208008

; 461  : 		{			
; 462  : 			strcpy((char *)curSig->agencyId, (const char *)curKeyValue);

	mov	edx, DWORD PTR _curKeyValue$[ebp]
	push	edx
	mov	eax, DWORD PTR _this$[ebp]
	mov	ecx, DWORD PTR [eax+12]
	add	ecx, 1920				; 00000780H
	push	ecx
	call	_strcpy
	add	esp, 8

; 463  : 			continue;

	jmp	$L207887
$L208008:

; 464  : 		}
; 465  : 		if (! xmlStrcmp(curKeyName, trustedRootCount)) 

	mov	edx, DWORD PTR ?trustedRootCount@CConfig@@2PBEB ; CConfig::trustedRootCount
	push	edx
	mov	eax, DWORD PTR _curKeyName$[ebp]
	push	eax
	call	_xmlStrcmp
	add	esp, 8
	test	eax, eax
	jne	$L208011

; 466  : 		{			
; 467  : 			if (curSig->CertVerifyParams.trustRootCertCount != 0)

	mov	ecx, DWORD PTR _this$[ebp]
	mov	edx, DWORD PTR [ecx+12]
	cmp	DWORD PTR [edx+1864], 0
	je	SHORT $L208012

; 468  : 			{
; 469  : 				for (unsigned int i=0; i < curSig->CertVerifyParams.trustRootCertCount; i++)

	mov	DWORD PTR _i$208013[ebp], 0
	jmp	SHORT $L208014
$L208015:
	mov	eax, DWORD PTR _i$208013[ebp]
	add	eax, 1
	mov	DWORD PTR _i$208013[ebp], eax
$L208014:
	mov	ecx, DWORD PTR _this$[ebp]
	mov	edx, DWORD PTR [ecx+12]
	mov	eax, DWORD PTR _i$208013[ebp]
	cmp	eax, DWORD PTR [edx+1864]
	jae	SHORT $L208016

; 470  : 					zFree(curSig->CertVerifyParams.trustRootCerts[i]);

	mov	ecx, DWORD PTR _this$[ebp]
	mov	edx, DWORD PTR [ecx+12]
	mov	eax, DWORD PTR [edx+1860]
	mov	ecx, DWORD PTR _i$208013[ebp]
	mov	edx, DWORD PTR [eax+ecx*4]
	push	edx
	call	_rFree
	add	esp, 4
	jmp	SHORT $L208015
$L208016:

; 471  : 				zFree(curSig->CertVerifyParams.trustRootCerts);

	mov	eax, DWORD PTR _this$[ebp]
	mov	ecx, DWORD PTR [eax+12]
	mov	edx, DWORD PTR [ecx+1860]
	push	edx
	call	_rFree
	add	esp, 4
$L208012:

; 472  : 			}
; 473  : 			curSig->CertVerifyParams.trustRootCertCount = (UINT)(atoi((const char *)curKeyValue));

	mov	eax, DWORD PTR _curKeyValue$[ebp]
	push	eax
	call	_atoi
	add	esp, 4
	mov	ecx, DWORD PTR _this$[ebp]
	mov	edx, DWORD PTR [ecx+12]
	mov	DWORD PTR [edx+1864], eax

; 474  : 			trustRootItemCount = curSig->CertVerifyParams.trustRootCertCount;

	mov	eax, DWORD PTR _this$[ebp]
	mov	ecx, DWORD PTR [eax+12]
	mov	edx, DWORD PTR [ecx+1864]
	mov	DWORD PTR _trustRootItemCount$[ebp], edx

; 475  : 			curSig->CertVerifyParams.trustRootCerts = (char **) zMalloc(sizeof(char *) * trustRootItemCount);

	mov	eax, DWORD PTR _trustRootItemCount$[ebp]
	shl	eax, 2
	push	eax
	call	_malloc
	add	esp, 4
	mov	ecx, DWORD PTR _this$[ebp]
	mov	edx, DWORD PTR [ecx+12]
	mov	DWORD PTR [edx+1860], eax

; 476  : 			memset(curSig->CertVerifyParams.trustRootCerts, 0, sizeof(char *) * trustRootItemCount);

	mov	eax, DWORD PTR _trustRootItemCount$[ebp]
	shl	eax, 2
	push	eax
	push	0
	mov	ecx, DWORD PTR _this$[ebp]
	mov	edx, DWORD PTR [ecx+12]
	mov	eax, DWORD PTR [edx+1860]
	push	eax
	call	_memset
	add	esp, 12					; 0000000cH

; 477  : 			continue;

	jmp	$L207887
$L208011:

; 478  : 		}
; 479  : 
; 480  : 		if (! xmlStrcmp(curKeyName, trustedRoot)) 

	mov	ecx, DWORD PTR ?trustedRoot@CConfig@@2PBEB ; CConfig::trustedRoot
	push	ecx
	mov	edx, DWORD PTR _curKeyName$[ebp]
	push	edx
	call	_xmlStrcmp
	add	esp, 8
	test	eax, eax
	jne	$L208022

; 481  : 		{			
; 482  : 			if ((trustRootItemCount != 0) && (trustRootItemNumber < trustRootItemCount))

	cmp	DWORD PTR _trustRootItemCount$[ebp], 0
	je	$L208023
	mov	eax, DWORD PTR _trustRootItemNumber$[ebp]
	cmp	eax, DWORD PTR _trustRootItemCount$[ebp]
	jae	$L208023

; 483  : 			{
; 484  : 				dataPtr = xsDereferenceURI((char *)curKeyValue, &dataSize);

	lea	ecx, DWORD PTR _dataSize$[ebp]
	push	ecx
	mov	edx, DWORD PTR _curKeyValue$[ebp]
	push	edx
	call	_xsDereferenceURI
	add	esp, 8
	mov	DWORD PTR _dataPtr$[ebp], eax

; 485  : 				if (dataPtr != NULL)

	cmp	DWORD PTR _dataPtr$[ebp], 0
	je	$L208025

; 486  : 				{
; 487  : 					rootCertData = (BYTE *)zMalloc(dataSize + 1);

	mov	eax, DWORD PTR _dataSize$[ebp]
	add	eax, 1
	push	eax
	call	_malloc
	add	esp, 4
	mov	DWORD PTR _rootCertData$[ebp], eax

; 488  : 					if (rootCertData == NULL)

	cmp	DWORD PTR _rootCertData$[ebp], 0
	jne	$L208027

; 489  : 					{
; 490  : 						setError(curSig->SigHandle, MEMORY_FAULT);

	push	7
	mov	ecx, DWORD PTR _this$[ebp]
	mov	edx, DWORD PTR [ecx+12]
	mov	eax, DWORD PTR [edx+692]
	push	eax
	call	_setError
	add	esp, 8

; 491  : 						zFree(dataPtr);

	mov	ecx, DWORD PTR _dataPtr$[ebp]
	push	ecx
	call	_rFree
	add	esp, 4

; 492  : 						for (UINT i=0; i < trustRootItemCount; i++)

	mov	DWORD PTR _i$208028[ebp], 0
	jmp	SHORT $L208029
$L208030:
	mov	edx, DWORD PTR _i$208028[ebp]
	add	edx, 1
	mov	DWORD PTR _i$208028[ebp], edx
$L208029:
	mov	eax, DWORD PTR _i$208028[ebp]
	cmp	eax, DWORD PTR _trustRootItemCount$[ebp]
	jae	SHORT $L208031

; 493  : 						{
; 494  : 							if (curSig->CertVerifyParams.trustRootCerts[i] != NULL)

	mov	ecx, DWORD PTR _this$[ebp]
	mov	edx, DWORD PTR [ecx+12]
	mov	eax, DWORD PTR [edx+1860]
	mov	ecx, DWORD PTR _i$208028[ebp]
	cmp	DWORD PTR [eax+ecx*4], 0
	je	SHORT $L208032

; 495  : 							{
; 496  : 								zFree(curSig->CertVerifyParams.trustRootCerts[i]);

	mov	edx, DWORD PTR _this$[ebp]
	mov	eax, DWORD PTR [edx+12]
	mov	ecx, DWORD PTR [eax+1860]
	mov	edx, DWORD PTR _i$208028[ebp]
	mov	eax, DWORD PTR [ecx+edx*4]
	push	eax
	call	_rFree
	add	esp, 4

; 497  : 								curSig->CertVerifyParams.trustRootCerts[i] = NULL;

	mov	ecx, DWORD PTR _this$[ebp]
	mov	edx, DWORD PTR [ecx+12]
	mov	eax, DWORD PTR [edx+1860]
	mov	ecx, DWORD PTR _i$208028[ebp]
	mov	DWORD PTR [eax+ecx*4], 0
$L208032:

; 498  : 							}
; 499  : 						}

	jmp	SHORT $L208030
$L208031:

; 500  : 						zFree(curSig->CertVerifyParams.trustRootCerts);

	mov	edx, DWORD PTR _this$[ebp]
	mov	eax, DWORD PTR [edx+12]
	mov	ecx, DWORD PTR [eax+1860]
	push	ecx
	call	_rFree
	add	esp, 4

; 501  : 						curSig->CertVerifyParams.trustRootCerts = NULL;

	mov	edx, DWORD PTR _this$[ebp]
	mov	eax, DWORD PTR [edx+12]
	mov	DWORD PTR [eax+1860], 0

; 502  : 						curSig->CertVerifyParams.trustRootCertCount = 0;

	mov	ecx, DWORD PTR _this$[ebp]
	mov	edx, DWORD PTR [ecx+12]
	mov	DWORD PTR [edx+1864], 0

; 503  : 						trustRootItemCount = 0;

	mov	DWORD PTR _trustRootItemCount$[ebp], 0

; 504  : 						trustRootItemNumber = 0;

	mov	DWORD PTR _trustRootItemNumber$[ebp], 0

; 505  : 						continue;

	jmp	$L207887
$L208027:

; 506  : 					}
; 507  : 					memcpy(rootCertData, dataPtr, dataSize);

	mov	eax, DWORD PTR _dataSize$[ebp]
	push	eax
	mov	ecx, DWORD PTR _dataPtr$[ebp]
	push	ecx
	mov	edx, DWORD PTR _rootCertData$[ebp]
	push	edx
	call	_memcpy
	add	esp, 12					; 0000000cH

; 508  : 					*(rootCertData + dataSize) = '\0';

	mov	eax, DWORD PTR _rootCertData$[ebp]
	add	eax, DWORD PTR _dataSize$[ebp]
	mov	BYTE PTR [eax], 0

; 509  : 					for (UINT i=0; i < dataSize; i++)

	mov	DWORD PTR _i$208033[ebp], 0
	jmp	SHORT $L208034
$L208035:
	mov	ecx, DWORD PTR _i$208033[ebp]
	add	ecx, 1
	mov	DWORD PTR _i$208033[ebp], ecx
$L208034:
	mov	edx, DWORD PTR _i$208033[ebp]
	cmp	edx, DWORD PTR _dataSize$[ebp]
	jae	$L208036

; 510  : 					{
; 511  : 						if (strchr((const char *)Base64Chars, *(rootCertData + i)) == NULL)

	mov	eax, DWORD PTR _rootCertData$[ebp]
	add	eax, DWORD PTR _i$208033[ebp]
	movzx	ecx, BYTE PTR [eax]
	push	ecx
	push	OFFSET FLAT:?Base64Chars@@3PAEA		; Base64Chars
	call	_strchr
	add	esp, 8
	test	eax, eax
	jne	$L208038

; 512  : 						{
; 513  : 							if ((*(rootCertData + i) == 0x0d) ||
; 514  : 								(*(rootCertData + i) == 0x0a) ||
; 515  : 								(*(rootCertData + i) == 0x20))

	mov	edx, DWORD PTR _rootCertData$[ebp]
	add	edx, DWORD PTR _i$208033[ebp]
	movzx	eax, BYTE PTR [edx]
	cmp	eax, 13					; 0000000dH
	je	SHORT $L208040
	mov	ecx, DWORD PTR _rootCertData$[ebp]
	add	ecx, DWORD PTR _i$208033[ebp]
	movzx	edx, BYTE PTR [ecx]
	cmp	edx, 10					; 0000000aH
	je	SHORT $L208040
	mov	eax, DWORD PTR _rootCertData$[ebp]
	add	eax, DWORD PTR _i$208033[ebp]
	movzx	ecx, BYTE PTR [eax]
	cmp	ecx, 32					; 00000020H
	jne	SHORT $L208039
$L208040:

; 516  : 								continue;

	jmp	SHORT $L208035
$L208039:

; 517  : 							// The data is not base64 encoded, so lets encode it now
; 518  : 							encodedDataSize = base64encodeSize(dataSize);

	mov	edx, DWORD PTR _dataSize$[ebp]
	push	edx
	call	_base64encodeSize
	add	esp, 4
	mov	DWORD PTR _encodedDataSize$[ebp], eax

; 519  : 							encodedDataPtr = (BYTE *)zMalloc(encodedDataSize + 1);

	mov	eax, DWORD PTR _encodedDataSize$[ebp]
	add	eax, 1
	push	eax
	call	_malloc
	add	esp, 4
	mov	DWORD PTR _encodedDataPtr$[ebp], eax

; 520  : 							encodedDataSize = base64encode(rootCertData, dataSize, encodedDataPtr, encodedDataSize + 1);

	mov	ecx, DWORD PTR _encodedDataSize$[ebp]
	add	ecx, 1
	push	ecx
	mov	edx, DWORD PTR _encodedDataPtr$[ebp]
	push	edx
	mov	eax, DWORD PTR _dataSize$[ebp]
	push	eax
	mov	ecx, DWORD PTR _rootCertData$[ebp]
	push	ecx
	call	_base64encode
	add	esp, 16					; 00000010H
	mov	DWORD PTR _encodedDataSize$[ebp], eax

; 521  : 							zFree(rootCertData);

	mov	edx, DWORD PTR _rootCertData$[ebp]
	push	edx
	call	_rFree
	add	esp, 4

; 522  : 							rootCertData = encodedDataPtr;

	mov	eax, DWORD PTR _encodedDataPtr$[ebp]
	mov	DWORD PTR _rootCertData$[ebp], eax

; 523  : 							break;

	jmp	SHORT $L208036
$L208038:

; 524  : 						}
; 525  : 					}

	jmp	$L208035
$L208036:

; 526  : 					curSig->CertVerifyParams.trustRootCerts[trustRootItemNumber] = (LPSTR)rootCertData;

	mov	ecx, DWORD PTR _this$[ebp]
	mov	edx, DWORD PTR [ecx+12]
	mov	eax, DWORD PTR [edx+1860]
	mov	ecx, DWORD PTR _trustRootItemNumber$[ebp]
	mov	edx, DWORD PTR _rootCertData$[ebp]
	mov	DWORD PTR [eax+ecx*4], edx

; 527  : 					zFree(dataPtr);

	mov	eax, DWORD PTR _dataPtr$[ebp]
	push	eax
	call	_rFree
	add	esp, 4

; 528  : 					trustRootItemNumber++;

	mov	ecx, DWORD PTR _trustRootItemNumber$[ebp]
	add	ecx, 1
	mov	DWORD PTR _trustRootItemNumber$[ebp], ecx

; 529  : 					continue;

	jmp	$L207887
$L208025:

; 530  : 				}
; 531  : 				else
; 532  : 				{
; 533  : 					setError(curSig->SigHandle, FILE_NOT_FOUND);

	push	27					; 0000001bH
	mov	edx, DWORD PTR _this$[ebp]
	mov	eax, DWORD PTR [edx+12]
	mov	ecx, DWORD PTR [eax+692]
	push	ecx
	call	_setError
	add	esp, 8

; 534  : 					for (UINT i=0; i < trustRootItemCount; i++)

	mov	DWORD PTR _i$208044[ebp], 0
	jmp	SHORT $L208045
$L208046:
	mov	edx, DWORD PTR _i$208044[ebp]
	add	edx, 1
	mov	DWORD PTR _i$208044[ebp], edx
$L208045:
	mov	eax, DWORD PTR _i$208044[ebp]
	cmp	eax, DWORD PTR _trustRootItemCount$[ebp]
	jae	SHORT $L208047

; 535  : 					{
; 536  : 						if (curSig->CertVerifyParams.trustRootCerts[i] != NULL)

	mov	ecx, DWORD PTR _this$[ebp]
	mov	edx, DWORD PTR [ecx+12]
	mov	eax, DWORD PTR [edx+1860]
	mov	ecx, DWORD PTR _i$208044[ebp]
	cmp	DWORD PTR [eax+ecx*4], 0
	je	SHORT $L208048

; 537  : 						{
; 538  : 							zFree(curSig->CertVerifyParams.trustRootCerts[i]);

	mov	edx, DWORD PTR _this$[ebp]
	mov	eax, DWORD PTR [edx+12]
	mov	ecx, DWORD PTR [eax+1860]
	mov	edx, DWORD PTR _i$208044[ebp]
	mov	eax, DWORD PTR [ecx+edx*4]
	push	eax
	call	_rFree
	add	esp, 4

; 539  : 							curSig->CertVerifyParams.trustRootCerts[i] = NULL;

	mov	ecx, DWORD PTR _this$[ebp]
	mov	edx, DWORD PTR [ecx+12]
	mov	eax, DWORD PTR [edx+1860]
	mov	ecx, DWORD PTR _i$208044[ebp]
	mov	DWORD PTR [eax+ecx*4], 0
$L208048:

; 540  : 						}
; 541  : 					}

	jmp	SHORT $L208046
$L208047:

; 542  : 					zFree(curSig->CertVerifyParams.trustRootCerts);

	mov	edx, DWORD PTR _this$[ebp]
	mov	eax, DWORD PTR [edx+12]
	mov	ecx, DWORD PTR [eax+1860]
	push	ecx
	call	_rFree
	add	esp, 4

; 543  : 					curSig->CertVerifyParams.trustRootCerts = NULL;

	mov	edx, DWORD PTR _this$[ebp]
	mov	eax, DWORD PTR [edx+12]
	mov	DWORD PTR [eax+1860], 0

; 544  : 					curSig->CertVerifyParams.trustRootCertCount = 0;

	mov	ecx, DWORD PTR _this$[ebp]
	mov	edx, DWORD PTR [ecx+12]
	mov	DWORD PTR [edx+1864], 0

; 545  : 					trustRootItemCount = 0;

	mov	DWORD PTR _trustRootItemCount$[ebp], 0

; 546  : 					trustRootItemNumber = 0;

	mov	DWORD PTR _trustRootItemNumber$[ebp], 0

; 547  : 					continue;

	jmp	$L207887
$L208023:

; 548  : 				}
; 549  : 			}
; 550  : 			else
; 551  : 			{
; 552  : 				trustRootItemNumber = 0;

	mov	DWORD PTR _trustRootItemNumber$[ebp], 0

; 553  : 				trustRootItemCount = 0;

	mov	DWORD PTR _trustRootItemCount$[ebp], 0

; 554  : 			}
; 555  : 			continue;

	jmp	$L207887
$L208022:

; 556  : 		}
; 557  : 
; 558  : 		if (! xmlStrcmp(curKeyName, cRLLocationCount)) 

	mov	eax, DWORD PTR ?cRLLocationCount@CConfig@@2PBEB ; CConfig::cRLLocationCount
	push	eax
	mov	ecx, DWORD PTR _curKeyName$[ebp]
	push	ecx
	call	_xmlStrcmp
	add	esp, 8
	test	eax, eax
	jne	$L208050

; 559  : 		{			
; 560  : 			if (curSig->CertVerifyParams.altCrlCount != 0)

	mov	edx, DWORD PTR _this$[ebp]
	mov	eax, DWORD PTR [edx+12]
	cmp	DWORD PTR [eax+1836], 0
	je	SHORT $L208051

; 561  : 			{
; 562  : 				for (unsigned int i=0; i < curSig->CertVerifyParams.altCrlCount; i++)

	mov	DWORD PTR _i$208052[ebp], 0
	jmp	SHORT $L208053
$L208054:
	mov	ecx, DWORD PTR _i$208052[ebp]
	add	ecx, 1
	mov	DWORD PTR _i$208052[ebp], ecx
$L208053:
	mov	edx, DWORD PTR _this$[ebp]
	mov	eax, DWORD PTR [edx+12]
	mov	ecx, DWORD PTR _i$208052[ebp]
	cmp	ecx, DWORD PTR [eax+1836]
	jae	SHORT $L208055

; 563  : 					zFree(curSig->CertVerifyParams.crlAltUrl[i]);

	mov	edx, DWORD PTR _this$[ebp]
	mov	eax, DWORD PTR [edx+12]
	mov	ecx, DWORD PTR [eax+1832]
	mov	edx, DWORD PTR _i$208052[ebp]
	mov	eax, DWORD PTR [ecx+edx*4]
	push	eax
	call	_rFree
	add	esp, 4
	jmp	SHORT $L208054
$L208055:

; 564  : 				zFree(curSig->CertVerifyParams.crlAltUrl);

	mov	ecx, DWORD PTR _this$[ebp]
	mov	edx, DWORD PTR [ecx+12]
	mov	eax, DWORD PTR [edx+1832]
	push	eax
	call	_rFree
	add	esp, 4
$L208051:

; 565  : 			}
; 566  : 			curSig->CertVerifyParams.altCrlCount = (UINT)(atoi((const char *)curKeyValue));

	mov	ecx, DWORD PTR _curKeyValue$[ebp]
	push	ecx
	call	_atoi
	add	esp, 4
	mov	edx, DWORD PTR _this$[ebp]
	mov	ecx, DWORD PTR [edx+12]
	mov	DWORD PTR [ecx+1836], eax

; 567  : 			crlItemCount = curSig->CertVerifyParams.altCrlCount;

	mov	edx, DWORD PTR _this$[ebp]
	mov	eax, DWORD PTR [edx+12]
	mov	ecx, DWORD PTR [eax+1836]
	mov	DWORD PTR _crlItemCount$[ebp], ecx

; 568  : 			curSig->CertVerifyParams.crlAltUrl = (char **) zMalloc(sizeof(char *) * crlItemCount);

	mov	edx, DWORD PTR _crlItemCount$[ebp]
	shl	edx, 2
	push	edx
	call	_malloc
	add	esp, 4
	mov	ecx, DWORD PTR _this$[ebp]
	mov	edx, DWORD PTR [ecx+12]
	mov	DWORD PTR [edx+1832], eax

; 569  : 			memset(curSig->CertVerifyParams.crlAltUrl, 0, sizeof(char *) * crlItemCount);

	mov	eax, DWORD PTR _crlItemCount$[ebp]
	shl	eax, 2
	push	eax
	push	0
	mov	ecx, DWORD PTR _this$[ebp]
	mov	edx, DWORD PTR [ecx+12]
	mov	eax, DWORD PTR [edx+1832]
	push	eax
	call	_memset
	add	esp, 12					; 0000000cH

; 570  : 			continue;

	jmp	$L207887
$L208050:

; 571  : 		}
; 572  : 
; 573  : 		if (! xmlStrcmp(curKeyName, cRLLocation)) 

	mov	ecx, DWORD PTR ?cRLLocation@CConfig@@2PBEB ; CConfig::cRLLocation
	push	ecx
	mov	edx, DWORD PTR _curKeyName$[ebp]
	push	edx
	call	_xmlStrcmp
	add	esp, 8
	test	eax, eax
	jne	SHORT $L208061

; 574  : 		{			
; 575  : 			if ((crlItemCount != 0) && (crlItemNumber < crlItemCount))

	cmp	DWORD PTR _crlItemCount$[ebp], 0
	je	SHORT $L208062
	mov	eax, DWORD PTR _crlItemNumber$[ebp]
	cmp	eax, DWORD PTR _crlItemCount$[ebp]
	jae	SHORT $L208062

; 576  : 			{
; 577  : 				curSig->CertVerifyParams.crlAltUrl[crlItemNumber] = (LPSTR)zMalloc(strlen((const char *)curKeyValue) + 1);

	mov	ecx, DWORD PTR _curKeyValue$[ebp]
	push	ecx
	call	_strlen
	add	esp, 4
	add	eax, 1
	push	eax
	call	_malloc
	add	esp, 4
	mov	edx, DWORD PTR _this$[ebp]
	mov	ecx, DWORD PTR [edx+12]
	mov	edx, DWORD PTR [ecx+1832]
	mov	ecx, DWORD PTR _crlItemNumber$[ebp]
	mov	DWORD PTR [edx+ecx*4], eax

; 578  : 				strcpy(curSig->CertVerifyParams.crlAltUrl[crlItemNumber], (const char *)curKeyValue);

	mov	edx, DWORD PTR _curKeyValue$[ebp]
	push	edx
	mov	eax, DWORD PTR _this$[ebp]
	mov	ecx, DWORD PTR [eax+12]
	mov	edx, DWORD PTR [ecx+1832]
	mov	eax, DWORD PTR _crlItemNumber$[ebp]
	mov	ecx, DWORD PTR [edx+eax*4]
	push	ecx
	call	_strcpy
	add	esp, 8

; 579  : 				crlItemNumber++;

	mov	edx, DWORD PTR _crlItemNumber$[ebp]
	add	edx, 1
	mov	DWORD PTR _crlItemNumber$[ebp], edx

; 580  : 			}
; 581  : 			else

	jmp	SHORT $L208066
$L208062:

; 582  : 			{
; 583  : 				crlItemCount = 0;

	mov	DWORD PTR _crlItemCount$[ebp], 0

; 584  : 				crlItemNumber = 0;

	mov	DWORD PTR _crlItemNumber$[ebp], 0
$L208066:

; 585  : 			}
; 586  : 			continue;

	jmp	$L207887
$L208061:

; 587  : 		}
; 588  : 
; 589  : 
; 590  : 		if (! xmlStrcmp(curKeyName, certificatePolicyCount)) 

	mov	eax, DWORD PTR ?certificatePolicyCount@CConfig@@2PBEB ; CConfig::certificatePolicyCount
	push	eax
	mov	ecx, DWORD PTR _curKeyName$[ebp]
	push	ecx
	call	_xmlStrcmp
	add	esp, 8
	test	eax, eax
	jne	$L208067

; 591  : 		{			
; 592  : 			if (curSig->CertVerifyParams.userPolicyCount != 0)

	mov	edx, DWORD PTR _this$[ebp]
	mov	eax, DWORD PTR [edx+12]
	cmp	DWORD PTR [eax+1852], 0
	je	SHORT $L208068

; 593  : 			{
; 594  : 				for (unsigned int i=0; i < curSig->CertVerifyParams.userPolicyCount; i++)

	mov	DWORD PTR _i$208069[ebp], 0
	jmp	SHORT $L208070
$L208071:
	mov	ecx, DWORD PTR _i$208069[ebp]
	add	ecx, 1
	mov	DWORD PTR _i$208069[ebp], ecx
$L208070:
	mov	edx, DWORD PTR _this$[ebp]
	mov	eax, DWORD PTR [edx+12]
	mov	ecx, DWORD PTR _i$208069[ebp]
	cmp	ecx, DWORD PTR [eax+1852]
	jae	SHORT $L208072

; 595  : 					zFree(curSig->CertVerifyParams.userPolicySet[i]);

	mov	edx, DWORD PTR _this$[ebp]
	mov	eax, DWORD PTR [edx+12]
	mov	ecx, DWORD PTR [eax+1848]
	mov	edx, DWORD PTR _i$208069[ebp]
	mov	eax, DWORD PTR [ecx+edx*4]
	push	eax
	call	_rFree
	add	esp, 4
	jmp	SHORT $L208071
$L208072:

; 596  : 				zFree(curSig->CertVerifyParams.userPolicySet);

	mov	ecx, DWORD PTR _this$[ebp]
	mov	edx, DWORD PTR [ecx+12]
	mov	eax, DWORD PTR [edx+1848]
	push	eax
	call	_rFree
	add	esp, 4
$L208068:

; 597  : 			}
; 598  : 			curSig->CertVerifyParams.userPolicyCount = (UINT)(atoi((const char *)curKeyValue));

	mov	ecx, DWORD PTR _curKeyValue$[ebp]
	push	ecx
	call	_atoi
	add	esp, 4
	mov	edx, DWORD PTR _this$[ebp]
	mov	ecx, DWORD PTR [edx+12]
	mov	DWORD PTR [ecx+1852], eax

; 599  : 			policyItemCount = curSig->CertVerifyParams.userPolicyCount;

	mov	edx, DWORD PTR _this$[ebp]
	mov	eax, DWORD PTR [edx+12]
	mov	ecx, DWORD PTR [eax+1852]
	mov	DWORD PTR _policyItemCount$[ebp], ecx

; 600  : 			curSig->CertVerifyParams.userPolicySet = (char **) zMalloc(sizeof(char *) * policyItemCount);

	mov	edx, DWORD PTR _policyItemCount$[ebp]
	shl	edx, 2
	push	edx
	call	_malloc
	add	esp, 4
	mov	ecx, DWORD PTR _this$[ebp]
	mov	edx, DWORD PTR [ecx+12]
	mov	DWORD PTR [edx+1848], eax

; 601  : 			memset(curSig->CertVerifyParams.userPolicySet, 0, sizeof(char *) * policyItemCount);

	mov	eax, DWORD PTR _policyItemCount$[ebp]
	shl	eax, 2
	push	eax
	push	0
	mov	ecx, DWORD PTR _this$[ebp]
	mov	edx, DWORD PTR [ecx+12]
	mov	eax, DWORD PTR [edx+1848]
	push	eax
	call	_memset
	add	esp, 12					; 0000000cH

; 602  : 			continue;

	jmp	$L207887
$L208067:

; 603  : 		}
; 604  : 
; 605  : 		if (! xmlStrcmp(curKeyName, certificatePolicy)) 

	mov	ecx, DWORD PTR ?certificatePolicy@CConfig@@2PBEB ; CConfig::certificatePolicy
	push	ecx
	mov	edx, DWORD PTR _curKeyName$[ebp]
	push	edx
	call	_xmlStrcmp
	add	esp, 8
	test	eax, eax
	jne	SHORT $L208078

; 606  : 		{			
; 607  : 			if ((policyItemCount != 0) && (policyItemNumber < policyItemCount))

	cmp	DWORD PTR _policyItemCount$[ebp], 0
	je	SHORT $L208079
	mov	eax, DWORD PTR _policyItemNumber$[ebp]
	cmp	eax, DWORD PTR _policyItemCount$[ebp]
	jae	SHORT $L208079

; 608  : 			{
; 609  : 				curSig->CertVerifyParams.userPolicySet[policyItemNumber] = (LPSTR)zMalloc(strlen((const char *)curKeyValue) + 1);

	mov	ecx, DWORD PTR _curKeyValue$[ebp]
	push	ecx
	call	_strlen
	add	esp, 4
	add	eax, 1
	push	eax
	call	_malloc
	add	esp, 4
	mov	edx, DWORD PTR _this$[ebp]
	mov	ecx, DWORD PTR [edx+12]
	mov	edx, DWORD PTR [ecx+1848]
	mov	ecx, DWORD PTR _policyItemNumber$[ebp]
	mov	DWORD PTR [edx+ecx*4], eax

; 610  : 				strcpy(curSig->CertVerifyParams.userPolicySet[policyItemNumber], (const char *)curKeyValue);

	mov	edx, DWORD PTR _curKeyValue$[ebp]
	push	edx
	mov	eax, DWORD PTR _this$[ebp]
	mov	ecx, DWORD PTR [eax+12]
	mov	edx, DWORD PTR [ecx+1848]
	mov	eax, DWORD PTR _policyItemNumber$[ebp]
	mov	ecx, DWORD PTR [edx+eax*4]
	push	ecx
	call	_strcpy
	add	esp, 8

; 611  : 				policyItemNumber++;

	mov	edx, DWORD PTR _policyItemNumber$[ebp]
	add	edx, 1
	mov	DWORD PTR _policyItemNumber$[ebp], edx

; 612  : 			}
; 613  : 			else

	jmp	SHORT $L208083
$L208079:

; 614  : 			{
; 615  : 				policyItemCount = 0;

	mov	DWORD PTR _policyItemCount$[ebp], 0

; 616  : 				policyItemNumber = 0;

	mov	DWORD PTR _policyItemNumber$[ebp], 0
$L208083:

; 617  : 			}
; 618  : 			continue;

	jmp	$L207887
$L208078:

; 619  : 		}
; 620  : 
; 621  : 		if (! xmlStrcmp(curKeyName, allowedCertIssuerCount)) 

	mov	eax, DWORD PTR ?allowedCertIssuerCount@CConfig@@2PBEB ; CConfig::allowedCertIssuerCount
	push	eax
	mov	ecx, DWORD PTR _curKeyName$[ebp]
	push	ecx
	call	_xmlStrcmp
	add	esp, 8
	test	eax, eax
	jne	$L208084

; 622  : 		{			
; 623  : 			if (curSig->allowedCertIssuerCount != 0)

	mov	edx, DWORD PTR _this$[ebp]
	mov	eax, DWORD PTR [edx+12]
	cmp	DWORD PTR [eax+3332], 0
	je	SHORT $L208085

; 624  : 			{
; 625  : 				for (unsigned int i=0; i < curSig->allowedCertIssuerCount; i++)

	mov	DWORD PTR _i$208086[ebp], 0
	jmp	SHORT $L208087
$L208088:
	mov	ecx, DWORD PTR _i$208086[ebp]
	add	ecx, 1
	mov	DWORD PTR _i$208086[ebp], ecx
$L208087:
	mov	edx, DWORD PTR _this$[ebp]
	mov	eax, DWORD PTR [edx+12]
	mov	ecx, DWORD PTR _i$208086[ebp]
	cmp	ecx, DWORD PTR [eax+3332]
	jae	SHORT $L208089

; 626  : 					SysFreeString(curSig->allowedCertIssuerNames[i]);

	mov	edx, DWORD PTR _this$[ebp]
	mov	eax, DWORD PTR [edx+12]
	mov	ecx, DWORD PTR [eax+3328]
	mov	esi, esp
	mov	edx, DWORD PTR _i$208086[ebp]
	mov	eax, DWORD PTR [ecx+edx*4]
	push	eax
	call	DWORD PTR __imp__SysFreeString@4
	cmp	esi, esp
	call	__RTC_CheckEsp
	jmp	SHORT $L208088
$L208089:

; 627  : 				zFree(curSig->allowedCertIssuerNames);

	mov	ecx, DWORD PTR _this$[ebp]
	mov	edx, DWORD PTR [ecx+12]
	mov	eax, DWORD PTR [edx+3328]
	push	eax
	call	_rFree
	add	esp, 4
$L208085:

; 628  : 			}
; 629  : 			curSig->allowedCertIssuerCount = (UINT)(atoi((const char *)curKeyValue));

	mov	ecx, DWORD PTR _curKeyValue$[ebp]
	push	ecx
	call	_atoi
	add	esp, 4
	mov	edx, DWORD PTR _this$[ebp]
	mov	ecx, DWORD PTR [edx+12]
	mov	DWORD PTR [ecx+3332], eax

; 630  : 			allowedCertIssuerItemCount = curSig->allowedCertIssuerCount;

	mov	edx, DWORD PTR _this$[ebp]
	mov	eax, DWORD PTR [edx+12]
	mov	ecx, DWORD PTR [eax+3332]
	mov	DWORD PTR _allowedCertIssuerItemCount$[ebp], ecx

; 631  : 			curSig->allowedCertIssuerNames = (LPWSTR *) zMalloc(sizeof(WCHAR *) * allowedCertIssuerItemCount);

	mov	edx, DWORD PTR _allowedCertIssuerItemCount$[ebp]
	shl	edx, 2
	push	edx
	call	_malloc
	add	esp, 4
	mov	ecx, DWORD PTR _this$[ebp]
	mov	edx, DWORD PTR [ecx+12]
	mov	DWORD PTR [edx+3328], eax

; 632  : 			memset(curSig->allowedCertIssuerNames, 0, sizeof(char *) * allowedCertIssuerItemCount);

	mov	eax, DWORD PTR _allowedCertIssuerItemCount$[ebp]
	shl	eax, 2
	push	eax
	push	0
	mov	ecx, DWORD PTR _this$[ebp]
	mov	edx, DWORD PTR [ecx+12]
	mov	eax, DWORD PTR [edx+3328]
	push	eax
	call	_memset
	add	esp, 12					; 0000000cH

; 633  : 			continue;

	jmp	$L207887
$L208084:

; 634  : 		}
; 635  : 
; 636  : 		if (! xmlStrcmp(curKeyName, allowedCertIssuerName)) 

	mov	ecx, DWORD PTR ?allowedCertIssuerName@CConfig@@2PBEB ; CConfig::allowedCertIssuerName
	push	ecx
	mov	edx, DWORD PTR _curKeyName$[ebp]
	push	edx
	call	_xmlStrcmp
	add	esp, 8
	test	eax, eax
	jne	$L208095

; 637  : 		{			
; 638  : 			unsigned char *utf16CharStr=NULL;

	mov	DWORD PTR _utf16CharStr$208096[ebp], 0

; 639  : 			int utf16ByteLen=0, utf8ByteLen=0;

	mov	DWORD PTR _utf16ByteLen$208097[ebp], 0
	mov	DWORD PTR _utf8ByteLen$208098[ebp], 0

; 640  : 			utf8ByteLen = strlen((const char *)curKeyValue);

	mov	eax, DWORD PTR _curKeyValue$[ebp]
	push	eax
	call	_strlen
	add	esp, 4
	mov	DWORD PTR _utf8ByteLen$208098[ebp], eax

; 641  : 			utf16ByteLen = utf8ByteLen * 2;

	mov	ecx, DWORD PTR _utf8ByteLen$208098[ebp]
	shl	ecx, 1
	mov	DWORD PTR _utf16ByteLen$208097[ebp], ecx

; 642  : 			utf16CharStr = (unsigned char *)zMalloc(utf16ByteLen);

	mov	edx, DWORD PTR _utf16ByteLen$208097[ebp]
	push	edx
	call	_malloc
	add	esp, 4
	mov	DWORD PTR _utf16CharStr$208096[ebp], eax

; 643  : 			UTF8ToUTF16LE(utf16CharStr, &utf16ByteLen, (const unsigned char*)curKeyValue, &utf8ByteLen);

	lea	eax, DWORD PTR _utf8ByteLen$208098[ebp]
	push	eax
	mov	ecx, DWORD PTR _curKeyValue$[ebp]
	push	ecx
	lea	edx, DWORD PTR _utf16ByteLen$208097[ebp]
	push	edx
	mov	eax, DWORD PTR _utf16CharStr$208096[ebp]
	push	eax
	call	?UTF8ToUTF16LE@@YAHPAEPAHPBE1@Z		; UTF8ToUTF16LE
	add	esp, 16					; 00000010H

; 644  : 			BSTR bstrCurKeyValue = SysAllocStringByteLen((LPCSTR)utf16CharStr, utf16ByteLen);

	mov	esi, esp
	mov	ecx, DWORD PTR _utf16ByteLen$208097[ebp]
	push	ecx
	mov	edx, DWORD PTR _utf16CharStr$208096[ebp]
	push	edx
	call	DWORD PTR __imp__SysAllocStringByteLen@8
	cmp	esi, esp
	call	__RTC_CheckEsp
	mov	DWORD PTR _bstrCurKeyValue$208102[ebp], eax

; 645  : 			zFree(utf16CharStr);

	mov	eax, DWORD PTR _utf16CharStr$208096[ebp]
	push	eax
	call	_rFree
	add	esp, 4

; 646  : 			if ((allowedCertIssuerItemCount != 0) && (allowedCertIssuerItemNumber < allowedCertIssuerItemCount))

	cmp	DWORD PTR _allowedCertIssuerItemCount$[ebp], 0
	je	SHORT $L208104
	mov	ecx, DWORD PTR _allowedCertIssuerItemNumber$[ebp]
	cmp	ecx, DWORD PTR _allowedCertIssuerItemCount$[ebp]
	jae	SHORT $L208104

; 647  : 			{
; 648  : 				curSig->allowedCertIssuerNames[allowedCertIssuerItemNumber] = bstrCurKeyValue;

	mov	edx, DWORD PTR _this$[ebp]
	mov	eax, DWORD PTR [edx+12]
	mov	ecx, DWORD PTR [eax+3328]
	mov	edx, DWORD PTR _allowedCertIssuerItemNumber$[ebp]
	mov	eax, DWORD PTR _bstrCurKeyValue$208102[ebp]
	mov	DWORD PTR [ecx+edx*4], eax

; 649  : 				allowedCertIssuerItemNumber++;

	mov	ecx, DWORD PTR _allowedCertIssuerItemNumber$[ebp]
	add	ecx, 1
	mov	DWORD PTR _allowedCertIssuerItemNumber$[ebp], ecx

; 650  : 			}
; 651  : 			else

	jmp	SHORT $L208105
$L208104:

; 652  : 			{
; 653  : 				allowedCertIssuerItemCount = 0;

	mov	DWORD PTR _allowedCertIssuerItemCount$[ebp], 0

; 654  : 				allowedCertIssuerItemNumber = 0;

	mov	DWORD PTR _allowedCertIssuerItemNumber$[ebp], 0

; 655  : 				SysFreeString(bstrCurKeyValue);

	mov	esi, esp
	mov	edx, DWORD PTR _bstrCurKeyValue$208102[ebp]
	push	edx
	call	DWORD PTR __imp__SysFreeString@4
	cmp	esi, esp
	call	__RTC_CheckEsp
$L208105:

; 656  : 			}
; 657  : 			continue;

	jmp	$L207887
$L208095:

; 658  : 		}
; 659  : #ifdef WIN32
; 660  : 		if (! xmlStrcmp(curKeyName,crlCacheDbConnectionString)) 

	mov	eax, DWORD PTR ?crlCacheDbConnectionString@CConfig@@2PBEB ; CConfig::crlCacheDbConnectionString
	push	eax
	mov	ecx, DWORD PTR _curKeyName$[ebp]
	push	ecx
	call	_xmlStrcmp
	add	esp, 8
	test	eax, eax
	jne	SHORT $L208106

; 661  : 		{			
; 662  : 			curSig->CRLCacheDbConnectionString = A2WBSTR((LPCSTR)curKeyValue);

	push	-1
	mov	edx, DWORD PTR _curKeyValue$[ebp]
	push	edx
	call	?A2WBSTR@@YAPAGPBDH@Z			; A2WBSTR
	add	esp, 8
	push	eax
	mov	eax, DWORD PTR _this$[ebp]
	mov	ecx, DWORD PTR [eax+12]
	add	ecx, 3372				; 00000d2cH
	call	??4CComBSTR@ATL@@QAEAAV01@PBG@Z		; ATL::CComBSTR::operator=

; 663  : 			continue;

	jmp	$L207887
$L208106:

; 664  : 		}
; 665  : 		if (! xmlStrcmp(curKeyName,useCRLCache)) 

	mov	ecx, DWORD PTR ?useCRLCache@CConfig@@2PBEB ; CConfig::useCRLCache
	push	ecx
	mov	edx, DWORD PTR _curKeyName$[ebp]
	push	edx
	call	_xmlStrcmp
	add	esp, 8
	test	eax, eax
	jne	$L208108

; 666  : 		{			
; 667  : 			BOOL newVal = (BOOL)(atoi((const char *)curKeyValue));

	mov	eax, DWORD PTR _curKeyValue$[ebp]
	push	eax
	call	_atoi
	add	esp, 4
	mov	DWORD PTR _newVal$208109[ebp], eax

; 668  : 			if (curSig->CertVerifyParams.pCrlCache != NULL)

	mov	ecx, DWORD PTR _this$[ebp]
	mov	edx, DWORD PTR [ecx+12]
	cmp	DWORD PTR [edx+1828], 0
	je	$L208112

; 669  : 			{
; 670  : 				delete curSig->CertVerifyParams.pCrlCache;

	mov	eax, DWORD PTR _this$[ebp]
	mov	ecx, DWORD PTR [eax+12]
	mov	edx, DWORD PTR [ecx+1828]
	mov	DWORD PTR $T211764[ebp], edx
	mov	eax, DWORD PTR $T211764[ebp]
	mov	DWORD PTR $T211763[ebp], eax
	cmp	DWORD PTR $T211763[ebp], 0
	je	SHORT $L211765
	push	1
	mov	ecx, DWORD PTR $T211763[ebp]
	call	??_GCRLCache@@QAEPAXI@Z
	mov	DWORD PTR tv1004[ebp], eax
	jmp	SHORT $L211766
$L211765:
	mov	DWORD PTR tv1004[ebp], 0
$L211766:

; 671  : 				if (newVal == FALSE)

	cmp	DWORD PTR _newVal$208109[ebp], 0
	jne	SHORT $L208115

; 672  : 				{
; 673  : 					curSig->CertVerifyParams.pCrlCache = NULL;

	mov	ecx, DWORD PTR _this$[ebp]
	mov	edx, DWORD PTR [ecx+12]
	mov	DWORD PTR [edx+1828], 0

; 674  : 				}
; 675  : 				else

	jmp	$L208116
$L208115:

; 676  : 				{
; 677  : 					curSig->CertVerifyParams.pCrlCache = new CRLCache(curSig->CRLCacheDbConnectionString.m_str, curSig->SigHandle);

	push	12					; 0000000cH
	call	??2@YAPAXI@Z				; operator new
	add	esp, 4
	mov	DWORD PTR $T211768[ebp], eax
	mov	DWORD PTR __$EHRec$[ebp+8], 1
	cmp	DWORD PTR $T211768[ebp], 0
	je	SHORT $L211769
	mov	eax, DWORD PTR _this$[ebp]
	mov	ecx, DWORD PTR [eax+12]
	mov	edx, DWORD PTR [ecx+692]
	push	edx
	mov	eax, DWORD PTR _this$[ebp]
	mov	ecx, DWORD PTR [eax+12]
	mov	edx, DWORD PTR [ecx+3372]
	push	edx
	mov	ecx, DWORD PTR $T211768[ebp]
	call	??0CRLCache@@QAE@PAGPAU_GLOBAL_SIG@@@Z	; CRLCache::CRLCache
	mov	DWORD PTR tv1026[ebp], eax
	jmp	SHORT $L211770
$L211769:
	mov	DWORD PTR tv1026[ebp], 0
$L211770:
	mov	eax, DWORD PTR tv1026[ebp]
	mov	DWORD PTR $T211767[ebp], eax
	mov	DWORD PTR __$EHRec$[ebp+8], -1
	mov	ecx, DWORD PTR _this$[ebp]
	mov	edx, DWORD PTR [ecx+12]
	mov	eax, DWORD PTR $T211767[ebp]
	mov	DWORD PTR [edx+1828], eax

; 678  : 					curSig->CertVerifyParams.pCrlCache->SetCRLTimeOut(curSig->crlCacheTimeoutInMinutes);

	mov	ecx, DWORD PTR _this$[ebp]
	mov	edx, DWORD PTR [ecx+12]
	mov	eax, DWORD PTR [edx+3376]
	push	eax
	mov	ecx, DWORD PTR _this$[ebp]
	mov	edx, DWORD PTR [ecx+12]
	mov	ecx, DWORD PTR [edx+1828]
	call	?SetCRLTimeOut@CRLCache@@QAEXK@Z	; CRLCache::SetCRLTimeOut
$L208116:

; 679  : 				}
; 680  : 			}
; 681  : 			else

	jmp	$L208121
$L208112:

; 682  : 				if (newVal != FALSE)

	cmp	DWORD PTR _newVal$208109[ebp], 0
	je	$L208121

; 683  : 				{
; 684  : 					curSig->CertVerifyParams.pCrlCache = new CRLCache(curSig->CRLCacheDbConnectionString.m_str, curSig->SigHandle);

	push	12					; 0000000cH
	call	??2@YAPAXI@Z				; operator new
	add	esp, 4
	mov	DWORD PTR $T211772[ebp], eax
	mov	DWORD PTR __$EHRec$[ebp+8], 2
	cmp	DWORD PTR $T211772[ebp], 0
	je	SHORT $L211773
	mov	eax, DWORD PTR _this$[ebp]
	mov	ecx, DWORD PTR [eax+12]
	mov	edx, DWORD PTR [ecx+692]
	push	edx
	mov	eax, DWORD PTR _this$[ebp]
	mov	ecx, DWORD PTR [eax+12]
	mov	edx, DWORD PTR [ecx+3372]
	push	edx
	mov	ecx, DWORD PTR $T211772[ebp]
	call	??0CRLCache@@QAE@PAGPAU_GLOBAL_SIG@@@Z	; CRLCache::CRLCache
	mov	DWORD PTR tv1052[ebp], eax
	jmp	SHORT $L211774
$L211773:
	mov	DWORD PTR tv1052[ebp], 0
$L211774:
	mov	eax, DWORD PTR tv1052[ebp]
	mov	DWORD PTR $T211771[ebp], eax
	mov	DWORD PTR __$EHRec$[ebp+8], -1
	mov	ecx, DWORD PTR _this$[ebp]
	mov	edx, DWORD PTR [ecx+12]
	mov	eax, DWORD PTR $T211771[ebp]
	mov	DWORD PTR [edx+1828], eax

; 685  : 					curSig->CertVerifyParams.pCrlCache->SetCRLTimeOut(curSig->crlCacheTimeoutInMinutes);

	mov	ecx, DWORD PTR _this$[ebp]
	mov	edx, DWORD PTR [ecx+12]
	mov	eax, DWORD PTR [edx+3376]
	push	eax
	mov	ecx, DWORD PTR _this$[ebp]
	mov	edx, DWORD PTR [ecx+12]
	mov	ecx, DWORD PTR [edx+1828]
	call	?SetCRLTimeOut@CRLCache@@QAEXK@Z	; CRLCache::SetCRLTimeOut
$L208121:

; 686  : 				}
; 687  : 			continue;

	jmp	$L207887
$L208108:

; 688  : 		}
; 689  : 		if (! xmlStrcmp(curKeyName, crlCacheTimeoutInMinutes)) 

	mov	eax, DWORD PTR ?crlCacheTimeoutInMinutes@CConfig@@2PBEB ; CConfig::crlCacheTimeoutInMinutes
	push	eax
	mov	ecx, DWORD PTR _curKeyName$[ebp]
	push	ecx
	call	_xmlStrcmp
	add	esp, 8
	test	eax, eax
	jne	SHORT $L208127

; 690  : 		{			
; 691  : 			curSig->crlCacheTimeoutInMinutes = (ULONG)(atoi((const char *)curKeyValue));

	mov	edx, DWORD PTR _curKeyValue$[ebp]
	push	edx
	call	_atoi
	add	esp, 4
	mov	ecx, DWORD PTR _this$[ebp]
	mov	edx, DWORD PTR [ecx+12]
	mov	DWORD PTR [edx+3376], eax

; 692  : 			if (curSig->CertVerifyParams.pCrlCache != NULL)

	mov	eax, DWORD PTR _this$[ebp]
	mov	ecx, DWORD PTR [eax+12]
	cmp	DWORD PTR [ecx+1828], 0
	je	SHORT $L208130

; 693  : 				curSig->CertVerifyParams.pCrlCache->SetCRLTimeOut(curSig->crlCacheTimeoutInMinutes);

	mov	edx, DWORD PTR _this$[ebp]
	mov	eax, DWORD PTR [edx+12]
	mov	ecx, DWORD PTR [eax+3376]
	push	ecx
	mov	edx, DWORD PTR _this$[ebp]
	mov	eax, DWORD PTR [edx+12]
	mov	ecx, DWORD PTR [eax+1828]
	call	?SetCRLTimeOut@CRLCache@@QAEXK@Z	; CRLCache::SetCRLTimeOut
$L208130:

; 694  : 
; 695  : 			continue;

	jmp	$L207887
$L208127:

; 696  : 		}
; 697  : #endif
; 698  : 		xmlFree(curKeyName);

	mov	esi, esp
	mov	ecx, DWORD PTR _curKeyName$[ebp]
	push	ecx
	call	DWORD PTR _xmlFree
	add	esp, 4
	cmp	esi, esp
	call	__RTC_CheckEsp

; 699  : 		xmlFree(curKeyValue);

	mov	esi, esp
	mov	edx, DWORD PTR _curKeyValue$[ebp]
	push	edx
	call	DWORD PTR _xmlFree
	add	esp, 4
	cmp	esi, esp
	call	__RTC_CheckEsp

; 700  : 		curKeyName = NULL;

	mov	DWORD PTR _curKeyName$[ebp], 0

; 701  : 		curKeyValue = NULL;

	mov	DWORD PTR _curKeyValue$[ebp], 0

; 702  : 
; 703  : 	}

	jmp	$L207887
$L207857:

; 704  : }

	push	edx
	mov	ecx, ebp
	push	eax
	lea	edx, DWORD PTR $L211785
	call	@_RTC_CheckStackVars@8
	pop	eax
	pop	edx
	mov	ecx, DWORD PTR __$EHRec$[ebp]
	mov	DWORD PTR fs:__except_list, ecx
	pop	edi
	pop	esi
	add	esp, 244				; 000000f4H
	cmp	ebp, esp
	call	__RTC_CheckEsp
	mov	esp, ebp
	pop	ebp
	ret	4
$L211785:
	DD	3
	DD	$L211784
$L211784:
	DD	-52					; ffffffccH
	DD	4
	DD	$L211780
	DD	-160					; ffffff60H
	DD	4
	DD	$L211781
	DD	-172					; ffffff54H
	DD	4
	DD	$L211782
$L211782:
	DB	117					; 00000075H
	DB	116					; 00000074H
	DB	102					; 00000066H
	DB	56					; 00000038H
	DB	66					; 00000042H
	DB	121					; 00000079H
	DB	116					; 00000074H
	DB	101					; 00000065H
	DB	76					; 0000004cH
	DB	101					; 00000065H
	DB	110					; 0000006eH
	DB	0
$L211781:
	DB	117					; 00000075H
	DB	116					; 00000074H
	DB	102					; 00000066H
	DB	49					; 00000031H
	DB	54					; 00000036H
	DB	66					; 00000042H
	DB	121					; 00000079H
	DB	116					; 00000074H
	DB	101					; 00000065H
	DB	76					; 0000004cH
	DB	101					; 00000065H
	DB	110					; 0000006eH
	DB	0
$L211780:
	DB	100					; 00000064H
	DB	97					; 00000061H
	DB	116					; 00000074H
	DB	97					; 00000061H
	DB	83					; 00000053H
	DB	105					; 00000069H
	DB	122					; 0000007aH
	DB	101					; 00000065H
	DB	0
_TEXT	ENDS
text$x	SEGMENT
$L211775:
	mov	eax, DWORD PTR $T211760[ebp]
	push	eax
	call	??3@YAXPAX@Z				; operator delete
	pop	ecx
	ret	0
$L211776:
	mov	eax, DWORD PTR $T211768[ebp]
	push	eax
	call	??3@YAXPAX@Z				; operator delete
	pop	ecx
	ret	0
$L211777:
	mov	eax, DWORD PTR $T211772[ebp]
	push	eax
	call	??3@YAXPAX@Z				; operator delete
	pop	ecx
	ret	0
__ehhandler$?getConfigDetailsFromDom@CConfig@@QAEXPAU_xmlNode@@@Z:
	mov	eax, OFFSET FLAT:$T211779
	jmp	___CxxFrameHandler
text$x	ENDS
?getConfigDetailsFromDom@CConfig@@QAEXPAU_xmlNode@@@Z ENDP ; CConfig::getConfigDetailsFromDom
; Function compile flags: /Odt /RTCsu
; File c:\activex\xmlsign\crlcache.h
;	COMDAT ?SetCRLTimeOut@CRLCache@@QAEXK@Z
_TEXT	SEGMENT
_this$ = -4						; size = 4
_timeInMinutes$ = 8					; size = 4
?SetCRLTimeOut@CRLCache@@QAEXK@Z PROC NEAR		; CRLCache::SetCRLTimeOut, COMDAT
; _this$ = ecx

; 85   : 	{

	push	ebp
	mov	ebp, esp
	push	ecx
	mov	DWORD PTR [ebp-4], -858993460		; ccccccccH
	mov	DWORD PTR _this$[ebp], ecx

; 86   : 		crlTimeoutInMinutes = timeInMinutes;

	mov	eax, DWORD PTR _this$[ebp]
	mov	ecx, DWORD PTR _timeInMinutes$[ebp]
	mov	DWORD PTR [eax], ecx

; 87   : 	}

	mov	esp, ebp
	pop	ebp
	ret	4
?SetCRLTimeOut@CRLCache@@QAEXK@Z ENDP			; CRLCache::SetCRLTimeOut
_TEXT	ENDS
EXTRN	??1CCAMClient@@QAE@XZ:NEAR			; CCAMClient::~CCAMClient
; Function compile flags: /Odt /RTCsu
;	COMDAT ??_GCCAMClient@@QAEPAXI@Z
_TEXT	SEGMENT
_this$ = -4						; size = 4
___flags$ = 8						; size = 4
??_GCCAMClient@@QAEPAXI@Z PROC NEAR			; CCAMClient::`scalar deleting destructor', COMDAT
; _this$ = ecx
	push	ebp
	mov	ebp, esp
	push	ecx
	mov	DWORD PTR [ebp-4], -858993460		; ccccccccH
	mov	DWORD PTR _this$[ebp], ecx
	mov	ecx, DWORD PTR _this$[ebp]
	call	??1CCAMClient@@QAE@XZ			; CCAMClient::~CCAMClient
	mov	eax, DWORD PTR ___flags$[ebp]
	and	eax, 1
	je	SHORT $L208135
	mov	ecx, DWORD PTR _this$[ebp]
	push	ecx
	call	??3@YAXPAX@Z				; operator delete
	add	esp, 4
$L208135:
	mov	eax, DWORD PTR _this$[ebp]
	add	esp, 4
	cmp	ebp, esp
	call	__RTC_CheckEsp
	mov	esp, ebp
	pop	ebp
	ret	4
??_GCCAMClient@@QAEPAXI@Z ENDP				; CCAMClient::`scalar deleting destructor'
_TEXT	ENDS
EXTRN	??1CRLCache@@QAE@XZ:NEAR			; CRLCache::~CRLCache
; Function compile flags: /Odt /RTCsu
;	COMDAT ??_GCRLCache@@QAEPAXI@Z
_TEXT	SEGMENT
_this$ = -4						; size = 4
___flags$ = 8						; size = 4
??_GCRLCache@@QAEPAXI@Z PROC NEAR			; CRLCache::`scalar deleting destructor', COMDAT
; _this$ = ecx
	push	ebp
	mov	ebp, esp
	push	ecx
	mov	DWORD PTR [ebp-4], -858993460		; ccccccccH
	mov	DWORD PTR _this$[ebp], ecx
	mov	ecx, DWORD PTR _this$[ebp]
	call	??1CRLCache@@QAE@XZ			; CRLCache::~CRLCache
	mov	eax, DWORD PTR ___flags$[ebp]
	and	eax, 1
	je	SHORT $L208138
	mov	ecx, DWORD PTR _this$[ebp]
	push	ecx
	call	??3@YAXPAX@Z				; operator delete
	add	esp, 4
$L208138:
	mov	eax, DWORD PTR _this$[ebp]
	add	esp, 4
	cmp	ebp, esp
	call	__RTC_CheckEsp
	mov	esp, ebp
	pop	ebp
	ret	4
??_GCRLCache@@QAEPAXI@Z ENDP				; CRLCache::`scalar deleting destructor'
_TEXT	ENDS
PUBLIC	?getConfigDetails@CConfig@@QAEHPAU_GLOBAL_SIG@@@Z ; CConfig::getConfigDetails
EXTRN	_xmlParseFile:NEAR
EXTRN	_xmlFreeDoc:NEAR
EXTRN	_xmlDocGetRootElement:NEAR
; Function compile flags: /Odt /RTCsu
; File c:\activex\xmlsign\config.cpp
_TEXT	SEGMENT
_curr$ = -16						; size = 4
_root$ = -12						; size = 4
_doc$ = -8						; size = 4
_this$ = -4						; size = 4
_SigHandle$ = 8						; size = 4
?getConfigDetails@CConfig@@QAEHPAU_GLOBAL_SIG@@@Z PROC NEAR ; CConfig::getConfigDetails
; _this$ = ecx

; 715  : {

	push	ebp
	mov	ebp, esp
	sub	esp, 16					; 00000010H
	mov	eax, -858993460				; ccccccccH
	mov	DWORD PTR [ebp-16], eax
	mov	DWORD PTR [ebp-12], eax
	mov	DWORD PTR [ebp-8], eax
	mov	DWORD PTR [ebp-4], eax
	mov	DWORD PTR _this$[ebp], ecx

; 716  : 
; 717  : 	xmlDocPtr doc = NULL;

	mov	DWORD PTR _doc$[ebp], 0

; 718  : 
; 719  : 	doc = xmlParseFile((const char *)ConfigFile);

	mov	eax, DWORD PTR _this$[ebp]
	mov	ecx, DWORD PTR [eax+4]
	push	ecx
	call	_xmlParseFile
	add	esp, 4
	mov	DWORD PTR _doc$[ebp], eax

; 720  : 	if (!doc) {

	cmp	DWORD PTR _doc$[ebp], 0
	jne	SHORT $L208145

; 721  : 		// cout << "Couldn't parse the license file" << endl;
; 722  : 		setError(SigHandle, XML_PARSER_ERROR);

	push	16					; 00000010H
	mov	edx, DWORD PTR _SigHandle$[ebp]
	push	edx
	call	_setError
	add	esp, 8

; 723  : 		return FALSE;

	xor	eax, eax
	jmp	SHORT $L208142
$L208145:

; 724  : 	}
; 725  : 	xmlNodePtr root = xmlDocGetRootElement(doc);

	mov	eax, DWORD PTR _doc$[ebp]
	push	eax
	call	_xmlDocGetRootElement
	add	esp, 4
	mov	DWORD PTR _root$[ebp], eax

; 726  : 	xmlNodePtr curr = root->xmlChildrenNode;

	mov	ecx, DWORD PTR _root$[ebp]
	mov	edx, DWORD PTR [ecx+12]
	mov	DWORD PTR _curr$[ebp], edx

; 727  : 
; 728  : 	getConfigDetailsFromDom(curr);

	mov	eax, DWORD PTR _curr$[ebp]
	push	eax
	mov	ecx, DWORD PTR _this$[ebp]
	call	?getConfigDetailsFromDom@CConfig@@QAEXPAU_xmlNode@@@Z ; CConfig::getConfigDetailsFromDom

; 729  : 
; 730  : 	xmlFreeDoc(doc);

	mov	ecx, DWORD PTR _doc$[ebp]
	push	ecx
	call	_xmlFreeDoc
	add	esp, 4

; 731  : 
; 732  : 	return TRUE;

	mov	eax, 1
$L208142:

; 733  : }

	add	esp, 16					; 00000010H
	cmp	ebp, esp
	call	__RTC_CheckEsp
	mov	esp, ebp
	pop	ebp
	ret	4
?getConfigDetails@CConfig@@QAEHPAU_GLOBAL_SIG@@@Z ENDP	; CConfig::getConfigDetails
_TEXT	ENDS
PUBLIC	?setConfigDetails@CConfig@@QAEHPAG@Z		; CConfig::setConfigDetails
PUBLIC	??0CComBSTR@ATL@@QAE@XZ				; ATL::CComBSTR::CComBSTR
PUBLIC	??1CComBSTR@ATL@@QAE@XZ				; ATL::CComBSTR::~CComBSTR
PUBLIC	?Length@CComBSTR@ATL@@QBEIXZ			; ATL::CComBSTR::Length
EXTRN	_xmlParseMemory:NEAR
EXTRN	?HeapW2A@@YAPAEPAG@Z:NEAR			; HeapW2A
xdata$x	SEGMENT
$T211804 DD	0ffffffffH
	DD	FLAT:$L211797
$T211799 DD	019930520H
	DD	01H
	DD	FLAT:$T211804
	DD	2 DUP(00H)
	DD	2 DUP(00H)
; Function compile flags: /Odt /RTCsu
xdata$x	ENDS
_TEXT	SEGMENT
$T211796 = -68						; size = 4
$T211795 = -64						; size = 4
_curr$ = -60						; size = 4
_root$ = -56						; size = 4
_wConfXMLStr$ = -52					; size = 4
__lpa$ = -48						; size = 4
__lpw$ = -44						; size = 4
__acp$ = -40						; size = 4
__convert$ = -36					; size = 4
_tmpBstr$ = -28						; size = 4
_doc$ = -20						; size = 4
_this$ = -16						; size = 4
__$EHRec$ = -12						; size = 12
_confXMLStr$ = 8					; size = 4
?setConfigDetails@CConfig@@QAEHPAG@Z PROC NEAR		; CConfig::setConfigDetails
; _this$ = ecx

; 737  : {

	push	ebp
	mov	ebp, esp
	push	-1
	push	__ehhandler$?setConfigDetails@CConfig@@QAEHPAG@Z
	mov	eax, DWORD PTR fs:__except_list
	push	eax
	mov	DWORD PTR fs:__except_list, esp
	sub	esp, 56					; 00000038H
	push	edi
	push	ecx
	lea	edi, DWORD PTR [ebp-68]
	mov	ecx, 14					; 0000000eH
	mov	eax, -858993460				; ccccccccH
	rep stosd
	pop	ecx
	mov	DWORD PTR _this$[ebp], ecx

; 738  : 	xmlDocPtr doc = NULL;

	mov	DWORD PTR _doc$[ebp], 0

; 739  : 	CComBSTR tmpBstr;

	lea	ecx, DWORD PTR _tmpBstr$[ebp]
	call	??0CComBSTR@ATL@@QAE@XZ			; ATL::CComBSTR::CComBSTR
	mov	DWORD PTR __$EHRec$[ebp+8], 0

; 740  : 
; 741  : USES_CONVERSION;

	mov	DWORD PTR __convert$[ebp], 0
	call	?_AtlGetConversionACP@ATL@@YGIXZ	; ATL::_AtlGetConversionACP
	mov	DWORD PTR __acp$[ebp], eax
	mov	DWORD PTR __lpw$[ebp], 0
	mov	DWORD PTR __lpa$[ebp], 0

; 742  : 
; 743  : 	tmpBstr = confXMLStr;

	mov	eax, DWORD PTR _confXMLStr$[ebp]
	push	eax
	lea	ecx, DWORD PTR _tmpBstr$[ebp]
	call	??4CComBSTR@ATL@@QAEAAV01@PBG@Z		; ATL::CComBSTR::operator=

; 744  : 
; 745  : 	unsigned char *wConfXMLStr = HeapW2A(confXMLStr);

	mov	ecx, DWORD PTR _confXMLStr$[ebp]
	push	ecx
	call	?HeapW2A@@YAPAEPAG@Z			; HeapW2A
	add	esp, 4
	mov	DWORD PTR _wConfXMLStr$[ebp], eax

; 746  : 	doc = xmlParseMemory((const char *)wConfXMLStr, tmpBstr.Length());

	lea	ecx, DWORD PTR _tmpBstr$[ebp]
	call	?Length@CComBSTR@ATL@@QBEIXZ		; ATL::CComBSTR::Length
	push	eax
	mov	edx, DWORD PTR _wConfXMLStr$[ebp]
	push	edx
	call	_xmlParseMemory
	add	esp, 8
	mov	DWORD PTR _doc$[ebp], eax

; 747  : 	zFree(wConfXMLStr);

	mov	eax, DWORD PTR _wConfXMLStr$[ebp]
	push	eax
	call	_rFree
	add	esp, 4

; 748  : 	if (!doc) {

	cmp	DWORD PTR _doc$[ebp], 0
	jne	SHORT $L208160

; 749  : 		// cout << "Couldn't parse the config xml" << endl;
; 750  : 		setError(curSig->SigHandle, XML_PARSER_ERROR);

	push	16					; 00000010H
	mov	ecx, DWORD PTR _this$[ebp]
	mov	edx, DWORD PTR [ecx+12]
	mov	eax, DWORD PTR [edx+692]
	push	eax
	call	_setError
	add	esp, 8

; 751  : 		return FALSE;

	mov	DWORD PTR $T211795[ebp], 0
	mov	DWORD PTR __$EHRec$[ebp+8], -1
	lea	ecx, DWORD PTR _tmpBstr$[ebp]
	call	??1CComBSTR@ATL@@QAE@XZ			; ATL::CComBSTR::~CComBSTR
	mov	eax, DWORD PTR $T211795[ebp]
	jmp	SHORT $L208151
$L208160:

; 752  : 	}
; 753  : 
; 754  : 	xmlNodePtr root = xmlDocGetRootElement(doc);

	mov	ecx, DWORD PTR _doc$[ebp]
	push	ecx
	call	_xmlDocGetRootElement
	add	esp, 4
	mov	DWORD PTR _root$[ebp], eax

; 755  : 	xmlNodePtr curr = root->xmlChildrenNode;

	mov	edx, DWORD PTR _root$[ebp]
	mov	eax, DWORD PTR [edx+12]
	mov	DWORD PTR _curr$[ebp], eax

; 756  : 
; 757  : 	getConfigDetailsFromDom(curr);

	mov	ecx, DWORD PTR _curr$[ebp]
	push	ecx
	mov	ecx, DWORD PTR _this$[ebp]
	call	?getConfigDetailsFromDom@CConfig@@QAEXPAU_xmlNode@@@Z ; CConfig::getConfigDetailsFromDom

; 758  : 
; 759  : 	xmlFreeDoc(doc);

	mov	edx, DWORD PTR _doc$[ebp]
	push	edx
	call	_xmlFreeDoc
	add	esp, 4

; 760  : 
; 761  : 	return TRUE;

	mov	DWORD PTR $T211796[ebp], 1
	mov	DWORD PTR __$EHRec$[ebp+8], -1
	lea	ecx, DWORD PTR _tmpBstr$[ebp]
	call	??1CComBSTR@ATL@@QAE@XZ			; ATL::CComBSTR::~CComBSTR
	mov	eax, DWORD PTR $T211796[ebp]
$L208151:

; 762  : 
; 763  : }

	push	edx
	mov	ecx, ebp
	push	eax
	lea	edx, DWORD PTR $L211803
	call	@_RTC_CheckStackVars@8
	pop	eax
	pop	edx
	mov	ecx, DWORD PTR __$EHRec$[ebp]
	mov	DWORD PTR fs:__except_list, ecx
	pop	edi
	add	esp, 68					; 00000044H
	cmp	ebp, esp
	call	__RTC_CheckEsp
	mov	esp, ebp
	pop	ebp
	ret	4
$L211803:
	DD	1
	DD	$L211802
$L211802:
	DD	-28					; ffffffe4H
	DD	4
	DD	$L211800
$L211800:
	DB	116					; 00000074H
	DB	109					; 0000006dH
	DB	112					; 00000070H
	DB	66					; 00000042H
	DB	115					; 00000073H
	DB	116					; 00000074H
	DB	114					; 00000072H
	DB	0
_TEXT	ENDS
text$x	SEGMENT
$L211797:
	lea	ecx, DWORD PTR _tmpBstr$[ebp]
	jmp	??1CComBSTR@ATL@@QAE@XZ			; ATL::CComBSTR::~CComBSTR
__ehhandler$?setConfigDetails@CConfig@@QAEHPAG@Z:
	mov	eax, OFFSET FLAT:$T211799
	jmp	___CxxFrameHandler
text$x	ENDS
?setConfigDetails@CConfig@@QAEHPAG@Z ENDP		; CConfig::setConfigDetails
; Function compile flags: /Odt /RTCsu
; File c:\program files\microsoft visual studio .net 2003\vc7\atlmfc\include\atlcomcli.h
;	COMDAT ??0CComBSTR@ATL@@QAE@XZ
_TEXT	SEGMENT
_this$ = -4						; size = 4
??0CComBSTR@ATL@@QAE@XZ PROC NEAR			; ATL::CComBSTR::CComBSTR, COMDAT
; _this$ = ecx

; 545  : 	CComBSTR() throw()

	push	ebp
	mov	ebp, esp
	push	ecx
	mov	DWORD PTR [ebp-4], -858993460		; ccccccccH
	mov	DWORD PTR _this$[ebp], ecx

; 546  : 	{
; 547  : 		m_str = NULL;

	mov	eax, DWORD PTR _this$[ebp]
	mov	DWORD PTR [eax], 0

; 548  : 	}

	mov	eax, DWORD PTR _this$[ebp]
	mov	esp, ebp
	pop	ebp
	ret	0
??0CComBSTR@ATL@@QAE@XZ ENDP				; ATL::CComBSTR::CComBSTR
; Function compile flags: /Odt /RTCsu
_TEXT	ENDS
;	COMDAT ??1CComBSTR@ATL@@QAE@XZ
_TEXT	SEGMENT
_this$ = -4						; size = 4
??1CComBSTR@ATL@@QAE@XZ PROC NEAR			; ATL::CComBSTR::~CComBSTR, COMDAT
; _this$ = ecx

; 628  : 	{

	push	ebp
	mov	ebp, esp
	push	ecx
	push	esi
	mov	DWORD PTR [ebp-4], -858993460		; ccccccccH
	mov	DWORD PTR _this$[ebp], ecx

; 629  : 		::SysFreeString(m_str);

	mov	esi, esp
	mov	eax, DWORD PTR _this$[ebp]
	mov	ecx, DWORD PTR [eax]
	push	ecx
	call	DWORD PTR __imp__SysFreeString@4
	cmp	esi, esp
	call	__RTC_CheckEsp

; 630  : 	}

	pop	esi
	add	esp, 4
	cmp	ebp, esp
	call	__RTC_CheckEsp
	mov	esp, ebp
	pop	ebp
	ret	0
??1CComBSTR@ATL@@QAE@XZ ENDP				; ATL::CComBSTR::~CComBSTR
_TEXT	ENDS
EXTRN	__imp__SysStringLen@4:NEAR
; Function compile flags: /Odt /RTCsu
;	COMDAT ?Length@CComBSTR@ATL@@QBEIXZ
_TEXT	SEGMENT
tv67 = -8						; size = 4
_this$ = -4						; size = 4
?Length@CComBSTR@ATL@@QBEIXZ PROC NEAR			; ATL::CComBSTR::Length, COMDAT
; _this$ = ecx

; 632  : 	{

	push	ebp
	mov	ebp, esp
	sub	esp, 8
	push	esi
	mov	DWORD PTR [ebp-8], -858993460		; ccccccccH
	mov	DWORD PTR [ebp-4], -858993460		; ccccccccH
	mov	DWORD PTR _this$[ebp], ecx

; 633  : 		return (m_str == NULL)? 0 : SysStringLen(m_str);

	mov	eax, DWORD PTR _this$[ebp]
	cmp	DWORD PTR [eax], 0
	jne	SHORT $L211810
	mov	DWORD PTR tv67[ebp], 0
	jmp	SHORT $L211811
$L211810:
	mov	esi, esp
	mov	ecx, DWORD PTR _this$[ebp]
	mov	edx, DWORD PTR [ecx]
	push	edx
	call	DWORD PTR __imp__SysStringLen@4
	cmp	esi, esp
	call	__RTC_CheckEsp
	mov	DWORD PTR tv67[ebp], eax
$L211811:
	mov	eax, DWORD PTR tv67[ebp]

; 634  : 	}

	pop	esi
	add	esp, 8
	cmp	ebp, esp
	call	__RTC_CheckEsp
	mov	esp, ebp
	pop	ebp
	ret	0
?Length@CComBSTR@ATL@@QBEIXZ ENDP			; ATL::CComBSTR::Length
_TEXT	ENDS
PUBLIC	?Init@?$CW2AEX@$0IA@@ATL@@AAEXPBGI@Z		; ATL::CW2AEX<128>::Init
; Function compile flags: /Odt /RTCsu
; File c:\program files\microsoft visual studio .net 2003\vc7\atlmfc\include\atlconv.h
;	COMDAT ??0?$CW2AEX@$0IA@@ATL@@QAE@PBG@Z
_TEXT	SEGMENT
_this$ = -4						; size = 4
_psz$ = 8						; size = 4
??0?$CW2AEX@$0IA@@ATL@@QAE@PBG@Z PROC NEAR		; ATL::CW2AEX<128>::CW2AEX<128>, COMDAT
; _this$ = ecx

; 419  : 	{

	push	ebp
	mov	ebp, esp
	push	ecx
	mov	DWORD PTR [ebp-4], -858993460		; ccccccccH
	mov	DWORD PTR _this$[ebp], ecx
	mov	eax, DWORD PTR _this$[ebp]
	add	eax, 4
	mov	ecx, DWORD PTR _this$[ebp]
	mov	DWORD PTR [ecx], eax

; 420  : 		Init( psz, _AtlGetConversionACP() );

	call	?_AtlGetConversionACP@ATL@@YGIXZ	; ATL::_AtlGetConversionACP
	push	eax
	mov	edx, DWORD PTR _psz$[ebp]
	push	edx
	mov	ecx, DWORD PTR _this$[ebp]
	call	?Init@?$CW2AEX@$0IA@@ATL@@AAEXPBGI@Z	; ATL::CW2AEX<128>::Init

; 421  : 	}

	mov	eax, DWORD PTR _this$[ebp]
	add	esp, 4
	cmp	ebp, esp
	call	__RTC_CheckEsp
	mov	esp, ebp
	pop	ebp
	ret	4
??0?$CW2AEX@$0IA@@ATL@@QAE@PBG@Z ENDP			; ATL::CW2AEX<128>::CW2AEX<128>
_TEXT	ENDS
EXTRN	_free:NEAR
; Function compile flags: /Odt /RTCsu
;	COMDAT ??1?$CW2AEX@$0IA@@ATL@@QAE@XZ
_TEXT	SEGMENT
_this$ = -4						; size = 4
??1?$CW2AEX@$0IA@@ATL@@QAE@XZ PROC NEAR			; ATL::CW2AEX<128>::~CW2AEX<128>, COMDAT
; _this$ = ecx

; 428  : 	{

	push	ebp
	mov	ebp, esp
	push	ecx
	mov	DWORD PTR [ebp-4], -858993460		; ccccccccH
	mov	DWORD PTR _this$[ebp], ecx

; 429  : 		if( m_psz != m_szBuffer )

	mov	eax, DWORD PTR _this$[ebp]
	add	eax, 4
	mov	ecx, DWORD PTR _this$[ebp]
	cmp	DWORD PTR [ecx], eax
	je	SHORT $L208502

; 430  : 		{
; 431  : 			free( m_psz );

	mov	edx, DWORD PTR _this$[ebp]
	mov	eax, DWORD PTR [edx]
	push	eax
	call	_free
	add	esp, 4
$L208502:

; 432  : 		}
; 433  : 	}

	add	esp, 4
	cmp	ebp, esp
	call	__RTC_CheckEsp
	mov	esp, ebp
	pop	ebp
	ret	0
??1?$CW2AEX@$0IA@@ATL@@QAE@XZ ENDP			; ATL::CW2AEX<128>::~CW2AEX<128>
; Function compile flags: /Odt /RTCsu
_TEXT	ENDS
;	COMDAT ??B?$CW2AEX@$0IA@@ATL@@QBEPADXZ
_TEXT	SEGMENT
_this$ = -4						; size = 4
??B?$CW2AEX@$0IA@@ATL@@QBEPADXZ PROC NEAR		; ATL::CW2AEX<128>::operator char *, COMDAT
; _this$ = ecx

; 436  : 	{

	push	ebp
	mov	ebp, esp
	push	ecx
	mov	DWORD PTR [ebp-4], -858993460		; ccccccccH
	mov	DWORD PTR _this$[ebp], ecx

; 437  : 		return( m_psz );

	mov	eax, DWORD PTR _this$[ebp]
	mov	eax, DWORD PTR [eax]

; 438  : 	}

	mov	esp, ebp
	pop	ebp
	ret	0
??B?$CW2AEX@$0IA@@ATL@@QBEPADXZ ENDP			; ATL::CW2AEX<128>::operator char *
_TEXT	ENDS
PUBLIC	??1stringdispid@CComTypeInfoHolder@ATL@@QAE@XZ	; ATL::CComTypeInfoHolder::stringdispid::~stringdispid
PUBLIC	??_Estringdispid@CComTypeInfoHolder@ATL@@QAEPAXI@Z ; ATL::CComTypeInfoHolder::stringdispid::`vector deleting destructor'
EXTRN	??_M@YGXPAXIHP6EX0@Z@Z:NEAR			; `eh vector destructor iterator'
EXTRN	??_V@YAXPAX@Z:NEAR				; operator delete[]
; Function compile flags: /Odt /RTCsu
;	COMDAT ??_Estringdispid@CComTypeInfoHolder@ATL@@QAEPAXI@Z
_TEXT	SEGMENT
_this$ = -4						; size = 4
___flags$ = 8						; size = 4
??_Estringdispid@CComTypeInfoHolder@ATL@@QAEPAXI@Z PROC NEAR ; ATL::CComTypeInfoHolder::stringdispid::`vector deleting destructor', COMDAT
; _this$ = ecx
	push	ebp
	mov	ebp, esp
	push	ecx
	mov	DWORD PTR [ebp-4], -858993460		; ccccccccH
	mov	DWORD PTR _this$[ebp], ecx
	mov	eax, DWORD PTR ___flags$[ebp]
	and	eax, 2
	je	SHORT $L93948
	push	OFFSET FLAT:??1stringdispid@CComTypeInfoHolder@ATL@@QAE@XZ
	mov	ecx, DWORD PTR _this$[ebp]
	mov	edx, DWORD PTR [ecx-4]
	push	edx
	push	12					; 0000000cH
	mov	eax, DWORD PTR _this$[ebp]
	push	eax
	call	??_M@YGXPAXIHP6EX0@Z@Z
	mov	ecx, DWORD PTR ___flags$[ebp]
	and	ecx, 1
	je	SHORT $L93949
	mov	edx, DWORD PTR _this$[ebp]
	sub	edx, 4
	push	edx
	call	??_V@YAXPAX@Z				; operator delete[]
	add	esp, 4
$L93949:
	mov	eax, DWORD PTR _this$[ebp]
	sub	eax, 4
	jmp	SHORT $L93947
$L93948:
	mov	ecx, DWORD PTR _this$[ebp]
	call	??1stringdispid@CComTypeInfoHolder@ATL@@QAE@XZ
	mov	eax, DWORD PTR ___flags$[ebp]
	and	eax, 1
	je	SHORT $L93951
	mov	ecx, DWORD PTR _this$[ebp]
	push	ecx
	call	??3@YAXPAX@Z				; operator delete
	add	esp, 4
$L93951:
	mov	eax, DWORD PTR _this$[ebp]
$L93947:
	add	esp, 4
	cmp	ebp, esp
	call	__RTC_CheckEsp
	mov	esp, ebp
	pop	ebp
	ret	4
??_Estringdispid@CComTypeInfoHolder@ATL@@QAEPAXI@Z ENDP	; ATL::CComTypeInfoHolder::stringdispid::`vector deleting destructor'
; Function compile flags: /Odt /RTCsu
_TEXT	ENDS
;	COMDAT ??1stringdispid@CComTypeInfoHolder@ATL@@QAE@XZ
_TEXT	SEGMENT
_this$ = -4						; size = 4
??1stringdispid@CComTypeInfoHolder@ATL@@QAE@XZ PROC NEAR ; ATL::CComTypeInfoHolder::stringdispid::~stringdispid, COMDAT
; _this$ = ecx
	push	ebp
	mov	ebp, esp
	push	ecx
	mov	DWORD PTR [ebp-4], -858993460		; ccccccccH
	mov	DWORD PTR _this$[ebp], ecx
	mov	ecx, DWORD PTR _this$[ebp]
	call	??1CComBSTR@ATL@@QAE@XZ			; ATL::CComBSTR::~CComBSTR
	add	esp, 4
	cmp	ebp, esp
	call	__RTC_CheckEsp
	mov	esp, ebp
	pop	ebp
	ret	0
??1stringdispid@CComTypeInfoHolder@ATL@@QAE@XZ ENDP	; ATL::CComTypeInfoHolder::stringdispid::~stringdispid
_TEXT	ENDS
PUBLIC	?AtlThrowLastWin32@ATL@@YGXXZ			; ATL::AtlThrowLastWin32
; Function compile flags: /Odt /RTCsu
;	COMDAT ?Init@?$CW2AEX@$0IA@@ATL@@AAEXPBGI@Z
_TEXT	SEGMENT
_nLengthA$ = -12					; size = 4
_nLengthW$ = -8						; size = 4
_this$ = -4						; size = 4
_psz$ = 8						; size = 4
_nCodePage$ = 12					; size = 4
?Init@?$CW2AEX@$0IA@@ATL@@AAEXPBGI@Z PROC NEAR		; ATL::CW2AEX<128>::Init, COMDAT
; _this$ = ecx

; 442  : 	{

	push	ebp
	mov	ebp, esp
	sub	esp, 12					; 0000000cH
	push	esi
	mov	DWORD PTR [ebp-12], -858993460		; ccccccccH
	mov	DWORD PTR [ebp-8], -858993460		; ccccccccH
	mov	DWORD PTR [ebp-4], -858993460		; ccccccccH
	mov	DWORD PTR _this$[ebp], ecx

; 443  : 		if (psz == NULL)

	cmp	DWORD PTR _psz$[ebp], 0
	jne	SHORT $L209094

; 444  : 		{
; 445  : 			m_psz = NULL;

	mov	eax, DWORD PTR _this$[ebp]
	mov	DWORD PTR [eax], 0

; 446  : 			return;

	jmp	$L211823
$L209094:

; 447  : 		}
; 448  : 		int nLengthW = lstrlenW( psz )+1;

	mov	esi, esp
	mov	ecx, DWORD PTR _psz$[ebp]
	push	ecx
	call	DWORD PTR __imp__lstrlenW@4
	cmp	esi, esp
	call	__RTC_CheckEsp
	add	eax, 1
	mov	DWORD PTR _nLengthW$[ebp], eax

; 449  : 		int nLengthA = nLengthW*2;

	mov	edx, DWORD PTR _nLengthW$[ebp]
	shl	edx, 1
	mov	DWORD PTR _nLengthA$[ebp], edx

; 450  : 
; 451  : 		if( nLengthA > t_nBufferLength )

	cmp	DWORD PTR _nLengthA$[ebp], 128		; 00000080H
	jle	SHORT $L209097

; 452  : 		{
; 453  : 			m_psz = static_cast< LPSTR >( malloc( nLengthA*sizeof( char ) ) );

	mov	eax, DWORD PTR _nLengthA$[ebp]
	push	eax
	call	_malloc
	add	esp, 4
	mov	ecx, DWORD PTR _this$[ebp]
	mov	DWORD PTR [ecx], eax

; 454  : 			if (m_psz == NULL)

	mov	edx, DWORD PTR _this$[ebp]
	cmp	DWORD PTR [edx], 0
	jne	SHORT $L209097

; 455  : 			{
; 456  : 				AtlThrow( E_OUTOFMEMORY );

	push	-2147024882				; 8007000eH
	call	?AtlThrow@ATL@@YGXJ@Z			; ATL::AtlThrow
$L209097:

; 457  : 			}
; 458  : 		}
; 459  : 
; 460  : 		if (::WideCharToMultiByte( nCodePage, 0, psz, nLengthW, m_psz, nLengthA, NULL, NULL ) == 0)

	mov	esi, esp
	push	0
	push	0
	mov	eax, DWORD PTR _nLengthA$[ebp]
	push	eax
	mov	ecx, DWORD PTR _this$[ebp]
	mov	edx, DWORD PTR [ecx]
	push	edx
	mov	eax, DWORD PTR _nLengthW$[ebp]
	push	eax
	mov	ecx, DWORD PTR _psz$[ebp]
	push	ecx
	push	0
	mov	edx, DWORD PTR _nCodePage$[ebp]
	push	edx
	call	DWORD PTR __imp__WideCharToMultiByte@32
	cmp	esi, esp
	call	__RTC_CheckEsp
	test	eax, eax
	jne	SHORT $L211823

; 461  : 		{
; 462  : 			AtlThrowLastWin32();

	call	?AtlThrowLastWin32@ATL@@YGXXZ		; ATL::AtlThrowLastWin32
$L211823:

; 463  : 		}
; 464  : 	}

	pop	esi
	add	esp, 12					; 0000000cH
	cmp	ebp, esp
	call	__RTC_CheckEsp
	mov	esp, ebp
	pop	ebp
	ret	8
?Init@?$CW2AEX@$0IA@@ATL@@AAEXPBGI@Z ENDP		; ATL::CW2AEX<128>::Init
_TEXT	ENDS
EXTRN	__imp__GetLastError@0:NEAR
; Function compile flags: /Odt /RTCsu
; File c:\program files\microsoft visual studio .net 2003\vc7\atlmfc\include\atlexcept.h
;	COMDAT ?AtlThrowLastWin32@ATL@@YGXXZ
_TEXT	SEGMENT
tv69 = -8						; size = 4
_dwError$ = -4						; size = 4
?AtlThrowLastWin32@ATL@@YGXXZ PROC NEAR			; ATL::AtlThrowLastWin32, COMDAT

; 80   : {

	push	ebp
	mov	ebp, esp
	sub	esp, 8
	push	esi
	mov	DWORD PTR [ebp-8], -858993460		; ccccccccH
	mov	DWORD PTR [ebp-4], -858993460		; ccccccccH

; 81   : 	DWORD dwError = ::GetLastError();

	mov	esi, esp
	call	DWORD PTR __imp__GetLastError@0
	cmp	esi, esp
	call	__RTC_CheckEsp
	mov	DWORD PTR _dwError$[ebp], eax

; 82   : 	AtlThrow( HRESULT_FROM_WIN32( dwError ) );

	cmp	DWORD PTR _dwError$[ebp], 0
	jg	SHORT $L211826
	mov	eax, DWORD PTR _dwError$[ebp]
	mov	DWORD PTR tv69[ebp], eax
	jmp	SHORT $L211827
$L211826:
	mov	ecx, DWORD PTR _dwError$[ebp]
	and	ecx, 65535				; 0000ffffH
	or	ecx, 458752				; 00070000H
	or	ecx, -2147483648			; 80000000H
	mov	DWORD PTR tv69[ebp], ecx
$L211827:
	mov	edx, DWORD PTR tv69[ebp]
	push	edx
	call	?AtlThrow@ATL@@YGXJ@Z			; ATL::AtlThrow
$L211825:

; 83   : }

	pop	esi
	add	esp, 8
	cmp	ebp, esp
	call	__RTC_CheckEsp
	mov	esp, ebp
	pop	ebp
	ret	0
?AtlThrowLastWin32@ATL@@YGXXZ ENDP			; ATL::AtlThrowLastWin32
; Function compile flags: /Odt /RTCsu
; File c:\program files\microsoft visual studio .net 2003\vc7\atlmfc\include\atlalloc.h
_TEXT	ENDS
;	COMDAT ??0?$CAtlSafeAllocBufferManager@VCCRTAllocator@ATL@@@_ATL_SAFE_ALLOCA_IMPL@ATL@@QAE@XZ
_TEXT	SEGMENT
_this$ = -4						; size = 4
??0?$CAtlSafeAllocBufferManager@VCCRTAllocator@ATL@@@_ATL_SAFE_ALLOCA_IMPL@ATL@@QAE@XZ PROC NEAR ; ATL::_ATL_SAFE_ALLOCA_IMPL::CAtlSafeAllocBufferManager<ATL::CCRTAllocator>::CAtlSafeAllocBufferManager<ATL::CCRTAllocator>, COMDAT
; _this$ = ecx

; 373  : 	CAtlSafeAllocBufferManager() : m_pHead(NULL) {};

	push	ebp
	mov	ebp, esp
	push	ecx
	mov	DWORD PTR [ebp-4], -858993460		; ccccccccH
	mov	DWORD PTR _this$[ebp], ecx
	mov	eax, DWORD PTR _this$[ebp]
	mov	DWORD PTR [eax], 0
	mov	eax, DWORD PTR _this$[ebp]
	mov	esp, ebp
	pop	ebp
	ret	0
??0?$CAtlSafeAllocBufferManager@VCCRTAllocator@ATL@@@_ATL_SAFE_ALLOCA_IMPL@ATL@@QAE@XZ ENDP ; ATL::_ATL_SAFE_ALLOCA_IMPL::CAtlSafeAllocBufferManager<ATL::CCRTAllocator>::CAtlSafeAllocBufferManager<ATL::CCRTAllocator>
_TEXT	ENDS
PUBLIC	?Allocate@CCRTAllocator@ATL@@SAPAXI@Z		; ATL::CCRTAllocator::Allocate
PUBLIC	?GetData@CAtlSafeAllocBufferNode@?$CAtlSafeAllocBufferManager@VCCRTAllocator@ATL@@@_ATL_SAFE_ALLOCA_IMPL@ATL@@QAEPAXXZ ; ATL::_ATL_SAFE_ALLOCA_IMPL::CAtlSafeAllocBufferManager<ATL::CCRTAllocator>::CAtlSafeAllocBufferNode::GetData
; Function compile flags: /Odt /RTCsu
;	COMDAT ?Allocate@?$CAtlSafeAllocBufferManager@VCCRTAllocator@ATL@@@_ATL_SAFE_ALLOCA_IMPL@ATL@@QAEPAXK@Z
_TEXT	SEGMENT
_p$ = -8						; size = 4
_this$ = -4						; size = 4
_nRequestedSize$ = 8					; size = 4
?Allocate@?$CAtlSafeAllocBufferManager@VCCRTAllocator@ATL@@@_ATL_SAFE_ALLOCA_IMPL@ATL@@QAEPAXK@Z PROC NEAR ; ATL::_ATL_SAFE_ALLOCA_IMPL::CAtlSafeAllocBufferManager<ATL::CCRTAllocator>::Allocate, COMDAT
; _this$ = ecx

; 375  : 	{

	push	ebp
	mov	ebp, esp
	sub	esp, 8
	mov	DWORD PTR [ebp-8], -858993460		; ccccccccH
	mov	DWORD PTR [ebp-4], -858993460		; ccccccccH
	mov	DWORD PTR _this$[ebp], ecx

; 376  : 		CAtlSafeAllocBufferNode *p = (CAtlSafeAllocBufferNode*)Allocator::Allocate(nRequestedSize + sizeof(CAtlSafeAllocBufferNode));

	mov	eax, DWORD PTR _nRequestedSize$[ebp]
	add	eax, 8
	push	eax
	call	?Allocate@CCRTAllocator@ATL@@SAPAXI@Z	; ATL::CCRTAllocator::Allocate
	add	esp, 4
	mov	DWORD PTR _p$[ebp], eax

; 377  : 		if (p == NULL)

	cmp	DWORD PTR _p$[ebp], 0
	jne	SHORT $L162795

; 378  : 			return NULL;

	xor	eax, eax
	jmp	SHORT $L162782
$L162795:

; 379  : 		
; 380  : 		// Add buffer to the list
; 381  : 		p->m_pNext = m_pHead;

	mov	ecx, DWORD PTR _p$[ebp]
	mov	edx, DWORD PTR _this$[ebp]
	mov	eax, DWORD PTR [edx]
	mov	DWORD PTR [ecx], eax

; 382  : 		m_pHead = p;

	mov	ecx, DWORD PTR _this$[ebp]
	mov	edx, DWORD PTR _p$[ebp]
	mov	DWORD PTR [ecx], edx

; 383  : 		
; 384  : 		return p->GetData();

	mov	ecx, DWORD PTR _p$[ebp]
	call	?GetData@CAtlSafeAllocBufferNode@?$CAtlSafeAllocBufferManager@VCCRTAllocator@ATL@@@_ATL_SAFE_ALLOCA_IMPL@ATL@@QAEPAXXZ ; ATL::_ATL_SAFE_ALLOCA_IMPL::CAtlSafeAllocBufferManager<ATL::CCRTAllocator>::CAtlSafeAllocBufferNode::GetData
$L162782:

; 385  : 	}

	add	esp, 8
	cmp	ebp, esp
	call	__RTC_CheckEsp
	mov	esp, ebp
	pop	ebp
	ret	4
?Allocate@?$CAtlSafeAllocBufferManager@VCCRTAllocator@ATL@@@_ATL_SAFE_ALLOCA_IMPL@ATL@@QAEPAXK@Z ENDP ; ATL::_ATL_SAFE_ALLOCA_IMPL::CAtlSafeAllocBufferManager<ATL::CCRTAllocator>::Allocate
; Function compile flags: /Odt /RTCsu
_TEXT	ENDS
;	COMDAT ?Allocate@CCRTAllocator@ATL@@SAPAXI@Z
_TEXT	SEGMENT
_nBytes$ = 8						; size = 4
?Allocate@CCRTAllocator@ATL@@SAPAXI@Z PROC NEAR		; ATL::CCRTAllocator::Allocate, COMDAT

; 30   : 	{

	push	ebp
	mov	ebp, esp

; 31   : 		return malloc(nBytes);

	mov	eax, DWORD PTR _nBytes$[ebp]
	push	eax
	call	_malloc
	add	esp, 4

; 32   : 	}

	cmp	ebp, esp
	call	__RTC_CheckEsp
	pop	ebp
	ret	0
?Allocate@CCRTAllocator@ATL@@SAPAXI@Z ENDP		; ATL::CCRTAllocator::Allocate
_TEXT	ENDS
PUBLIC	?Free@CCRTAllocator@ATL@@SAXPAX@Z		; ATL::CCRTAllocator::Free
; Function compile flags: /Odt /RTCsu
;	COMDAT ??1?$CAtlSafeAllocBufferManager@VCCRTAllocator@ATL@@@_ATL_SAFE_ALLOCA_IMPL@ATL@@QAE@XZ
_TEXT	SEGMENT
_p$162801 = -8						; size = 4
_this$ = -4						; size = 4
??1?$CAtlSafeAllocBufferManager@VCCRTAllocator@ATL@@@_ATL_SAFE_ALLOCA_IMPL@ATL@@QAE@XZ PROC NEAR ; ATL::_ATL_SAFE_ALLOCA_IMPL::CAtlSafeAllocBufferManager<ATL::CCRTAllocator>::~CAtlSafeAllocBufferManager<ATL::CCRTAllocator>, COMDAT
; _this$ = ecx

; 387  : 	{

	push	ebp
	mov	ebp, esp
	sub	esp, 8
	mov	DWORD PTR [ebp-8], -858993460		; ccccccccH
	mov	DWORD PTR [ebp-4], -858993460		; ccccccccH
	mov	DWORD PTR _this$[ebp], ecx
$L162799:

; 388  : 		// Walk the list and free the buffers
; 389  : 		while (m_pHead != NULL)

	mov	eax, DWORD PTR _this$[ebp]
	cmp	DWORD PTR [eax], 0
	je	SHORT $L162797

; 390  : 		{
; 391  : 			CAtlSafeAllocBufferNode* p = m_pHead;

	mov	ecx, DWORD PTR _this$[ebp]
	mov	edx, DWORD PTR [ecx]
	mov	DWORD PTR _p$162801[ebp], edx

; 392  : 			m_pHead = m_pHead->m_pNext;

	mov	eax, DWORD PTR _this$[ebp]
	mov	ecx, DWORD PTR [eax]
	mov	edx, DWORD PTR _this$[ebp]
	mov	eax, DWORD PTR [ecx]
	mov	DWORD PTR [edx], eax

; 393  : 			Allocator::Free(p);

	mov	ecx, DWORD PTR _p$162801[ebp]
	push	ecx
	call	?Free@CCRTAllocator@ATL@@SAXPAX@Z	; ATL::CCRTAllocator::Free
	add	esp, 4

; 394  : 		}

	jmp	SHORT $L162799
$L162797:

; 395  : 	}

	add	esp, 8
	cmp	ebp, esp
	call	__RTC_CheckEsp
	mov	esp, ebp
	pop	ebp
	ret	0
??1?$CAtlSafeAllocBufferManager@VCCRTAllocator@ATL@@@_ATL_SAFE_ALLOCA_IMPL@ATL@@QAE@XZ ENDP ; ATL::_ATL_SAFE_ALLOCA_IMPL::CAtlSafeAllocBufferManager<ATL::CCRTAllocator>::~CAtlSafeAllocBufferManager<ATL::CCRTAllocator>
; Function compile flags: /Odt /RTCsu
_TEXT	ENDS
;	COMDAT ?Free@CCRTAllocator@ATL@@SAXPAX@Z
_TEXT	SEGMENT
_p$ = 8							; size = 4
?Free@CCRTAllocator@ATL@@SAXPAX@Z PROC NEAR		; ATL::CCRTAllocator::Free, COMDAT

; 35   : 	{

	push	ebp
	mov	ebp, esp

; 36   : 		free(p);

	mov	eax, DWORD PTR _p$[ebp]
	push	eax
	call	_free
	add	esp, 4

; 37   : 	}

	cmp	ebp, esp
	call	__RTC_CheckEsp
	pop	ebp
	ret	0
?Free@CCRTAllocator@ATL@@SAXPAX@Z ENDP			; ATL::CCRTAllocator::Free
; Function compile flags: /Odt /RTCsu
_TEXT	ENDS
;	COMDAT ??0?$CTempBuffer@D$0IA@VCCRTAllocator@ATL@@@ATL@@QAE@XZ
_TEXT	SEGMENT
_this$ = -4						; size = 4
??0?$CTempBuffer@D$0IA@VCCRTAllocator@ATL@@@ATL@@QAE@XZ PROC NEAR ; ATL::CTempBuffer<char,128,ATL::CCRTAllocator>::CTempBuffer<char,128,ATL::CCRTAllocator>, COMDAT
; _this$ = ecx

; 216  : 	{

	push	ebp
	mov	ebp, esp
	push	ecx
	mov	DWORD PTR [ebp-4], -858993460		; ccccccccH
	mov	DWORD PTR _this$[ebp], ecx
	mov	eax, DWORD PTR _this$[ebp]
	mov	DWORD PTR [eax], 0

; 217  : 	}

	mov	eax, DWORD PTR _this$[ebp]
	mov	esp, ebp
	pop	ebp
	ret	0
??0?$CTempBuffer@D$0IA@VCCRTAllocator@ATL@@@ATL@@QAE@XZ ENDP ; ATL::CTempBuffer<char,128,ATL::CCRTAllocator>::CTempBuffer<char,128,ATL::CCRTAllocator>
_TEXT	ENDS
PUBLIC	?FreeHeap@?$CTempBuffer@D$0IA@VCCRTAllocator@ATL@@@ATL@@AAEXXZ ; ATL::CTempBuffer<char,128,ATL::CCRTAllocator>::FreeHeap
; Function compile flags: /Odt /RTCsu
;	COMDAT ??1?$CTempBuffer@D$0IA@VCCRTAllocator@ATL@@@ATL@@QAE@XZ
_TEXT	SEGMENT
_this$ = -4						; size = 4
??1?$CTempBuffer@D$0IA@VCCRTAllocator@ATL@@@ATL@@QAE@XZ PROC NEAR ; ATL::CTempBuffer<char,128,ATL::CCRTAllocator>::~CTempBuffer<char,128,ATL::CCRTAllocator>, COMDAT
; _this$ = ecx

; 225  : 	{

	push	ebp
	mov	ebp, esp
	push	ecx
	mov	DWORD PTR [ebp-4], -858993460		; ccccccccH
	mov	DWORD PTR _this$[ebp], ecx

; 226  : 		if( m_p != reinterpret_cast< T* >( m_abFixedBuffer ) )

	mov	eax, DWORD PTR _this$[ebp]
	add	eax, 4
	mov	ecx, DWORD PTR _this$[ebp]
	cmp	DWORD PTR [ecx], eax
	je	SHORT $L162865

; 227  : 		{
; 228  : 			FreeHeap();

	mov	ecx, DWORD PTR _this$[ebp]
	call	?FreeHeap@?$CTempBuffer@D$0IA@VCCRTAllocator@ATL@@@ATL@@AAEXXZ ; ATL::CTempBuffer<char,128,ATL::CCRTAllocator>::FreeHeap
$L162865:

; 229  : 		}
; 230  : 	}

	add	esp, 4
	cmp	ebp, esp
	call	__RTC_CheckEsp
	mov	esp, ebp
	pop	ebp
	ret	0
??1?$CTempBuffer@D$0IA@VCCRTAllocator@ATL@@@ATL@@QAE@XZ ENDP ; ATL::CTempBuffer<char,128,ATL::CCRTAllocator>::~CTempBuffer<char,128,ATL::CCRTAllocator>
; Function compile flags: /Odt /RTCsu
_TEXT	ENDS
;	COMDAT ??B?$CTempBuffer@D$0IA@VCCRTAllocator@ATL@@@ATL@@QBEPADXZ
_TEXT	SEGMENT
_this$ = -4						; size = 4
??B?$CTempBuffer@D$0IA@VCCRTAllocator@ATL@@@ATL@@QBEPADXZ PROC NEAR ; ATL::CTempBuffer<char,128,ATL::CCRTAllocator>::operator char *, COMDAT
; _this$ = ecx

; 233  : 	{

	push	ebp
	mov	ebp, esp
	push	ecx
	mov	DWORD PTR [ebp-4], -858993460		; ccccccccH
	mov	DWORD PTR _this$[ebp], ecx

; 234  : 		return( m_p );

	mov	eax, DWORD PTR _this$[ebp]
	mov	eax, DWORD PTR [eax]

; 235  : 	}

	mov	esp, ebp
	pop	ebp
	ret	0
??B?$CTempBuffer@D$0IA@VCCRTAllocator@ATL@@@ATL@@QBEPADXZ ENDP ; ATL::CTempBuffer<char,128,ATL::CCRTAllocator>::operator char *
_TEXT	ENDS
PUBLIC	?AllocateBytes@?$CTempBuffer@D$0IA@VCCRTAllocator@ATL@@@ATL@@QAEPADI@Z ; ATL::CTempBuffer<char,128,ATL::CCRTAllocator>::AllocateBytes
; Function compile flags: /Odt /RTCsu
;	COMDAT ?Allocate@?$CTempBuffer@D$0IA@VCCRTAllocator@ATL@@@ATL@@QAEPADI@Z
_TEXT	SEGMENT
_this$ = -4						; size = 4
_nElements$ = 8						; size = 4
?Allocate@?$CTempBuffer@D$0IA@VCCRTAllocator@ATL@@@ATL@@QAEPADI@Z PROC NEAR ; ATL::CTempBuffer<char,128,ATL::CCRTAllocator>::Allocate, COMDAT
; _this$ = ecx

; 243  : 	{

	push	ebp
	mov	ebp, esp
	push	ecx
	mov	DWORD PTR [ebp-4], -858993460		; ccccccccH
	mov	DWORD PTR _this$[ebp], ecx

; 244  : 		return( AllocateBytes( nElements*sizeof( T ) ) );

	mov	eax, DWORD PTR _nElements$[ebp]
	push	eax
	mov	ecx, DWORD PTR _this$[ebp]
	call	?AllocateBytes@?$CTempBuffer@D$0IA@VCCRTAllocator@ATL@@@ATL@@QAEPADI@Z ; ATL::CTempBuffer<char,128,ATL::CCRTAllocator>::AllocateBytes

; 245  : 	}

	add	esp, 4
	cmp	ebp, esp
	call	__RTC_CheckEsp
	mov	esp, ebp
	pop	ebp
	ret	4
?Allocate@?$CTempBuffer@D$0IA@VCCRTAllocator@ATL@@@ATL@@QAEPADI@Z ENDP ; ATL::CTempBuffer<char,128,ATL::CCRTAllocator>::Allocate
_TEXT	ENDS
PUBLIC	?AllocateHeap@?$CTempBuffer@D$0IA@VCCRTAllocator@ATL@@@ATL@@AAEXI@Z ; ATL::CTempBuffer<char,128,ATL::CCRTAllocator>::AllocateHeap
PUBLIC	??_C@_08GPODJFIN@m_p?5?$DN?$DN?50?$AA@		; `string'
PUBLIC	??_C@_0FB@IAFJMJBP@C?3?2Program?5Files?2Microsoft?5Visua@ ; `string'
;	COMDAT ??_C@_08GPODJFIN@m_p?5?$DN?$DN?50?$AA@
CONST	SEGMENT
??_C@_08GPODJFIN@m_p?5?$DN?$DN?50?$AA@ DB 'm_p == 0', 00H ; `string'
CONST	ENDS
;	COMDAT ??_C@_0FB@IAFJMJBP@C?3?2Program?5Files?2Microsoft?5Visua@
CONST	SEGMENT
??_C@_0FB@IAFJMJBP@C?3?2Program?5Files?2Microsoft?5Visua@ DB 'C:\Program '
	DB	'Files\Microsoft Visual Studio .NET 2003\Vc7\atlmfc\include\at'
	DB	'lalloc.h', 00H				; `string'
; Function compile flags: /Odt /RTCsu
CONST	ENDS
;	COMDAT ?AllocateBytes@?$CTempBuffer@D$0IA@VCCRTAllocator@ATL@@@ATL@@QAEPADI@Z
_TEXT	SEGMENT
_this$ = -4						; size = 4
_nBytes$ = 8						; size = 4
?AllocateBytes@?$CTempBuffer@D$0IA@VCCRTAllocator@ATL@@@ATL@@QAEPADI@Z PROC NEAR ; ATL::CTempBuffer<char,128,ATL::CCRTAllocator>::AllocateBytes, COMDAT
; _this$ = ecx

; 276  : 	{

	push	ebp
	mov	ebp, esp
	push	ecx
	mov	DWORD PTR [ebp-4], -858993460		; ccccccccH
	mov	DWORD PTR _this$[ebp], ecx

; 277  : 		ATLASSERT( m_p == NULL );

	mov	eax, DWORD PTR _this$[ebp]
	cmp	DWORD PTR [eax], 0
	je	SHORT $L211848
	push	OFFSET FLAT:??_C@_08GPODJFIN@m_p?5?$DN?$DN?50?$AA@
	push	0
	push	277					; 00000115H
	push	OFFSET FLAT:??_C@_0FB@IAFJMJBP@C?3?2Program?5Files?2Microsoft?5Visua@
	push	2
	call	__CrtDbgReport
	add	esp, 20					; 00000014H
	cmp	eax, 1
	jne	SHORT $L211848
	int	3
$L211848:

; 278  : 		if( nBytes > t_nFixedBytes )

	cmp	DWORD PTR _nBytes$[ebp], 128		; 00000080H
	jbe	SHORT $L163783

; 279  : 		{
; 280  : 			AllocateHeap( nBytes );

	mov	edx, DWORD PTR _nBytes$[ebp]
	push	edx
	mov	ecx, DWORD PTR _this$[ebp]
	call	?AllocateHeap@?$CTempBuffer@D$0IA@VCCRTAllocator@ATL@@@ATL@@AAEXI@Z ; ATL::CTempBuffer<char,128,ATL::CCRTAllocator>::AllocateHeap

; 281  : 		}
; 282  : 		else

	jmp	SHORT $L163784
$L163783:

; 283  : 		{
; 284  : 			m_p = reinterpret_cast< T* >( m_abFixedBuffer );

	mov	eax, DWORD PTR _this$[ebp]
	add	eax, 4
	mov	ecx, DWORD PTR _this$[ebp]
	mov	DWORD PTR [ecx], eax
$L163784:

; 285  : 		}
; 286  : 
; 287  : 		return( m_p );

	mov	edx, DWORD PTR _this$[ebp]
	mov	eax, DWORD PTR [edx]

; 288  : 	}

	add	esp, 4
	cmp	ebp, esp
	call	__RTC_CheckEsp
	mov	esp, ebp
	pop	ebp
	ret	4
?AllocateBytes@?$CTempBuffer@D$0IA@VCCRTAllocator@ATL@@@ATL@@QAEPADI@Z ENDP ; ATL::CTempBuffer<char,128,ATL::CCRTAllocator>::AllocateBytes
; Function compile flags: /Odt /RTCsu
_TEXT	ENDS
;	COMDAT ?FreeHeap@?$CTempBuffer@D$0IA@VCCRTAllocator@ATL@@@ATL@@AAEXXZ
_TEXT	SEGMENT
_this$ = -4						; size = 4
?FreeHeap@?$CTempBuffer@D$0IA@VCCRTAllocator@ATL@@@ATL@@AAEXXZ PROC NEAR ; ATL::CTempBuffer<char,128,ATL::CCRTAllocator>::FreeHeap, COMDAT
; _this$ = ecx

; 312  : 	{

	push	ebp
	mov	ebp, esp
	push	ecx
	mov	DWORD PTR [ebp-4], -858993460		; ccccccccH
	mov	DWORD PTR _this$[ebp], ecx

; 313  : 		Allocator::Free( m_p );

	mov	eax, DWORD PTR _this$[ebp]
	mov	ecx, DWORD PTR [eax]
	push	ecx
	call	?Free@CCRTAllocator@ATL@@SAXPAX@Z	; ATL::CCRTAllocator::Free
	add	esp, 4

; 314  : 	}

	add	esp, 4
	cmp	ebp, esp
	call	__RTC_CheckEsp
	mov	esp, ebp
	pop	ebp
	ret	0
?FreeHeap@?$CTempBuffer@D$0IA@VCCRTAllocator@ATL@@@ATL@@AAEXXZ ENDP ; ATL::CTempBuffer<char,128,ATL::CCRTAllocator>::FreeHeap
; Function compile flags: /Odt /RTCsu
_TEXT	ENDS
;	COMDAT ?GetData@CAtlSafeAllocBufferNode@?$CAtlSafeAllocBufferManager@VCCRTAllocator@ATL@@@_ATL_SAFE_ALLOCA_IMPL@ATL@@QAEPAXXZ
_TEXT	SEGMENT
_this$ = -4						; size = 4
?GetData@CAtlSafeAllocBufferNode@?$CAtlSafeAllocBufferManager@VCCRTAllocator@ATL@@@_ATL_SAFE_ALLOCA_IMPL@ATL@@QAEPAXXZ PROC NEAR ; ATL::_ATL_SAFE_ALLOCA_IMPL::CAtlSafeAllocBufferManager<ATL::CCRTAllocator>::CAtlSafeAllocBufferNode::GetData, COMDAT
; _this$ = ecx

; 365  : 		{

	push	ebp
	mov	ebp, esp
	push	ecx
	mov	DWORD PTR [ebp-4], -858993460		; ccccccccH
	mov	DWORD PTR _this$[ebp], ecx

; 366  : 			return (this + 1);

	mov	eax, DWORD PTR _this$[ebp]
	add	eax, 8

; 367  : 		}

	mov	esp, ebp
	pop	ebp
	ret	0
?GetData@CAtlSafeAllocBufferNode@?$CAtlSafeAllocBufferManager@VCCRTAllocator@ATL@@@_ATL_SAFE_ALLOCA_IMPL@ATL@@QAEPAXXZ ENDP ; ATL::_ATL_SAFE_ALLOCA_IMPL::CAtlSafeAllocBufferManager<ATL::CCRTAllocator>::CAtlSafeAllocBufferNode::GetData
; Function compile flags: /Odt /RTCsu
_TEXT	ENDS
;	COMDAT ?AllocateHeap@?$CTempBuffer@D$0IA@VCCRTAllocator@ATL@@@ATL@@AAEXI@Z
_TEXT	SEGMENT
_p$ = -8						; size = 4
_this$ = -4						; size = 4
_nBytes$ = 8						; size = 4
?AllocateHeap@?$CTempBuffer@D$0IA@VCCRTAllocator@ATL@@@ATL@@AAEXI@Z PROC NEAR ; ATL::CTempBuffer<char,128,ATL::CCRTAllocator>::AllocateHeap, COMDAT
; _this$ = ecx

; 292  : 	{

	push	ebp
	mov	ebp, esp
	sub	esp, 8
	mov	DWORD PTR [ebp-8], -858993460		; ccccccccH
	mov	DWORD PTR [ebp-4], -858993460		; ccccccccH
	mov	DWORD PTR _this$[ebp], ecx

; 293  : 		T* p = static_cast< T* >( Allocator::Allocate( nBytes ) );

	mov	eax, DWORD PTR _nBytes$[ebp]
	push	eax
	call	?Allocate@CCRTAllocator@ATL@@SAPAXI@Z	; ATL::CCRTAllocator::Allocate
	add	esp, 4
	mov	DWORD PTR _p$[ebp], eax

; 294  : 		if( p == NULL )

	cmp	DWORD PTR _p$[ebp], 0
	jne	SHORT $L164148

; 295  : 		{
; 296  : 			AtlThrow( E_OUTOFMEMORY );

	push	-2147024882				; 8007000eH
	call	?AtlThrow@ATL@@YGXJ@Z			; ATL::AtlThrow
$L164148:

; 297  : 		}
; 298  : 		m_p = p;

	mov	ecx, DWORD PTR _this$[ebp]
	mov	edx, DWORD PTR _p$[ebp]
	mov	DWORD PTR [ecx], edx
$L211854:

; 299  : 	}

	add	esp, 8
	cmp	ebp, esp
	call	__RTC_CheckEsp
	mov	esp, ebp
	pop	ebp
	ret	4
?AllocateHeap@?$CTempBuffer@D$0IA@VCCRTAllocator@ATL@@@ATL@@AAEXI@Z ENDP ; ATL::CTempBuffer<char,128,ATL::CCRTAllocator>::AllocateHeap
_TEXT	ENDS
PUBLIC	??0CAtlWinModule@ATL@@QAE@XZ			; ATL::CAtlWinModule::CAtlWinModule
EXTRN	_atexit:NEAR
;	COMDAT CRT$XCU
; File c:\program files\microsoft visual studio .net 2003\vc7\atlmfc\include\atlbase.h
CRT$XCU	SEGMENT
_$S3	DD	FLAT:_$E1
; Function compile flags: /Odt /RTCsu
CRT$XCU	ENDS
;	COMDAT _$E1
text$yc	SEGMENT
_$E1	PROC NEAR					; COMDAT

; 2602 : __declspec(selectany) CAtlWinModule _AtlWinModule;

	push	ebp
	mov	ebp, esp
	mov	ecx, OFFSET FLAT:?_AtlWinModule@ATL@@3VCAtlWinModule@1@A
	call	??0CAtlWinModule@ATL@@QAE@XZ		; ATL::CAtlWinModule::CAtlWinModule
	push	OFFSET FLAT:_$E2
	call	_atexit
	add	esp, 4
	cmp	ebp, esp
	call	__RTC_CheckEsp
	pop	ebp
	ret	0
_$E1	ENDP
text$yc	ENDS
PUBLIC	??0_ATL_WIN_MODULE70@ATL@@QAE@XZ		; ATL::_ATL_WIN_MODULE70::_ATL_WIN_MODULE70
EXTRN	?AtlWinModuleInit@ATL@@YGJPAU_ATL_WIN_MODULE70@1@@Z:NEAR ; ATL::AtlWinModuleInit
; Function compile flags: /Odt /RTCsu
;	COMDAT ??0CAtlWinModule@ATL@@QAE@XZ
_TEXT	SEGMENT
_hr$ = -8						; size = 4
_this$ = -4						; size = 4
??0CAtlWinModule@ATL@@QAE@XZ PROC NEAR			; ATL::CAtlWinModule::CAtlWinModule, COMDAT
; _this$ = ecx

; 2573 : 	CAtlWinModule()

	push	ebp
	mov	ebp, esp
	sub	esp, 8
	mov	DWORD PTR [ebp-8], -858993460		; ccccccccH
	mov	DWORD PTR [ebp-4], -858993460		; ccccccccH
	mov	DWORD PTR _this$[ebp], ecx
	mov	ecx, DWORD PTR _this$[ebp]
	call	??0_ATL_WIN_MODULE70@ATL@@QAE@XZ

; 2574 : 	{
; 2575 : 		cbSize = sizeof(_ATL_WIN_MODULE);

	mov	eax, DWORD PTR _this$[ebp]
	mov	DWORD PTR [eax], 44			; 0000002cH

; 2576 : 		HRESULT hr = AtlWinModuleInit(this);

	mov	ecx, DWORD PTR _this$[ebp]
	push	ecx
	call	?AtlWinModuleInit@ATL@@YGJPAU_ATL_WIN_MODULE70@1@@Z ; ATL::AtlWinModuleInit
	mov	DWORD PTR _hr$[ebp], eax

; 2577 : 		if (FAILED(hr))

	cmp	DWORD PTR _hr$[ebp], 0
	jge	SHORT $L88121

; 2578 : 			CAtlBaseModule::m_bInitFailed = true;

	mov	BYTE PTR ?m_bInitFailed@CAtlBaseModule@ATL@@2_NA, 1 ; ATL::CAtlBaseModule::m_bInitFailed
$L88121:

; 2579 : 	}

	mov	eax, DWORD PTR _this$[ebp]
	add	esp, 8
	cmp	ebp, esp
	call	__RTC_CheckEsp
	mov	esp, ebp
	pop	ebp
	ret	0
??0CAtlWinModule@ATL@@QAE@XZ ENDP			; ATL::CAtlWinModule::CAtlWinModule
_TEXT	ENDS
PUBLIC	??0CComCriticalSection@ATL@@QAE@XZ		; ATL::CComCriticalSection::CComCriticalSection
PUBLIC	??0?$CSimpleArray@GV?$CSimpleArrayEqualHelper@G@ATL@@@ATL@@QAE@XZ ; ATL::CSimpleArray<unsigned short,ATL::CSimpleArrayEqualHelper<unsigned short> >::CSimpleArray<unsigned short,ATL::CSimpleArrayEqualHelper<unsigned short> >
; Function compile flags: /Odt /RTCsu
;	COMDAT ??0_ATL_WIN_MODULE70@ATL@@QAE@XZ
_TEXT	SEGMENT
_this$ = -4						; size = 4
??0_ATL_WIN_MODULE70@ATL@@QAE@XZ PROC NEAR		; ATL::_ATL_WIN_MODULE70::_ATL_WIN_MODULE70, COMDAT
; _this$ = ecx
	push	ebp
	mov	ebp, esp
	push	ecx
	mov	DWORD PTR [ebp-4], -858993460		; ccccccccH
	mov	DWORD PTR _this$[ebp], ecx
	mov	ecx, DWORD PTR _this$[ebp]
	add	ecx, 4
	call	??0CComCriticalSection@ATL@@QAE@XZ	; ATL::CComCriticalSection::CComCriticalSection
	mov	ecx, DWORD PTR _this$[ebp]
	add	ecx, 32					; 00000020H
	call	??0?$CSimpleArray@GV?$CSimpleArrayEqualHelper@G@ATL@@@ATL@@QAE@XZ ; ATL::CSimpleArray<unsigned short,ATL::CSimpleArrayEqualHelper<unsigned short> >::CSimpleArray<unsigned short,ATL::CSimpleArrayEqualHelper<unsigned short> >
	mov	eax, DWORD PTR _this$[ebp]
	add	esp, 4
	cmp	ebp, esp
	call	__RTC_CheckEsp
	mov	esp, ebp
	pop	ebp
	ret	0
??0_ATL_WIN_MODULE70@ATL@@QAE@XZ ENDP			; ATL::_ATL_WIN_MODULE70::_ATL_WIN_MODULE70
; Function compile flags: /Odt /RTCsu
; File c:\program files\microsoft visual studio .net 2003\vc7\atlmfc\include\atlcore.h
_TEXT	ENDS
;	COMDAT ??0CComCriticalSection@ATL@@QAE@XZ
_TEXT	SEGMENT
_this$ = -4						; size = 4
??0CComCriticalSection@ATL@@QAE@XZ PROC NEAR		; ATL::CComCriticalSection::CComCriticalSection, COMDAT
; _this$ = ecx

; 114  : 	CComCriticalSection() throw()

	push	ebp
	mov	ebp, esp
	push	ecx
	mov	DWORD PTR [ebp-4], -858993460		; ccccccccH
	mov	DWORD PTR _this$[ebp], ecx

; 115  : 	{
; 116  : 		memset(&m_sec, 0, sizeof(CRITICAL_SECTION));

	push	24					; 00000018H
	push	0
	mov	eax, DWORD PTR _this$[ebp]
	push	eax
	call	_memset
	add	esp, 12					; 0000000cH

; 117  : 	}

	mov	eax, DWORD PTR _this$[ebp]
	add	esp, 4
	cmp	ebp, esp
	call	__RTC_CheckEsp
	mov	esp, ebp
	pop	ebp
	ret	0
??0CComCriticalSection@ATL@@QAE@XZ ENDP			; ATL::CComCriticalSection::CComCriticalSection
; Function compile flags: /Odt /RTCsu
; File c:\program files\microsoft visual studio .net 2003\vc7\atlmfc\include\atlsimpcoll.h
_TEXT	ENDS
;	COMDAT ??0?$CSimpleArray@GV?$CSimpleArrayEqualHelper@G@ATL@@@ATL@@QAE@XZ
_TEXT	SEGMENT
_this$ = -4						; size = 4
??0?$CSimpleArray@GV?$CSimpleArrayEqualHelper@G@ATL@@@ATL@@QAE@XZ PROC NEAR ; ATL::CSimpleArray<unsigned short,ATL::CSimpleArrayEqualHelper<unsigned short> >::CSimpleArray<unsigned short,ATL::CSimpleArrayEqualHelper<unsigned short> >, COMDAT
; _this$ = ecx

; 97   : 	{ }

	push	ebp
	mov	ebp, esp
	push	ecx
	mov	DWORD PTR [ebp-4], -858993460		; ccccccccH
	mov	DWORD PTR _this$[ebp], ecx
	mov	eax, DWORD PTR _this$[ebp]
	mov	DWORD PTR [eax], 0
	mov	ecx, DWORD PTR _this$[ebp]
	mov	DWORD PTR [ecx+4], 0
	mov	edx, DWORD PTR _this$[ebp]
	mov	DWORD PTR [edx+8], 0
	mov	eax, DWORD PTR _this$[ebp]
	mov	esp, ebp
	pop	ebp
	ret	0
??0?$CSimpleArray@GV?$CSimpleArrayEqualHelper@G@ATL@@@ATL@@QAE@XZ ENDP ; ATL::CSimpleArray<unsigned short,ATL::CSimpleArrayEqualHelper<unsigned short> >::CSimpleArray<unsigned short,ATL::CSimpleArrayEqualHelper<unsigned short> >
_TEXT	ENDS
PUBLIC	??1CAtlWinModule@ATL@@QAE@XZ			; ATL::CAtlWinModule::~CAtlWinModule
; Function compile flags: /Odt /RTCsu
;	COMDAT _$E2
text$yd	SEGMENT
_$E2	PROC NEAR					; COMDAT
	push	ebp
	mov	ebp, esp
	mov	ecx, OFFSET FLAT:?_AtlWinModule@ATL@@3VCAtlWinModule@1@A
	call	??1CAtlWinModule@ATL@@QAE@XZ		; ATL::CAtlWinModule::~CAtlWinModule
	cmp	ebp, esp
	call	__RTC_CheckEsp
	pop	ebp
	ret	0
_$E2	ENDP
text$yd	ENDS
PUBLIC	?Term@CAtlWinModule@ATL@@QAEXXZ			; ATL::CAtlWinModule::Term
PUBLIC	??1_ATL_WIN_MODULE70@ATL@@QAE@XZ		; ATL::_ATL_WIN_MODULE70::~_ATL_WIN_MODULE70
;	COMDAT xdata$x
; File c:\program files\microsoft visual studio .net 2003\vc7\atlmfc\include\atlbase.h
xdata$x	SEGMENT
$T211875 DD	0ffffffffH
	DD	FLAT:$L211871
$T211873 DD	019930520H
	DD	01H
	DD	FLAT:$T211875
	DD	2 DUP(00H)
	DD	2 DUP(00H)
; Function compile flags: /Odt /RTCsu
xdata$x	ENDS
;	COMDAT ??1CAtlWinModule@ATL@@QAE@XZ
_TEXT	SEGMENT
_this$ = -16						; size = 4
__$EHRec$ = -12						; size = 12
??1CAtlWinModule@ATL@@QAE@XZ PROC NEAR			; ATL::CAtlWinModule::~CAtlWinModule, COMDAT
; _this$ = ecx

; 2582 : 	{

	push	ebp
	mov	ebp, esp
	push	-1
	push	__ehhandler$??1CAtlWinModule@ATL@@QAE@XZ
	mov	eax, DWORD PTR fs:__except_list
	push	eax
	mov	DWORD PTR fs:__except_list, esp
	push	ecx
	mov	DWORD PTR [ebp-16], -858993460		; ccccccccH
	mov	DWORD PTR _this$[ebp], ecx
	mov	DWORD PTR __$EHRec$[ebp+8], 0

; 2583 : 		Term();

	mov	ecx, DWORD PTR _this$[ebp]
	call	?Term@CAtlWinModule@ATL@@QAEXXZ		; ATL::CAtlWinModule::Term

; 2584 : 	}

	mov	DWORD PTR __$EHRec$[ebp+8], -1
	mov	ecx, DWORD PTR _this$[ebp]
	call	??1_ATL_WIN_MODULE70@ATL@@QAE@XZ
	mov	ecx, DWORD PTR __$EHRec$[ebp]
	mov	DWORD PTR fs:__except_list, ecx
	add	esp, 16					; 00000010H
	cmp	ebp, esp
	call	__RTC_CheckEsp
	mov	esp, ebp
	pop	ebp
	ret	0
_TEXT	ENDS
;	COMDAT text$x
text$x	SEGMENT
$L211871:
	mov	ecx, DWORD PTR _this$[ebp]
	jmp	??1_ATL_WIN_MODULE70@ATL@@QAE@XZ
__ehhandler$??1CAtlWinModule@ATL@@QAE@XZ:
	mov	eax, OFFSET FLAT:$T211873
	jmp	___CxxFrameHandler
text$x	ENDS
??1CAtlWinModule@ATL@@QAE@XZ ENDP			; ATL::CAtlWinModule::~CAtlWinModule
PUBLIC	?GetModuleInstance@CAtlBaseModule@ATL@@QAEPAUHINSTANCE__@@XZ ; ATL::CAtlBaseModule::GetModuleInstance
PUBLIC	?AtlWinModuleTerm@ATL@@YGJPAU_ATL_WIN_MODULE70@1@PAUHINSTANCE__@@@Z ; ATL::AtlWinModuleTerm
EXTRN	?_AtlBaseModule@ATL@@3VCAtlBaseModule@1@A:BYTE	; ATL::_AtlBaseModule
; Function compile flags: /Odt /RTCsu
;	COMDAT ?Term@CAtlWinModule@ATL@@QAEXXZ
_TEXT	SEGMENT
_this$ = -4						; size = 4
?Term@CAtlWinModule@ATL@@QAEXXZ PROC NEAR		; ATL::CAtlWinModule::Term, COMDAT
; _this$ = ecx

; 2587 : 	{

	push	ebp
	mov	ebp, esp
	push	ecx
	mov	DWORD PTR [ebp-4], -858993460		; ccccccccH
	mov	DWORD PTR _this$[ebp], ecx

; 2588 : 		AtlWinModuleTerm(this, _AtlBaseModule.GetModuleInstance());

	mov	ecx, OFFSET FLAT:?_AtlBaseModule@ATL@@3VCAtlBaseModule@1@A
	call	?GetModuleInstance@CAtlBaseModule@ATL@@QAEPAUHINSTANCE__@@XZ ; ATL::CAtlBaseModule::GetModuleInstance
	push	eax
	mov	eax, DWORD PTR _this$[ebp]
	push	eax
	call	?AtlWinModuleTerm@ATL@@YGJPAU_ATL_WIN_MODULE70@1@PAUHINSTANCE__@@@Z ; ATL::AtlWinModuleTerm

; 2589 : 	}

	add	esp, 4
	cmp	ebp, esp
	call	__RTC_CheckEsp
	mov	esp, ebp
	pop	ebp
	ret	0
?Term@CAtlWinModule@ATL@@QAEXXZ ENDP			; ATL::CAtlWinModule::Term
; Function compile flags: /Odt /RTCsu
; File c:\program files\microsoft visual studio .net 2003\vc7\atlmfc\include\atlcore.h
_TEXT	ENDS
;	COMDAT ?GetModuleInstance@CAtlBaseModule@ATL@@QAEPAUHINSTANCE__@@XZ
_TEXT	SEGMENT
_this$ = -4						; size = 4
?GetModuleInstance@CAtlBaseModule@ATL@@QAEPAUHINSTANCE__@@XZ PROC NEAR ; ATL::CAtlBaseModule::GetModuleInstance, COMDAT
; _this$ = ecx

; 206  : 	{

	push	ebp
	mov	ebp, esp
	push	ecx
	mov	DWORD PTR [ebp-4], -858993460		; ccccccccH
	mov	DWORD PTR _this$[ebp], ecx

; 207  : 		return m_hInst;

	mov	eax, DWORD PTR _this$[ebp]
	mov	eax, DWORD PTR [eax+4]

; 208  : 	}

	mov	esp, ebp
	pop	ebp
	ret	0
?GetModuleInstance@CAtlBaseModule@ATL@@QAEPAUHINSTANCE__@@XZ ENDP ; ATL::CAtlBaseModule::GetModuleInstance
_TEXT	ENDS
PUBLIC	??1?$CSimpleArray@GV?$CSimpleArrayEqualHelper@G@ATL@@@ATL@@QAE@XZ ; ATL::CSimpleArray<unsigned short,ATL::CSimpleArrayEqualHelper<unsigned short> >::~CSimpleArray<unsigned short,ATL::CSimpleArrayEqualHelper<unsigned short> >
; Function compile flags: /Odt /RTCsu
;	COMDAT ??1_ATL_WIN_MODULE70@ATL@@QAE@XZ
_TEXT	SEGMENT
_this$ = -4						; size = 4
??1_ATL_WIN_MODULE70@ATL@@QAE@XZ PROC NEAR		; ATL::_ATL_WIN_MODULE70::~_ATL_WIN_MODULE70, COMDAT
; _this$ = ecx
	push	ebp
	mov	ebp, esp
	push	ecx
	mov	DWORD PTR [ebp-4], -858993460		; ccccccccH
	mov	DWORD PTR _this$[ebp], ecx
	mov	ecx, DWORD PTR _this$[ebp]
	add	ecx, 32					; 00000020H
	call	??1?$CSimpleArray@GV?$CSimpleArrayEqualHelper@G@ATL@@@ATL@@QAE@XZ ; ATL::CSimpleArray<unsigned short,ATL::CSimpleArrayEqualHelper<unsigned short> >::~CSimpleArray<unsigned short,ATL::CSimpleArrayEqualHelper<unsigned short> >
	add	esp, 4
	cmp	ebp, esp
	call	__RTC_CheckEsp
	mov	esp, ebp
	pop	ebp
	ret	0
??1_ATL_WIN_MODULE70@ATL@@QAE@XZ ENDP			; ATL::_ATL_WIN_MODULE70::~_ATL_WIN_MODULE70
_TEXT	ENDS
PUBLIC	?Term@CComCriticalSection@ATL@@QAEJXZ		; ATL::CComCriticalSection::Term
PUBLIC	?GetSize@?$CSimpleArray@GV?$CSimpleArrayEqualHelper@G@ATL@@@ATL@@QBEHXZ ; ATL::CSimpleArray<unsigned short,ATL::CSimpleArrayEqualHelper<unsigned short> >::GetSize
PUBLIC	?RemoveAll@?$CSimpleArray@GV?$CSimpleArrayEqualHelper@G@ATL@@@ATL@@QAEXXZ ; ATL::CSimpleArray<unsigned short,ATL::CSimpleArrayEqualHelper<unsigned short> >::RemoveAll
PUBLIC	??A?$CSimpleArray@GV?$CSimpleArrayEqualHelper@G@ATL@@@ATL@@QAEAAGH@Z ; ATL::CSimpleArray<unsigned short,ATL::CSimpleArrayEqualHelper<unsigned short> >::operator[]
EXTRN	__imp__UnregisterClassA@8:NEAR
; Function compile flags: /Odt /RTCsu
; File c:\program files\microsoft visual studio .net 2003\vc7\atlmfc\include\atlbase.h
;	COMDAT ?AtlWinModuleTerm@ATL@@YGJPAU_ATL_WIN_MODULE70@1@PAUHINSTANCE__@@@Z
_TEXT	SEGMENT
_i$91551 = -4						; size = 4
_pWinModule$ = 8					; size = 4
_hInst$ = 12						; size = 4
?AtlWinModuleTerm@ATL@@YGJPAU_ATL_WIN_MODULE70@1@PAUHINSTANCE__@@@Z PROC NEAR ; ATL::AtlWinModuleTerm, COMDAT

; 6215 : {

	push	ebp
	mov	ebp, esp
	push	ecx
	push	esi
	mov	DWORD PTR [ebp-4], -858993460		; ccccccccH

; 6216 : 	if (pWinModule == NULL)

	cmp	DWORD PTR _pWinModule$[ebp], 0
	jne	SHORT $L91544

; 6217 : 		return E_INVALIDARG;

	mov	eax, -2147024809			; 80070057H
	jmp	$L91543
$L91544:

; 6218 : 	if (pWinModule->cbSize == 0)

	mov	eax, DWORD PTR _pWinModule$[ebp]
	cmp	DWORD PTR [eax], 0
	jne	SHORT $L91546

; 6219 : 		return S_OK;

	xor	eax, eax
	jmp	SHORT $L91543
$L91546:

; 6220 : 	if (pWinModule->cbSize != sizeof(_ATL_WIN_MODULE))

	mov	ecx, DWORD PTR _pWinModule$[ebp]
	cmp	DWORD PTR [ecx], 44			; 0000002cH
	je	SHORT $L91549

; 6221 : 		return E_INVALIDARG;

	mov	eax, -2147024809			; 80070057H
	jmp	SHORT $L91543
$L91549:

; 6222 : 
; 6223 : 	for (int i = 0; i < pWinModule->m_rgWindowClassAtoms.GetSize(); i++)

	mov	DWORD PTR _i$91551[ebp], 0
	jmp	SHORT $L91552
$L91553:
	mov	edx, DWORD PTR _i$91551[ebp]
	add	edx, 1
	mov	DWORD PTR _i$91551[ebp], edx
$L91552:
	mov	ecx, DWORD PTR _pWinModule$[ebp]
	add	ecx, 32					; 00000020H
	call	?GetSize@?$CSimpleArray@GV?$CSimpleArrayEqualHelper@G@ATL@@@ATL@@QBEHXZ ; ATL::CSimpleArray<unsigned short,ATL::CSimpleArrayEqualHelper<unsigned short> >::GetSize
	cmp	DWORD PTR _i$91551[ebp], eax
	jge	SHORT $L91554

; 6224 : 		UnregisterClass((LPCTSTR)pWinModule->m_rgWindowClassAtoms[i], hInst);

	mov	esi, esp
	mov	eax, DWORD PTR _hInst$[ebp]
	push	eax
	mov	ecx, DWORD PTR _i$91551[ebp]
	push	ecx
	mov	ecx, DWORD PTR _pWinModule$[ebp]
	add	ecx, 32					; 00000020H
	call	??A?$CSimpleArray@GV?$CSimpleArrayEqualHelper@G@ATL@@@ATL@@QAEAAGH@Z ; ATL::CSimpleArray<unsigned short,ATL::CSimpleArrayEqualHelper<unsigned short> >::operator[]
	movzx	edx, WORD PTR [eax]
	push	edx
	call	DWORD PTR __imp__UnregisterClassA@8
	cmp	esi, esp
	call	__RTC_CheckEsp
	jmp	SHORT $L91553
$L91554:

; 6225 : 	pWinModule->m_rgWindowClassAtoms.RemoveAll();

	mov	ecx, DWORD PTR _pWinModule$[ebp]
	add	ecx, 32					; 00000020H
	call	?RemoveAll@?$CSimpleArray@GV?$CSimpleArrayEqualHelper@G@ATL@@@ATL@@QAEXXZ ; ATL::CSimpleArray<unsigned short,ATL::CSimpleArrayEqualHelper<unsigned short> >::RemoveAll

; 6226 : 	pWinModule->m_csWindowCreate.Term();

	mov	ecx, DWORD PTR _pWinModule$[ebp]
	add	ecx, 4
	call	?Term@CComCriticalSection@ATL@@QAEJXZ	; ATL::CComCriticalSection::Term

; 6227 : 	pWinModule->cbSize = 0;

	mov	eax, DWORD PTR _pWinModule$[ebp]
	mov	DWORD PTR [eax], 0

; 6228 : 	return S_OK;

	xor	eax, eax
$L91543:

; 6229 : }

	pop	esi
	add	esp, 4
	cmp	ebp, esp
	call	__RTC_CheckEsp
	mov	esp, ebp
	pop	ebp
	ret	8
?AtlWinModuleTerm@ATL@@YGJPAU_ATL_WIN_MODULE70@1@PAUHINSTANCE__@@@Z ENDP ; ATL::AtlWinModuleTerm
_TEXT	ENDS
EXTRN	__imp__DeleteCriticalSection@4:NEAR
; Function compile flags: /Odt /RTCsu
; File c:\program files\microsoft visual studio .net 2003\vc7\atlmfc\include\atlcore.h
;	COMDAT ?Term@CComCriticalSection@ATL@@QAEJXZ
_TEXT	SEGMENT
_this$ = -4						; size = 4
?Term@CComCriticalSection@ATL@@QAEJXZ PROC NEAR		; ATL::CComCriticalSection::Term, COMDAT
; _this$ = ecx

; 147  : 	{

	push	ebp
	mov	ebp, esp
	push	ecx
	push	esi
	mov	DWORD PTR [ebp-4], -858993460		; ccccccccH
	mov	DWORD PTR _this$[ebp], ecx

; 148  : 		DeleteCriticalSection(&m_sec);

	mov	esi, esp
	mov	eax, DWORD PTR _this$[ebp]
	push	eax
	call	DWORD PTR __imp__DeleteCriticalSection@4
	cmp	esi, esp
	call	__RTC_CheckEsp

; 149  : 		return S_OK;

	xor	eax, eax

; 150  : 	}	

	pop	esi
	add	esp, 4
	cmp	ebp, esp
	call	__RTC_CheckEsp
	mov	esp, ebp
	pop	ebp
	ret	0
?Term@CComCriticalSection@ATL@@QAEJXZ ENDP		; ATL::CComCriticalSection::Term
; Function compile flags: /Odt /RTCsu
; File c:\program files\microsoft visual studio .net 2003\vc7\atlmfc\include\atlsimpcoll.h
_TEXT	ENDS
;	COMDAT ??1?$CSimpleArray@GV?$CSimpleArrayEqualHelper@G@ATL@@@ATL@@QAE@XZ
_TEXT	SEGMENT
_this$ = -4						; size = 4
??1?$CSimpleArray@GV?$CSimpleArrayEqualHelper@G@ATL@@@ATL@@QAE@XZ PROC NEAR ; ATL::CSimpleArray<unsigned short,ATL::CSimpleArrayEqualHelper<unsigned short> >::~CSimpleArray<unsigned short,ATL::CSimpleArrayEqualHelper<unsigned short> >, COMDAT
; _this$ = ecx

; 100  : 	{

	push	ebp
	mov	ebp, esp
	push	ecx
	mov	DWORD PTR [ebp-4], -858993460		; ccccccccH
	mov	DWORD PTR _this$[ebp], ecx

; 101  : 		RemoveAll();

	mov	ecx, DWORD PTR _this$[ebp]
	call	?RemoveAll@?$CSimpleArray@GV?$CSimpleArrayEqualHelper@G@ATL@@@ATL@@QAEXXZ ; ATL::CSimpleArray<unsigned short,ATL::CSimpleArrayEqualHelper<unsigned short> >::RemoveAll

; 102  : 	}

	add	esp, 4
	cmp	ebp, esp
	call	__RTC_CheckEsp
	mov	esp, ebp
	pop	ebp
	ret	0
??1?$CSimpleArray@GV?$CSimpleArrayEqualHelper@G@ATL@@@ATL@@QAE@XZ ENDP ; ATL::CSimpleArray<unsigned short,ATL::CSimpleArrayEqualHelper<unsigned short> >::~CSimpleArray<unsigned short,ATL::CSimpleArrayEqualHelper<unsigned short> >
; Function compile flags: /Odt /RTCsu
_TEXT	ENDS
;	COMDAT ?GetSize@?$CSimpleArray@GV?$CSimpleArrayEqualHelper@G@ATL@@@ATL@@QBEHXZ
_TEXT	SEGMENT
_this$ = -4						; size = 4
?GetSize@?$CSimpleArray@GV?$CSimpleArrayEqualHelper@G@ATL@@@ATL@@QBEHXZ PROC NEAR ; ATL::CSimpleArray<unsigned short,ATL::CSimpleArrayEqualHelper<unsigned short> >::GetSize, COMDAT
; _this$ = ecx

; 135  : 	{

	push	ebp
	mov	ebp, esp
	push	ecx
	mov	DWORD PTR [ebp-4], -858993460		; ccccccccH
	mov	DWORD PTR _this$[ebp], ecx

; 136  : 		return m_nSize;

	mov	eax, DWORD PTR _this$[ebp]
	mov	eax, DWORD PTR [eax+4]

; 137  : 	}

	mov	esp, ebp
	pop	ebp
	ret	0
?GetSize@?$CSimpleArray@GV?$CSimpleArrayEqualHelper@G@ATL@@@ATL@@QBEHXZ ENDP ; ATL::CSimpleArray<unsigned short,ATL::CSimpleArrayEqualHelper<unsigned short> >::GetSize
; Function compile flags: /Odt /RTCsu
_TEXT	ENDS
;	COMDAT ?RemoveAll@?$CSimpleArray@GV?$CSimpleArrayEqualHelper@G@ATL@@@ATL@@QAEXXZ
_TEXT	SEGMENT
_i$162915 = -8						; size = 4
_this$ = -4						; size = 4
?RemoveAll@?$CSimpleArray@GV?$CSimpleArrayEqualHelper@G@ATL@@@ATL@@QAEXXZ PROC NEAR ; ATL::CSimpleArray<unsigned short,ATL::CSimpleArrayEqualHelper<unsigned short> >::RemoveAll, COMDAT
; _this$ = ecx

; 173  : 	{

	push	ebp
	mov	ebp, esp
	sub	esp, 8
	mov	DWORD PTR [ebp-8], -858993460		; ccccccccH
	mov	DWORD PTR [ebp-4], -858993460		; ccccccccH
	mov	DWORD PTR _this$[ebp], ecx

; 174  : 		if(m_aT != NULL)

	mov	eax, DWORD PTR _this$[ebp]
	cmp	DWORD PTR [eax], 0
	je	SHORT $L162914

; 175  : 		{
; 176  : 			for(int i = 0; i < m_nSize; i++)

	mov	DWORD PTR _i$162915[ebp], 0
	jmp	SHORT $L162916
$L162917:
	mov	ecx, DWORD PTR _i$162915[ebp]
	add	ecx, 1
	mov	DWORD PTR _i$162915[ebp], ecx
$L162916:
	mov	edx, DWORD PTR _this$[ebp]
	mov	eax, DWORD PTR _i$162915[ebp]
	cmp	eax, DWORD PTR [edx+4]
	jge	SHORT $L162918

; 177  : 				m_aT[i].~T();

	jmp	SHORT $L162917
$L162918:

; 178  : 			free(m_aT);

	mov	ecx, DWORD PTR _this$[ebp]
	mov	edx, DWORD PTR [ecx]
	push	edx
	call	_free
	add	esp, 4

; 179  : 			m_aT = NULL;

	mov	eax, DWORD PTR _this$[ebp]
	mov	DWORD PTR [eax], 0
$L162914:

; 180  : 		}
; 181  : 		m_nSize = 0;

	mov	ecx, DWORD PTR _this$[ebp]
	mov	DWORD PTR [ecx+4], 0

; 182  : 		m_nAllocSize = 0;

	mov	edx, DWORD PTR _this$[ebp]
	mov	DWORD PTR [edx+8], 0

; 183  : 	}

	add	esp, 8
	cmp	ebp, esp
	call	__RTC_CheckEsp
	mov	esp, ebp
	pop	ebp
	ret	0
?RemoveAll@?$CSimpleArray@GV?$CSimpleArrayEqualHelper@G@ATL@@@ATL@@QAEXXZ ENDP ; ATL::CSimpleArray<unsigned short,ATL::CSimpleArrayEqualHelper<unsigned short> >::RemoveAll
_TEXT	ENDS
PUBLIC	??_C@_0FE@GCCFFNOH@C?3?2Program?5Files?2Microsoft?5Visua@ ; `string'
PUBLIC	?_AtlRaiseException@ATL@@YAXKK@Z		; ATL::_AtlRaiseException
PUBLIC	??_C@_0CA@CLKCNBMB@nIndex?5?$DO?$DN?50?5?$CG?$CG?5nIndex?5?$DM?5m_nSize?$AA@ ; `string'
;	COMDAT ??_C@_0CA@CLKCNBMB@nIndex?5?$DO?$DN?50?5?$CG?$CG?5nIndex?5?$DM?5m_nSize?$AA@
CONST	SEGMENT
??_C@_0CA@CLKCNBMB@nIndex?5?$DO?$DN?50?5?$CG?$CG?5nIndex?5?$DM?5m_nSize?$AA@ DB 'n'
	DB	'Index >= 0 && nIndex < m_nSize', 00H	; `string'
CONST	ENDS
;	COMDAT ??_C@_0FE@GCCFFNOH@C?3?2Program?5Files?2Microsoft?5Visua@
CONST	SEGMENT
??_C@_0FE@GCCFFNOH@C?3?2Program?5Files?2Microsoft?5Visua@ DB 'C:\Program '
	DB	'Files\Microsoft Visual Studio .NET 2003\Vc7\atlmfc\include\at'
	DB	'lsimpcoll.h', 00H				; `string'
; Function compile flags: /Odt /RTCsu
CONST	ENDS
;	COMDAT ??A?$CSimpleArray@GV?$CSimpleArrayEqualHelper@G@ATL@@@ATL@@QAEAAGH@Z
_TEXT	SEGMENT
_this$ = -4						; size = 4
_nIndex$ = 8						; size = 4
??A?$CSimpleArray@GV?$CSimpleArrayEqualHelper@G@ATL@@@ATL@@QAEAAGH@Z PROC NEAR ; ATL::CSimpleArray<unsigned short,ATL::CSimpleArrayEqualHelper<unsigned short> >::operator[], COMDAT
; _this$ = ecx

; 194  : 	{

	push	ebp
	mov	ebp, esp
	push	ecx
	mov	DWORD PTR [ebp-4], -858993460		; ccccccccH
	mov	DWORD PTR _this$[ebp], ecx

; 195  : 		ATLASSERT(nIndex >= 0 && nIndex < m_nSize);

	cmp	DWORD PTR _nIndex$[ebp], 0
	jl	SHORT $L211897
	mov	eax, DWORD PTR _this$[ebp]
	mov	ecx, DWORD PTR _nIndex$[ebp]
	cmp	ecx, DWORD PTR [eax+4]
	jl	SHORT $L211898
$L211897:
	push	OFFSET FLAT:??_C@_0CA@CLKCNBMB@nIndex?5?$DO?$DN?50?5?$CG?$CG?5nIndex?5?$DM?5m_nSize?$AA@
	push	0
	push	195					; 000000c3H
	push	OFFSET FLAT:??_C@_0FE@GCCFFNOH@C?3?2Program?5Files?2Microsoft?5Visua@
	push	2
	call	__CrtDbgReport
	add	esp, 20					; 00000014H
	cmp	eax, 1
	jne	SHORT $L211898
	int	3
$L211898:

; 196  : 		if(nIndex < 0 || nIndex >= m_nSize)

	cmp	DWORD PTR _nIndex$[ebp], 0
	jl	SHORT $L162924
	mov	eax, DWORD PTR _this$[ebp]
	mov	ecx, DWORD PTR _nIndex$[ebp]
	cmp	ecx, DWORD PTR [eax+4]
	jl	SHORT $L162923
$L162924:

; 197  : 		{
; 198  : 			_AtlRaiseException(EXCEPTION_ARRAY_BOUNDS_EXCEEDED);					

	push	1
	push	-1073741684				; c000008cH
	call	?_AtlRaiseException@ATL@@YAXKK@Z	; ATL::_AtlRaiseException
$L162923:

; 199  : 		}
; 200  : 		return m_aT[nIndex];

	mov	edx, DWORD PTR _this$[ebp]
	mov	eax, DWORD PTR [edx]
	mov	ecx, DWORD PTR _nIndex$[ebp]
	lea	eax, DWORD PTR [eax+ecx*2]
$L211896:

; 201  : 	}

	add	esp, 4
	cmp	ebp, esp
	call	__RTC_CheckEsp
	mov	esp, ebp
	pop	ebp
	ret	4
??A?$CSimpleArray@GV?$CSimpleArrayEqualHelper@G@ATL@@@ATL@@QAEAAGH@Z ENDP ; ATL::CSimpleArray<unsigned short,ATL::CSimpleArrayEqualHelper<unsigned short> >::operator[]
_TEXT	ENDS
EXTRN	__imp__RaiseException@16:NEAR
; Function compile flags: /Odt /RTCsu
; File c:\program files\microsoft visual studio .net 2003\vc7\atlmfc\include\atlexcept.h
;	COMDAT ?_AtlRaiseException@ATL@@YAXKK@Z
_TEXT	SEGMENT
_dwExceptionCode$ = 8					; size = 4
_dwExceptionFlags$ = 12					; size = 4
?_AtlRaiseException@ATL@@YAXKK@Z PROC NEAR		; ATL::_AtlRaiseException, COMDAT

; 26   : {

	push	ebp
	mov	ebp, esp
	push	esi

; 27   : 	RaiseException( dwExceptionCode, dwExceptionFlags, 0, NULL );

	mov	esi, esp
	push	0
	push	0
	mov	eax, DWORD PTR _dwExceptionFlags$[ebp]
	push	eax
	mov	ecx, DWORD PTR _dwExceptionCode$[ebp]
	push	ecx
	call	DWORD PTR __imp__RaiseException@16
	cmp	esi, esp
	call	__RTC_CheckEsp

; 28   : }

	pop	esi
	cmp	ebp, esp
	call	__RTC_CheckEsp
	pop	ebp
	ret	0
?_AtlRaiseException@ATL@@YAXKK@Z ENDP			; ATL::_AtlRaiseException
_TEXT	ENDS
PUBLIC	?_AtlWinModule@ATL@@3VCAtlWinModule@1@A		; ATL::_AtlWinModule
;	COMDAT ?_AtlWinModule@ATL@@3VCAtlWinModule@1@A
_BSS	SEGMENT
?_AtlWinModule@ATL@@3VCAtlWinModule@1@A DB 02cH DUP (?)	; ATL::_AtlWinModule
_BSS	ENDS
END
