 NssXMLSign

 Timestamp is 4294c140 (Wed May 25 11:17:36 2005)

 Preferred load address is 10000000

 Start         Length     Name                   Class
 0001:00000000 0010a8a2H .text                   CODE
 0001:0010a8b0 00001c0aH .text$x                 CODE
 0001:0010c4c0 00000803H .text$yc                CODE
 0001:0010ccd0 0000023fH .text$yd                CODE
 0002:00000000 000006d0H .idata$5                DATA
 0002:000006d0 0002d834H .rdata                  DATA
 0002:0002df04 000003bcH .rdata$r                DATA
 0002:0002e2c0 000002ecH .rdata$sxdata           DATA
 0002:0002e5ac 00000004H .rtc$IAA                DATA
 0002:0002e5b0 00000004H .rtc$IMZ                DATA
 0002:0002e5b4 00000004H .rtc$IZZ                DATA
 0002:0002e5b8 00000004H .rtc$TAA                DATA
 0002:0002e5bc 00000004H .rtc$TMZ                DATA
 0002:0002e5c0 00000004H .rtc$TZZ                DATA
 0002:0002e5c4 00002f6cH .xdata$x                DATA
 0002:00031530 00000004H ATL$__a                 DATA
 0002:00031534 00000004H ATL$__z                 DATA
 0002:00031538 00000118H .idata$2                DATA
 0002:00031650 00000014H .idata$3                DATA
 0002:00031664 000006d0H .idata$4                DATA
 0002:00031d34 00001ac8H .idata$6                DATA
 0002:00033800 000000a4H .edata                  DATA
 0003:00000000 00000004H .CRT$XCA                DATA
 0003:00000004 00000004H .CRT$XCAA               DATA
 0003:00000008 00000018H .CRT$XCC                DATA
 0003:00000020 0000007cH .CRT$XCL                DATA
 0003:0000009c 00000078H .CRT$XCU                DATA
 0003:00000114 00000004H .CRT$XCZ                DATA
 0003:00000118 00000004H .CRT$XIA                DATA
 0003:0000011c 00000010H .CRT$XIC                DATA
 0003:0000012c 00000004H .CRT$XIY                DATA
 0003:00000130 00000004H .CRT$XIZ                DATA
 0003:00000134 00000004H .CRT$XPA                DATA
 0003:00000138 00000004H .CRT$XPX                DATA
 0003:0000013c 00000004H .CRT$XPZ                DATA
 0003:00000140 00000004H .CRT$XTA                DATA
 0003:00000144 00000004H .CRT$XTB                DATA
 0003:00000148 00000004H .CRT$XTZ                DATA
 0003:00000150 00006071H .data                   DATA
 0003:000061e0 00003278H .bss                    DATA
 0004:00000000 0000028cH .rsrc$01                DATA
 0004:00000290 00008038H .rsrc$02                DATA

  Address         Publics by Value              Rva+Base     Lib:Object

 0000:00000000       __except_list              00000000     <absolute>
 0000:000000bb       ___safe_se_handler_count   000000bb     <absolute>
 0000:00000000       ___ImageBase               10000000     <linker-defined>
 0001:00000000       ??0CCAMClient@@QAE@XZ      10001000 f   CAMClient.obj
 0001:00000040       ??1CCAMClient@@QAE@XZ      10001040 f   CAMClient.obj
 0001:00000060       ?validate@CCAMClient@@QAEJPAE0H0PAHPAPAE121@Z 10001060 f   CAMClient.obj
 0001:000002f0       ?full_recv@CCAMClient@@AAEHIPADH@Z 100012f0 f   CAMClient.obj
 0001:00000370       ?newBinString@CCAMClient@@AAEPAUBinString@@HPAD@Z 10001370 f   CAMClient.obj
 0001:000003d0       ?delBinString@CCAMClient@@AAEXPAUBinString@@@Z 100013d0 f   CAMClient.obj
 0001:00000420       ?serialize@CCAMClient@@AAEPAUBinString@@PAXHH@Z 10001420 f   CAMClient.obj
 0001:00000580       ?deserialize@CCAMClient@@AAEPADPAUBinString@@HH@Z 10001580 f   CAMClient.obj
 0001:00000600       ?get_ip_from_hostname@@YAKPAD@Z 10001600 f   CAMClient.obj
 0001:00000770       ?my_connect@CCAMClient@@AAEIPAD@Z 10001770 f   CAMClient.obj
 0001:00000920       ?send_header@CCAMClient@@AAEHIH@Z 10001920 f   CAMClient.obj
 0001:000009c0       ?read_header@CCAMClient@@AAEHI@Z 100019c0 f   CAMClient.obj
 0001:00000a40       ?read_msg@CCAMClient@@AAEPAUBinString@@I@Z 10001a40 f   CAMClient.obj
 0001:00000ad0       ?send_bs@CCAMClient@@AAEHIPAUBinString@@@Z 10001ad0 f   CAMClient.obj
 0001:00000b50       ?read_file@CCAMClient@@AAEHPAD0H@Z 10001b50 f   CAMClient.obj
 0001:00000bd0       ?copy_str_out@CCAMClient@@AAEXPAUBinString@@PAE@Z 10001bd0 f   CAMClient.obj
 0001:00000c90       ?copy_mem_out@CCAMClient@@AAEXPAUBinString@@PAE@Z 10001c90 f   CAMClient.obj
 0001:00000ce0       ??0CAtlWinModule@ATL@@QAE@XZ 10001ce0 f i CAMClient.obj
 0001:00000d40       ??0_ATL_WIN_MODULE70@ATL@@QAE@XZ 10001d40 f i CAMClient.obj
 0001:00000d80       ??0CComCriticalSection@ATL@@QAE@XZ 10001d80 f i CAMClient.obj
 0001:00000db0       ??1CAtlWinModule@ATL@@QAE@XZ 10001db0 f i CAMClient.obj
 0001:00000e10       ?Term@CAtlWinModule@ATL@@QAEXXZ 10001e10 f i CAMClient.obj
 0001:00000e40       ?GetModuleInstance@CAtlBaseModule@ATL@@QAEPAUHINSTANCE__@@XZ 10001e40 f i CAMClient.obj
 0001:00000e40       ?GetSize@?$CSimpleArray@GV?$CSimpleArrayEqualHelper@G@ATL@@@ATL@@QBEHXZ 10001e40 f i CAMClient.obj
 0001:00000e60       ??1_ATL_WIN_MODULE70@ATL@@QAE@XZ 10001e60 f i CAMClient.obj
 0001:00000e90       ?AtlWinModuleTerm@ATL@@YGJPAU_ATL_WIN_MODULE70@1@PAUHINSTANCE__@@@Z 10001e90 f i CAMClient.obj
 0001:00000f50       ?Term@CComCriticalSection@ATL@@QAEJXZ 10001f50 f i CAMClient.obj
 0001:00000f90       ??1?$CSimpleArray@GV?$CSimpleArrayEqualHelper@G@ATL@@@ATL@@QAE@XZ 10001f90 f i CAMClient.obj
 0001:00000fc0       ?RemoveAll@?$CSimpleArray@GV?$CSimpleArrayEqualHelper@G@ATL@@@ATL@@QAEXXZ 10001fc0 f i CAMClient.obj
 0001:00001040       ??A?$CSimpleArray@GV?$CSimpleArrayEqualHelper@G@ATL@@@ATL@@QAEAAGH@Z 10002040 f i CAMClient.obj
 0001:000010c0       ?_AtlRaiseException@ATL@@YAXKK@Z 100020c0 f i CAMClient.obj
 0001:000010f0       ?crVerifyCertificate@@YAHPAPAEIPAU_SYSTEMTIME@@PAUSECItemStr@@PAU_CERTVERIFICATIONPARAMS@@PAU_GLOBAL_SIG@@@Z 100020f0 f   CertVerify.obj
 0001:00003430       ??0?$list@PAEV?$allocator@PAE@std@@@std@@QAE@XZ 10004430 f i CertVerify.obj
 0001:00003480       ?begin@?$list@PAUAllocInfo@@V?$allocator@PAUAllocInfo@@@std@@@std@@QAE?AViterator@12@XZ 10004480 f i xmlsigd_nss:DebugLog.obj
 0001:00003480       ?begin@?$list@PAEV?$allocator@PAE@std@@@std@@QAE?AViterator@12@XZ 10004480 f i CertVerify.obj
 0001:00003480       ?begin@?$list@PAUTempFilePathInfo@@V?$allocator@PAUTempFilePathInfo@@@std@@@std@@QAE?AViterator@12@XZ 10004480 f i Signature.obj
 0001:000034c0       ?GetResourceInstance@CAtlBaseModule@ATL@@QAEPAUHINSTANCE__@@XZ 100044c0 f i ShowSelectCert.obj
 0001:000034c0       ?rdstate@ios_base@std@@QBEHXZ 100044c0 f i Signature.obj
 0001:000034c0       ?GetSize@?$CSimpleMap@PADPAGVCExpansionVectorEqualHelper@ATL@@@ATL@@QBEHXZ 100044c0 f i XMLSign.obj
 0001:000034c0       ?GetLockCount@CAtlModule@ATL@@UAEJXZ 100044c0 f i XMLSign.obj
 0001:000034c0       ?size@?$list@PAEV?$allocator@PAE@std@@@std@@QBEIXZ 100044c0 f i CertVerify.obj
 0001:000034e0       ?insert@?$list@PAEV?$allocator@PAE@std@@@std@@QAE?AViterator@12@V312@ABQAE@Z 100044e0 f i CertVerify.obj
 0001:00003520       ??Fiterator@?$list@PAEV?$allocator@PAE@std@@@std@@QAE?AV012@H@Z 10004520 f i CertVerify.obj
 0001:00003590       ??0?$vector@PAUSECItemStr@@V?$allocator@PAUSECItemStr@@@std@@@std@@QAE@XZ 10004590 f i CertVerify.obj
 0001:000035e0       ?size@?$vector@PAUSECItemStr@@V?$allocator@PAUSECItemStr@@@std@@@std@@QBEIXZ 100045e0 f i CertVerify.obj
 0001:00003630       ?at@?$vector@PAUSECItemStr@@V?$allocator@PAUSECItemStr@@@std@@@std@@QAEAAPAUSECItemStr@@I@Z 10004630 f i CertVerify.obj
 0001:000036a0       ?push_back@?$vector@PAUSECItemStr@@V?$allocator@PAUSECItemStr@@@std@@@std@@QAEXABQAUSECItemStr@@@Z 100046a0 f i CertVerify.obj
 0001:00003730       ?clear@?$vector@PAUSECItemStr@@V?$allocator@PAUSECItemStr@@@std@@@std@@QAEXXZ 10004730 f i CertVerify.obj
 0001:00003730       ??1?$vector@PAUSECItemStr@@V?$allocator@PAUSECItemStr@@@std@@@std@@QAE@XZ 10004730 f i CertVerify.obj
 0001:00003760       ?_Insert@?$list@PAEV?$allocator@PAE@std@@@std@@QAEXViterator@12@ABQAE@Z 10004760 f i CertVerify.obj
 0001:00003800       ?_Buynode@?$list@PAEV?$allocator@PAE@std@@@std@@IAEPAU_Node@?$_List_nod@PAEV?$allocator@PAE@std@@@2@XZ 10004800 f i CertVerify.obj
 0001:00003930       ?capacity@?$vector@PAUSECItemStr@@V?$allocator@PAUSECItemStr@@@std@@@std@@QBEIXZ 10004930 f i CertVerify.obj
 0001:00003980       ?end@?$list@PAUTempFilePathInfo@@V?$allocator@PAUTempFilePathInfo@@@std@@@std@@QAE?AViterator@12@XZ 10004980 f i Signature.obj
 0001:00003980       ?end@?$list@PAUAllocInfo@@V?$allocator@PAUAllocInfo@@@std@@@std@@QAE?AViterator@12@XZ 10004980 f i xmlsigd_nss:DebugLog.obj
 0001:00003980       ?end@?$list@PAEV?$allocator@PAE@std@@@std@@QAE?AViterator@12@XZ 10004980 f i CertVerify.obj
 0001:00003980       ?begin@?$vector@PAUSECItemStr@@V?$allocator@PAUSECItemStr@@@std@@@std@@QAE?AViterator@12@XZ 10004980 f i CertVerify.obj
 0001:000039b0       ?end@?$vector@PAUSECItemStr@@V?$allocator@PAUSECItemStr@@@std@@@std@@QAE?AViterator@12@XZ 100049b0 f i CertVerify.obj
 0001:000039e0       ?insert@?$vector@PAUSECItemStr@@V?$allocator@PAUSECItemStr@@@std@@@std@@QAE?AViterator@12@V312@ABQAUSECItemStr@@@Z 100049e0 f i CertVerify.obj
 0001:00003a70       ?_Buy@?$vector@PAUSECItemStr@@V?$allocator@PAUSECItemStr@@@std@@@std@@IAE_NI@Z 10004a70 f i CertVerify.obj
 0001:00003b00       ?_Tidy@?$vector@PAUSECItemStr@@V?$allocator@PAUSECItemStr@@@std@@@std@@IAEXXZ 10004b00 f i CertVerify.obj
 0001:00003b80       ?_Ufill@?$vector@PAUSECItemStr@@V?$allocator@PAUSECItemStr@@@std@@@std@@IAEPAPAUSECItemStr@@PAPAU3@IABQAU3@@Z 10004b80 f i CertVerify.obj
 0001:00003bc0       ?_Xran@?$vector@PAUSECItemStr@@V?$allocator@PAUSECItemStr@@@std@@@std@@IBEXXZ 10004bc0 f i CertVerify.obj
 0001:00003c40       ??0out_of_range@std@@QAE@ABV?$basic_string@DU?$char_traits@D@std@@V?$allocator@D@2@@1@@Z 10004c40 f i CertVerify.obj
 0001:00003c80       ??0logic_error@std@@QAE@ABV?$basic_string@DU?$char_traits@D@std@@V?$allocator@D@2@@1@@Z 10004c80 f i CertVerify.obj
 0001:00003cf0       ?what@logic_error@std@@UBEPBDXZ 10004cf0 f i CertVerify.obj
 0001:00003d20       ??_Glogic_error@std@@UAEPAXI@Z 10004d20 f i CertVerify.obj
 0001:00003d20       ??_Elogic_error@std@@UAEPAXI@Z 10004d20 f i CertVerify.obj
 0001:00003d60       ??1logic_error@std@@UAE@XZ 10004d60 f i CertVerify.obj
 0001:00003dd0       ??1out_of_range@std@@UAE@XZ 10004dd0 f i CertVerify.obj
 0001:00003e00       ??_Gout_of_range@std@@UAEPAXI@Z 10004e00 f i CertVerify.obj
 0001:00003e00       ??_Eout_of_range@std@@UAEPAXI@Z 10004e00 f i CertVerify.obj
 0001:00003e40       ??0?$basic_string@DU?$char_traits@D@std@@V?$allocator@D@2@@std@@QAE@ABV01@@Z 10004e40 f i CertVerify.obj
 0001:00003ea0       ??1?$basic_string@DU?$char_traits@D@std@@V?$allocator@D@2@@std@@QAE@XZ 10004ea0 f i CertVerify.obj
 0001:00003ed0       ?c_str@?$basic_string@DU?$char_traits@D@std@@V?$allocator@D@2@@std@@QBEPBDXZ 10004ed0 f i CertVerify.obj
 0001:00003f00       ?assign@?$basic_string@DU?$char_traits@D@std@@V?$allocator@D@2@@std@@QAEAAV12@ABV12@II@Z 10004f00 f i CertVerify.obj
 0001:00003fd0       ?copy@?$char_traits@D@std@@SAPADPADPBDI@Z 10004fd0 f i CertVerify.obj
 0001:00003fd0       ?CopyChars@?$CSimpleStringT@D$0A@@ATL@@SAXPADPBDH@Z 10004fd0 f i Signature.obj
 0001:00003ff0       ?_Tidy@?$basic_string@DU?$char_traits@D@std@@V?$allocator@D@2@@std@@IAEX_NI@Z 10004ff0 f i CertVerify.obj
 0001:00004080       ??Hiterator@?$vector@PAUSECItemStr@@V?$allocator@PAUSECItemStr@@@std@@@std@@QBE?AV012@H@Z 10005080 f i CertVerify.obj
 0001:00004100       ??0out_of_range@std@@QAE@ABV01@@Z 10005100 f i CertVerify.obj
 0001:00004140       ??0logic_error@std@@QAE@ABV01@@Z 10005140 f i CertVerify.obj
 0001:000041c0       ??0?$basic_string@DU?$char_traits@D@std@@V?$allocator@D@2@@std@@QAE@PBD@Z 100051c0 f i CertVerify.obj
 0001:00004220       ?move@?$char_traits@D@std@@SAPADPADPBDI@Z 10005220 f i CertVerify.obj
 0001:00004240       ?size@?$basic_string@DU?$char_traits@D@std@@V?$allocator@D@2@@std@@QBEIXZ 10005240 f i CertVerify.obj
 0001:00004240       ?size@?$basic_string@DU?$char_traits@D@std@@V?$_DebugHeapAllocator@D@2@@std@@QBEIXZ 10005240 f i Signature.obj
 0001:00004240       ?length@?$basic_string@DU?$char_traits@D@std@@V?$allocator@D@2@@std@@QBEIXZ 10005240 f i License.obj
 0001:00004260       ?_Eos@?$basic_string@DU?$char_traits@D@std@@V?$_DebugHeapAllocator@D@2@@std@@IAEXI@Z 10005260 f i Signature.obj
 0001:00004260       ?_Eos@?$basic_string@DU?$char_traits@D@std@@V?$allocator@D@2@@std@@IAEXI@Z 10005260 f i CertVerify.obj
 0001:000042b0       ?assign@?$char_traits@D@std@@SAXAADABD@Z 100052b0 f i CertVerify.obj
 0001:000042c0       ?_Grow@?$basic_string@DU?$char_traits@D@std@@V?$allocator@D@2@@std@@IAE_NI_N@Z 100052c0 f i CertVerify.obj
 0001:00004370       ?_Buynode@?$list@PAEV?$allocator@PAE@std@@@std@@IAEPAU_Node@?$_List_nod@PAEV?$allocator@PAE@std@@@2@PAU342@0ABQAE@Z 10005370 f i CertVerify.obj
 0001:00004450       ??$?2PAG@?$Wrapper@PAG@?$CSimpleMap@PADPAGVCExpansionVectorEqualHelper@ATL@@@ATL@@SAPAXIPAPAG@Z 10005450 f i XMLSign.obj
 0001:00004450       ??$?2PAD@?$Wrapper@PAD@?$CSimpleMap@PADPAGVCExpansionVectorEqualHelper@ATL@@@ATL@@SAPAXIPAPAD@Z 10005450 f i XMLSign.obj
 0001:00004450       ??2@YAPAXIPAX@Z            10005450 f i CertVerify.obj
 0001:00004450       ??$?2PAUHINSTANCE__@@@Wrapper@?$CSimpleArray@PAUHINSTANCE__@@V?$CSimpleArrayEqualHelper@PAUHINSTANCE__@@@ATL@@@ATL@@SAPAXIPAPAUHINSTANCE__@@@Z 10005450 f i atlsd:atlbase.obj
 0001:00004450       ??$?2G@Wrapper@?$CSimpleArray@GV?$CSimpleArrayEqualHelper@G@ATL@@@ATL@@SAPAXIPAG@Z 10005450 f i ShowSelectCert.obj
 0001:00004450       ??$?2UCModuleInfo@CTraceSnapshot@@@Wrapper@?$CSimpleArray@UCModuleInfo@CTraceSnapshot@@V?$CSimpleArrayEqualHelper@UCModuleInfo@CTraceSnapshot@@@ATL@@@ATL@@SAPAXIPAUCModuleInfo@CTraceSnapshot@@@Z 10005450 f i atlsd:Allocate.obj
 0001:00004450       ??$?2K@Wrapper@?$CSimpleArray@KV?$CSimpleArrayEqualHelper@K@ATL@@@ATL@@SAPAXIPAK@Z 10005450 f i atlsd:Allocate.obj
 0001:00004460       ?_Incsize@?$list@PAEV?$allocator@PAE@std@@@std@@IAEXI@Z 10005460 f i CertVerify.obj
 0001:00004500       ??0length_error@std@@QAE@ABV?$basic_string@DU?$char_traits@D@std@@V?$allocator@D@2@@1@@Z 10005500 f i CertVerify.obj
 0001:00004540       ??1length_error@std@@UAE@XZ 10005540 f i CertVerify.obj
 0001:00004570       ??_Glength_error@std@@UAEPAXI@Z 10005570 f i CertVerify.obj
 0001:00004570       ??_Elength_error@std@@UAEPAXI@Z 10005570 f i CertVerify.obj
 0001:000045b0       ??0?$_List_ptr@PAEV?$allocator@PAE@std@@@std@@IAE@V?$allocator@PAE@1@@Z 100055b0 f i CertVerify.obj
 0001:000045b0       ??0?$_List_ptr@PAUTempFilePathInfo@@V?$allocator@PAUTempFilePathInfo@@@std@@@std@@IAE@V?$allocator@PAUTempFilePathInfo@@@1@@Z 100055b0 f i Signature.obj
 0001:000045b0       ??0?$_List_ptr@PAUAllocInfo@@V?$allocator@PAUAllocInfo@@@std@@@std@@IAE@V?$allocator@PAUAllocInfo@@@1@@Z 100055b0 f i xmlsigd_nss:DebugLog.obj
 0001:00004600       ?allocate@?$allocator@U_Node@?$_List_nod@PAUTempFilePathInfo@@V?$allocator@PAUTempFilePathInfo@@@std@@@std@@@std@@QAEPAU_Node@?$_List_nod@PAUTempFilePathInfo@@V?$allocator@PAUTempFilePathInfo@@@std@@@2@I@Z 10005600 f i Signature.obj
 0001:00004600       ?allocate@?$allocator@U_Node@?$_List_nod@PAEV?$allocator@PAE@std@@@std@@@std@@QAEPAU_Node@?$_List_nod@PAEV?$allocator@PAE@std@@@2@I@Z 10005600 f i CertVerify.obj
 0001:00004600       ?allocate@?$allocator@U_Node@?$_List_nod@PAUAllocInfo@@V?$allocator@PAUAllocInfo@@@std@@@std@@@std@@QAEPAU_Node@?$_List_nod@PAUAllocInfo@@V?$allocator@PAUAllocInfo@@@std@@@2@I@Z 10005600 f i xmlsigd_nss:DebugLog.obj
 0001:00004630       ?destroy@?$allocator@PAU_Node@?$_List_nod@PAEV?$allocator@PAE@std@@@std@@@std@@QAEXPAPAU_Node@?$_List_nod@PAEV?$allocator@PAE@std@@@2@@Z 10005630 f i CertVerify.obj
 0001:00004630       ?destroy@?$allocator@U_Node@?$_List_nod@PAEV?$allocator@PAE@std@@@std@@@std@@QAEXPAU_Node@?$_List_nod@PAEV?$allocator@PAE@std@@@2@@Z 10005630 f i CertVerify.obj
 0001:00004630       ?destroy@?$allocator@U_Node@?$_List_nod@PAUAllocInfo@@V?$allocator@PAUAllocInfo@@@std@@@std@@@std@@QAEXPAU_Node@?$_List_nod@PAUAllocInfo@@V?$allocator@PAUAllocInfo@@@std@@@2@@Z 10005630 f i xmlsigd_nss:DebugLog.obj
 0001:00004630       ?destroy@?$allocator@U_Node@?$_List_nod@PAUTempFilePathInfo@@V?$allocator@PAUTempFilePathInfo@@@std@@@std@@@std@@QAEXPAU_Node@?$_List_nod@PAUTempFilePathInfo@@V?$allocator@PAUTempFilePathInfo@@@std@@@2@@Z 10005630 f i Signature.obj
 0001:00004630       ?destroy@?$allocator@PAU_Node@?$_List_nod@PAUTempFilePathInfo@@V?$allocator@PAUTempFilePathInfo@@@std@@@std@@@std@@QAEXPAPAU_Node@?$_List_nod@PAUTempFilePathInfo@@V?$allocator@PAUTempFilePathInfo@@@std@@@2@@Z 10005630 f i Signature.obj
 0001:00004630       ?destroy@?$allocator@PAU_Node@?$_List_nod@PAUAllocInfo@@V?$allocator@PAUAllocInfo@@@std@@@std@@@std@@QAEXPAPAU_Node@?$_List_nod@PAUAllocInfo@@V?$allocator@PAUAllocInfo@@@std@@@2@@Z 10005630 f i xmlsigd_nss:DebugLog.obj
 0001:00004660       ??Fconst_iterator@?$list@PAEV?$allocator@PAE@std@@@std@@QAEAAV012@XZ 10005660 f i CertVerify.obj
 0001:00004660       ??Fconst_iterator@?$list@PAUTempFilePathInfo@@V?$allocator@PAUTempFilePathInfo@@@std@@@std@@QAEAAV012@XZ 10005660 f i Signature.obj
 0001:00004660       ??Fconst_iterator@?$list@PAUAllocInfo@@V?$allocator@PAUAllocInfo@@@std@@@std@@QAEAAV012@XZ 10005660 f i xmlsigd_nss:DebugLog.obj
 0001:000046a0       ?max_size@?$vector@PAUSECItemStr@@V?$allocator@PAUSECItemStr@@@std@@@std@@QBEIXZ 100056a0 f i CertVerify.obj
 0001:000046d0       ?_Destroy@?$vector@PAUSECItemStr@@V?$allocator@PAUSECItemStr@@@std@@@std@@IAEXPAPAUSECItemStr@@0@Z 100056d0 f i CertVerify.obj
 0001:00004710       ?_Insert_n@?$vector@PAUSECItemStr@@V?$allocator@PAUSECItemStr@@@std@@@std@@IAEXViterator@12@IABQAUSECItemStr@@@Z 10005710 f i CertVerify.obj
 0001:00004a80       ?_Xlen@?$vector@PAUSECItemStr@@V?$allocator@PAUSECItemStr@@@std@@@std@@IBEXXZ 10005a80 f i CertVerify.obj
 0001:00004b00       ?allocate@?$allocator@PAUSECItemStr@@@std@@QAEPAPAUSECItemStr@@I@Z 10005b00 f i CertVerify.obj
 0001:00004b30       ??0iterator@?$list@PAEV?$allocator@PAE@std@@@std@@QAE@PAU_Node@?$_List_nod@PAEV?$allocator@PAE@std@@@2@@Z 10005b30 f i CertVerify.obj
 0001:00004b30       ??0iterator@?$list@PAUAllocInfo@@V?$allocator@PAUAllocInfo@@@std@@@std@@QAE@PAU_Node@?$_List_nod@PAUAllocInfo@@V?$allocator@PAUAllocInfo@@@std@@@2@@Z 10005b30 f i xmlsigd_nss:DebugLog.obj
 0001:00004b30       ??0iterator@?$basic_string@DU?$char_traits@D@std@@V?$_DebugHeapAllocator@D@2@@std@@QAE@PAD@Z 10005b30 f i Signature.obj
 0001:00004b30       ??0iterator@?$vector@PAUSECItemStr@@V?$allocator@PAUSECItemStr@@@std@@@std@@QAE@PAPAUSECItemStr@@@Z 10005b30 f i CertVerify.obj
 0001:00004b30       ??0iterator@?$list@PAUTempFilePathInfo@@V?$allocator@PAUTempFilePathInfo@@@std@@@std@@QAE@PAU_Node@?$_List_nod@PAUTempFilePathInfo@@V?$allocator@PAUTempFilePathInfo@@@std@@@2@@Z 10005b30 f i Signature.obj
 0001:00004b30       ??0iterator@?$basic_string@DU?$char_traits@D@std@@V?$allocator@D@2@@std@@QAE@PAD@Z 10005b30 f i Signature.obj
 0001:00004b60       ??Yiterator@?$vector@PAUSECItemStr@@V?$allocator@PAUSECItemStr@@@std@@@std@@QAEAAV012@H@Z 10005b60 f i CertVerify.obj
 0001:00004b90       ??Giterator@?$vector@PAUSECItemStr@@V?$allocator@PAUSECItemStr@@@std@@@std@@QBEHABVconst_iterator@12@@Z 10005b90 f i CertVerify.obj
 0001:00004bd0       ??0length_error@std@@QAE@ABV01@@Z 10005bd0 f i CertVerify.obj
 0001:00004c10       ?assign@?$basic_string@DU?$char_traits@D@std@@V?$allocator@D@2@@std@@QAEAAV12@PBD@Z 10005c10 f i CertVerify.obj
 0001:00004c50       ?length@?$char_traits@D@std@@SAIPBD@Z 10005c50 f i CertVerify.obj
 0001:00004c70       ?_Copy@?$basic_string@DU?$char_traits@D@std@@V?$allocator@D@2@@std@@IAEXII@Z 10005c70 f i CertVerify.obj
 0001:00004df0       ??Gconst_iterator@?$vector@PAUSECItemStr@@V?$allocator@PAUSECItemStr@@@std@@@std@@QBEHABV012@@Z 10005df0 f i CertVerify.obj
 0001:00004e20       ?assign@?$basic_string@DU?$char_traits@D@std@@V?$allocator@D@2@@std@@QAEAAV12@PBDI@Z 10005e20 f i CertVerify.obj
 0001:00004eb0       ?allocate@?$allocator@D@std@@QAEPADI@Z 10005eb0 f i CertVerify.obj
 0001:00004ee0       ?max_size@?$allocator@D@std@@QBEIXZ 10005ee0 f i CertVerify.obj
 0001:00004f30       ?_Inside@?$basic_string@DU?$char_traits@D@std@@V?$allocator@D@2@@std@@IAE_NPBD@Z 10005f30 f i CertVerify.obj
 0001:00004f80       ??$_Uninitialized_fill_n@PAPAUSECItemStr@@IPAU1@V?$allocator@PAUSECItemStr@@@std@@@std@@YAXPAPAUSECItemStr@@IABQAU1@AAV?$allocator@PAUSECItemStr@@@0@@Z 10005f80 f i CertVerify.obj
 0001:00004fd0       ??$_Destroy_range@PAUSECItemStr@@V?$allocator@PAUSECItemStr@@@std@@@std@@YAXPAPAUSECItemStr@@0AAV?$allocator@PAUSECItemStr@@@0@@Z 10005fd0 f i CertVerify.obj
 0001:00005020       ??$_Ucopy@PAPAUSECItemStr@@@?$vector@PAUSECItemStr@@V?$allocator@PAUSECItemStr@@@std@@@std@@IAEPAPAUSECItemStr@@PAPAU2@00@Z 10006020 f i CertVerify.obj
 0001:00005060       ??$fill@PAPAUSECItemStr@@PAU1@@std@@YAXPAPAUSECItemStr@@0ABQAU1@@Z 10006060 f i CertVerify.obj
 0001:00005090       ??$copy_backward@PAPAUSECItemStr@@PAPAU1@@std@@YAPAPAUSECItemStr@@PAPAU1@00@Z 10006090 f i CertVerify.obj
 0001:000050e0       ??$_Allocate@PAUSECItemStr@@@std@@YAPAPAUSECItemStr@@IPAPAU1@@Z 100060e0 f i CertVerify.obj
 0001:00005100       ??3@YAXPAX0@Z              10006100 f i CertVerify.obj
 0001:00005100       ??$_Destroy@U_Node@?$_List_nod@PAUAllocInfo@@V?$allocator@PAUAllocInfo@@@std@@@std@@@std@@YAXPAU_Node@?$_List_nod@PAUAllocInfo@@V?$allocator@PAUAllocInfo@@@std@@@0@@Z 10006100 f i xmlsigd_nss:DebugLog.obj
 0001:00005100       __fpclear                  10006100 f i LIBCMTD:fpinit.obj
 0001:00005100       ??$?3PAD@?$Wrapper@PAD@?$CSimpleMap@PADPAGVCExpansionVectorEqualHelper@ATL@@@ATL@@SAXPAXPAPAD@Z 10006100 f i XMLSign.obj
 0001:00005100       ??$_Destroy_range@PAUSECItemStr@@V?$allocator@PAUSECItemStr@@@std@@@std@@YAXPAPAUSECItemStr@@0AAV?$allocator@PAUSECItemStr@@@0@U_Scalar_ptr_iterator_tag@0@@Z 10006100 f i CertVerify.obj
 0001:00005100       ??$_Destroy@U_Node@?$_List_nod@PAEV?$allocator@PAE@std@@@std@@@std@@YAXPAU_Node@?$_List_nod@PAEV?$allocator@PAE@std@@@0@@Z 10006100 f i CertVerify.obj
 0001:00005100       ??$?3PAG@?$Wrapper@PAG@?$CSimpleMap@PADPAGVCExpansionVectorEqualHelper@ATL@@@ATL@@SAXPAXPAPAG@Z 10006100 f i XMLSign.obj
 0001:00005100       ??$_Destroy@PAU_Node@?$_List_nod@PAEV?$allocator@PAE@std@@@std@@@std@@YAXPAPAU_Node@?$_List_nod@PAEV?$allocator@PAE@std@@@0@@Z 10006100 f i CertVerify.obj
 0001:00005100       ?init@?$_CopyInterface@UIUnknown@@@ATL@@SAXPAPAUIUnknown@@@Z 10006100 f i ShowSelectCert.obj
 0001:00005100       ??$?3G@Wrapper@?$CSimpleArray@GV?$CSimpleArrayEqualHelper@G@ATL@@@ATL@@SAXPAXPAG@Z 10006100 f i ShowSelectCert.obj
 0001:00005100       ??$_Destroy@PAU_Node@?$_List_nod@PAUTempFilePathInfo@@V?$allocator@PAUTempFilePathInfo@@@std@@@std@@@std@@YAXPAPAU_Node@?$_List_nod@PAUTempFilePathInfo@@V?$allocator@PAUTempFilePathInfo@@@std@@@0@@Z 10006100 f i Signature.obj
 0001:00005100       ??$_Destroy@U_Node@?$_List_nod@PAUTempFilePathInfo@@V?$allocator@PAUTempFilePathInfo@@@std@@@std@@@std@@YAXPAU_Node@?$_List_nod@PAUTempFilePathInfo@@V?$allocator@PAUTempFilePathInfo@@@std@@@0@@Z 10006100 f i Signature.obj
 0001:00005100       ??$_Destroy@PAU_Node@?$_List_nod@PAUAllocInfo@@V?$allocator@PAUAllocInfo@@@std@@@std@@@std@@YAXPAPAU_Node@?$_List_nod@PAUAllocInfo@@V?$allocator@PAUAllocInfo@@@std@@@0@@Z 10006100 f i xmlsigd_nss:DebugLog.obj
 0001:00005100       ?InitLibId@?$CAtlModuleT@VCComModule@ATL@@@ATL@@SAXXZ 10006100 f i XMLSign.obj
 0001:00005110       ??$_Ptr_cat@USECItemStr@@@std@@YA?AU_Scalar_ptr_iterator_tag@0@PAPAUSECItemStr@@0@Z 10006110 f i CertVerify.obj
 0001:00005160       ??$_Uninit_fill_n@PAUSECItemStr@@IPAU1@@std@@YAXPAPAUSECItemStr@@IABQAU1@AAV?$allocator@PAUSECItemStr@@@0@U_Scalar_ptr_iterator_tag@0@@Z 10006160 f i CertVerify.obj
 0001:00005180       ??$_Uninitialized_copy@PAPAUSECItemStr@@PAPAU1@V?$allocator@PAUSECItemStr@@@std@@@std@@YAPAPAUSECItemStr@@PAPAU1@00AAV?$allocator@PAUSECItemStr@@@0@@Z 10006180 f i CertVerify.obj
 0001:000051d0       ??$_Copy_backward_opt@PAPAUSECItemStr@@PAPAU1@@std@@YAPAPAUSECItemStr@@PAPAU1@00U_Scalar_ptr_iterator_tag@0@@Z 100061d0 f i CertVerify.obj
 0001:00005220       ??$fill_n@PAPAUSECItemStr@@IPAU1@@std@@YAXPAPAUSECItemStr@@IABQAU1@@Z 10006220 f i CertVerify.obj
 0001:00005250       ??$_Uninit_copy@PAUSECItemStr@@PAU1@@std@@YAPAPAUSECItemStr@@PAPAU1@00AAV?$allocator@PAUSECItemStr@@@0@U_Scalar_ptr_iterator_tag@0@@Z 10006250 f i CertVerify.obj
 0001:000052a0       ?FileEncoding@@YAXPAE@Z    100062a0 f   CharConversion.obj
 0001:000052d0       ?PrintBstr@@YAXPAG@Z       100062d0 f   CharConversion.obj
 0001:00005350       ?UTF16LEToUTF8@@YAHPAEPAHPBE1@Z 10006350 f   CharConversion.obj
 0001:00005620       ?UTF8ToUTF16LE@@YAHPAEPAHPBE1@Z 10006620 f   CharConversion.obj
 0001:00005980       ?HeapW2A@@YAPAEPAG@Z       10006980 f   CharConversion.obj
 0001:00005d80       ?ldump@@YAXPADI@Z          10006d80 f   CharConversion.obj
 0001:00005eb0       ?head@@YAXJ@Z              10006eb0 f   CharConversion.obj
 0001:00005f20       ?dump@@YAXPADI@Z           10006f20 f   CharConversion.obj
 0001:00005fe0       ?_AtlGetThreadACPThunk@ATL@@YGIXZ 10006fe0 f i config.obj
 0001:000060c0       ?InterlockedExchangePointer@@YGPAXPAPAXPAX@Z 100070c0 f i config.obj
 0001:000060f0       ?_AtlGetThreadACPFake@ATL@@YGIXZ 100070f0 f i config.obj
 0001:000061f0       ?_AtlGetThreadACPReal@ATL@@YGIXZ 100071f0 f i config.obj
 0001:00006200       ?_AtlGetConversionACP@ATL@@YGIXZ 10007200 f i config.obj
 0001:00006220       ?_AtlVerifyStackAvailable@_ATL_SAFE_ALLOCA_IMPL@ATL@@YA_NK@Z 10007220 f i config.obj
 0001:00006300       ?AtlW2AHelper@@YGPADPADPBGHI@Z 10007300 f i config.obj
 0001:000063e0       ?AtlThrow@ATL@@YGXJ@Z      100073e0 f i config.obj
 0001:00006460       ??0CTraceFileAndLineInfo@ATL@@QAE@PBDH@Z 10007460 f i config.obj
 0001:00006490       ??RCTraceFileAndLineInfo@ATL@@QBAXKIPBDZZ 10007490 f i config.obj
 0001:000064e0       ?TraceV@CTrace@ATL@@QBAXPBDHKI0PAD@Z 100074e0 f i config.obj
 0001:00006520       ?AtlA2WHelper@@YGPAGPAGPBDHI@Z 10007520 f i config.obj
 0001:00006600       ??0CConfig@@QAE@PAVCSignature@@@Z 10007600 f   config.obj
 0001:00006810       ??1CConfig@@UAE@XZ         10007810 f   config.obj
 0001:00006860       ?getConfigDetailsFromDom@CConfig@@QAEXPAU_xmlNode@@@Z 10007860 f   config.obj
 0001:00008080       ?getConfigDetails@CConfig@@QAEHPAU_GLOBAL_SIG@@@Z 10009080 f   config.obj
 0001:00008110       ?setConfigDetails@CConfig@@QAEHPAG@Z 10009110 f   config.obj
 0001:00008280       ??_ECConfig@@UAEPAXI@Z     10009280 f i config.obj
 0001:00008280       ??_GCConfig@@UAEPAXI@Z     10009280 f i config.obj
 0001:000082c0       ?A2WBSTR@@YAPAGPBDH@Z      100092c0 f i config.obj
 0001:00008490       ??4CComBSTR@ATL@@QAEAAV01@PBG@Z 10009490 f i config.obj
 0001:00008510       ?SetCRLTimeOut@CRLCache@@QAEXK@Z 10009510 f i config.obj
 0001:00008530       ??_GCCAMClient@@QAEPAXI@Z  10009530 f i config.obj
 0001:00008570       ??_GCRLCache@@QAEPAXI@Z    10009570 f i config.obj
 0001:000085b0       ??1CComBSTR@ATL@@QAE@XZ    100095b0 f i config.obj
 0001:000085f0       ?Length@CComBSTR@ATL@@QBEIXZ 100095f0 f i config.obj
 0001:00008650       ??_Estringdispid@CComTypeInfoHolder@ATL@@QAEPAXI@Z 10009650 f i config.obj
 0001:000086d0       ??1stringdispid@CComTypeInfoHolder@ATL@@QAE@XZ 100096d0 f i config.obj
 0001:00008700       ?Allocate@?$CAtlSafeAllocBufferManager@VCCRTAllocator@ATL@@@_ATL_SAFE_ALLOCA_IMPL@ATL@@QAEPAXK@Z 10009700 f i config.obj
 0001:00008760       ?Allocate@CCRTAllocator@ATL@@SAPAXI@Z 10009760 f i config.obj
 0001:00008780       ??1?$CAtlSafeAllocBufferManager@VCCRTAllocator@ATL@@@_ATL_SAFE_ALLOCA_IMPL@ATL@@QAE@XZ 10009780 f i config.obj
 0001:000087d0       ?Free@CCRTAllocator@ATL@@SAXPAX@Z 100097d0 f i config.obj
 0001:000087f0       ?GetData@CAtlSafeAllocBufferNode@?$CAtlSafeAllocBufferManager@VCCRTAllocator@ATL@@@_ATL_SAFE_ALLOCA_IMPL@ATL@@QAEPAXXZ 100097f0 f i config.obj
 0001:00008810       ?GetTimeDifferenceInMinutes@@YAJPAU_SYSTEMTIME@@0@Z 10009810 f   CRLCache.obj
 0001:000088d0       ??0CRLCache@@QAE@PAGPAU_GLOBAL_SIG@@@Z 100098d0 f   CRLCache.obj
 0001:000088f0       ??1CRLCache@@QAE@XZ        100098f0 f   CRLCache.obj
 0001:00008950       ?FetchCRLFromCRLCache@CRLCache@@QAEPAPAU_DS_DATA_BLOB@@PAU_CRYPTOAPI_BLOB@@PAIPAU_GLOBAL_SIG@@@Z 10009950 f   CRLCache.obj
 0001:00008980       ?EnterCRLIntoCRLCache@CRLCache@@QAEXPAU_CRYPTOAPI_BLOB@@PAU_DS_DATA_BLOB@@PAU_GLOBAL_SIG@@@Z 10009980 f   CRLCache.obj
 0001:000089a0       ?DeleteCRLFromCRLCache@CRLCache@@QAEXPAU_CRYPTOAPI_BLOB@@PAU_DS_DATA_BLOB@@PAU_GLOBAL_SIG@@@Z 100099a0 f   CRLCache.obj
 0001:000089c0       ??0CLicense@@QAE@XZ        100099c0 f   License.obj
 0001:00008be0       ??1CLicense@@UAE@XZ        10009be0 f   License.obj
 0001:00008ca0       ?getLicenseDetails@CLicense@@QAEHPAU_GLOBAL_SIG@@@Z 10009ca0 f   License.obj
 0001:00009890       ?getHostOsType@CLicense@@SAJXZ 1000a890 f   License.obj
 0001:00009970       ?verifyLicense@CLicense@@QAEHPAU_GLOBAL_SIG@@@Z 1000a970 f   License.obj
 0001:0000a350       ?Get_CRC_CheckSum@CLicense@@SAXPAXKPAK@Z 1000b350 f   License.obj
 0001:0000a3d0       ?verifyFloatingLicense@CLicense@@QAEXPAEKPAU_GLOBAL_SIG@@@Z 1000b3d0 f   License.obj
 0001:0000b0f0       ?floatingLicenseStatus@CLicense@@QAEHXZ 1000c0f0 f   License.obj
 0001:0000b210       ?verifyTemplateSignature@CLicense@@QAEHPAEIPAU_GLOBAL_SIG@@@Z 1000c210 f   License.obj
 0001:0000b6b0       ?validateXmlWithSchema@CLicense@@QAEHPAEPAU_xmlDoc@@PAU_GLOBAL_SIG@@@Z 1000c6b0 f   License.obj
 0001:0000b760       ?verifyFormSchema@CLicense@@QAEHPAEPAU_xmlDoc@@PAU_GLOBAL_SIG@@@Z 1000c760 f   License.obj
 0001:0000ba60       ?getFormSignAllowed@CLicense@@QAEHPAEIPAU_GLOBAL_SIG@@@Z 1000ca60 f   License.obj
 0001:0000bdc0       ?verifyTemplateSchema@CLicense@@QAEHPAEPAU_GLOBAL_SIG@@@Z 1000cdc0 f   License.obj
 0001:0000c080       ??_ECLicense@@UAEPAXI@Z    1000d080 f i License.obj
 0001:0000c080       ??_GCLicense@@UAEPAXI@Z    1000d080 f i License.obj
 0001:0000c0c0       ??0?$basic_string@DU?$char_traits@D@std@@V?$allocator@D@2@@std@@QAE@XZ 1000d0c0 f i License.obj
 0001:0000c110       ??4?$basic_string@DU?$char_traits@D@std@@V?$allocator@D@2@@std@@QAEAAV01@PBD@Z 1000d110 f i License.obj
 0001:0000c140       ??$?HDU?$char_traits@D@std@@V?$allocator@D@1@@std@@YA?AV?$basic_string@DU?$char_traits@D@std@@V?$allocator@D@2@@0@ABV10@0@Z 1000d140 f i License.obj
 0001:0000c1e0       ??$?9DU?$char_traits@D@std@@V?$allocator@D@1@@std@@YA_NABV?$basic_string@DU?$char_traits@D@std@@V?$allocator@D@2@@0@0@Z 1000d1e0 f i License.obj
 0001:0000c210       ??Y?$basic_string@DU?$char_traits@D@std@@V?$allocator@D@2@@std@@QAEAAV01@ABV01@@Z 1000d210 f i License.obj
 0001:0000c240       ?append@?$basic_string@DU?$char_traits@D@std@@V?$allocator@D@2@@std@@QAEAAV12@ABV12@@Z 1000d240 f i License.obj
 0001:0000c270       ?append@?$basic_string@DU?$char_traits@D@std@@V?$allocator@D@2@@std@@QAEAAV12@ABV12@II@Z 1000d270 f i License.obj
 0001:0000c340       ??$?8DU?$char_traits@D@std@@V?$allocator@D@1@@std@@YA_NABV?$basic_string@DU?$char_traits@D@std@@V?$allocator@D@2@@0@0@Z 1000d340 f i License.obj
 0001:0000c360       ?compare@?$basic_string@DU?$char_traits@D@std@@V?$allocator@D@2@@std@@QBEHABV12@@Z 1000d360 f i License.obj
 0001:0000c3b0       ?compare@?$basic_string@DU?$char_traits@D@std@@V?$allocator@D@2@@std@@QBEHIIPBDI@Z 1000d3b0 f i License.obj
 0001:0000c490       ?compare@?$char_traits@D@std@@SAHPBD0I@Z 1000d490 f i License.obj
 0001:0000c4b0       ??0CShowSelectCert@@QAE@PAEPAPAU_CERT_DESCR@@J@Z 1000d4b0 f   ShowSelectCert.obj
 0001:0000c7e0       ??1CShowSelectCert@@UAE@XZ 1000d7e0 f   ShowSelectCert.obj
 0001:0000c8a0       ?getCertificateData@CShowSelectCert@@QAEPADH@Z 1000d8a0 f   ShowSelectCert.obj
 0001:0000c8e0       ?OnClickedButton1@CShowSelectCert@@QAEJGGPAUHWND__@@AAH@Z 1000d8e0 f   ShowSelectCert.obj
 0001:0000d7f0       ?ProcessWindowMessage@CShowSelectCert@@UAEHPAUHWND__@@IIJAAJK@Z 1000e7f0 f i ShowSelectCert.obj
 0001:0000da60       ?OnInitDialog@CShowSelectCert@@QAEJIIJAAH@Z 1000ea60 f i ShowSelectCert.obj
 0001:0000dc40       ?OnOK@CShowSelectCert@@QAEJGGPAUHWND__@@AAH@Z 1000ec40 f i ShowSelectCert.obj
 0001:0000dc90       ?OnCancel@CShowSelectCert@@QAEJGGPAUHWND__@@AAH@Z 1000ec90 f i ShowSelectCert.obj
 0001:0000dcd0       ?CreateHeader@CShowSelectCert@@QAEXXZ 1000ecd0 f i ShowSelectCert.obj
 0001:0000dea0       ?SetCell@CShowSelectCert@@QAEXPAGHH@Z 1000eea0 f i ShowSelectCert.obj
 0001:0000df90       ?OnClickList@CShowSelectCert@@QAEJHPAUtagNMHDR@@AAH@Z 1000ef90 f i ShowSelectCert.obj
 0001:0000dfd0       ?setSelection@CShowSelectCert@@QAEXXZ 1000efd0 f i ShowSelectCert.obj
 0001:0000e090       ??_GCShowSelectCert@@UAEPAXI@Z 1000f090 f i ShowSelectCert.obj
 0001:0000e090       ??_ECShowSelectCert@@UAEPAXI@Z 1000f090 f i ShowSelectCert.obj
 0001:0000e0d0       ?LoadStringA@CComBSTR@ATL@@QAE_NI@Z 1000f0d0 f i ShowSelectCert.obj
 0001:0000e120       ?LoadStringResource@CComBSTR@ATL@@SA_NIAAPAG@Z 1000f120 f i ShowSelectCert.obj
 0001:0000e1b0       ?AtlGetStringResourceImage@ATL@@YAPBUATLSTRINGRESOURCEIMAGE@1@I@Z 1000f1b0 f i ShowSelectCert.obj
 0001:0000e240       ?AtlGetStringResourceImage@ATL@@YAPBUATLSTRINGRESOURCEIMAGE@1@PAUHINSTANCE__@@I@Z 1000f240 f i ShowSelectCert.obj
 0001:0000e2a0       ?_AtlGetStringResourceImage@ATL@@YAPBUATLSTRINGRESOURCEIMAGE@1@PAUHINSTANCE__@@PAUHRSRC__@@I@Z 1000f2a0 f i ShowSelectCert.obj
 0001:0000e390       ??0?$CAxDialogImpl@VCShowSelectCert@@VCWindow@ATL@@@ATL@@QAE@XZ 1000f390 f i ShowSelectCert.obj
 0001:0000e3c0       ?GetDialogProc@?$CAxDialogImpl@VCShowSelectCert@@VCWindow@ATL@@@ATL@@UAEP6GHPAUHWND__@@IIJ@ZXZ 1000f3c0 f i ShowSelectCert.obj
 0001:0000e3e0       ?EndDialog@?$CAxDialogImpl@VCShowSelectCert@@VCWindow@ATL@@@ATL@@QAEHH@Z 1000f3e0 f i ShowSelectCert.obj
 0001:0000e490       ?CreateActiveXControls@?$CAxDialogImpl@VCShowSelectCert@@VCWindow@ATL@@@ATL@@UAEJI@Z 1000f490 f i ShowSelectCert.obj
 0001:0000eb00       ?AtlHresultFromLastError@ATL@@YAJXZ 1000fb00 f i ShowSelectCert.obj
 0001:0000eb60       ??0?$CDialogImplBaseT@VCWindow@ATL@@@ATL@@QAE@XZ 1000fb60 f i ShowSelectCert.obj
 0001:0000eb90       ?MapDialogRect@?$CDialogImplBaseT@VCWindow@ATL@@@ATL@@QAEHPAUtagRECT@@@Z 1000fb90 f i ShowSelectCert.obj
 0001:0000ec10       ??0?$CAxWindow2T@VCWindow@ATL@@@ATL@@QAE@PAUHWND__@@@Z 1000fc10 f i ShowSelectCert.obj
 0001:0000ec40       ?Create@?$CAxWindow2T@VCWindow@ATL@@@ATL@@QAEPAUHWND__@@PAU3@V_U_RECT@2@PBDKKV_U_MENUorID@2@PAX@Z 1000fc40 f i ShowSelectCert.obj
 0001:0000ec90       ?CreateControlLic@?$CAxWindow2T@VCWindow@ATL@@@ATL@@QAEJPBGPAUIStream@@PAPAUIUnknown@@PAG@Z 1000fc90 f i ShowSelectCert.obj
 0001:0000ecd0       ??0?$CAxWindowT@VCWindow@ATL@@@ATL@@QAE@PAUHWND__@@@Z 1000fcd0 f i ShowSelectCert.obj
 0001:0000ed10       ?CreateControlLicEx@?$CAxWindow2T@VCWindow@ATL@@@ATL@@QAEJPBGPAUIStream@@PAPAUIUnknown@@2ABU_GUID@@PAU4@PAG@Z 1000fd10 f i ShowSelectCert.obj
 0001:0000ef20       ?DialogProc@?$CAxDialogImpl@VCShowSelectCert@@VCWindow@ATL@@@ATL@@SGHPAUHWND__@@IIJ@Z 1000ff20 f i ShowSelectCert.obj
 0001:0000efc0       ??$QueryHost@UIAxWinHostWindowLic@@@?$CAxWindowT@VCWindow@ATL@@@ATL@@QAEJPAPAUIAxWinHostWindowLic@@@Z 1000ffc0 f i ShowSelectCert.obj
 0001:0000eff0       ??$QueryInterface@UIUnknown@@@?$CComPtrBase@UIAxWinHostWindowLic@@@ATL@@QBEJPAPAUIUnknown@@@Z 1000fff0 f i ShowSelectCert.obj
 0001:0000f060       ?QueryHost@?$CAxWindowT@VCWindow@ATL@@@ATL@@QAEJABU_GUID@@PAPAX@Z 10010060 f i ShowSelectCert.obj
 0001:0000f190       ?GetIDD@?$CAxDialogImpl@VCShowSelectCert@@VCWindow@ATL@@@ATL@@QAEHXZ 10010190 f i ShowSelectCert.obj
 0001:0000f1b0       ?DestroyWindow@?$CAxDialogImpl@VCShowSelectCert@@VCWindow@ATL@@@ATL@@QAEHXZ 100101b0 f i ShowSelectCert.obj
 0001:0000f250       ?IsDialogEx@_DialogSplitHelper@ATL@@SAHPBUDLGTEMPLATE@@@Z 10010250 f i ShowSelectCert.obj
 0001:0000f270       ?DlgTemplateItemCount@_DialogSplitHelper@ATL@@SAAAGPAUDLGTEMPLATE@@@Z 10010270 f i ShowSelectCert.obj
 0001:0000f2a0       ?FindFirstDlgItem@_DialogSplitHelper@ATL@@SAPAUDLGITEMTEMPLATE@@PBUDLGTEMPLATE@@@Z 100102a0 f i ShowSelectCert.obj
 0001:0000f3e0       ?FindNextDlgItem@_DialogSplitHelper@ATL@@SAPAUDLGITEMTEMPLATE@@PAU3@H@Z 100103e0 f i ShowSelectCert.obj
 0001:0000f4c0       ?FindCreateData@_DialogSplitHelper@ATL@@SAKKPAEPAPAE@Z 100104c0 f i ShowSelectCert.obj
 0001:0000f590       ?IsActiveXControl@_DialogSplitHelper@ATL@@SA_NPAUDLGITEMTEMPLATE@@H@Z 10010590 f i ShowSelectCert.obj
 0001:0000f5e0       ?ParseInitData@_DialogSplitHelper@ATL@@SAJPAUIStream@@PAPAG@Z 100105e0 f i ShowSelectCert.obj
 0001:0000f910       ??0CComBSTR@ATL@@QAE@H@Z   10010910 f i ShowSelectCert.obj
 0001:0000f970       ?Create@CWindow@ATL@@QAEPAUHWND__@@PBDPAU3@V_U_RECT@2@0KKV_U_MENUorID@2@PAX@Z 10010970 f i ShowSelectCert.obj
 0001:0000fa30       ?SendMessageA@CWindow@ATL@@QAEJIIJ@Z 10010a30 f i ShowSelectCert.obj
 0001:0000fab0       ?SetWindowPos@CWindow@ATL@@QAEHPAUHWND__@@HHHHI@Z 10010ab0 f i ShowSelectCert.obj
 0001:0000fb40       ?GetWindow@CWindow@ATL@@QBE?AV12@I@Z 10010b40 f i ShowSelectCert.obj
 0001:0000fbc0       ?GetDlgItem@CWindow@ATL@@QBE?AV12@H@Z 10010bc0 f i ShowSelectCert.obj
 0001:0000fc40       ?SetWindowContextHelpId@CWindow@ATL@@QAEHK@Z 10010c40 f i ShowSelectCert.obj
 0001:0000fcc0       ?CenterWindow@CWindow@ATL@@QAEHPAUHWND__@@@Z 10010cc0 f i ShowSelectCert.obj
 0001:00010010       ?GetStyle@CWindow@ATL@@QBEKXZ 10011010 f i ShowSelectCert.obj
 0001:00010080       _AtlAxCreateControlLicEx@32 10011080 f i ShowSelectCert.obj
 0001:00010270       ??0CComBSTR@ATL@@QAE@PBG@Z 10011270 f i ShowSelectCert.obj
 0001:000102d0       _AtlAxWinInit@0            100112d0 f i ShowSelectCert.obj
 0001:00010590       ?SetWindowLongPtrA@@YAJPAUHWND__@@HJ@Z 10011590 f i ShowSelectCert.obj
 0001:000105c0       ?GetWindowLongPtrA@@YAJPAUHWND__@@H@Z 100115c0 f i ShowSelectCert.obj
 0001:000105f0       _AtlAxCreateControlLic@20  100115f0 f i ShowSelectCert.obj
 0001:00010620       _AtlAxGetHost@8            10011620 f i ShowSelectCert.obj
 0001:000106a0       ??1?$CDialogImplBaseT@VCWindow@ATL@@@ATL@@UAE@XZ 100116a0 f i ShowSelectCert.obj
 0001:000106a0       ??1?$CWindowImplBaseT@VCWindow@ATL@@V?$CWinTraits@$0FGAAAAAA@$0A@@2@@ATL@@UAE@XZ 100116a0 f i ShowSelectCert.obj
 0001:000106d0       ?SetVoid@CComObjectRootBase@ATL@@QAEXPAX@Z 100116d0 f i ShowSelectCert.obj
 0001:000106d0       ?OnFinalMessage@?$CDialogImplBaseT@VCWindow@ATL@@@ATL@@UAEXPAUHWND__@@@Z 100116d0 f i ShowSelectCert.obj
 0001:000106d0       ?OnFinalMessage@?$CWindowImplBaseT@VCWindow@ATL@@V?$CWinTraits@$0FGAAAAAA@$0A@@2@@ATL@@UAEXPAUHWND__@@@Z 100116d0 f i ShowSelectCert.obj
 0001:000106d0       ?_Init@?$codecvt@DDH@std@@IAEXABV_Locinfo@2@@Z 100116d0 f i Signature.obj
 0001:000106d0       ?imbue@?$basic_streambuf@DU?$char_traits@D@std@@@std@@MAEXABVlocale@2@@Z 100116d0 f i Signature.obj
 0001:000106f0       ??1?$CWindowImplRoot@VCWindow@ATL@@@ATL@@UAE@XZ 100116f0 f i ShowSelectCert.obj
 0001:000107b0       ?GetWndClassName@?$CAxWindowT@VCWindow@ATL@@@ATL@@SAPBDXZ 100117b0 f i ShowSelectCert.obj
 0001:000107c0       ?GetWndClassName@?$CAxWindow2T@VCWindow@ATL@@@ATL@@SAPBDXZ 100117c0 f i ShowSelectCert.obj
 0001:000107d0       ?CreateInstance@?$CComCreator@V?$CComPolyObject@VCAxHostWindow@ATL@@@ATL@@@ATL@@SGJPAXABU_GUID@@PAPAX@Z 100117d0 f i ShowSelectCert.obj
 0001:00010980       ?Unlock@CComFakeCriticalSection@ATL@@QAEJXZ 10011980 f i XMLSign.obj
 0001:00010980       ?showmanyc@?$basic_streambuf@DU?$char_traits@D@std@@@std@@MAEHXZ 10011980 f i Signature.obj
 0001:00010980       ?FinalConstruct@CComObjectRootBase@ATL@@QAEJXZ 10011980 f i ShowSelectCert.obj
 0001:00010980       ?sync@?$basic_streambuf@DU?$char_traits@D@std@@@std@@MAEHXZ 10011980 f i Signature.obj
 0001:00010980       ?_AtlFinalConstruct@CComObjectRootBase@ATL@@QAEJXZ 10011980 f i ShowSelectCert.obj
 0001:00010980       ?Lock@CComFakeCriticalSection@ATL@@QAEJXZ 10011980 f i XMLSign.obj
 0001:000109a0       ?FinalRelease@CComObjectRootBase@ATL@@QAEXXZ 100119a0 f i ShowSelectCert.obj
 0001:000109a0       ?InternalFinalConstructAddRef@CComObjectRootBase@ATL@@QAEXXZ 100119a0 f i ShowSelectCert.obj
 0001:000109c0       ?InternalFinalConstructRelease@CComObjectRootBase@ATL@@QAEXXZ 100119c0 f i ShowSelectCert.obj
 0001:00010a10       ??1CWndProcThunk@ATL@@QAE@XZ 10011a10 f i ShowSelectCert.obj
 0001:00010a40       ??1CDynamicStdCallThunk@ATL@@QAE@XZ 10011a40 f i ShowSelectCert.obj
 0001:00010a90       ??0?$CWindowImplRoot@VCWindow@ATL@@@ATL@@QAE@XZ 10011a90 f i ShowSelectCert.obj
 0001:00010af0       ??0?$CComPolyObject@VCAxHostWindow@ATL@@@ATL@@QAE@PAX@Z 10011af0 f i ShowSelectCert.obj
 0001:00010bb0       ?FinalConstruct@?$CComPolyObject@VCAxHostWindow@ATL@@@ATL@@QAEJXZ 10011bb0 f i ShowSelectCert.obj
 0001:00010c10       ?InternalAddRef@?$CComObjectRootEx@VCComSingleThreadModel@ATL@@@ATL@@QAEKXZ 10011c10 f i ShowSelectCert.obj
 0001:00010c60       ?Increment@CComSingleThreadModel@ATL@@SGKPAJ@Z 10011c60 f i ShowSelectCert.obj
 0001:00010c80       ?InternalRelease@?$CComObjectRootEx@VCComSingleThreadModel@ATL@@@ATL@@QAEKXZ 10011c80 f i ShowSelectCert.obj
 0001:00010cf0       ?Decrement@CComSingleThreadModel@ATL@@SGKPAJ@Z 10011cf0 f i ShowSelectCert.obj
 0001:00010d10       ?QueryInterface@?$CComPolyObject@VCAxHostWindow@ATL@@@ATL@@UAGJABU_GUID@@PAPAX@Z 10011d10 f i ShowSelectCert.obj
 0001:00010dc0       ?InlineIsEqualUnknown@ATL@@YGHABU_GUID@@@Z 10011dc0 f i ShowSelectCert.obj
 0001:00010e10       ?_InternalQueryInterface@CAxHostWindow@ATL@@QAEJABU_GUID@@PAPAX@Z 10011e10 f i ShowSelectCert.obj
 0001:00010e50       ?InternalQueryInterface@CComObjectRootBase@ATL@@SGJPAXPBU_ATL_INTMAP_ENTRY@2@ABU_GUID@@PAPAX@Z 10011e50 f i ShowSelectCert.obj
 0001:00010f00       ?_GetEntries@CAxHostWindow@ATL@@SGPBU_ATL_INTMAP_ENTRY@2@XZ 10011f00 f i ShowSelectCert.obj
 0001:00010f10       ??0CWndProcThunk@ATL@@QAE@XZ 10011f10 f i ShowSelectCert.obj
 0001:00010f40       ??_G?$CComPolyObject@VCAxHostWindow@ATL@@@ATL@@UAEPAXI@Z 10011f40 f i ShowSelectCert.obj
 0001:00010f40       ??_E?$CComPolyObject@VCAxHostWindow@ATL@@@ATL@@UAEPAXI@Z 10011f40 f i ShowSelectCert.obj
 0001:00010f80       ??1?$CComPolyObject@VCAxHostWindow@ATL@@@ATL@@UAE@XZ 10011f80 f i ShowSelectCert.obj
 0001:00011010       ??1?$CComContainedObject@VCAxHostWindow@ATL@@@ATL@@UAE@XZ 10012010 f i ShowSelectCert.obj
 0001:00011040       ??1CAxHostWindow@ATL@@UAE@XZ 10012040 f i ShowSelectCert.obj
 0001:00011150       ??1?$CComPtr@UITypeInfo2@@@ATL@@QAE@XZ 10012150 f i ShowSelectCert.obj
 0001:00011150       ??1?$CComPtr@UIOleInPlaceFrame@@@ATL@@QAE@XZ 10012150 f i ShowSelectCert.obj
 0001:00011150       ??1?$CComPtr@UIDocHostUIHandlerDispatch@@@ATL@@QAE@XZ 10012150 f i ShowSelectCert.obj
 0001:00011150       ??1?$CComPtr@UIObjectWithSite@@@ATL@@QAE@XZ 10012150 f i ShowSelectCert.obj
 0001:00011150       ??1?$CComPtr@UIClassFactory2@@@ATL@@QAE@XZ 10012150 f i ShowSelectCert.obj
 0001:00011150       ??1?$CComPtr@UIViewObjectEx@@@ATL@@QAE@XZ 10012150 f i ShowSelectCert.obj
 0001:00011150       ??1?$CComPtr@UIWebBrowser2@@@ATL@@QAE@XZ 10012150 f i ShowSelectCert.obj
 0001:00011150       ??1?$CComPtr@UIPersistStreamInit@@@ATL@@QAE@XZ 10012150 f i ShowSelectCert.obj
 0001:00011150       ??1?$CComPtr@UIOleClientSite@@@ATL@@QAE@XZ 10012150 f i ShowSelectCert.obj
 0001:00011150       ??1?$CComPtr@UIFontDisp@@@ATL@@QAE@XZ 10012150 f i ShowSelectCert.obj
 0001:00011150       ??1?$CComPtr@UIHTMLDocument2@@@ATL@@QAE@XZ 10012150 f i Signature.obj
 0001:00011150       ??1?$CComPtr@UIOleInPlaceUIWindow@@@ATL@@QAE@XZ 10012150 f i ShowSelectCert.obj
 0001:00011150       ??1?$CComPtr@UIServiceProvider@@@ATL@@QAE@XZ 10012150 f i ShowSelectCert.obj
 0001:00011150       ??1?$CComPtr@UIDispatch@@@ATL@@QAE@XZ 10012150 f i ShowSelectCert.obj
 0001:00011150       ??1?$CComPtr@UIOleObject@@@ATL@@QAE@XZ 10012150 f i ShowSelectCert.obj
 0001:00011150       ??1?$CComPtr@UIAdviseSink@@@ATL@@QAE@XZ 10012150 f i ShowSelectCert.obj
 0001:00011150       ??1?$CComPtr@UITypeInfo@@@ATL@@QAE@XZ 10012150 f i ShowSelectCert.obj
 0001:00011150       ??1?$CComPtr@UICatRegister@@@ATL@@QAE@XZ 10012150 f i XMLSign.obj
 0001:00011150       ??1?$CComPtr@UIOleInPlaceActiveObject@@@ATL@@QAE@XZ 10012150 f i ShowSelectCert.obj
 0001:00011150       ??1?$CComPtr@UIOleControl@@@ATL@@QAE@XZ 10012150 f i ShowSelectCert.obj
 0001:00011150       ??1?$CComPtr@UIPersistStream@@@ATL@@QAE@XZ 10012150 f i ShowSelectCert.obj
 0001:00011150       ??1?$CComPtr@UITypeLib@@@ATL@@QAE@XZ 10012150 f i ShowSelectCert.obj
 0001:00011150       ??1?$CComPtr@UIAxWinHostWindowLic@@@ATL@@QAE@XZ 10012150 f i ShowSelectCert.obj
 0001:00011150       ??1?$CComPtr@UIUnknown@@@ATL@@QAE@XZ 10012150 f i ShowSelectCert.obj
 0001:00011150       ??1?$CComPtr@UIStream@@@ATL@@QAE@XZ 10012150 f i ShowSelectCert.obj
 0001:00011150       ??1?$CComPtr@UIOleInPlaceObjectWindowless@@@ATL@@QAE@XZ 10012150 f i ShowSelectCert.obj
 0001:00011180       ??1?$IObjectWithSiteImpl@VCAxHostWindow@ATL@@@ATL@@UAE@XZ 10012180 f i ShowSelectCert.obj
 0001:000111b0       ?FinalRelease@?$CComPolyObject@VCAxHostWindow@ATL@@@ATL@@QAEXXZ 100121b0 f i ShowSelectCert.obj
 0001:000111f0       ?FinalRelease@CAxHostWindow@ATL@@QAEXXZ 100121f0 f i ShowSelectCert.obj
 0001:00011220       ?ReleaseAll@CAxHostWindow@ATL@@QAEXXZ 10012220 f i ShowSelectCert.obj
 0001:00011550       ??Dconst_iterator@?$basic_string@DU?$char_traits@D@std@@V?$_DebugHeapAllocator@D@2@@std@@QBEABDXZ 10012550 f i Signature.obj
 0001:00011550       ??B?$CComPtrBase@UIDocHostUIHandlerDispatch@@@ATL@@QBEPAUIDocHostUIHandlerDispatch@@XZ 10012550 f i ShowSelectCert.obj
 0001:00011550       ??B?$CTempBuffer@E$0BAA@VCCRTAllocator@ATL@@@ATL@@QBEPAEXZ 10012550 f i XMLSign.obj
 0001:00011550       ??B?$CComPtrBase@UIOleInPlaceUIWindow@@@ATL@@QBEPAUIOleInPlaceUIWindow@@XZ 10012550 f i ShowSelectCert.obj
 0001:00011550       ??Dconst_iterator@?$vector@PAUSECItemStr@@V?$allocator@PAUSECItemStr@@@std@@@std@@QBEABQAUSECItemStr@@XZ 10012550 f i CertVerify.obj
 0001:00011550       ?_Mynode@const_iterator@?$list@PAUAllocInfo@@V?$allocator@PAUAllocInfo@@@std@@@std@@QBEPAU_Node@?$_List_nod@PAUAllocInfo@@V?$allocator@PAUAllocInfo@@@std@@@3@XZ 10012550 f i xmlsigd_nss:DebugLog.obj
 0001:00011550       ??B?$CComPtrBase@UIObjectWithSite@@@ATL@@QBEPAUIObjectWithSite@@XZ 10012550 f i ShowSelectCert.obj
 0001:00011550       ?_Mynode@const_iterator@?$list@PAEV?$allocator@PAE@std@@@std@@QBEPAU_Node@?$_List_nod@PAEV?$allocator@PAE@std@@@3@XZ 10012550 f i CertVerify.obj
 0001:00011550       ??B?$CComPtrBase@UIViewObjectEx@@@ATL@@QBEPAUIViewObjectEx@@XZ 10012550 f i ShowSelectCert.obj
 0001:00011550       ??B?$CTempBuffer@D$0BAA@VCCRTAllocator@ATL@@@ATL@@QBEPADXZ 10012550 f i XMLSign.obj
 0001:00011550       ??B?$CComPtrBase@UIStream@@@ATL@@QBEPAUIStream@@XZ 10012550 f i ShowSelectCert.obj
 0001:00011550       ??BCComBSTR@ATL@@QBEPAGXZ  10012550 f i ShowSelectCert.obj
 0001:00011550       ??B?$CComPtrBase@UIDispatch@@@ATL@@QBEPAUIDispatch@@XZ 10012550 f i ShowSelectCert.obj
 0001:00011550       ??B?$CComPtrBase@UIUnknown@@@ATL@@QBEPAUIUnknown@@XZ 10012550 f i ShowSelectCert.obj
 0001:00011550       ??B?$CComPtrBase@UIPersistStream@@@ATL@@QBEPAUIPersistStream@@XZ 10012550 f i ShowSelectCert.obj
 0001:00011550       ??BCWindow@ATL@@QBEPAUHWND__@@XZ 10012550 f i ShowSelectCert.obj
 0001:00011550       ??B?$CSimpleStringT@D$0A@@ATL@@QBEPBDXZ 10012550 f i Signature.obj
 0001:00011550       ??B?$CComPtrBase@UIOleInPlaceObjectWindowless@@@ATL@@QBEPAUIOleInPlaceObjectWindowless@@XZ 10012550 f i ShowSelectCert.obj
 0001:00011550       ??B?$CTempBuffer@D$0EAA@VCCRTAllocator@ATL@@@ATL@@QBEPADXZ 10012550 f i XMLSign.obj
 0001:00011550       ??Dconst_iterator@?$basic_string@DU?$char_traits@D@std@@V?$allocator@D@2@@std@@QBEABDXZ 10012550 f i Signature.obj
 0001:00011550       ??B?$CComPtrBase@UIOleClientSite@@@ATL@@QBEPAUIOleClientSite@@XZ 10012550 f i ShowSelectCert.obj
 0001:00011550       ??B?$CComPtrBase@UITypeLib@@@ATL@@QBEPAUITypeLib@@XZ 10012550 f i XMLSign.obj
 0001:00011550       ??B?$CComPtrBase@UIPersistStreamInit@@@ATL@@QBEPAUIPersistStreamInit@@XZ 10012550 f i ShowSelectCert.obj
 0001:00011550       ?_Mynode@const_iterator@?$list@PAUTempFilePathInfo@@V?$allocator@PAUTempFilePathInfo@@@std@@@std@@QBEPAU_Node@?$_List_nod@PAUTempFilePathInfo@@V?$allocator@PAUTempFilePathInfo@@@std@@@3@XZ 10012550 f i Signature.obj
 0001:00011550       ??B?$CComPtrBase@UIAdviseSink@@@ATL@@QBEPAUIAdviseSink@@XZ 10012550 f i ShowSelectCert.obj
 0001:00011550       ??B?$CComPtrBase@UIWebBrowser2@@@ATL@@QBEPAUIWebBrowser2@@XZ 10012550 f i ShowSelectCert.obj
 0001:00011550       ??B?$CComPtrBase@UIOleObject@@@ATL@@QBEPAUIOleObject@@XZ 10012550 f i ShowSelectCert.obj
 0001:00011550       ??B?$CComPtrBase@UIOleInPlaceActiveObject@@@ATL@@QBEPAUIOleInPlaceActiveObject@@XZ 10012550 f i ShowSelectCert.obj
 0001:00011550       ??B?$CComPtrBase@UITypeInfo2@@@ATL@@QBEPAUITypeInfo2@@XZ 10012550 f i ShowSelectCert.obj
 0001:00011550       ??B?$CComPtrBase@UIServiceProvider@@@ATL@@QBEPAUIServiceProvider@@XZ 10012550 f i ShowSelectCert.obj
 0001:00011550       ??BCRegKey@ATL@@QBEPAUHKEY__@@XZ 10012550 f i XMLSign.obj
 0001:00011550       ??B?$CComPtrBase@UIOleControl@@@ATL@@QBEPAUIOleControl@@XZ 10012550 f i ShowSelectCert.obj
 0001:00011550       ??BCTraceCategory@ATL@@QBEKXZ 10012550 f i config.obj
 0001:00011550       ??B?$CComPtrBase@UIOleInPlaceFrame@@@ATL@@QBEPAUIOleInPlaceFrame@@XZ 10012550 f i ShowSelectCert.obj
 0001:00011570       ?Release@?$CComPtrBase@UIOleInPlaceObjectWindowless@@@ATL@@QAEXXZ 10012570 f i ShowSelectCert.obj
 0001:00011570       ?Release@?$CComPtrBase@UIOleInPlaceActiveObject@@@ATL@@QAEXXZ 10012570 f i ShowSelectCert.obj
 0001:00011570       ?Release@?$CComPtrBase@UIOleObject@@@ATL@@QAEXXZ 10012570 f i ShowSelectCert.obj
 0001:00011570       ?Release@?$CComPtrBase@UIOleInPlaceFrame@@@ATL@@QAEXXZ 10012570 f i ShowSelectCert.obj
 0001:00011570       ?Release@?$CComPtrBase@UIOleInPlaceUIWindow@@@ATL@@QAEXXZ 10012570 f i ShowSelectCert.obj
 0001:00011570       ?Release@?$CComPtrBase@UIUnknown@@@ATL@@QAEXXZ 10012570 f i ShowSelectCert.obj
 0001:00011570       ?Release@?$CComPtrBase@UIServiceProvider@@@ATL@@QAEXXZ 10012570 f i ShowSelectCert.obj
 0001:00011570       ?Release@?$CComPtrBase@UIViewObjectEx@@@ATL@@QAEXXZ 10012570 f i ShowSelectCert.obj
 0001:000115d0       ??0?$CComContainedObject@VCAxHostWindow@ATL@@@ATL@@QAE@PAX@Z 100125d0 f i ShowSelectCert.obj
 0001:00011670       ??0CAxHostWindow@ATL@@QAE@XZ 10012670 f i ShowSelectCert.obj
 0001:00011940       ?OnFinalMessage@CAxHostWindow@ATL@@UAEXPAUHWND__@@@Z 10012940 f i ShowSelectCert.obj
 0001:000119a0       ?ProcessWindowMessage@CAxHostWindow@ATL@@UAEHPAUHWND__@@IIJAAJK@Z 100129a0 f i ShowSelectCert.obj
 0001:00012370       ?OnForwardMsg@CAxHostWindow@ATL@@QAEJIIJAAH@Z 10013370 f i ShowSelectCert.obj
 0001:000124c0       ?OnGetUnknown@CAxHostWindow@ATL@@QAEJIIJAAH@Z 100134c0 f i ShowSelectCert.obj
 0001:00012520       ?OnGetControl@CAxHostWindow@ATL@@QAEJIIJAAH@Z 10013520 f i ShowSelectCert.obj
 0001:00012580       ?OnEraseBackground@CAxHostWindow@ATL@@QAEJIIJAAH@Z 10013580 f i ShowSelectCert.obj
 0001:000125c0       ?OnMouseActivate@CAxHostWindow@ATL@@QAEJIIJAAH@Z 100135c0 f i ShowSelectCert.obj
 0001:00012760       ?OnSetFocus@CAxHostWindow@ATL@@QAEJIIJAAH@Z 10013760 f i ShowSelectCert.obj
 0001:00012960       ?IsChild@CWindow@ATL@@QBEHPAUHWND__@@@Z 10013960 f i ShowSelectCert.obj
 0001:000129e0       ?OnKillFocus@CAxHostWindow@ATL@@QAEJIIJAAH@Z 100139e0 f i ShowSelectCert.obj
 0001:00012a20       ?OnSize@CAxHostWindow@ATL@@QAEJIIJAAH@Z 10013a20 f i ShowSelectCert.obj
 0001:00012ba0       ?OnDestroy@CAxHostWindow@ATL@@QAEJIIJAAH@Z 10013ba0 f i ShowSelectCert.obj
 0001:00012c20       ?OnWindowMessage@CAxHostWindow@ATL@@QAEJIIJAAH@Z 10013c20 f i ShowSelectCert.obj
 0001:00012d20       ?OnWindowlessMouseMessage@CAxHostWindow@ATL@@QAEJIIJAAH@Z 10013d20 f i ShowSelectCert.obj
 0001:00012e10       ?OnPaint@CAxHostWindow@ATL@@QAEJIIJAAH@Z 10013e10 f i ShowSelectCert.obj
 0001:00013200       ?GetClientRect@CWindow@ATL@@QBEHPAUtagRECT@@@Z 10014200 f i ShowSelectCert.obj
 0001:00013280       ?CreateControl@CAxHostWindow@ATL@@UAGJPBGPAUHWND__@@PAUIStream@@@Z 10014280 f i ShowSelectCert.obj
 0001:00013350       ?CreateControlEx@CAxHostWindow@ATL@@UAGJPBGPAUHWND__@@PAUIStream@@PAPAUIUnknown@@ABU_GUID@@PAU5@@Z 10014350 f i ShowSelectCert.obj
 0001:00013390       ?AttachControl@CAxHostWindow@ATL@@UAGJPAUIUnknown@@PAUHWND__@@@Z 10014390 f i ShowSelectCert.obj
 0001:00013490       ?RedrawWindow@CWindow@ATL@@QAEHPBUtagRECT@@PAUHRGN__@@I@Z 10014490 f i ShowSelectCert.obj
 0001:00013510       ?QueryControl@CAxHostWindow@ATL@@UAGJABU_GUID@@PAPAX@Z 10014510 f i ShowSelectCert.obj
 0001:000135a0       ?SetExternalDispatch@CAxHostWindow@ATL@@UAGJPAUIDispatch@@@Z 100145a0 f i ShowSelectCert.obj
 0001:000135c0       ?AtlComPtrAssign@ATL@@YGPAUIUnknown@@PAPAU2@PAU2@@Z 100145c0 f i ShowSelectCert.obj
 0001:00013630       ?SetExternalUIHandler@CAxHostWindow@ATL@@UAGJPAUIDocHostUIHandlerDispatch@@@Z 10014630 f i ShowSelectCert.obj
 0001:00013650       ?CreateControlLic@CAxHostWindow@ATL@@UAGJPBGPAUHWND__@@PAUIStream@@PAG@Z 10014650 f i ShowSelectCert.obj
 0001:00013720       ?CreateControlLicEx@CAxHostWindow@ATL@@UAGJPBGPAUHWND__@@PAUIStream@@PAPAUIUnknown@@ABU_GUID@@PAU5@PAG@Z 10014720 f i ShowSelectCert.obj
 0001:00013e20       ?ocslen@@YAHPBG@Z          10014e20 f i ShowSelectCert.obj
 0001:00013e50       ??0_variant_t@@QAE@XZ      10014e50 f i Signature.obj
 0001:00013e50       ??0CComVariant@ATL@@QAE@XZ 10014e50 f i ShowSelectCert.obj
 0001:00013e90       ??1CComVariant@ATL@@QAE@XZ 10014e90 f i ShowSelectCert.obj
 0001:00013ec0       ??0CComVariant@ATL@@QAE@PBG@Z 10014ec0 f i ShowSelectCert.obj
 0001:00013f00       ??4CComVariant@ATL@@QAEAAV01@PBG@Z 10014f00 f i ShowSelectCert.obj
 0001:00013f70       ?Clear@CComVariant@ATL@@QAEJXZ 10014f70 f i ShowSelectCert.obj
 0001:00013fb0       ?SetWindowLongA@CWindow@ATL@@QAEJHJ@Z 10014fb0 f i ShowSelectCert.obj
 0001:00014030       ?IsParentDialog@CWindow@ATL@@QAEHXZ 10015030 f i ShowSelectCert.obj
 0001:00014130       ?GetParent@CWindow@ATL@@QBE?AV12@XZ 10015130 f i ShowSelectCert.obj
 0001:000141b0       ?FindOneOf@CAtlModule@ATL@@SAPBDPBD0@Z 100151b0 f i ShowSelectCert.obj
 0001:00014250       ?ShowContextMenu@CAxHostWindow@ATL@@UAGJKPAUtagPOINT@@PAUIUnknown@@PAUIDispatch@@@Z 10015250 f i ShowSelectCert.obj
 0001:00014310       ?GetHostInfo@CAxHostWindow@ATL@@UAGJPAU_DOCHOSTUIINFO@@@Z 10015310 f i ShowSelectCert.obj
 0001:000143a0       ?ShowUI@CAxHostWindow@ATL@@UAGJKPAUIOleInPlaceActiveObject@@PAUIOleCommandTarget@@PAUIOleInPlaceFrame@@PAUIOleInPlaceUIWindow@@@Z 100153a0 f i ShowSelectCert.obj
 0001:00014460       ?HideUI@CAxHostWindow@ATL@@UAGJXZ 10015460 f i ShowSelectCert.obj
 0001:000144d0       ?UpdateUI@CAxHostWindow@ATL@@UAGJXZ 100154d0 f i ShowSelectCert.obj
 0001:00014540       ?EnableModeless@CAxHostWindow@ATL@@UAGJH@Z 10015540 f i ShowSelectCert.obj
 0001:000145b0       ?OnDocWindowActivate@CAxHostWindow@ATL@@UAGJH@Z 100155b0 f i ShowSelectCert.obj
 0001:00014620       ?OnFrameWindowActivate@CAxHostWindow@ATL@@UAGJH@Z 10015620 f i ShowSelectCert.obj
 0001:00014690       ?ResizeBorder@CAxHostWindow@ATL@@UAGJPBUtagRECT@@PAUIOleInPlaceUIWindow@@H@Z 10015690 f i ShowSelectCert.obj
 0001:00014720       ?TranslateAcceleratorA@CAxHostWindow@ATL@@UAGJPAUtagMSG@@PBU_GUID@@K@Z 10015720 f i ShowSelectCert.obj
 0001:00014830       ??0CComBSTR@ATL@@QAE@ABU_GUID@@@Z 10015830 f i ShowSelectCert.obj
 0001:000148f0       ?GetOptionKeyPath@CAxHostWindow@ATL@@UAGJPAPAGK@Z 100158f0 f i ShowSelectCert.obj
 0001:00014a00       ?ocscpy@@YAPAGPAGPBG@Z     10015a00 f i ShowSelectCert.obj
 0001:00014a40       ?ByteLength@CComBSTR@ATL@@QBEIXZ 10015a40 f i ShowSelectCert.obj
 0001:00014aa0       ?GetDropTarget@CAxHostWindow@ATL@@UAGJPAUIDropTarget@@PAPAU3@@Z 10015aa0 f i ShowSelectCert.obj
 0001:00014c20       ?GetExternal@CAxHostWindow@ATL@@UAGJPAPAUIDispatch@@@Z 10015c20 f i ShowSelectCert.obj
 0001:00014d10       ?TranslateUrl@CAxHostWindow@ATL@@UAGJKPAGPAPAG@Z 10015d10 f i ShowSelectCert.obj
 0001:00014ee0       ?FilterDataObject@CAxHostWindow@ATL@@UAGJPAUIDataObject@@PAPAU3@@Z 10015ee0 f i ShowSelectCert.obj
 0001:00015050       ?Invoke@CAxHostWindow@ATL@@UAGJJABU_GUID@@KGPAUtagDISPPARAMS@@PAUtagVARIANT@@PAUtagEXCEPINFO@@PAI@Z 10016050 f i ShowSelectCert.obj
 0001:00015130       ?FireAmbientPropertyChange@CAxHostWindow@ATL@@QAEJJ@Z 10016130 f i ShowSelectCert.obj
 0001:00015230       ?put_AllowWindowlessActivation@CAxHostWindow@ATL@@UAGJF@Z 10016230 f i ShowSelectCert.obj
 0001:00015260       ?get_AllowWindowlessActivation@CAxHostWindow@ATL@@UAGJPAF@Z 10016260 f i ShowSelectCert.obj
 0001:000152c0       ?put_BackColor@CAxHostWindow@ATL@@UAGJK@Z 100162c0 f i ShowSelectCert.obj
 0001:00015310       ?get_BackColor@CAxHostWindow@ATL@@UAGJPAK@Z 10016310 f i ShowSelectCert.obj
 0001:00015370       ?put_ForeColor@CAxHostWindow@ATL@@UAGJK@Z 10016370 f i ShowSelectCert.obj
 0001:000153a0       ?get_ForeColor@CAxHostWindow@ATL@@UAGJPAK@Z 100163a0 f i ShowSelectCert.obj
 0001:00015400       ?put_LocaleID@CAxHostWindow@ATL@@UAGJK@Z 10016400 f i ShowSelectCert.obj
 0001:00015430       ?get_LocaleID@CAxHostWindow@ATL@@UAGJPAK@Z 10016430 f i ShowSelectCert.obj
 0001:00015490       ?put_UserMode@CAxHostWindow@ATL@@UAGJF@Z 10016490 f i ShowSelectCert.obj
 0001:000154d0       ?get_UserMode@CAxHostWindow@ATL@@UAGJPAF@Z 100164d0 f i ShowSelectCert.obj
 0001:00015530       ?put_DisplayAsDefault@CAxHostWindow@ATL@@UAGJF@Z 10016530 f i ShowSelectCert.obj
 0001:00015570       ?get_DisplayAsDefault@CAxHostWindow@ATL@@UAGJPAF@Z 10016570 f i ShowSelectCert.obj
 0001:000155d0       ?put_Font@CAxHostWindow@ATL@@UAGJPAUIFontDisp@@@Z 100165d0 f i ShowSelectCert.obj
 0001:00015610       ?get_Font@CAxHostWindow@ATL@@UAGJPAPAUIFontDisp@@@Z 10016610 f i ShowSelectCert.obj
 0001:00015960       ?put_MessageReflect@CAxHostWindow@ATL@@UAGJF@Z 10016960 f i ShowSelectCert.obj
 0001:000159a0       ?get_MessageReflect@CAxHostWindow@ATL@@UAGJPAF@Z 100169a0 f i ShowSelectCert.obj
 0001:00015a00       ?get_ShowGrabHandles@CAxHostWindow@ATL@@UAGJPAF@Z 10016a00 f i ShowSelectCert.obj
 0001:00015a20       ?get_ShowHatching@CAxHostWindow@ATL@@UAGJPAF@Z 10016a20 f i ShowSelectCert.obj
 0001:00015a70       ?put_DocHostFlags@CAxHostWindow@ATL@@UAGJK@Z 10016a70 f i ShowSelectCert.obj
 0001:00015aa0       ?get_DocHostFlags@CAxHostWindow@ATL@@UAGJPAK@Z 10016aa0 f i ShowSelectCert.obj
 0001:00015b00       ?put_DocHostDoubleClickFlags@CAxHostWindow@ATL@@UAGJK@Z 10016b00 f i ShowSelectCert.obj
 0001:00015b20       ?get_DocHostDoubleClickFlags@CAxHostWindow@ATL@@UAGJPAK@Z 10016b20 f i ShowSelectCert.obj
 0001:00015b80       ?put_AllowContextMenu@CAxHostWindow@ATL@@UAGJF@Z 10016b80 f i ShowSelectCert.obj
 0001:00015bb0       ?get_AllowContextMenu@CAxHostWindow@ATL@@UAGJPAF@Z 10016bb0 f i ShowSelectCert.obj
 0001:00015c10       ?put_AllowShowUI@CAxHostWindow@ATL@@UAGJF@Z 10016c10 f i ShowSelectCert.obj
 0001:00015c40       ?get_AllowShowUI@CAxHostWindow@ATL@@UAGJPAF@Z 10016c40 f i ShowSelectCert.obj
 0001:00015ca0       ?put_OptionKeyPath@CAxHostWindow@ATL@@UAGJPAG@Z 10016ca0 f i ShowSelectCert.obj
 0001:00015cd0       ?get_OptionKeyPath@CAxHostWindow@ATL@@UAGJPAPAG@Z 10016cd0 f i ShowSelectCert.obj
 0001:00015d30       ?SetAmbientDispatch@CAxHostWindow@ATL@@UAGJPAUIDispatch@@@Z 10016d30 f i ShowSelectCert.obj
 0001:00015d50       ?SetSite@CAxHostWindow@ATL@@UAGJPAUIUnknown@@@Z 10016d50 f i ShowSelectCert.obj
 0001:00015e30       ?SaveObject@CAxHostWindow@ATL@@UAGJXZ 10016e30 f i ShowSelectCert.obj
 0001:00015e90       ?GetMoniker@CAxHostWindow@ATL@@UAGJKKPAPAUIMoniker@@@Z 10016e90 f i ShowSelectCert.obj
 0001:00015ef0       ?GetContainer@CAxHostWindow@ATL@@UAGJPAPAUIOleContainer@@@Z 10016ef0 f i ShowSelectCert.obj
 0001:00016000       ?ShowObject@CAxHostWindow@ATL@@UAGJXZ 10017000 f i ShowSelectCert.obj
 0001:000160e0       ?GetDC@CWindow@ATL@@QAEPAUHDC__@@XZ 100170e0 f i ShowSelectCert.obj
 0001:00016150       ?ReleaseDC@CWindow@ATL@@QAEHPAUHDC__@@@Z 10017150 f i ShowSelectCert.obj
 0001:000161d0       ?OnShowWindow@CAxHostWindow@ATL@@UAGJH@Z 100171d0 f i ShowSelectCert.obj
 0001:00016230       ?RequestNewObjectLayout@CAxHostWindow@ATL@@UAGJXZ 10017230 f i ShowSelectCert.obj
 0001:00016290       ?GetWindow@CAxHostWindow@ATL@@UAGJPAPAUHWND__@@@Z 10017290 f i ShowSelectCert.obj
 0001:000162b0       ?ContextSensitiveHelp@CAxHostWindow@ATL@@UAGJH@Z 100172b0 f i ShowSelectCert.obj
 0001:00016310       ?OnInPlaceActivate@CAxHostWindow@ATL@@UAGJXZ 10017310 f i ShowSelectCert.obj
 0001:00016400       ?OnUIActivate@CAxHostWindow@ATL@@UAGJXZ 10017400 f i ShowSelectCert.obj
 0001:00016470       ?GetWindowContext@CAxHostWindow@ATL@@UAGJPAPAUIOleInPlaceFrame@@PAPAUIOleInPlaceUIWindow@@PAUtagRECT@@2PAUtagOIFI@@@Z 10017470 f i ShowSelectCert.obj
 0001:00016720       ?Scroll@CAxHostWindow@ATL@@UAGJUtagSIZE@@@Z 10017720 f i ShowSelectCert.obj
 0001:00016780       ?OnUIDeactivate@CAxHostWindow@ATL@@UAGJH@Z 10017780 f i ShowSelectCert.obj
 0001:000167f0       ?OnInPlaceDeactivate@CAxHostWindow@ATL@@UAGJXZ 100177f0 f i ShowSelectCert.obj
 0001:00016820       ?DiscardUndoState@CAxHostWindow@ATL@@UAGJXZ 10017820 f i ShowSelectCert.obj
 0001:00016880       ?DeactivateAndUndo@CAxHostWindow@ATL@@UAGJXZ 10017880 f i ShowSelectCert.obj
 0001:000168e0       ?OnPosRectChange@CAxHostWindow@ATL@@UAGJPBUtagRECT@@@Z 100178e0 f i ShowSelectCert.obj
 0001:00016940       ?OnInPlaceActivateEx@CAxHostWindow@ATL@@UAGJPAHK@Z 10017940 f i ShowSelectCert.obj
 0001:00016ae0       ?OnInPlaceDeactivateEx@CAxHostWindow@ATL@@UAGJH@Z 10017ae0 f i ShowSelectCert.obj
 0001:00016b10       ?CanWindowlessActivate@CAxHostWindow@ATL@@UAGJXZ 10017b10 f i ShowSelectCert.obj
 0001:00016b30       ?GetCapture@CAxHostWindow@ATL@@UAGJXZ 10017b30 f i ShowSelectCert.obj
 0001:00016b50       ?SetCapture@CAxHostWindow@ATL@@UAGJH@Z 10017b50 f i ShowSelectCert.obj
 0001:00016bb0       ?SetCapture@CWindow@ATL@@QAEPAUHWND__@@XZ 10017bb0 f i ShowSelectCert.obj
 0001:00016c20       ?GetFocus@CAxHostWindow@ATL@@UAGJXZ 10017c20 f i ShowSelectCert.obj
 0001:00016c40       ?SetFocus@CAxHostWindow@ATL@@UAGJH@Z 10017c40 f i ShowSelectCert.obj
 0001:00016c70       ?GetDC@CAxHostWindow@ATL@@UAGJPBUtagRECT@@KPAPAUHDC__@@@Z 10017c70 f i ShowSelectCert.obj
 0001:00016e40       ?ReleaseDC@CAxHostWindow@ATL@@UAGJPAUHDC__@@@Z 10017e40 f i ShowSelectCert.obj
 0001:00016f20       ?InvalidateRect@CAxHostWindow@ATL@@UAGJPBUtagRECT@@H@Z 10017f20 f i ShowSelectCert.obj
 0001:00016f50       ?InvalidateRect@CWindow@ATL@@QAEHPBUtagRECT@@H@Z 10017f50 f i ShowSelectCert.obj
 0001:00016fd0       ?InvalidateRgn@CAxHostWindow@ATL@@UAGJPAUHRGN__@@H@Z 10017fd0 f i ShowSelectCert.obj
 0001:00017000       ?InvalidateRgn@CWindow@ATL@@QAEXPAUHRGN__@@H@Z 10018000 f i ShowSelectCert.obj
 0001:00017080       ?ScrollRect@CAxHostWindow@ATL@@UAGJHHPBUtagRECT@@0@Z 10018080 f i ShowSelectCert.obj
 0001:00017090       ?OnDefWindowMessage@CAxHostWindow@ATL@@UAGJIIJPAJ@Z 10018090 f i ShowSelectCert.obj
 0001:000170c0       ?RequestUIActivate@CAxHostWindow@ATL@@UAGJXZ 100180c0 f i ShowSelectCert.obj
 0001:000170c0       ?OnControlInfoChanged@CAxHostWindow@ATL@@UAGJXZ 100180c0 f i ShowSelectCert.obj
 0001:000170c0       ?CanInPlaceActivate@CAxHostWindow@ATL@@UAGJXZ 100180c0 f i ShowSelectCert.obj
 0001:000170d0       ?GetExtendedControl@CAxHostWindow@ATL@@UAGJPAPAUIDispatch@@@Z 100180d0 f i ShowSelectCert.obj
 0001:00017100       ?TransformCoords@CAxHostWindow@ATL@@UAGJPAU_POINTL@@PAUtagPOINTF@@K@Z 10018100 f i ShowSelectCert.obj
 0001:00017160       ?OnFocus@CAxHostWindow@ATL@@UAGJH@Z 10018160 f i ShowSelectCert.obj
 0001:00017190       ?ShowPropertyFrame@CAxHostWindow@ATL@@UAGJXZ 10018190 f i ShowSelectCert.obj
 0001:000171f0       ?OnDataChange@CAxHostWindow@ATL@@UAGXPAUtagFORMATETC@@PAUtagSTGMEDIUM@@@Z 100181f0 f i ShowSelectCert.obj
 0001:000171f0       ?OnViewChange@CAxHostWindow@ATL@@UAGXKJ@Z 100181f0 f i ShowSelectCert.obj
 0001:00017200       ?OnRename@CAxHostWindow@ATL@@UAGXPAUIMoniker@@@Z 10018200 f i ShowSelectCert.obj
 0001:00017210       ?ObjectMain@CComObjectRootBase@ATL@@SGX_N@Z 10018210 f i XMLSign.obj
 0001:00017210       ?OnSave@CAxHostWindow@ATL@@UAGXXZ 10018210 f i ShowSelectCert.obj
 0001:00017210       ?OnClose@CAxHostWindow@ATL@@UAGXXZ 10018210 f i ShowSelectCert.obj
 0001:00017220       ?ParseDisplayName@CAxHostWindow@ATL@@UAGJPAUIBindCtx@@PAGPAKPAPAUIMoniker@@@Z 10018220 f i ShowSelectCert.obj
 0001:00017280       ?EnumObjects@CAxHostWindow@ATL@@UAGJKPAPAUIEnumUnknown@@@Z 10018280 f i ShowSelectCert.obj
 0001:00017420       ?LockContainer@CAxHostWindow@ATL@@UAGJH@Z 10018420 f i ShowSelectCert.obj
 0001:00017450       ?ActivateAx@CAxHostWindow@ATL@@QAEJPAUIUnknown@@_NPAUIStream@@@Z 10018450 f i ShowSelectCert.obj
 0001:00017ca0       ?SubclassWindow@CAxHostWindow@ATL@@QAEXPAUHWND__@@@Z 10018ca0 f i ShowSelectCert.obj
 0001:00017d00       ?ReleaseWindow@CAxHostWindow@ATL@@QAEXXZ 10018d00 f i ShowSelectCert.obj
 0001:00017d60       ?ReflectNotifications@CAxHostWindow@ATL@@QAEJIIJAAH@Z 10018d60 f i ShowSelectCert.obj
 0001:00018090       ?QueryService@CAxHostWindow@ATL@@UAGJABU_GUID@@0PAPAX@Z 10019090 f i ShowSelectCert.obj
 0001:00018160       ??0?$CWindowImpl@VCAxHostWindow@ATL@@VCWindow@2@V?$CWinTraits@$0FGAAAAAA@$0A@@2@@ATL@@QAE@XZ 10019160 f i ShowSelectCert.obj
 0001:00018160       ??0?$CWindowImpl@VCAxFrameWindow@ATL@@VCWindow@2@V?$CWinTraits@$0FGAAAAAA@$0A@@2@@ATL@@QAE@XZ 10019160 f i ShowSelectCert.obj
 0001:00018160       ??0?$CWindowImpl@VCAxUIWindow@ATL@@VCWindow@2@V?$CWinTraits@$0FGAAAAAA@$0A@@2@@ATL@@QAE@XZ 10019160 f i ShowSelectCert.obj
 0001:00018190       ??0IOleInPlaceSiteWindowless@@QAE@XZ 10019190 f i ShowSelectCert.obj
 0001:00018190       ??0?$IDispatchImpl@UIAxWinAmbientDispatchEx@@$1?_GUID_b2d0778b_ac99_4c58_a5c8_e7724e5316b5@@3U__s_GUID@@B$1?m_libid@CAtlModule@ATL@@2U_GUID@@A$0PPPP@$0PPPP@VCComTypeInfoHolder@ATL@@@ATL@@QAE@XZ 10019190 f i ShowSelectCert.obj
 0001:000181c0       ??0IOleInPlaceSite@@QAE@XZ 100191c0 f i ShowSelectCert.obj
 0001:000181c0       ??0IOleContainer@@QAE@XZ   100191c0 f i ShowSelectCert.obj
 0001:000181c0       ??0IAxWinAmbientDispatch@@QAE@XZ 100191c0 f i ShowSelectCert.obj
 0001:000181c0       ??0ISignature@@QAE@XZ      100191c0 f i Signature.obj
 0001:000181c0       ??0IOleInPlaceUIWindow@@QAE@XZ 100191c0 f i ShowSelectCert.obj
 0001:000181c0       ??0IAxWinHostWindowLic@@QAE@XZ 100191c0 f i ShowSelectCert.obj
 0001:000181f0       ??0?$IObjectWithSiteImpl@VCAxHostWindow@ATL@@@ATL@@QAE@XZ 100191f0 f i ShowSelectCert.obj
 0001:00018230       ??1?$CComQIPtr@UIPersistStream@@$1?_GUID_00000109_0000_0000_c000_000000000046@@3U__s_GUID@@B@ATL@@QAE@XZ 10019230 f i ShowSelectCert.obj
 0001:00018230       ??1?$CComQIPtr@UIOleInPlaceActiveObject@@$1?_GUID_00000117_0000_0000_c000_000000000046@@3U__s_GUID@@B@ATL@@QAE@XZ 10019230 f i ShowSelectCert.obj
 0001:00018230       ??1?$CComQIPtr@UIPersistStreamInit@@$1?_GUID_7fd52380_4e07_101b_ae2d_08002b2ec713@@3U__s_GUID@@B@ATL@@QAE@XZ 10019230 f i ShowSelectCert.obj
 0001:00018230       ??1?$CComQIPtr@UIOleControl@@$1?_GUID_b196b288_bab4_101a_b69c_00aa00341d07@@3U__s_GUID@@B@ATL@@QAE@XZ 10019230 f i ShowSelectCert.obj
 0001:00018230       ??1?$CComQIPtr@UIAdviseSink@@$1?_GUID_0000010f_0000_0000_c000_000000000046@@3U__s_GUID@@B@ATL@@QAE@XZ 10019230 f i ShowSelectCert.obj
 0001:00018230       ??1?$CComQIPtr@UIOleClientSite@@$1?_GUID_00000118_0000_0000_c000_000000000046@@3U__s_GUID@@B@ATL@@QAE@XZ 10019230 f i ShowSelectCert.obj
 0001:00018260       ??0IRegistrarBase@@QAE@XZ  10019260 f i XMLSign.obj
 0001:00018260       ??0IEnumUnknown@@QAE@XZ    10019260 f i ShowSelectCert.obj
 0001:00018260       ??0?$_DebugHeapAllocator@D@std@@QAE@XZ 10019260 f i Signature.obj
 0001:00018260       ??0IOleClientSite@@QAE@XZ  10019260 f i ShowSelectCert.obj
 0001:00018260       ??0IParseDisplayName@@QAE@XZ 10019260 f i ShowSelectCert.obj
 0001:00018260       ??0IDispatch@@QAE@XZ       10019260 f i ShowSelectCert.obj
 0001:00018260       ??0IDocHostUIHandler@@QAE@XZ 10019260 f i ShowSelectCert.obj
 0001:00018260       ??0IObjectWithSite@@QAE@XZ 10019260 f i ShowSelectCert.obj
 0001:00018260       ??0IAdviseSink@@QAE@XZ     10019260 f i ShowSelectCert.obj
 0001:00018260       ??0IServiceProvider@@QAE@XZ 10019260 f i ShowSelectCert.obj
 0001:00018260       ??0IOleWindow@@QAE@XZ      10019260 f i ShowSelectCert.obj
 0001:00018260       ??0IAxWinHostWindow@@QAE@XZ 10019260 f i ShowSelectCert.obj
 0001:00018260       ??0IOleControlSite@@QAE@XZ 10019260 f i ShowSelectCert.obj
 0001:00018260       ??0IOleCommandTarget@@QAE@XZ 10019260 f i Signature.obj
 0001:00018260       ??0IClassFactory@@QAE@XZ   10019260 f i XMLSign.obj
 0001:00018290       ?AtlHiMetricToPixel@ATL@@YGXPBUtagSIZE@@PAU2@@Z 10019290 f i ShowSelectCert.obj
 0001:00018390       ?AtlPixelToHiMetric@ATL@@YGXPBUtagSIZE@@PAU2@@Z 10019390 f i ShowSelectCert.obj
 0001:00018490       ??0?$CComPtr@UIUnknown@@@ATL@@QAE@PAUIUnknown@@@Z 10019490 f i ShowSelectCert.obj
 0001:000184c0       ??I?$CComPtrBase@UIServiceProvider@@@ATL@@QAEPAPAUIServiceProvider@@XZ 100194c0 f i ShowSelectCert.obj
 0001:000184c0       ??I?$CComPtrBase@UIUnknown@@@ATL@@QAEPAPAUIUnknown@@XZ 100194c0 f i ShowSelectCert.obj
 0001:000184c0       ??I?$CComPtrBase@UIStream@@@ATL@@QAEPAPAUIStream@@XZ 100194c0 f i ShowSelectCert.obj
 0001:000184c0       ??I?$CComPtrBase@UICatRegister@@@ATL@@QAEPAPAUICatRegister@@XZ 100194c0 f i XMLSign.obj
 0001:000184c0       ??I?$CComPtrBase@UIViewObjectEx@@@ATL@@QAEPAPAUIViewObjectEx@@XZ 100194c0 f i ShowSelectCert.obj
 0001:000184c0       ??I?$CComPtrBase@UIAxWinHostWindowLic@@@ATL@@QAEPAPAUIAxWinHostWindowLic@@XZ 100194c0 f i ShowSelectCert.obj
 0001:000184c0       ??I?$CComPtrBase@UIHTMLDocument2@@@ATL@@QAEPAPAUIHTMLDocument2@@XZ 100194c0 f i Signature.obj
 0001:000184c0       ??I?$CComPtrBase@UITypeInfo2@@@ATL@@QAEPAPAUITypeInfo2@@XZ 100194c0 f i ShowSelectCert.obj
 0001:000184c0       ??I?$CComPtrBase@UIOleClientSite@@@ATL@@QAEPAPAUIOleClientSite@@XZ 100194c0 f i ShowSelectCert.obj
 0001:000184c0       ??I?$CComPtrBase@UIWebBrowser2@@@ATL@@QAEPAPAUIWebBrowser2@@XZ 100194c0 f i ShowSelectCert.obj
 0001:000184c0       ??I?$CComPtrBase@UIClassFactory2@@@ATL@@QAEPAPAUIClassFactory2@@XZ 100194c0 f i ShowSelectCert.obj
 0001:000184c0       ??I?$CComPtrBase@UITypeInfo@@@ATL@@QAEPAPAUITypeInfo@@XZ 100194c0 f i ShowSelectCert.obj
 0001:000184c0       ??I?$CComPtrBase@UIOleInPlaceObjectWindowless@@@ATL@@QAEPAPAUIOleInPlaceObjectWindowless@@XZ 100194c0 f i ShowSelectCert.obj
 0001:000184c0       ??I?$CComPtrBase@UIObjectWithSite@@@ATL@@QAEPAPAUIObjectWithSite@@XZ 100194c0 f i ShowSelectCert.obj
 0001:000184c0       ??I?$CComPtrBase@UITypeLib@@@ATL@@QAEPAPAUITypeLib@@XZ 100194c0 f i ShowSelectCert.obj
 0001:000184c0       ??I?$CComPtrBase@UIFontDisp@@@ATL@@QAEPAPAUIFontDisp@@XZ 100194c0 f i ShowSelectCert.obj
 0001:000184c0       ??I?$CComPtrBase@UIPersistStreamInit@@@ATL@@QAEPAPAUIPersistStreamInit@@XZ 100194c0 f i ShowSelectCert.obj
 0001:000184c0       ??I?$CComPtrBase@UIOleInPlaceUIWindow@@@ATL@@QAEPAPAUIOleInPlaceUIWindow@@XZ 100194c0 f i ShowSelectCert.obj
 0001:000184c0       ??I?$CComPtrBase@UIOleInPlaceFrame@@@ATL@@QAEPAPAUIOleInPlaceFrame@@XZ 100194c0 f i ShowSelectCert.obj
 0001:000184c0       ??I?$CComPtrBase@UIOleObject@@@ATL@@QAEPAPAUIOleObject@@XZ 100194c0 f i ShowSelectCert.obj
 0001:00018510       ??0?$CWindowImplBaseT@VCWindow@ATL@@V?$CWinTraits@$0FGAAAAAA@$0A@@2@@ATL@@QAE@XZ 10019510 f i ShowSelectCert.obj
 0001:00018550       ?GetWindowProc@?$CWindowImplBaseT@VCWindow@ATL@@V?$CWinTraits@$0FGAAAAAA@$0A@@2@@ATL@@UAEP6GJPAUHWND__@@IIJ@ZXZ 10019550 f i ShowSelectCert.obj
 0001:00018570       ?DestroyWindow@?$CWindowImplBaseT@VCWindow@ATL@@V?$CWinTraits@$0FGAAAAAA@$0A@@2@@ATL@@QAEHXZ 10019570 f i ShowSelectCert.obj
 0001:000185e0       ?DefWindowProcA@?$CWindowImplBaseT@VCWindow@ATL@@V?$CWinTraits@$0FGAAAAAA@$0A@@2@@ATL@@QAEJXZ 100195e0 f i ShowSelectCert.obj
 0001:00018650       ?DefWindowProcA@?$CWindowImplBaseT@VCWindow@ATL@@V?$CWinTraits@$0FGAAAAAA@$0A@@2@@ATL@@QAEJIIJ@Z 10019650 f i ShowSelectCert.obj
 0001:000186a0       ?SetSite@?$IObjectWithSiteImpl@VCAxHostWindow@ATL@@@ATL@@UAGJPAUIUnknown@@@Z 100196a0 f i ShowSelectCert.obj
 0001:00018730       ?GetSite@?$IObjectWithSiteImpl@VCAxHostWindow@ATL@@@ATL@@UAGJABU_GUID@@PAPAX@Z 10019730 f i ShowSelectCert.obj
 0001:00018830       ?GetTypeInfoCount@?$IDispatchImpl@UISignature@@$1?IID_ISignature@@3U_GUID@@B$1?LIBID_XMLSIGNLib@@3U3@B$00$0A@VCComTypeInfoHolder@ATL@@@ATL@@UAGJPAI@Z 10019830 f i XMLSign.obj
 0001:00018830       ?GetTypeInfoCount@?$IDispatchImpl@UIAxWinAmbientDispatchEx@@$1?_GUID_b2d0778b_ac99_4c58_a5c8_e7724e5316b5@@3U__s_GUID@@B$1?m_libid@CAtlModule@ATL@@2U_GUID@@A$0PPPP@$0PPPP@VCComTypeInfoHolder@ATL@@@ATL@@UAGJPAI@Z 10019830 f i ShowSelectCert.obj
 0001:00018850       ?GetTypeInfo@?$IDispatchImpl@UIAxWinAmbientDispatchEx@@$1?_GUID_b2d0778b_ac99_4c58_a5c8_e7724e5316b5@@3U__s_GUID@@B$1?m_libid@CAtlModule@ATL@@2U_GUID@@A$0PPPP@$0PPPP@VCComTypeInfoHolder@ATL@@@ATL@@UAGJIKPAPAUITypeInfo@@@Z 10019850 f i ShowSelectCert.obj
 0001:00018880       ?GetTypeInfo@CComTypeInfoHolder@ATL@@QAEJIKPAPAUITypeInfo@@@Z 10019880 f i ShowSelectCert.obj
 0001:000188b0       ?GetTI@CComTypeInfoHolder@ATL@@QAEJKPAPAUITypeInfo@@@Z 100198b0 f i ShowSelectCert.obj
 0001:00018970       ?GetTI@CComTypeInfoHolder@ATL@@QAEJK@Z 10019970 f i ShowSelectCert.obj
 0001:00019390       _InlineIsEqualGUID         1001a390 f i ShowSelectCert.obj
 0001:000193f0       ?AddTermFunc@CAtlModule@ATL@@QAEJP6GXK@ZK@Z 1001a3f0 f i ShowSelectCert.obj
 0001:00019440       ?Cleanup@CComTypeInfoHolder@ATL@@SGXK@Z 1001a440 f i ShowSelectCert.obj
 0001:00019510       ?LoadNameCache@CComTypeInfoHolder@ATL@@QAEJPAUITypeInfo@@@Z 1001a510 f i ShowSelectCert.obj
 0001:000197e0       ?Attach@CComBSTR@ATL@@QAEXPAG@Z 1001a7e0 f i ShowSelectCert.obj
 0001:00019830       ??0stringdispid@CComTypeInfoHolder@ATL@@QAE@XZ 1001a830 f i ShowSelectCert.obj
 0001:00019870       ??1?$CComPtrBase@UIStream@@@ATL@@QAE@XZ 1001a870 f i ShowSelectCert.obj
 0001:00019870       ??1?$CComPtrBase@UIOleObject@@@ATL@@QAE@XZ 1001a870 f i ShowSelectCert.obj
 0001:00019870       ??1?$CComPtrBase@UIPersistStream@@@ATL@@QAE@XZ 1001a870 f i ShowSelectCert.obj
 0001:00019870       ??1?$CComPtrBase@UIOleInPlaceActiveObject@@@ATL@@QAE@XZ 1001a870 f i ShowSelectCert.obj
 0001:00019870       ??1?$CComPtrBase@UIDocHostUIHandlerDispatch@@@ATL@@QAE@XZ 1001a870 f i ShowSelectCert.obj
 0001:00019870       ??1?$CComPtrBase@UIWebBrowser2@@@ATL@@QAE@XZ 1001a870 f i ShowSelectCert.obj
 0001:00019870       ??1?$CComPtrBase@UIOleInPlaceUIWindow@@@ATL@@QAE@XZ 1001a870 f i ShowSelectCert.obj
 0001:00019870       ??1?$CComPtrBase@UITypeInfo@@@ATL@@QAE@XZ 1001a870 f i ShowSelectCert.obj
 0001:00019870       ??1?$CComPtrBase@UIAxWinHostWindowLic@@@ATL@@QAE@XZ 1001a870 f i ShowSelectCert.obj
 0001:00019870       ??1?$CComPtrBase@UIHTMLDocument2@@@ATL@@QAE@XZ 1001a870 f i Signature.obj
 0001:00019870       ??1?$CComPtrBase@UIClassFactory2@@@ATL@@QAE@XZ 1001a870 f i ShowSelectCert.obj
 0001:00019870       ??1?$CComPtrBase@UITypeLib@@@ATL@@QAE@XZ 1001a870 f i ShowSelectCert.obj
 0001:00019870       ??1?$CComPtrBase@UIAdviseSink@@@ATL@@QAE@XZ 1001a870 f i ShowSelectCert.obj
 0001:00019870       ??1?$CComPtrBase@UIOleInPlaceObjectWindowless@@@ATL@@QAE@XZ 1001a870 f i ShowSelectCert.obj
 0001:00019870       ??1?$CComPtrBase@UITypeInfo2@@@ATL@@QAE@XZ 1001a870 f i ShowSelectCert.obj
 0001:00019870       ??1?$CComPtrBase@UIFontDisp@@@ATL@@QAE@XZ 1001a870 f i ShowSelectCert.obj
 0001:00019870       ??1?$CComPtrBase@UIOleControl@@@ATL@@QAE@XZ 1001a870 f i ShowSelectCert.obj
 0001:00019870       ??1?$CComPtrBase@UIDispatch@@@ATL@@QAE@XZ 1001a870 f i ShowSelectCert.obj
 0001:00019870       ??1?$CComPtrBase@UIPersistStreamInit@@@ATL@@QAE@XZ 1001a870 f i ShowSelectCert.obj
 0001:00019870       ??1?$CComPtrBase@UIUnknown@@@ATL@@QAE@XZ 1001a870 f i ShowSelectCert.obj
 0001:00019870       ??1?$CComPtrBase@UIObjectWithSite@@@ATL@@QAE@XZ 1001a870 f i ShowSelectCert.obj
 0001:00019870       ??1?$CComPtrBase@UIServiceProvider@@@ATL@@QAE@XZ 1001a870 f i ShowSelectCert.obj
 0001:00019870       ??1?$CComPtrBase@UIOleInPlaceFrame@@@ATL@@QAE@XZ 1001a870 f i ShowSelectCert.obj
 0001:00019870       ??1?$CComPtrBase@UICatRegister@@@ATL@@QAE@XZ 1001a870 f i XMLSign.obj
 0001:00019870       ??1?$CComPtrBase@UIViewObjectEx@@@ATL@@QAE@XZ 1001a870 f i ShowSelectCert.obj
 0001:00019870       ??1?$CComPtrBase@UIOleClientSite@@@ATL@@QAE@XZ 1001a870 f i ShowSelectCert.obj
 0001:000198b0       ??0?$CComPtr@UITypeInfo@@@ATL@@QAE@ABV01@@Z 1001a8b0 f i ShowSelectCert.obj
 0001:000198e0       ?Detach@CRegKey@ATL@@QAEPAUHKEY__@@XZ 1001a8e0 f i XMLSign.obj
 0001:000198e0       ?Detach@?$CComPtrBase@UIUnknown@@@ATL@@QAEPAUIUnknown@@XZ 1001a8e0 f i ShowSelectCert.obj
 0001:000198e0       ?Detach@CWindow@ATL@@QAEPAUHWND__@@XZ 1001a8e0 f i ShowSelectCert.obj
 0001:000198e0       ?Detach@CComBSTR@ATL@@QAEPAGXZ 1001a8e0 f i ShowSelectCert.obj
 0001:000198e0       ?Detach@?$CComPtrBase@UITypeInfo@@@ATL@@QAEPAUITypeInfo@@XZ 1001a8e0 f i ShowSelectCert.obj
 0001:00019910       ?GetIDsOfNames@?$IDispatchImpl@UIAxWinAmbientDispatchEx@@$1?_GUID_b2d0778b_ac99_4c58_a5c8_e7724e5316b5@@3U__s_GUID@@B$1?m_libid@CAtlModule@ATL@@2U_GUID@@A$0PPPP@$0PPPP@VCComTypeInfoHolder@ATL@@@ATL@@UAGJABU_GUID@@PAPAGIKPAJ@Z 1001a910 f i ShowSelectCert.obj
 0001:00019940       ?GetIDsOfNames@CComTypeInfoHolder@ATL@@QAEJABU_GUID@@PAPAGIKPAJ@Z 1001a940 f i ShowSelectCert.obj
 0001:00019a80       ?EnsureTI@CComTypeInfoHolder@ATL@@QAEJK@Z 1001aa80 f i ShowSelectCert.obj
 0001:00019ae0       ?Invoke@?$IDispatchImpl@UIAxWinAmbientDispatchEx@@$1?_GUID_b2d0778b_ac99_4c58_a5c8_e7724e5316b5@@3U__s_GUID@@B$1?m_libid@CAtlModule@ATL@@2U_GUID@@A$0PPPP@$0PPPP@VCComTypeInfoHolder@ATL@@@ATL@@UAGJJABU_GUID@@KGPAUtagDISPPARAMS@@PAUtagVARIANT@@PAUtagEXCEPINFO@@PAI@Z 1001aae0 f i ShowSelectCert.obj
 0001:00019b20       ?Invoke@CComTypeInfoHolder@ATL@@QAEJPAUIDispatch@@JABU_GUID@@KGPAUtagDISPPARAMS@@PAUtagVARIANT@@PAUtagEXCEPINFO@@PAI@Z 1001ab20 f i ShowSelectCert.obj
 0001:00019ba0       ??7?$CComPtrBase@UIOleInPlaceFrame@@@ATL@@QBE_NXZ 1001aba0 f i ShowSelectCert.obj
 0001:00019ba0       ??7?$CComPtrBase@UIOleInPlaceUIWindow@@@ATL@@QBE_NXZ 1001aba0 f i ShowSelectCert.obj
 0001:00019bc0       ?CopyTo@?$CComPtrBase@UIOleInPlaceFrame@@@ATL@@QAEJPAPAUIOleInPlaceFrame@@@Z 1001abc0 f i ShowSelectCert.obj
 0001:00019bc0       ?CopyTo@?$CComPtrBase@UIOleInPlaceUIWindow@@@ATL@@QAEJPAPAUIOleInPlaceUIWindow@@@Z 1001abc0 f i ShowSelectCert.obj
 0001:00019bc0       ?CopyTo@?$CComPtrBase@UIDispatch@@@ATL@@QAEJPAPAUIDispatch@@@Z 1001abc0 f i ShowSelectCert.obj
 0001:00019bc0       ?CopyTo@?$CComPtrBase@UIFontDisp@@@ATL@@QAEJPAPAUIFontDisp@@@Z 1001abc0 f i ShowSelectCert.obj
 0001:00019c50       ??8?$CComPtrBase@UIOleInPlaceObjectWindowless@@@ATL@@QBE_NPAUIOleInPlaceObjectWindowless@@@Z 1001ac50 f i ShowSelectCert.obj
 0001:00019c50       ??8?$CComPtrBase@UIFontDisp@@@ATL@@QBE_NPAUIFontDisp@@@Z 1001ac50 f i ShowSelectCert.obj
 0001:00019c50       ??8?$CComPtrBase@UIUnknown@@@ATL@@QBE_NPAUIUnknown@@@Z 1001ac50 f i ShowSelectCert.obj
 0001:00019c50       ??8?$CComPtrBase@UIViewObjectEx@@@ATL@@QBE_NPAUIViewObjectEx@@@Z 1001ac50 f i ShowSelectCert.obj
 0001:00019c80       ??4?$CComPtr@UIUnknown@@@ATL@@QAEPAUIUnknown@@PAU2@@Z 1001ac80 f i ShowSelectCert.obj
 0001:00019c80       ??4?$CComPtr@UIFontDisp@@@ATL@@QAEPAUIFontDisp@@PAU2@@Z 1001ac80 f i ShowSelectCert.obj
 0001:00019c80       ??4?$CComPtr@UIDocHostUIHandlerDispatch@@@ATL@@QAEPAUIDocHostUIHandlerDispatch@@PAU2@@Z 1001ac80 f i ShowSelectCert.obj
 0001:00019c80       ??4?$CComPtr@UIOleInPlaceActiveObject@@@ATL@@QAEPAUIOleInPlaceActiveObject@@PAU2@@Z 1001ac80 f i ShowSelectCert.obj
 0001:00019c80       ??4?$CComPtr@UIDispatch@@@ATL@@QAEPAUIDispatch@@PAU2@@Z 1001ac80 f i ShowSelectCert.obj
 0001:00019cb0       ??C?$CComPtrBase@UIServiceProvider@@@ATL@@QBEPAV?$_NoAddRefReleaseOnCComPtr@UIServiceProvider@@@1@XZ 1001acb0 f i ShowSelectCert.obj
 0001:00019cb0       ??C?$CComPtrBase@UIViewObjectEx@@@ATL@@QBEPAV?$_NoAddRefReleaseOnCComPtr@UIViewObjectEx@@@1@XZ 1001acb0 f i ShowSelectCert.obj
 0001:00019cb0       ??C?$CComPtrBase@UIHTMLDocument2@@@ATL@@QBEPAV?$_NoAddRefReleaseOnCComPtr@UIHTMLDocument2@@@1@XZ 1001acb0 f i Signature.obj
 0001:00019cb0       ??C?$CComPtrBase@UIWebBrowser2@@@ATL@@QBEPAV?$_NoAddRefReleaseOnCComPtr@UIWebBrowser2@@@1@XZ 1001acb0 f i ShowSelectCert.obj
 0001:00019cb0       ??C?$CComPtrBase@UICatRegister@@@ATL@@QBEPAV?$_NoAddRefReleaseOnCComPtr@UICatRegister@@@1@XZ 1001acb0 f i XMLSign.obj
 0001:00019cb0       ??C?$CComPtrBase@UIPersistStream@@@ATL@@QBEPAV?$_NoAddRefReleaseOnCComPtr@UIPersistStream@@@1@XZ 1001acb0 f i ShowSelectCert.obj
 0001:00019cb0       ??C?$CComPtrBase@UIOleInPlaceActiveObject@@@ATL@@QBEPAV?$_NoAddRefReleaseOnCComPtr@UIOleInPlaceActiveObject@@@1@XZ 1001acb0 f i ShowSelectCert.obj
 0001:00019cb0       ??C?$CComPtrBase@UIClassFactory2@@@ATL@@QBEPAV?$_NoAddRefReleaseOnCComPtr@UIClassFactory2@@@1@XZ 1001acb0 f i ShowSelectCert.obj
 0001:00019cb0       ??C?$CComPtrBase@UIUnknown@@@ATL@@QBEPAV?$_NoAddRefReleaseOnCComPtr@UIUnknown@@@1@XZ 1001acb0 f i ShowSelectCert.obj
 0001:00019cb0       ??C?$CComPtrBase@UIOleInPlaceObjectWindowless@@@ATL@@QBEPAV?$_NoAddRefReleaseOnCComPtr@UIOleInPlaceObjectWindowless@@@1@XZ 1001acb0 f i ShowSelectCert.obj
 0001:00019cb0       ??C?$CComPtrBase@UIAxWinHostWindowLic@@@ATL@@QBEPAV?$_NoAddRefReleaseOnCComPtr@UIAxWinHostWindowLic@@@1@XZ 1001acb0 f i ShowSelectCert.obj
 0001:00019cb0       ??C?$CComPtrBase@UIDocHostUIHandlerDispatch@@@ATL@@QBEPAV?$_NoAddRefReleaseOnCComPtr@UIDocHostUIHandlerDispatch@@@1@XZ 1001acb0 f i ShowSelectCert.obj
 0001:00019cb0       ??C?$CComPtrBase@UIDispatch@@@ATL@@QBEPAV?$_NoAddRefReleaseOnCComPtr@UIDispatch@@@1@XZ 1001acb0 f i ShowSelectCert.obj
 0001:00019cb0       ??C?$CComPtrBase@UIPersistStreamInit@@@ATL@@QBEPAV?$_NoAddRefReleaseOnCComPtr@UIPersistStreamInit@@@1@XZ 1001acb0 f i ShowSelectCert.obj
 0001:00019cb0       ??C?$CComPtrBase@UIOleObject@@@ATL@@QBEPAV?$_NoAddRefReleaseOnCComPtr@UIOleObject@@@1@XZ 1001acb0 f i ShowSelectCert.obj
 0001:00019cb0       ??C?$CComPtrBase@UITypeInfo@@@ATL@@QBEPAV?$_NoAddRefReleaseOnCComPtr@UITypeInfo@@@1@XZ 1001acb0 f i ShowSelectCert.obj
 0001:00019cb0       ??C?$CComPtrBase@UIOleControl@@@ATL@@QBEPAV?$_NoAddRefReleaseOnCComPtr@UIOleControl@@@1@XZ 1001acb0 f i ShowSelectCert.obj
 0001:00019cb0       ??C?$CComPtrBase@UITypeLib@@@ATL@@QBEPAV?$_NoAddRefReleaseOnCComPtr@UITypeLib@@@1@XZ 1001acb0 f i ShowSelectCert.obj
 0001:00019cb0       ??C?$CComPtrBase@UIObjectWithSite@@@ATL@@QBEPAV?$_NoAddRefReleaseOnCComPtr@UIObjectWithSite@@@1@XZ 1001acb0 f i ShowSelectCert.obj
 0001:00019d00       ??0?$CComQIPtr@UIOleInPlaceActiveObject@@$1?_GUID_00000117_0000_0000_c000_000000000046@@3U__s_GUID@@B@ATL@@QAE@PAUIUnknown@@@Z 1001ad00 f i ShowSelectCert.obj
 0001:00019d50       ??0?$CComQIPtr@UIOleControl@@$1?_GUID_b196b288_bab4_101a_b69c_00aa00341d07@@3U__s_GUID@@B@ATL@@QAE@PAUIUnknown@@@Z 1001ad50 f i ShowSelectCert.obj
 0001:00019da0       ??0?$CComObject@V?$CComEnum@UIEnumUnknown@@$1?_GUID_00000100_0000_0000_c000_000000000046@@3U__s_GUID@@BPAUIUnknown@@V?$_CopyInterface@UIUnknown@@@ATL@@VCComSingleThreadModel@6@@ATL@@@ATL@@QAE@PAX@Z 1001ada0 f i ShowSelectCert.obj
 0001:00019df0       ?AddRef@?$CComObject@V?$CComEnum@UIEnumUnknown@@$1?_GUID_00000100_0000_0000_c000_000000000046@@3U__s_GUID@@BPAUIUnknown@@V?$_CopyInterface@UIUnknown@@@ATL@@VCComSingleThreadModel@6@@ATL@@@ATL@@UAGKXZ 1001adf0 f i ShowSelectCert.obj
 0001:00019e10       ?Release@?$CComObject@V?$CComEnum@UIEnumUnknown@@$1?_GUID_00000100_0000_0000_c000_000000000046@@3U__s_GUID@@BPAUIUnknown@@V?$_CopyInterface@UIUnknown@@@ATL@@VCComSingleThreadModel@6@@ATL@@@ATL@@UAGKXZ 1001ae10 f i ShowSelectCert.obj
 0001:00019e90       ?QueryInterface@?$CComObject@V?$CComEnum@UIEnumUnknown@@$1?_GUID_00000100_0000_0000_c000_000000000046@@3U__s_GUID@@BPAUIUnknown@@V?$_CopyInterface@UIUnknown@@@ATL@@VCComSingleThreadModel@6@@ATL@@@ATL@@UAGJABU_GUID@@PAPAX@Z 1001ae90 f i ShowSelectCert.obj
 0001:00019eb0       ?Reset@?$CComEnumImpl@UIEnumUnknown@@$1?_GUID_00000100_0000_0000_c000_000000000046@@3U__s_GUID@@BPAUIUnknown@@V?$_CopyInterface@UIUnknown@@@ATL@@@ATL@@UAGJXZ 1001aeb0 f i ShowSelectCert.obj
 0001:00019ed0       ??0?$CComQIPtr@UIOleClientSite@@$1?_GUID_00000118_0000_0000_c000_000000000046@@3U__s_GUID@@B@ATL@@QAE@PAUIUnknown@@@Z 1001aed0 f i ShowSelectCert.obj
 0001:00019f20       ??0?$CComQIPtr@UIPersistStreamInit@@$1?_GUID_7fd52380_4e07_101b_ae2d_08002b2ec713@@3U__s_GUID@@B@ATL@@QAE@PAUIUnknown@@@Z 1001af20 f i ShowSelectCert.obj
 0001:00019f70       ??0?$CComQIPtr@UIPersistStream@@$1?_GUID_00000109_0000_0000_c000_000000000046@@3U__s_GUID@@B@ATL@@QAE@PAUIUnknown@@@Z 1001af70 f i ShowSelectCert.obj
 0001:00019fc0       ??0?$CComQIPtr@UIAdviseSink@@$1?_GUID_0000010f_0000_0000_c000_000000000046@@3U__s_GUID@@B@ATL@@QAE@PAUIUnknown@@@Z 1001afc0 f i ShowSelectCert.obj
 0001:0001a010       ??_G?$CComObject@V?$CComEnum@UIEnumUnknown@@$1?_GUID_00000100_0000_0000_c000_000000000046@@3U__s_GUID@@BPAUIUnknown@@V?$_CopyInterface@UIUnknown@@@ATL@@VCComSingleThreadModel@6@@ATL@@@ATL@@UAEPAXI@Z 1001b010 f i ShowSelectCert.obj
 0001:0001a010       ??_E?$CComObject@V?$CComEnum@UIEnumUnknown@@$1?_GUID_00000100_0000_0000_c000_000000000046@@3U__s_GUID@@BPAUIUnknown@@V?$_CopyInterface@UIUnknown@@@ATL@@VCComSingleThreadModel@6@@ATL@@@ATL@@UAEPAXI@Z 1001b010 f i ShowSelectCert.obj
 0001:0001a050       ??1?$CComObject@V?$CComEnum@UIEnumUnknown@@$1?_GUID_00000100_0000_0000_c000_000000000046@@3U__s_GUID@@BPAUIUnknown@@V?$_CopyInterface@UIUnknown@@@ATL@@VCComSingleThreadModel@6@@ATL@@@ATL@@UAE@XZ 1001b050 f i ShowSelectCert.obj
 0001:0001a0b0       ??0?$CComEnum@UIEnumUnknown@@$1?_GUID_00000100_0000_0000_c000_000000000046@@3U__s_GUID@@BPAUIUnknown@@V?$_CopyInterface@UIUnknown@@@ATL@@VCComSingleThreadModel@6@@ATL@@QAE@XZ 1001b0b0 f i ShowSelectCert.obj
 0001:0001a110       ??1?$CComEnum@UIEnumUnknown@@$1?_GUID_00000100_0000_0000_c000_000000000046@@3U__s_GUID@@BPAUIUnknown@@V?$_CopyInterface@UIUnknown@@@ATL@@VCComSingleThreadModel@6@@ATL@@UAE@XZ 1001b110 f i ShowSelectCert.obj
 0001:0001a140       ??0?$CComPtrBase@UIUnknown@@@ATL@@IAE@PAUIUnknown@@@Z 1001b140 f i ShowSelectCert.obj
 0001:0001a140       ??0?$CComPtrBase@UITypeInfo@@@ATL@@IAE@PAUITypeInfo@@@Z 1001b140 f i ShowSelectCert.obj
 0001:0001a190       ??0?$CComPtrBase@UIServiceProvider@@@ATL@@IAE@XZ 1001b190 f i ShowSelectCert.obj
 0001:0001a190       ??0?$CComPtrBase@UIOleInPlaceActiveObject@@@ATL@@IAE@XZ 1001b190 f i ShowSelectCert.obj
 0001:0001a190       ??0?$CComPtrBase@UIOleClientSite@@@ATL@@IAE@XZ 1001b190 f i ShowSelectCert.obj
 0001:0001a190       ??0const_iterator@?$list@PAEV?$allocator@PAE@std@@@std@@QAE@XZ 1001b190 f i CertVerify.obj
 0001:0001a190       ??0?$CComPtrBase@UIOleInPlaceFrame@@@ATL@@IAE@XZ 1001b190 f i ShowSelectCert.obj
 0001:0001a190       ??0CDynamicStdCallThunk@ATL@@QAE@XZ 1001b190 f i ShowSelectCert.obj
 0001:0001a190       ??0?$CTempBuffer@D$0BAA@VCCRTAllocator@ATL@@@ATL@@QAE@XZ 1001b190 f i XMLSign.obj
 0001:0001a190       ??0?$CComPtrBase@UIPersistStreamInit@@@ATL@@IAE@XZ 1001b190 f i ShowSelectCert.obj
 0001:0001a190       ??0?$CComPtrBase@UICatRegister@@@ATL@@IAE@XZ 1001b190 f i XMLSign.obj
 0001:0001a190       ??0?$CComPtrBase@UIAdviseSink@@@ATL@@IAE@XZ 1001b190 f i ShowSelectCert.obj
 0001:0001a190       ??0?$CComPtrBase@UIOleInPlaceObjectWindowless@@@ATL@@IAE@XZ 1001b190 f i ShowSelectCert.obj
 0001:0001a190       ??0?$CComPtrBase@UIHTMLDocument2@@@ATL@@IAE@XZ 1001b190 f i Signature.obj
 0001:0001a190       ??0CRegKey@ATL@@QAE@XZ     1001b190 f i XMLSign.obj
 0001:0001a190       ??0?$CComPtrBase@UIClassFactory2@@@ATL@@IAE@XZ 1001b190 f i ShowSelectCert.obj
 0001:0001a190       ??0?$CComPtrBase@UIFontDisp@@@ATL@@IAE@XZ 1001b190 f i ShowSelectCert.obj
 0001:0001a190       ??0?$CAtlSafeAllocBufferManager@VCCRTAllocator@ATL@@@_ATL_SAFE_ALLOCA_IMPL@ATL@@QAE@XZ 1001b190 f i config.obj
 0001:0001a190       ??0CComObjectRootBase@ATL@@QAE@XZ 1001b190 f i ShowSelectCert.obj
 0001:0001a190       ??0?$CComPtrBase@UIDocHostUIHandlerDispatch@@@ATL@@IAE@XZ 1001b190 f i ShowSelectCert.obj
 0001:0001a190       ??0?$CTempBuffer@E$0BAA@VCCRTAllocator@ATL@@@ATL@@QAE@XZ 1001b190 f i XMLSign.obj
 0001:0001a190       ??0?$CComPtrBase@UITypeInfo2@@@ATL@@IAE@XZ 1001b190 f i ShowSelectCert.obj
 0001:0001a190       ??0?$CComPtrBase@UIPersistStream@@@ATL@@IAE@XZ 1001b190 f i ShowSelectCert.obj
 0001:0001a190       ??0?$CComPtrBase@UIOleInPlaceUIWindow@@@ATL@@IAE@XZ 1001b190 f i ShowSelectCert.obj
 0001:0001a190       ??0?$CComPtrBase@UIObjectWithSite@@@ATL@@IAE@XZ 1001b190 f i ShowSelectCert.obj
 0001:0001a190       ??0?$CComPtrBase@UIUnknown@@@ATL@@IAE@XZ 1001b190 f i ShowSelectCert.obj
 0001:0001a190       ??0CComBSTR@ATL@@QAE@XZ    1001b190 f i config.obj
 0001:0001a190       ??0_bstr_t@@QAE@XZ         1001b190 f i Signature.obj
 0001:0001a190       ??0?$CTempBuffer@D$0EAA@VCCRTAllocator@ATL@@@ATL@@QAE@XZ 1001b190 f i XMLSign.obj
 0001:0001a190       ??0?$CComPtrBase@UIWebBrowser2@@@ATL@@IAE@XZ 1001b190 f i ShowSelectCert.obj
 0001:0001a190       ??0const_iterator@?$list@PAUAllocInfo@@V?$allocator@PAUAllocInfo@@@std@@@std@@QAE@XZ 1001b190 f i xmlsigd_nss:DebugLog.obj
 0001:0001a190       ??0?$CComPtrBase@UIAxWinHostWindowLic@@@ATL@@IAE@XZ 1001b190 f i ShowSelectCert.obj
 0001:0001a190       ??0?$CComPtrBase@UITypeLib@@@ATL@@IAE@XZ 1001b190 f i ShowSelectCert.obj
 0001:0001a190       ??0?$CComPtrBase@UIViewObjectEx@@@ATL@@IAE@XZ 1001b190 f i ShowSelectCert.obj
 0001:0001a190       ??0?$CComPtrBase@UIOleObject@@@ATL@@IAE@XZ 1001b190 f i ShowSelectCert.obj
 0001:0001a190       ??0?$CComPtrBase@UIOleControl@@@ATL@@IAE@XZ 1001b190 f i ShowSelectCert.obj
 0001:0001a190       ??0?$CComPtrBase@UITypeInfo@@@ATL@@IAE@XZ 1001b190 f i ShowSelectCert.obj
 0001:0001a190       ??0?$CComPtrBase@UIStream@@@ATL@@IAE@XZ 1001b190 f i ShowSelectCert.obj
 0001:0001a190       ??0?$CComPtrBase@UIDispatch@@@ATL@@IAE@XZ 1001b190 f i ShowSelectCert.obj
 0001:0001a1b0       ?_InternalQueryInterface@?$CComEnum@UIEnumUnknown@@$1?_GUID_00000100_0000_0000_c000_000000000046@@3U__s_GUID@@BPAUIUnknown@@V?$_CopyInterface@UIUnknown@@@ATL@@VCComSingleThreadModel@6@@ATL@@QAEJABU_GUID@@PAPAX@Z 1001b1b0 f i ShowSelectCert.obj
 0001:0001a1f0       ??0?$CComEnumImpl@UIEnumUnknown@@$1?_GUID_00000100_0000_0000_c000_000000000046@@3U__s_GUID@@BPAUIUnknown@@V?$_CopyInterface@UIUnknown@@@ATL@@@ATL@@QAE@XZ 1001b1f0 f i ShowSelectCert.obj
 0001:0001a250       ?AddRef@?$CComContainedObject@VCAxHostWindow@ATL@@@ATL@@UAGKXZ 1001b250 f i ShowSelectCert.obj
 0001:0001a270       ?OuterAddRef@CComObjectRootBase@ATL@@QAEKXZ 1001b270 f i ShowSelectCert.obj
 0001:0001a2b0       ?Release@?$CComContainedObject@VCAxHostWindow@ATL@@@ATL@@UAGKXZ 1001b2b0 f i ShowSelectCert.obj
 0001:0001a2d0       ?OuterRelease@CComObjectRootBase@ATL@@QAEKXZ 1001b2d0 f i ShowSelectCert.obj
 0001:0001a310       ?QueryInterface@?$CComContainedObject@VCAxHostWindow@ATL@@@ATL@@UAGJABU_GUID@@PAPAX@Z 1001b310 f i ShowSelectCert.obj
 0001:0001a340       ?OuterQueryInterface@CComObjectRootBase@ATL@@QAEJABU_GUID@@PAPAX@Z 1001b340 f i ShowSelectCert.obj
 0001:0001a380       ?GetControllingUnknown@?$CComContainedObject@VCAxHostWindow@ATL@@@ATL@@UAEPAUIUnknown@@XZ 1001b380 f i ShowSelectCert.obj
 0001:0001a3a0       ?_GetEntries@?$CComEnum@UIEnumUnknown@@$1?_GUID_00000100_0000_0000_c000_000000000046@@3U__s_GUID@@BPAUIUnknown@@V?$_CopyInterface@UIUnknown@@@ATL@@VCComSingleThreadModel@6@@ATL@@SGPBU_ATL_INTMAP_ENTRY@2@XZ 1001b3a0 f i ShowSelectCert.obj
 0001:0001a3b0       ??_E?$CComContainedObject@VCAxHostWindow@ATL@@@ATL@@UAEPAXI@Z 1001b3b0 f i ShowSelectCert.obj
 0001:0001a3b0       ??_G?$CComContainedObject@VCAxHostWindow@ATL@@@ATL@@UAEPAXI@Z 1001b3b0 f i ShowSelectCert.obj
 0001:0001a3f0       ??0?$CComCritSecLock@VCComCriticalSection@ATL@@@ATL@@QAE@AAVCComCriticalSection@1@_N@Z 1001b3f0 f i ShowSelectCert.obj
 0001:0001a450       ??1?$CComCritSecLock@VCComCriticalSection@ATL@@@ATL@@QAE@XZ 1001b450 f i ShowSelectCert.obj
 0001:0001a480       ?Unlock@?$CComCritSecLock@VCComCriticalSection@ATL@@@ATL@@QAEXXZ 1001b480 f i ShowSelectCert.obj
 0001:0001a4e0       ?Unlock@CComCriticalSection@ATL@@QAEJXZ 1001b4e0 f i ShowSelectCert.obj
 0001:0001a520       ?Lock@?$CComCritSecLock@VCComCriticalSection@ATL@@@ATL@@QAEJXZ 1001b520 f i ShowSelectCert.obj
 0001:0001a5a0       ?Lock@CComCriticalSection@ATL@@QAEJXZ 1001b5a0 f i ShowSelectCert.obj
 0001:0001a5e0       ??$QueryInterface@UITypeInfo2@@@IUnknown@@QAGJPAPAUITypeInfo2@@@Z 1001b5e0 f i ShowSelectCert.obj
 0001:0001a610       ??$?4UITypeInfo2@@@?$CComPtr@UITypeInfo@@@ATL@@QAEPAUITypeInfo@@ABV?$CComPtr@UITypeInfo2@@@1@@Z 1001b610 f i ShowSelectCert.obj
 0001:0001a650       ?AtlComQIPtrAssign@ATL@@YGPAUIUnknown@@PAPAU2@PAU2@ABU_GUID@@@Z 1001b650 f i ShowSelectCert.obj
 0001:0001a6d0       ?DialogProc@?$CDialogImplBaseT@VCWindow@ATL@@@ATL@@SGHPAUHWND__@@IIJ@Z 1001b6d0 f i ShowSelectCert.obj
 0001:0001a8a0       ??0_ATL_MSG@ATL@@QAE@PAUHWND__@@IIJH@Z 1001b8a0 f i ShowSelectCert.obj
 0001:0001a910       ?WindowProc@?$CWindowImplBaseT@VCWindow@ATL@@V?$CWinTraits@$0FGAAAAAA@$0A@@2@@ATL@@SGJPAUHWND__@@IIJ@Z 1001b910 f i ShowSelectCert.obj
 0001:0001ab10       ?SubclassWindow@?$CWindowImplBaseT@VCWindow@ATL@@V?$CWinTraits@$0FGAAAAAA@$0A@@2@@ATL@@QAEHPAUHWND__@@@Z 1001bb10 f i ShowSelectCert.obj
 0001:0001ac10       ?Init@CWndProcThunk@ATL@@QAEXP6GJPAUHWND__@@IIJ@ZPAX@Z 1001bc10 f i ShowSelectCert.obj
 0001:0001ac50       ?Init@CDynamicStdCallThunk@ATL@@QAEXKPAX@Z 1001bc50 f i ShowSelectCert.obj
 0001:0001ace0       ?Init@_stdcallthunk@ATL@@QAEXKPAX@Z 1001bce0 f i ShowSelectCert.obj
 0001:0001ad60       ?GetWNDPROC@CWndProcThunk@ATL@@QAEP6GJPAUHWND__@@IIJ@ZXZ 1001bd60 f i ShowSelectCert.obj
 0001:0001ad90       ?GetCodeAddress@CDynamicStdCallThunk@ATL@@QAEPAXXZ 1001bd90 f i ShowSelectCert.obj
 0001:0001ade0       ?UnsubclassWindow@?$CWindowImplBaseT@VCWindow@ATL@@V?$CWinTraits@$0FGAAAAAA@$0A@@2@@ATL@@QAEPAUHWND__@@H@Z 1001bde0 f i ShowSelectCert.obj
 0001:0001aeb0       ?CreateInstance@?$CComObject@VCAxFrameWindow@ATL@@@ATL@@SGJPAPAV12@@Z 1001beb0 f i ShowSelectCert.obj
 0001:0001b040       ??0?$CComObject@VCAxFrameWindow@ATL@@@ATL@@QAE@PAX@Z 1001c040 f i ShowSelectCert.obj
 0001:0001b0a0       ??0CAxFrameWindow@ATL@@QAE@XZ 1001c0a0 f i ShowSelectCert.obj
 0001:0001b0f0       ?ProcessWindowMessage@CAxUIWindow@ATL@@UAEHPAUHWND__@@IIJAAJK@Z 1001c0f0 f i ShowSelectCert.obj
 0001:0001b0f0       ?ProcessWindowMessage@CAxFrameWindow@ATL@@UAEHPAUHWND__@@IIJAAJK@Z 1001c0f0 f i ShowSelectCert.obj
 0001:0001b110       ?GetWindow@CAxFrameWindow@ATL@@UAGJPAPAUHWND__@@@Z 1001c110 f i ShowSelectCert.obj
 0001:0001b1b0       ?SetBorderSpace@CAxFrameWindow@ATL@@UAGJPBUtagRECT@@@Z 1001c1b0 f i ShowSelectCert.obj
 0001:0001b1b0       ?ContextSensitiveHelp@CAxUIWindow@ATL@@UAGJH@Z 1001c1b0 f i ShowSelectCert.obj
 0001:0001b1b0       ?EnableModeless@CAxFrameWindow@ATL@@UAGJH@Z 1001c1b0 f i ShowSelectCert.obj
 0001:0001b1b0       ?AdjustRect@CAxHostWindow@ATL@@UAGJPAUtagRECT@@@Z 1001c1b0 f i ShowSelectCert.obj
 0001:0001b1b0       ?GetBorder@CAxUIWindow@ATL@@UAGJPAUtagRECT@@@Z 1001c1b0 f i ShowSelectCert.obj
 0001:0001b1b0       ?RemoveMenus@CAxFrameWindow@ATL@@UAGJPAUHMENU__@@@Z 1001c1b0 f i ShowSelectCert.obj
 0001:0001b1b0       ?ContextSensitiveHelp@CAxFrameWindow@ATL@@UAGJH@Z 1001c1b0 f i ShowSelectCert.obj
 0001:0001b1b0       ?SetStatusText@CAxFrameWindow@ATL@@UAGJPBG@Z 1001c1b0 f i ShowSelectCert.obj
 0001:0001b1b0       ?SetBorderSpace@CAxUIWindow@ATL@@UAGJPBUtagRECT@@@Z 1001c1b0 f i ShowSelectCert.obj
 0001:0001b1b0       ?GetBorder@CAxFrameWindow@ATL@@UAGJPAUtagRECT@@@Z 1001c1b0 f i ShowSelectCert.obj
 0001:0001b1b0       ?LockInPlaceActive@CAxHostWindow@ATL@@UAGJH@Z 1001c1b0 f i ShowSelectCert.obj
 0001:0001b1c0       ?RequestBorderSpace@CAxUIWindow@ATL@@UAGJPBUtagRECT@@@Z 1001c1c0 f i ShowSelectCert.obj
 0001:0001b1c0       ?RequestBorderSpace@CAxFrameWindow@ATL@@UAGJPBUtagRECT@@@Z 1001c1c0 f i ShowSelectCert.obj
 0001:0001b1d0       ?InsertMenus@CAxFrameWindow@ATL@@UAGJPAUHMENU__@@PAUtagOleMenuGroupWidths@@@Z 1001c1d0 f i ShowSelectCert.obj
 0001:0001b1e0       ?SetMenu@CAxFrameWindow@ATL@@UAGJPAUHMENU__@@PAXPAUHWND__@@@Z 1001c1e0 f i ShowSelectCert.obj
 0001:0001b1f0       ?TranslateAcceleratorA@CAxHostWindow@ATL@@UAGJPAUtagMSG@@K@Z 1001c1f0 f i ShowSelectCert.obj
 0001:0001b1f0       ?TranslateAcceleratorA@CAxFrameWindow@ATL@@UAGJPAUtagMSG@@G@Z 1001c1f0 f i ShowSelectCert.obj
 0001:0001b200       ??0?$IDispatchImpl@UISignature@@$1?IID_ISignature@@3U_GUID@@B$1?LIBID_XMLSIGNLib@@3U3@B$00$0A@VCComTypeInfoHolder@ATL@@@ATL@@QAE@XZ 1001c200 f i Signature.obj
 0001:0001b200       ??0IAxWinAmbientDispatchEx@@QAE@XZ 1001c200 f i ShowSelectCert.obj
 0001:0001b200       ??0IOleInPlaceFrame@@QAE@XZ 1001c200 f i ShowSelectCert.obj
 0001:0001b200       ??0IOleInPlaceSiteEx@@QAE@XZ 1001c200 f i ShowSelectCert.obj
 0001:0001b230       ?Create@?$CWindowImpl@VCAxFrameWindow@ATL@@VCWindow@2@V?$CWinTraits@$0FGAAAAAA@$0A@@2@@ATL@@QAEPAUHWND__@@PAU3@V_U_RECT@2@PBDKKV_U_MENUorID@2@PAX@Z 1001c230 f i ShowSelectCert.obj
 0001:0001b2e0       ?Register@_ATL_WNDCLASSINFOA@ATL@@QAEGPAP6GJPAUHWND__@@IIJ@Z@Z 1001c2e0 f i ShowSelectCert.obj
 0001:0001b320       ?AtlWinModuleRegisterWndClassInfoA@ATL@@YGGPAU_ATL_WIN_MODULE70@1@PAU_ATL_BASE_MODULE70@1@PAU_ATL_WNDCLASSINFOA@1@PAP6GJPAUHWND__@@IIJ@Z@Z 1001c320 f i ShowSelectCert.obj
 0001:0001b3a0       ?QueryInterface@?$CComObject@VCAxFrameWindow@ATL@@@ATL@@UAGJABU_GUID@@PAPAX@Z 1001c3a0 f i ShowSelectCert.obj
 0001:0001b3d0       ?_InternalQueryInterface@CAxFrameWindow@ATL@@QAEJABU_GUID@@PAPAX@Z 1001c3d0 f i ShowSelectCert.obj
 0001:0001b410       ?_GetEntries@CAxFrameWindow@ATL@@SGPBU_ATL_INTMAP_ENTRY@2@XZ 1001c410 f i ShowSelectCert.obj
 0001:0001b420       ??_E?$CComObject@VCAxFrameWindow@ATL@@@ATL@@UAEPAXI@Z 1001c420 f i ShowSelectCert.obj
 0001:0001b420       ??_G?$CComObject@VCAxFrameWindow@ATL@@@ATL@@UAEPAXI@Z 1001c420 f i ShowSelectCert.obj
 0001:0001b460       ??1?$CComObject@VCAxFrameWindow@ATL@@@ATL@@UAE@XZ 1001c460 f i ShowSelectCert.obj
 0001:0001b4d0       ?FinalRelease@CAxFrameWindow@ATL@@QAEXXZ 1001c4d0 f i ShowSelectCert.obj
 0001:0001b4d0       ?FinalRelease@CAxUIWindow@ATL@@QAEXXZ 1001c4d0 f i ShowSelectCert.obj
 0001:0001b510       ??1CAxFrameWindow@ATL@@UAE@XZ 1001c510 f i ShowSelectCert.obj
 0001:0001b510       ??1CAxUIWindow@ATL@@UAE@XZ 1001c510 f i ShowSelectCert.obj
 0001:0001b540       ?GetWndClassInfo@?$CWindowImpl@VCAxFrameWindow@ATL@@VCWindow@2@V?$CWinTraits@$0FGAAAAAA@$0A@@2@@ATL@@SAAAU_ATL_WNDCLASSINFOA@2@XZ 1001c540 f i ShowSelectCert.obj
 0001:0001b550       ?GetWndStyle@?$CWindowImplBaseT@VCWindow@ATL@@V?$CWinTraits@$0FGAAAAAA@$0A@@2@@ATL@@SAKK@Z 1001c550 f i ShowSelectCert.obj
 0001:0001b570       ?GetWndExStyle@?$CWindowImplBaseT@VCWindow@ATL@@V?$CWinTraits@$0FGAAAAAA@$0A@@2@@ATL@@SAKK@Z 1001c570 f i ShowSelectCert.obj
 0001:0001b590       ?GetWndStyle@?$CWinTraits@$0FGAAAAAA@$0A@@ATL@@SAKK@Z 1001c590 f i ShowSelectCert.obj
 0001:0001b5c0       ?GetWndExStyle@?$CWinTraits@$0FGAAAAAA@$0A@@ATL@@SAKK@Z 1001c5c0 f i ShowSelectCert.obj
 0001:0001b5d0       ?StartWindowProc@?$CWindowImplBaseT@VCWindow@ATL@@V?$CWinTraits@$0FGAAAAAA@$0A@@2@@ATL@@SGJPAUHWND__@@IIJ@Z 1001c5d0 f i ShowSelectCert.obj
 0001:0001b6e0       ?ExtractCreateWndData@CAtlWinModule@ATL@@QAEPAXXZ 1001c6e0 f i ShowSelectCert.obj
 0001:0001b710       ?Create@?$CWindowImplBaseT@VCWindow@ATL@@V?$CWinTraits@$0FGAAAAAA@$0A@@2@@ATL@@QAEPAUHWND__@@PAU3@V_U_RECT@2@PBDKKV_U_MENUorID@2@GPAX@Z 1001c710 f i ShowSelectCert.obj
 0001:0001b840       ?AddCreateWndData@CAtlWinModule@ATL@@QAEXPAU_AtlCreateWndData@2@PAX@Z 1001c840 f i ShowSelectCert.obj
 0001:0001b870       ?CreateInstance@?$CComObject@VCAxUIWindow@ATL@@@ATL@@SGJPAPAV12@@Z 1001c870 f i ShowSelectCert.obj
 0001:0001ba00       ??0?$CComObject@VCAxUIWindow@ATL@@@ATL@@QAE@PAX@Z 1001ca00 f i ShowSelectCert.obj
 0001:0001ba60       ??0CAxUIWindow@ATL@@QAE@XZ 1001ca60 f i ShowSelectCert.obj
 0001:0001bab0       ?GetWindow@CAxUIWindow@ATL@@UAGJPAPAUHWND__@@@Z 1001cab0 f i ShowSelectCert.obj
 0001:0001bb20       ?SetActiveObject@CAxFrameWindow@ATL@@UAGJPAUIOleInPlaceActiveObject@@PBG@Z 1001cb20 f i ShowSelectCert.obj
 0001:0001bb20       ?SetActiveObject@CAxUIWindow@ATL@@UAGJPAUIOleInPlaceActiveObject@@PBG@Z 1001cb20 f i ShowSelectCert.obj
 0001:0001bb40       ?Create@?$CWindowImpl@VCAxUIWindow@ATL@@VCWindow@2@V?$CWinTraits@$0FGAAAAAA@$0A@@2@@ATL@@QAEPAUHWND__@@PAU3@V_U_RECT@2@PBDKKV_U_MENUorID@2@PAX@Z 1001cb40 f i ShowSelectCert.obj
 0001:0001bbf0       ?AddRef@?$CComPolyObject@VCAxHostWindow@ATL@@@ATL@@UAGKXZ 1001cbf0 f i ShowSelectCert.obj
 0001:0001bbf0       ?AddRef@?$CComAggObject@VCSignature@@@ATL@@UAGKXZ 1001cbf0 f i XMLSign.obj
 0001:0001bbf0       ?AddRef@?$CComObject@VCAxUIWindow@ATL@@@ATL@@UAGKXZ 1001cbf0 f i ShowSelectCert.obj
 0001:0001bbf0       ?AddRef@?$CComObject@VCAxFrameWindow@ATL@@@ATL@@UAGKXZ 1001cbf0 f i ShowSelectCert.obj
 0001:0001bc10       ?Release@?$CComObject@VCAxUIWindow@ATL@@@ATL@@UAGKXZ 1001cc10 f i ShowSelectCert.obj
 0001:0001bc10       ?Release@?$CComObject@VCAxFrameWindow@ATL@@@ATL@@UAGKXZ 1001cc10 f i ShowSelectCert.obj
 0001:0001bc90       ?QueryInterface@?$CComObject@VCAxUIWindow@ATL@@@ATL@@UAGJABU_GUID@@PAPAX@Z 1001cc90 f i ShowSelectCert.obj
 0001:0001bcc0       ?_InternalQueryInterface@CAxUIWindow@ATL@@QAEJABU_GUID@@PAPAX@Z 1001ccc0 f i ShowSelectCert.obj
 0001:0001bd00       ?_GetEntries@CAxUIWindow@ATL@@SGPBU_ATL_INTMAP_ENTRY@2@XZ 1001cd00 f i ShowSelectCert.obj
 0001:0001bd10       ??_E?$CComObject@VCAxUIWindow@ATL@@@ATL@@UAEPAXI@Z 1001cd10 f i ShowSelectCert.obj
 0001:0001bd10       ??_G?$CComObject@VCAxUIWindow@ATL@@@ATL@@UAEPAXI@Z 1001cd10 f i ShowSelectCert.obj
 0001:0001bd50       ??1?$CComObject@VCAxUIWindow@ATL@@@ATL@@UAE@XZ 1001cd50 f i ShowSelectCert.obj
 0001:0001bdc0       ??1?$CWindowImpl@VCAxFrameWindow@ATL@@VCWindow@2@V?$CWinTraits@$0FGAAAAAA@$0A@@2@@ATL@@UAE@XZ 1001cdc0 f i ShowSelectCert.obj
 0001:0001bdc0       ??1?$CWindowImpl@VCAxHostWindow@ATL@@VCWindow@2@V?$CWinTraits@$0FGAAAAAA@$0A@@2@@ATL@@UAE@XZ 1001cdc0 f i ShowSelectCert.obj
 0001:0001bdc0       ??1?$CWindowImpl@VCAxUIWindow@ATL@@VCWindow@2@V?$CWinTraits@$0FGAAAAAA@$0A@@2@@ATL@@UAE@XZ 1001cdc0 f i ShowSelectCert.obj
 0001:0001bdc0       ??1?$CAxDialogImpl@VCShowSelectCert@@VCWindow@ATL@@@ATL@@UAE@XZ 1001cdc0 f i ShowSelectCert.obj
 0001:0001bdf0       ?GetWndClassInfo@?$CWindowImpl@VCAxUIWindow@ATL@@VCWindow@2@V?$CWinTraits@$0FGAAAAAA@$0A@@2@@ATL@@SAAAU_ATL_WNDCLASSINFOA@2@XZ 1001cdf0 f i ShowSelectCert.obj
 0001:0001be00       ??$QueryInterface@UIDispatch@@@?$CComPtrBase@UIOleObject@@@ATL@@QBEJPAPAUIDispatch@@@Z 1001ce00 f i ShowSelectCert.obj
 0001:0001be70       ??1?$CComEnumImpl@UIEnumUnknown@@$1?_GUID_00000100_0000_0000_c000_000000000046@@3U__s_GUID@@BPAUIUnknown@@V?$_CopyInterface@UIUnknown@@@ATL@@@ATL@@UAE@XZ 1001ce70 f i ShowSelectCert.obj
 0001:0001bf30       ?destroy@?$_CopyInterface@UIUnknown@@@ATL@@SAXPAPAUIUnknown@@@Z 1001cf30 f i ShowSelectCert.obj
 0001:0001bf60       ?Next@?$CComEnumImpl@UIEnumUnknown@@$1?_GUID_00000100_0000_0000_c000_000000000046@@3U__s_GUID@@BPAUIUnknown@@V?$_CopyInterface@UIUnknown@@@ATL@@@ATL@@UAGJKPAPAUIUnknown@@PAK@Z 1001cf60 f i ShowSelectCert.obj
 0001:0001c0e0       ?copy@?$_CopyInterface@UIUnknown@@@ATL@@SAJPAPAUIUnknown@@0@Z 1001d0e0 f i ShowSelectCert.obj
 0001:0001c120       ?Skip@?$CComEnumImpl@UIEnumUnknown@@$1?_GUID_00000100_0000_0000_c000_000000000046@@3U__s_GUID@@BPAUIUnknown@@V?$_CopyInterface@UIUnknown@@@ATL@@@ATL@@UAGJK@Z 1001d120 f i ShowSelectCert.obj
 0001:0001c1a0       ?Clone@?$CComEnumImpl@UIEnumUnknown@@$1?_GUID_00000100_0000_0000_c000_000000000046@@3U__s_GUID@@BPAUIUnknown@@V?$_CopyInterface@UIUnknown@@@ATL@@@ATL@@UAGJPAPAUIEnumUnknown@@@Z 1001d1a0 f i ShowSelectCert.obj
 0001:0001c330       ?CreateInstance@?$CComObject@V?$CComEnum@UIEnumUnknown@@$1?_GUID_00000100_0000_0000_c000_000000000046@@3U__s_GUID@@BPAUIUnknown@@V?$_CopyInterface@UIUnknown@@@ATL@@VCComSingleThreadModel@6@@ATL@@@ATL@@SGJPAPAV12@@Z 1001d330 f i ShowSelectCert.obj
 0001:0001c4c0       ?Init@?$CComEnumImpl@UIEnumUnknown@@$1?_GUID_00000100_0000_0000_c000_000000000046@@3U__s_GUID@@BPAUIUnknown@@V?$_CopyInterface@UIUnknown@@@ATL@@@ATL@@QAEJPAPAUIUnknown@@0PAU3@W4CComEnumFlags@2@@Z 1001d4c0 f i ShowSelectCert.obj
 0001:0001c6d0       ??$AtlModuleRegisterWndClassInfoT@VAtlModuleRegisterWndClassInfoParamA@ATL@@@ATL@@YAGPAU_ATL_BASE_MODULE70@0@PAU_ATL_WIN_MODULE70@0@PAU_ATL_WNDCLASSINFOA@0@PAP6GJPAUHWND__@@IIJ@ZVAtlModuleRegisterWndClassInfoParamA@0@@Z 1001d6d0 f i ShowSelectCert.obj
 0001:0001cb00       ?GetClassInfoExA@AtlModuleRegisterWndClassInfoParamA@ATL@@SAHPAUHINSTANCE__@@PBDPAUtagWNDCLASSEXA@@@Z 1001db00 f i ShowSelectCert.obj
 0001:0001cb30       ?FormatWindowClassName@AtlModuleRegisterWndClassInfoParamA@ATL@@SAXPADPAX@Z 1001db30 f i ShowSelectCert.obj
 0001:0001cb60       ?LoadCursorA@AtlModuleRegisterWndClassInfoParamA@ATL@@SAPAUHICON__@@PAUHINSTANCE__@@PBD@Z 1001db60 f i ShowSelectCert.obj
 0001:0001cb90       ?RegisterClassExA@AtlModuleRegisterWndClassInfoParamA@ATL@@SAGPAU_ATL_WIN_MODULE70@2@PBUtagWNDCLASSEXA@@@Z 1001db90 f i ShowSelectCert.obj
 0001:0001cbb0       ?AtlWinModuleRegisterClassExA@ATL@@YGGPAU_ATL_WIN_MODULE70@1@PBUtagWNDCLASSEXA@@@Z 1001dbb0 f i ShowSelectCert.obj
 0001:0001cc70       ?Add@?$CSimpleArray@GV?$CSimpleArrayEqualHelper@G@ATL@@@ATL@@QAEHABG@Z 1001dc70 f i ShowSelectCert.obj
 0001:0001cd30       ?InternalSetAtIndex@?$CSimpleArray@GV?$CSimpleArrayEqualHelper@G@ATL@@@ATL@@QAEXHABG@Z 1001dd30 f i ShowSelectCert.obj
 0001:0001cdd0       ??0Wrapper@?$CSimpleArray@GV?$CSimpleArrayEqualHelper@G@ATL@@@ATL@@QAE@ABG@Z 1001ddd0 f i ShowSelectCert.obj
 0001:0001ce00       ?QueryInterface@?$CComContainedObject@VCAxHostWindow@ATL@@@ATL@@W3AGJABU_GUID@@PAPAX@Z 1001de00 f i ShowSelectCert.obj
 0001:0001ce10       ?AddRef@?$CComContainedObject@VCAxHostWindow@ATL@@@ATL@@W3AGKXZ 1001de10 f i ShowSelectCert.obj
 0001:0001ce20       ?Release@?$CComContainedObject@VCAxHostWindow@ATL@@@ATL@@W3AGKXZ 1001de20 f i ShowSelectCert.obj
 0001:0001ce30       ?QueryInterface@?$CComContainedObject@VCAxHostWindow@ATL@@@ATL@@W7AGJABU_GUID@@PAPAX@Z 1001de30 f i ShowSelectCert.obj
 0001:0001ce40       ?AddRef@?$CComContainedObject@VCAxHostWindow@ATL@@@ATL@@W7AGKXZ 1001de40 f i ShowSelectCert.obj
 0001:0001ce50       ?Release@?$CComContainedObject@VCAxHostWindow@ATL@@@ATL@@W7AGKXZ 1001de50 f i ShowSelectCert.obj
 0001:0001ce60       ?QueryInterface@?$CComContainedObject@VCAxHostWindow@ATL@@@ATL@@WM@AGJABU_GUID@@PAPAX@Z 1001de60 f i ShowSelectCert.obj
 0001:0001ce70       ?AddRef@?$CComContainedObject@VCAxHostWindow@ATL@@@ATL@@WM@AGKXZ 1001de70 f i ShowSelectCert.obj
 0001:0001ce80       ?Release@?$CComContainedObject@VCAxHostWindow@ATL@@@ATL@@WM@AGKXZ 1001de80 f i ShowSelectCert.obj
 0001:0001ce90       ?QueryInterface@?$CComContainedObject@VCAxHostWindow@ATL@@@ATL@@WBA@AGJABU_GUID@@PAPAX@Z 1001de90 f i ShowSelectCert.obj
 0001:0001cea0       ?AddRef@?$CComContainedObject@VCAxHostWindow@ATL@@@ATL@@WBA@AGKXZ 1001dea0 f i ShowSelectCert.obj
 0001:0001ceb0       ?Release@?$CComContainedObject@VCAxHostWindow@ATL@@@ATL@@WBA@AGKXZ 1001deb0 f i ShowSelectCert.obj
 0001:0001cec0       ?QueryInterface@?$CComContainedObject@VCAxHostWindow@ATL@@@ATL@@WBE@AGJABU_GUID@@PAPAX@Z 1001dec0 f i ShowSelectCert.obj
 0001:0001ced0       ?AddRef@?$CComContainedObject@VCAxHostWindow@ATL@@@ATL@@WBE@AGKXZ 1001ded0 f i ShowSelectCert.obj
 0001:0001cee0       ?Release@?$CComContainedObject@VCAxHostWindow@ATL@@@ATL@@WBE@AGKXZ 1001dee0 f i ShowSelectCert.obj
 0001:0001cef0       ??_E?$CComContainedObject@VCAxHostWindow@ATL@@@ATL@@WDI@AEPAXI@Z 1001def0 f i ShowSelectCert.obj
 0001:0001cf00       ?QueryInterface@?$CComContainedObject@VCAxHostWindow@ATL@@@ATL@@WBM@AGJABU_GUID@@PAPAX@Z 1001df00 f i ShowSelectCert.obj
 0001:0001cf10       ?AddRef@?$CComContainedObject@VCAxHostWindow@ATL@@@ATL@@WBM@AGKXZ 1001df10 f i ShowSelectCert.obj
 0001:0001cf20       ?Release@?$CComContainedObject@VCAxHostWindow@ATL@@@ATL@@WBM@AGKXZ 1001df20 f i ShowSelectCert.obj
 0001:0001cf30       ?QueryInterface@?$CComContainedObject@VCAxHostWindow@ATL@@@ATL@@WCA@AGJABU_GUID@@PAPAX@Z 1001df30 f i ShowSelectCert.obj
 0001:0001cf40       ?AddRef@?$CComContainedObject@VCAxHostWindow@ATL@@@ATL@@WCA@AGKXZ 1001df40 f i ShowSelectCert.obj
 0001:0001cf50       ?Release@?$CComContainedObject@VCAxHostWindow@ATL@@@ATL@@WCA@AGKXZ 1001df50 f i ShowSelectCert.obj
 0001:0001cf60       ?QueryInterface@?$CComContainedObject@VCAxHostWindow@ATL@@@ATL@@WCE@AGJABU_GUID@@PAPAX@Z 1001df60 f i ShowSelectCert.obj
 0001:0001cf70       ?AddRef@?$CComContainedObject@VCAxHostWindow@ATL@@@ATL@@WCE@AGKXZ 1001df70 f i ShowSelectCert.obj
 0001:0001cf80       ?Release@?$CComContainedObject@VCAxHostWindow@ATL@@@ATL@@WCE@AGKXZ 1001df80 f i ShowSelectCert.obj
 0001:0001cf90       ?QueryInterface@?$CComContainedObject@VCAxHostWindow@ATL@@@ATL@@WCI@AGJABU_GUID@@PAPAX@Z 1001df90 f i ShowSelectCert.obj
 0001:0001cfa0       ?AddRef@?$CComContainedObject@VCAxHostWindow@ATL@@@ATL@@WCI@AGKXZ 1001dfa0 f i ShowSelectCert.obj
 0001:0001cfb0       ?Release@?$CComContainedObject@VCAxHostWindow@ATL@@@ATL@@WCI@AGKXZ 1001dfb0 f i ShowSelectCert.obj
 0001:0001cfc0       ??0CSignature@@QAE@XZ      1001dfc0 f   Signature.obj
 0001:0001e6d0       ??1CSignature@@QAE@XZ      1001f6d0 f   Signature.obj
 0001:0001e9b0       ?Empty@CSignature@@QAEXXZ  1001f9b0 f   Signature.obj
 0001:0001f6f0       ?FreeUriArr@CSignature@@QAEXXZ 100206f0 f   Signature.obj
 0001:0001f880       ?AddRef@CSignature@@UAGKXZ 10020880 f   Signature.obj
 0001:0001f8a0       ?Release@CSignature@@UAGKXZ 100208a0 f   Signature.obj
 0001:0001f910       ?get_EnvelopingFlag@CSignature@@UAGJPAF@Z 10020910 f   Signature.obj
 0001:0001f940       ?put_EnvelopingFlag@CSignature@@UAGJF@Z 10020940 f   Signature.obj
 0001:0001f970       ?get_RecipientCertificateStore@CSignature@@UAGJPAPAG@Z 10020970 f   Signature.obj
 0001:0001f9b0       ?put_RecipientCertificateStore@CSignature@@UAGJPAG@Z 100209b0 f   Signature.obj
 0001:0001fc40       ?get_SignerCertificate@CSignature@@UAGJJPAPAG@Z 10020c40 f   Signature.obj
 0001:0001fd10       ?put_SignerCertificate@CSignature@@UAGJJPAG@Z 10020d10 f   Signature.obj
 0001:0001fd70       ?get_SignatureID@CSignature@@UAGJJPAPAG@Z 10020d70 f   Signature.obj
 0001:0001fe40       ?put_SignatureID@CSignature@@UAGJJPAG@Z 10020e40 f   Signature.obj
 0001:0001fe80       ?get_Properties@CSignature@@UAGJJJPAPAG@Z 10020e80 f   Signature.obj
 0001:00020030       ?put_Properties@CSignature@@UAGJJJPAG@Z 10021030 f   Signature.obj
 0001:000200c0       ?get_IncludeCamResponse@CSignature@@UAGJPAH@Z 100210c0 f   Signature.obj
 0001:000200e0       ?put_IncludeCamResponse@CSignature@@UAGJH@Z 100210e0 f   Signature.obj
 0001:00020100       ?get_Base64EncodeXML@CSignature@@UAGJPAH@Z 10021100 f   Signature.obj
 0001:00020120       ?put_Base64EncodeXML@CSignature@@UAGJH@Z 10021120 f   Signature.obj
 0001:00020140       ?get_Base64DecodeXML@CSignature@@UAGJPAH@Z 10021140 f   Signature.obj
 0001:00020160       ?put_Base64DecodeXML@CSignature@@UAGJH@Z 10021160 f   Signature.obj
 0001:00020180       ?get_DocumentURI@CSignature@@UAGJJJPAPAG@Z 10021180 f   Signature.obj
 0001:00020370       ?get_DigestObjectStatus@CSignature@@UAGJJJPAH@Z 10021370 f   Signature.obj
 0001:00020460       ?get_Language@CSignature@@UAGJPAPAG@Z 10021460 f   Signature.obj
 0001:000204a0       ?put_Language@CSignature@@UAGJPAG@Z 100214a0 f   Signature.obj
 0001:000213d0       ?get_SignatureStatus@CSignature@@UAGJJPAH@Z 100223d0 f   Signature.obj
 0001:00021490       ?get_PhysicalSignatureUsage@CSignature@@UAGJPAJ@Z 10022490 f   Signature.obj
 0001:000214c0       ?put_PhysicalSignatureUsage@CSignature@@UAGJJ@Z 100224c0 f   Signature.obj
 0001:00021590       ?get_PhysicalSignatureFile@CSignature@@UAGJPAPAG@Z 10022590 f   Signature.obj
 0001:00021630       ?put_PhysicalSignatureFile@CSignature@@UAGJPAG@Z 10022630 f   Signature.obj
 0001:000217a0       ?get_CapturedSignatureFile@CSignature@@UAGJPAPAG@Z 100227a0 f   Signature.obj
 0001:00021840       ?xsRemoveBstrPath@CSignature@@QAEPAEPAG@Z 10022840 f   Signature.obj
 0001:00021aa0       ?Sign@CSignature@@UAGJPAGPAPAG@Z 10022aa0 f   Signature.obj
 0001:000228e0       ?SaveXMLSignature@CSignature@@UAGJPAG@Z 100238e0 f   Signature.obj
 0001:00022a90       ?Verify@CSignature@@UAGJPAGPAH@Z 10023a90 f   Signature.obj
 0001:00022b90       ?VerifyDetached@CSignature@@UAGJPAGPAH@Z 10023b90 f   Signature.obj
 0001:00022c20       ?GetError@CSignature@@UAGJPAPAG@Z 10023c20 f   Signature.obj
 0001:00022cb0       ?GetLastError@CSignature@@UAGJPAJ@Z 10023cb0 f   Signature.obj
 0001:00022ce0       ?GetX509Certificate@CSignature@@UAGJPAGPAPAG@Z 10023ce0 f   Signature.obj
 0001:00022ef0       ?ViewCertificate@CSignature@@UAGJPAG@Z 10023ef0 f   Signature.obj
 0001:00023100       ?get_CertificateCount@CSignature@@UAGJPAJ@Z 10024100 f   Signature.obj
 0001:00023120       ?GetCertificateInfo@CSignature@@UAGJJJPAPAG@Z 10024120 f   Signature.obj
 0001:00023590       ?SetActiveCertificate@CSignature@@UAGJPAGPAH@Z 10024590 f   Signature.obj
 0001:00023920       ?get_SignedDocumentPath@CSignature@@UAGJJJPAPAG@Z 10024920 f   Signature.obj
 0001:00023ad0       ?FetchSignatureStatus@CSignature@@QAEXHH@Z 10024ad0 f   Signature.obj
 0001:000246b0       ?get_SignerSubject@CSignature@@UAGJPAGPAPAG@Z 100256b0 f   Signature.obj
 0001:000248d0       ?get_CertIssuer@CSignature@@UAGJPAGPAPAG@Z 100258d0 f   Signature.obj
 0001:00024af0       ?get_CertExpiry@CSignature@@UAGJPAGPAPAG@Z 10025af0 f   Signature.obj
 0001:00024d00       ?get_CertSerialNumber@CSignature@@UAGJPAGPAPAG@Z 10025d00 f   Signature.obj
 0001:00024f60       ?FileExists@CSignature@@UAGJPAGPAH@Z 10025f60 f   Signature.obj
 0001:000250a0       ?get_FailedUriCount@CSignature@@UAGJPAJ@Z 100260a0 f   Signature.obj
 0001:000250c0       ?get_TotalUriCount@CSignature@@UAGJPAJ@Z 100260c0 f   Signature.obj
 0001:000250e0       ?get_FailedUriFullPath@CSignature@@UAGJJPAPAG@Z 100260e0 f   Signature.obj
 0001:000251d0       ?put_FailedUriFullPath@CSignature@@UAGJJPAG@Z 100261d0 f   Signature.obj
 0001:000253d0       ?get_FailedUri@CSignature@@UAGJJPAPAG@Z 100263d0 f   Signature.obj
 0001:000254c0       ?get_SignatureCount@CSignature@@UAGJPAJ@Z 100264c0 f   Signature.obj
 0001:000254e0       ?SignXMLStr@CSignature@@UAGJPAG0PAPAG@Z 100264e0 f   Signature.obj
 0001:00026110       ?xsDereferenceBstrURI@CSignature@@QAEPAEPAGPAK@Z 10027110 f   Signature.obj
 0001:000263a0       ?ReadAll@CSignature@@UAGJPAGPAPAG@Z 100273a0 f   Signature.obj
 0001:00026560       ?ReadAllBin@CSignature@@QAEHPAGPAPAEPAK@Z 10027560 f   Signature.obj
 0001:000265e0       ?SaveXMLStr@CSignature@@UAGJPAG0PAPAG@Z 100275e0 f   Signature.obj
 0001:00026b10       ?SignHTML@CSignature@@UAGJPAUIDispatch@@PAPAG@Z 10027b10 f   Signature.obj
 0001:00027370       ?SecureXMLVerify@CSignature@@UAGJPAGPAPAG@Z 10028370 f   Signature.obj
 0001:00028800       ?SetCSP@CSignature@@UAGJPAG@Z 10029800 f   Signature.obj
 0001:00028940       ?GetSignedHTML@CSignature@@UAGJPAGPAPAG@Z 10029940 f   Signature.obj
 0001:00028bd0       ?SignFile@CSignature@@UAGJPAG0@Z 10029bd0 f   Signature.obj
 0001:00029600       ?GetSignedFileObject@CSignature@@UAGJPAG0PAPAG@Z 1002a600 f   Signature.obj
 0001:00029e60       ?SetStoreName@CSignature@@UAGJPAG@Z 1002ae60 f   Signature.obj
 0001:0002a560       ?GetStoreName@CSignature@@UAGJPAPAG@Z 1002b560 f   Signature.obj
 0001:0002a590       ?SignXMLEnveloped@CSignature@@UAGJPAG0PAPAG@Z 1002b590 f   Signature.obj
 0001:0002b140       ?GetVersion@CSignature@@UAGJPAPAG@Z 1002c140 f   Signature.obj
 0001:0002b1a0       ?GetLicenseStatus@CSignature@@UAGJPAJ@Z 1002c1a0 f   Signature.obj
 0001:0002b320       ?GetPropertyCount@CSignature@@UAGJJPAJ@Z 1002c320 f   Signature.obj
 0001:0002b360       ?QueryStatus@CSignature@@UAGJPBU_GUID@@KQAU_tagOLECMD@@PAU_tagOLECMDTEXT@@@Z 1002c360 f   Signature.obj
 0001:0002b3c0       ?Exec@CSignature@@UAGJPBU_GUID@@KKPAUtagVARIANT@@1@Z 1002c3c0 f   Signature.obj
 0001:0002bb40       ?SetSite@CSignature@@UAGJPAUIUnknown@@@Z 1002cb40 f   Signature.obj
 0001:0002bc60       ?GetSite@CSignature@@UAGJABU_GUID@@PAPAX@Z 1002cc60 f   Signature.obj
 0001:0002bcb0       ?ViewAnyCertificate@CSignature@@UAGJPAG@Z 1002ccb0 f   Signature.obj
 0001:0002bdd0       ?SelectActiveCertificate@CSignature@@UAGJPAPAG@Z 1002cdd0 f   Signature.obj
 0001:0002c130       ?VerifyXMLStr@CSignature@@UAGJPAGPAH@Z 1002d130 f   Signature.obj
 0001:0002c5b0       ?SetActivePFXFileCert@CSignature@@UAGJPAG0PAPAG@Z 1002d5b0 f   Signature.obj
 0001:0002c9f0       ?PFXExportCertificate@CSignature@@UAGJPAG0PAPAG@Z 1002d9f0 f   Signature.obj
 0001:0002ce70       ?CreateSigFromTmplBlob@CSignature@@QAEHPAU_xmlDoc@@PADPAPAEPAH@Z 1002de70 f   Signature.obj
 0001:00030460       ?PFXExportActiveCertificate@CSignature@@UAGJPAGPAPAG@Z 10031460 f   Signature.obj
 0001:000304f0       ?get_HostName@CSignature@@UAGJPAPAG@Z 100314f0 f   Signature.obj
 0001:000305e0       ?get_TimeStampURL@CSignature@@UAGJPAPAG@Z 100315e0 f   Signature.obj
 0001:00030610       ?put_TimeStampURL@CSignature@@UAGJPAG@Z 10031610 f   Signature.obj
 0001:00030640       ?get_TimeStamping@CSignature@@UAGJPAH@Z 10031640 f   Signature.obj
 0001:00030660       ?put_TimeStamping@CSignature@@UAGJH@Z 10031660 f   Signature.obj
 0001:000306b0       ?get_HostOsType@CSignature@@UAGJPAJ@Z 100316b0 f   Signature.obj
 0001:000306d0       ?get_CrlChecking@CSignature@@UAGJPAH@Z 100316d0 f   Signature.obj
 0001:000306f0       ?put_CrlChecking@CSignature@@UAGJH@Z 100316f0 f   Signature.obj
 0001:00030740       ?get_SigCertStatus@CSignature@@UAGJJPAGJPAJ@Z 10031740 f   Signature.obj
 0001:000310e0       ?VerifyX509CertCRL@CSignature@@UAGJPAG0JPAH@Z 100320e0 f   Signature.obj
 0001:00031460       ?VerifyPFXCertCRL@CSignature@@UAGJPAG00JPAH@Z 10032460 f   Signature.obj
 0001:000319e0       ?GuidToString@@YAXPAU_GUID@@PAD@Z 100329e0 f   Signature.obj
 0001:00031ac0       ?AddPhysicalSignature@CSignature@@QAEXPAU_xmlNode@@0PAD@Z 10032ac0 f   Signature.obj
 0001:000326b0       ?GetPhysicalSignatureFromTablet@CSignature@@QAEHPADH0@Z 100336b0 f   Signature.obj
 0001:00032960       ?GetPhysicalSignatureFromMouse@CSignature@@QAEHPADH0@Z 10033960 f   Signature.obj
 0001:00032b60       ?AddWindowImage@CSignature@@QAEXPAU_xmlNode@@0PAD@Z 10033b60 f   Signature.obj
 0001:00032f70       ?get_AddWindowImage@CSignature@@UAGJPAH@Z 10033f70 f   Signature.obj
 0001:00032f90       ?put_AddWindowImage@CSignature@@UAGJH@Z 10033f90 f   Signature.obj
 0001:00032fb0       ?SignXMLXpathStr@CSignature@@UAGJPAG00PAPAG@Z 10033fb0 f   Signature.obj
 0001:000341c0       ?get_UseHMAC@CSignature@@UAGJPAH@Z 100351c0 f   Signature.obj
 0001:000341e0       ?put_UseHMAC@CSignature@@UAGJH@Z 100351e0 f   Signature.obj
 0001:00034200       ?get_HMACPassword@CSignature@@UAGJPAPAG@Z 10035200 f   Signature.obj
 0001:00034230       ?put_HMACPassword@CSignature@@UAGJPAG@Z 10035230 f   Signature.obj
 0001:000343c0       ?ChangeOrAddProperty@CSignature@@UAGJPAG0@Z 100353c0 f   Signature.obj
 0001:00034680       ?put_DetailedVerificationFlag@CSignature@@UAGJH@Z 10035680 f   Signature.obj
 0001:000346a0       ?CaptureLiveSignature@CSignature@@UAGJPAPAG@Z 100356a0 f   Signature.obj
 0001:00034aa0       ?SignDataStr@CSignature@@UAGJPAGPAPAG@Z 10035aa0 f   Signature.obj
 0001:000353f0       ?put_ExcludeSignerCertificate@CSignature@@UAGJH@Z 100363f0 f   Signature.obj
 0001:00035410       ?put_OverwriteFile@CSignature@@UAGJH@Z 10036410 f   Signature.obj
 0001:00035430       ?CoSignXMLStr@CSignature@@UAGJPAGPAPAG@Z 10036430 f   Signature.obj
 0001:00036370       ?CoSignFile@CSignature@@UAGJPAG0PAPAG@Z 10037370 f   Signature.obj
 0001:00036590       ?SignFiles@CSignature@@UAGJUtagVARIANT@@PAGPAPAG@Z 10037590 f   Signature.obj
 0001:00037250       ?GetBstrArrayFromVariant@CSignature@@QAEPAPAGUtagVARIANT@@PAI@Z 10038250 f   Signature.obj
 0001:00037af0       ?put_ConfigFileName@CSignature@@UAGJPAG@Z 10038af0 f   Signature.obj
 0001:00037c10       ?put_CRLLocation@CSignature@@UAGJUtagVARIANT@@@Z 10038c10 f   Signature.obj
 0001:00037e60       ?VerifyActiveCertificate@CSignature@@UAGJPAH@Z 10038e60 f   Signature.obj
 0001:00038070       ?put_CertificatePolicy@CSignature@@UAGJUtagVARIANT@@@Z 10039070 f   Signature.obj
 0001:000382b0       ?get_AuthorityConstrainedPolicy@CSignature@@UAGJPAUtagVARIANT@@@Z 100392b0 f   Signature.obj
 0001:00038460       ?get_UserConstrainedPolicy@CSignature@@UAGJPAUtagVARIANT@@@Z 10039460 f   Signature.obj
 0001:00038610       ?put_CertificatePolicyChecking@CSignature@@UAGJH@Z 10039610 f   Signature.obj
 0001:00038660       ?put_CertificateChainValidation@CSignature@@UAGJH@Z 10039660 f   Signature.obj
 0001:000386e0       ?put_CertificatePathLengthChecking@CSignature@@UAGJH@Z 100396e0 f   Signature.obj
 0001:00038730       ?put_DoDCompliance@CSignature@@UAGJH@Z 10039730 f   Signature.obj
 0001:000387d0       ?get_CertificatePolicyExplicit@CSignature@@UAGJPAH@Z 100397d0 f   Signature.obj
 0001:00038800       ?put_CertificatePolicyExplicit@CSignature@@UAGJH@Z 10039800 f   Signature.obj
 0001:00038850       ?put_CertificateTrustExplicit@CSignature@@UAGJH@Z 10039850 f   Signature.obj
 0001:000388a0       ?put_RecipientCertificates@CSignature@@UAGJUtagVARIANT@@@Z 100398a0 f   Signature.obj
 0001:00038ae0       ?EncryptStr@CSignature@@UAGJPAGPAPAG@Z 10039ae0 f   Signature.obj
 0001:00038d40       ?DecryptStr@CSignature@@UAGJPAGPAPAG@Z 10039d40 f   Signature.obj
 0001:00038ea0       ?DecryptBlob@CSignature@@IAEHPAU_DS_DATA_BLOB@@0@Z 10039ea0 f   Signature.obj
 0001:00038f30       ?EncryptFileA@CSignature@@UAGJPAG0PAPAG@Z 10039f30 f   Signature.obj
 0001:000391f0       ?DecryptFileA@CSignature@@UAGJPAG0PAPAG@Z 1003a1f0 f   Signature.obj
 0001:000397a0       ?EncryptBlob@CSignature@@QAEPAEPAU_DS_DATA_BLOB@@PAK@Z 1003a7a0 f   Signature.obj
 0001:00039f70       ?put_TrustedRoots@CSignature@@UAGJUtagVARIANT@@@Z 1003af70 f   Signature.obj
 0001:0003a5a0       ?put_RecipientCertificateFiles@CSignature@@UAGJUtagVARIANT@@@Z 1003b5a0 f   Signature.obj
 0001:0003ab90       ?CheckCertificateValidity@CSignature@@QAEHPAEPAU_SYSTEMTIME@@PAU_DS_DATA_BLOB@@PAU_CERTVERIFICATIONPARAMS@@PAU_GLOBAL_SIG@@@Z 1003bb90 f   Signature.obj
 0001:0003b060       ?put_DetachedObjects@CSignature@@UAGJUtagVARIANT@@@Z 1003c060 f   Signature.obj
 0001:0003b2a0       ?put_AttachedObjects@CSignature@@UAGJUtagVARIANT@@@Z 1003c2a0 f   Signature.obj
 0001:0003b3c0       ?ReadAllBase64@CSignature@@UAGJPAGPAPAG@Z 1003c3c0 f   Signature.obj
 0001:0003b660       ?put_DecryptionPFXCertFile@CSignature@@UAGJPAG@Z 1003c660 f   Signature.obj
 0001:0003b680       ?put_DecryptUsingPFXFileCert@CSignature@@UAGJH@Z 1003c680 f   Signature.obj
 0001:0003b6a0       ?put_DecryptionPFXPassword@CSignature@@UAGJPAG@Z 1003c6a0 f   Signature.obj
 0001:0003b750       ?put_XpathNamespace@CSignature@@UAGJUtagVARIANT@@@Z 1003c750 f   Signature.obj
 0001:0003b990       ?get_CamServerHost@CSignature@@UAGJPAPAG@Z 1003c990 f   Signature.obj
 0001:0003b9c0       ?put_CamServerHost@CSignature@@UAGJPAG@Z 1003c9c0 f   Signature.obj
 0001:0003ba10       ?get_CamServerPort@CSignature@@UAGJPAG@Z 1003ca10 f   Signature.obj
 0001:0003ba30       ?put_CamServerPort@CSignature@@UAGJG@Z 1003ca30 f   Signature.obj
 0001:0003ba50       ?get_UseCam@CSignature@@UAGJPAH@Z 1003ca50 f   Signature.obj
 0001:0003ba70       ?put_UseCam@CSignature@@UAGJH@Z 1003ca70 f   Signature.obj
 0001:0003bbd0       ?get_AgencyId@CSignature@@UAGJPAPAG@Z 1003cbd0 f   Signature.obj
 0001:0003bc00       ?put_AgencyId@CSignature@@UAGJPAG@Z 1003cc00 f   Signature.obj
 0001:0003bc80       ?crVerifyCertificateUsingCam@CSignature@@QAEHPAPAEIPAU_SYSTEMTIME@@PAGPAU_CERTVERIFICATIONPARAMS@@PAU_GLOBAL_SIG@@@Z 1003cc80 f   Signature.obj
 0001:0003c010       ?get_CamValidationResponse@CSignature@@UAGJPAPAG@Z 1003d010 f   Signature.obj
 0001:0003c050       ?crVerifyCertificateUsingOcsp@CSignature@@QAEHPAPAEIPAU_SYSTEMTIME@@PAGPAU_CERTVERIFICATIONPARAMS@@PAU_GLOBAL_SIG@@@Z 1003d050 f   Signature.obj
 0001:0003c5c0       ?GetSigPropValueByName@CSignature@@UAGJJPAGPAPAG@Z 1003d5c0 f   Signature.obj
 0001:0003c780       ?Base64DecodeBufferToFile@CSignature@@UAGJPAG0PAPAG@Z 1003d780 f   Signature.obj
 0001:0003ce50       ?Base64DecodeFileToFile@CSignature@@UAGJPAG0PAPAG@Z 1003de50 f   Signature.obj
 0001:0003cf40       ?GunZipFile@CSignature@@UAGJPAG0PAPAG@Z 1003df40 f   Signature.obj
 0001:0003d380       ?FreeBufferLinkedList@CSignature@@QAEXPAUBufferLinkedList@@@Z 1003e380 f   Signature.obj
 0001:0003d410       ?get_CertSerialNumberFormat@CSignature@@UAGJPAJ@Z 1003e410 f   Signature.obj
 0001:0003d440       ?put_CertSerialNumberFormat@CSignature@@UAGJJ@Z 1003e440 f   Signature.obj
 0001:0003d470       ?Base64BinToPlainHex@CSignature@@QAEPAEPAE@Z 1003e470 f   Signature.obj
 0001:0003d5e0       ?HexToUnsignedChar@@YAEE@Z 1003e5e0 f   Signature.obj
 0001:0003d710       ?HexStrToUnsignedChar@@YAEPAE@Z 1003e710 f   Signature.obj
 0001:0003d760       ?PlainHexToBase64Bin@CSignature@@QAEPAEPAE@Z 1003e760 f   Signature.obj
 0001:0003d910       ?SecureXMLVerifyFileToBuffer@CSignature@@UAGJPAGPAPAG@Z 1003e910 f   Signature.obj
 0001:0003d9d0       ?SecureXMLVerifyFileToFile@CSignature@@UAGJPAG0PAPAG@Z 1003e9d0 f   Signature.obj
 0001:0003db00       ?DeleteSignatureFromXMLStr@CSignature@@UAGJPAG0PAPAG@Z 1003eb00 f   Signature.obj
 0001:0003df80       ?DeleteSignatureFromFile@CSignature@@UAGJPAG00PAPAG@Z 1003ef80 f   Signature.obj
 0001:0003e0b0       ?put_AllowedCertIssuerNames@CSignature@@UAGJUtagVARIANT@@@Z 1003f0b0 f   Signature.obj
 0001:0003e940       ?get_CRLCacheDbConnectionString@CSignature@@UAGJPAPAG@Z 1003f940 f   Signature.obj
 0001:0003e970       ?put_CRLCacheDbConnectionString@CSignature@@UAGJPAG@Z 1003f970 f   Signature.obj
 0001:0003e9a0       ?get_UseCRLCache@CSignature@@UAGJPAH@Z 1003f9a0 f   Signature.obj
 0001:0003e9d0       ?put_UseCRLCache@CSignature@@UAGJH@Z 1003f9d0 f   Signature.obj
 0001:0003eb70       ?put_CRLCacheTimeoutInMinutes@CSignature@@UAGJK@Z 1003fb70 f   Signature.obj
 0001:0003ebb0       ?put_CanonicalizationMethod@CSignature@@UAGJK@Z 1003fbb0 f   Signature.obj
 0001:0003ebe0       ?get_NetscapeStorePassword@CSignature@@UAGJPAPAG@Z 1003fbe0 f   Signature.obj
 0001:0003ec10       ?put_NetscapeStorePassword@CSignature@@UAGJPAG@Z 1003fc10 f   Signature.obj
 0001:0003ecb0       ?SetActivePEMFileCert@CSignature@@UAGJPAG0PAPAG@Z 1003fcb0 f   Signature.obj
 0001:0003ef10       ?get_SecureXMLPath@CSignature@@UAGJPAPAG@Z 1003ff10 f   Signature.obj
 0001:0003ef40       ?get_SignedDocumentCount@CSignature@@UAGJJPAJ@Z 1003ff40 f   Signature.obj
 0001:0003efc0       ?SignXMLByteArray@CSignature@@UAGJUtagVARIANT@@PAGPAU2@@Z 1003ffc0 f   Signature.obj
 0001:0003fa90       ?SaveXMLByteArray@CSignature@@UAGJUtagVARIANT@@PAGPAPAG@Z 10040a90 f   Signature.obj
 0001:0003ffb0       ?ReadAllByteArray@CSignature@@UAGJPAGPAUtagVARIANT@@@Z 10040fb0 f   Signature.obj
 0001:00040170       ?VerifyXMLByteArray@CSignature@@UAGJUtagVARIANT@@PAH@Z 10041170 f   Signature.obj
 0001:00040470       ?SecureXMLVerifyByteArray@CSignature@@UAGJUtagVARIANT@@PAU2@@Z 10041470 f   Signature.obj
 0001:00041870       ?SignXMLXpathByteArray@CSignature@@UAGJUtagVARIANT@@PAG1PAU2@@Z 10042870 f   Signature.obj
 0001:00042870       ?SignXMLEnvelopedByteArray@CSignature@@UAGJUtagVARIANT@@PAGPAU2@@Z 10043870 f   Signature.obj
 0001:00043390       ?Base64DecodeByteArrayToFile@CSignature@@UAGJUtagVARIANT@@PAGPAPAG@Z 10044390 f   Signature.obj
 0001:00043960       ?Base64DecodeByteArrayToByteArray@CSignature@@UAGJUtagVARIANT@@PAU2@@Z 10044960 f   Signature.obj
 0001:00043c00       ?Base64EncodeByteArrayToByteArray@CSignature@@UAGJUtagVARIANT@@PAU2@@Z 10044c00 f   Signature.obj
 0001:00043eb0       ?Base64EncodeByteArrayToFile@CSignature@@UAGJUtagVARIANT@@PAGPAPAG@Z 10044eb0 f   Signature.obj
 0001:000443e0       ?Base64EncodeStrToFile@CSignature@@UAGJPAG0PAPAG@Z 100453e0 f   Signature.obj
 0001:00044ae0       ?Base64EncodeStrToStr@CSignature@@UAGJPAGPAPAG@Z 10045ae0 f   Signature.obj
 0001:00044dc0       ?SetActivePFXB64Data@CSignature@@UAGJPAG0PAPAG@Z 10045dc0 f   Signature.obj
 0001:00045290       ?put_FloatingLicense@CSignature@@UAGJPAG@Z 10046290 f   Signature.obj
 0001:000454d0       ?get_FloatingLicense@CSignature@@UAGJPAPAG@Z 100464d0 f   Signature.obj
 0001:00045500       _localTimeToUtcTime        10046500 f   Signature.obj
 0001:00045710       ?get_LicensedUserCount@CSignature@@UAGJPAJ@Z 10046710 f   Signature.obj
 0001:00045740       ?put_IncludeCRLInSignature@CSignature@@UAGJH@Z 10046740 f   Signature.obj
 0001:00045760       ?get_UsedCRLList@CSignature@@UAGJPAUtagVARIANT@@@Z 10046760 f   Signature.obj
 0001:00045910       ?GetErrorDetail@CSignature@@UAGJJPAPAG@Z 10046910 f   Signature.obj
 0001:00045970       ?put_PhysicalSignatureB64Str@CSignature@@UAGJPAG@Z 10046970 f   Signature.obj
 0001:000459e0       ?GetSignedInfoDigest@CSignature@@UAGJPAG0PAPAG@Z 100469e0 f   Signature.obj
 0001:000466b0       ?GetX509CertificateChain@CSignature@@UAGJPAGPAPAG@Z 100476b0 f   Signature.obj
 0001:00046cf0       ?getSignerCertChain@CSignature@@QAEPAPAEPAI@Z 10047cf0 f   Signature.obj
 0001:00046f80       ?put_SignerCertificateChain@CSignature@@UAGJPAG@Z 10047f80 f   Signature.obj
 0001:000470d0       ?get_SignatureImageId@CSignature@@UAGJPAPAG@Z 100480d0 f   Signature.obj
 0001:00047100       ?put_SignatureImageId@CSignature@@UAGJPAG@Z 10048100 f   Signature.obj
 0001:00047160       ?SignSignedInfoDigest@CSignature@@UAGJPAG0PAPAG@Z 10048160 f   Signature.obj
 0001:00047db0       ?ApplySignatureValue@CSignature@@UAGJPAGPAPAG@Z 10048db0 f   Signature.obj
 0001:00048da0       ?GetSignedInfoDigestFromByteArray@CSignature@@UAGJUtagVARIANT@@PAGPAPAG@Z 10049da0 f   Signature.obj
 0001:000498a0       ?ApplySignatureValueGetByteArray@CSignature@@UAGJPAGPAUtagVARIANT@@@Z 1004a8a0 f   Signature.obj
 0001:0004aa90       ?GetSignedDocumentB64Str@CSignature@@UAGJJJPAPAG@Z 1004ba90 f   Signature.obj
 0001:0004abc0       ?GetSignedDocumentByteArray@CSignature@@UAGJJJPAUtagVARIANT@@@Z 1004bbc0 f   Signature.obj
 0001:0004aed0       ?get_CertValidationTransactionId@CSignature@@UAGJPAPAG@Z 1004bed0 f   Signature.obj
 0001:0004af40       ?put_CertValidationTransactionId@CSignature@@UAGJPAG@Z 1004bf40 f   Signature.obj
 0001:0004b060       ?get_IgnoreIncompleteSignature@CSignature@@UAGJPAH@Z 1004c060 f   Signature.obj
 0001:0004b080       ?put_IgnoreIncompleteSignature@CSignature@@UAGJH@Z 1004c080 f   Signature.obj
 0001:0004b0a0       ?get_SignatureIndexToVerify@CSignature@@UAGJPAJ@Z 1004c0a0 f   Signature.obj
 0001:0004b0c0       ?put_SignatureIndexToVerify@CSignature@@UAGJJ@Z 1004c0c0 f   Signature.obj
 0001:0004b0e0       ?get_UseOcsp@CSignature@@UAGJPAH@Z 1004c0e0 f   Signature.obj
 0001:0004b100       ?put_UseOcsp@CSignature@@UAGJH@Z 1004c100 f   Signature.obj
 0001:0004b330       ?get_OcspTrustedRespSignerCertPath@CSignature@@UAGJPAPAG@Z 1004c330 f   Signature.obj
 0001:0004b360       ?put_OcspTrustedRespSignerCertPath@CSignature@@UAGJPAG@Z 1004c360 f   Signature.obj
 0001:0004b390       ?get_OcspReqSignerPFXCertPath@CSignature@@UAGJPAPAG@Z 1004c390 f   Signature.obj
 0001:0004b3c0       ?put_OcspReqSignerPFXCertPath@CSignature@@UAGJPAG@Z 1004c3c0 f   Signature.obj
 0001:0004b490       ?get_OcspReqSignerPFXCertPassword@CSignature@@UAGJPAPAG@Z 1004c490 f   Signature.obj
 0001:0004b4c0       ?put_OcspReqSignerPFXCertPassword@CSignature@@UAGJPAG@Z 1004c4c0 f   Signature.obj
 0001:0004b4f0       ?get_OcspResponderURL@CSignature@@UAGJPAPAG@Z 1004c4f0 f   Signature.obj
 0001:0004b520       ?put_OcspResponderURL@CSignature@@UAGJPAG@Z 1004c520 f   Signature.obj
 0001:0004b550       ?get_OcspTextResponse@CSignature@@UAGJPAPAG@Z 1004c550 f   Signature.obj
 0001:0004b580       ?get_OcspB64Response@CSignature@@UAGJPAPAG@Z 1004c580 f   Signature.obj
 0001:0004b5b0       ?get_CertRevocationDate@CSignature@@UAGJPAPAG@Z 1004c5b0 f   Signature.obj
 0001:0004b5e0       ?get_IncludeOcspResponse@CSignature@@UAGJPAJ@Z 1004c5e0 f   Signature.obj
 0001:0004b600       ?put_IncludeOcspResponse@CSignature@@UAGJJ@Z 1004c600 f   Signature.obj
 0001:0004b620       ?ShowFileSignature@CSignature@@QAEJPAD0HPAUtagRECT@@0@Z 1004c620 f   Signature.obj
 0001:0004b830       ?CaptureCurrentWindowImage@CSignature@@QAEHPAD0@Z 1004c830 f   Signature.obj
 0001:0004ba10       ?put_ProxyHost@CSignature@@UAGJPAG@Z 1004ca10 f   Signature.obj
 0001:0004ba40       ?put_ProxyPort@CSignature@@UAGJG@Z 1004ca40 f   Signature.obj
 0001:0004ba60       ?put_ProxyUserName@CSignature@@UAGJPAG@Z 1004ca60 f   Signature.obj
 0001:0004ba90       ?put_ProxyPassword@CSignature@@UAGJPAG@Z 1004ca90 f   Signature.obj
 0001:0004bac0       ?put_InclusiveNamespacePrefixList@CSignature@@UAGJUtagVARIANT@@@Z 1004cac0 f   Signature.obj
 0001:0004bd50       ?PrepareSignatureEnvelopeFromObjects@CSignature@@QAEPAU_xmlDoc@@PADPAPAU_xmlNode@@1@Z 1004cd50 f   Signature.obj
 0001:0004c670       ?createSgts@CSignature@@QAEPAGXZ 1004d670 f   Signature.obj
 0001:0004d050       ?get_TimeStampFormat@CSignature@@UAGJPAJ@Z 1004e050 f   Signature.obj
 0001:0004d070       ?put_TimeStampFormat@CSignature@@UAGJJ@Z 1004e070 f   Signature.obj
 0001:0004d090       ?get_TimeStampCritical@CSignature@@UAGJPAJ@Z 1004e090 f   Signature.obj
 0001:0004d0b0       ?put_TimeStampCritical@CSignature@@UAGJJ@Z 1004e0b0 f   Signature.obj
 0001:0004dfa0       ?setConfigFile@CConfig@@QAEXPAD@Z 1004efa0 f i Signature.obj
 0001:0004dff0       ??0CConfig@@QAE@XZ         1004eff0 f i Signature.obj
 0001:0004e020       ??4CComBSTR@ATL@@QAEAAV01@PBD@Z 1004f020 f i Signature.obj
 0001:0004e090       ?SetResourceInstance@CComModule@ATL@@QAEPAUHINSTANCE__@@PAU3@@Z 1004f090 f i Signature.obj
 0001:0004e0c0       ?SetResourceInstance@CAtlBaseModule@ATL@@QAEPAUHINSTANCE__@@PAU3@@Z 1004f0c0 f i Signature.obj
 0001:0004e0f0       ?GetResourceInstance@CComModule@ATL@@QAEPAUHINSTANCE__@@XZ 1004f0f0 f i Signature.obj
 0001:0004e110       ?setLicenseFile@CLicense@@QAEXPAD@Z 1004f110 f i Signature.obj
 0001:0004e130       ??0_bstr_t@@QAE@PBD@Z      1004f130 f i Signature.obj
 0001:0004e1e0       ??1_bstr_t@@QAE@XZ         1004f1e0 f i Signature.obj
 0001:0004e210       ?_Free@_bstr_t@@AAEXXZ     1004f210 f i Signature.obj
 0001:0004e250       ??0Data_t@_bstr_t@@QAE@PBD@Z 1004f250 f i Signature.obj
 0001:0004e2a0       ?Release@Data_t@_bstr_t@@QAEKXZ 1004f2a0 f i Signature.obj
 0001:0004e320       ??2Data_t@_bstr_t@@SAPAXI@Z 1004f320 f i Signature.obj
 0001:0004e320       ??$_Allocate@D@std@@YAPADIPAD@Z 1004f320 f i CertVerify.obj
 0001:0004e340       ??_GData_t@_bstr_t@@AAEPAXI@Z 1004f340 f i Signature.obj
 0001:0004e380       ??1Data_t@_bstr_t@@AAE@XZ  1004f380 f i Signature.obj
 0001:0004e3b0       ?_Free@Data_t@_bstr_t@@AAEXXZ 1004f3b0 f i Signature.obj
 0001:0004e420       ??0SigException@@QAE@PAD@Z 1004f420 f i Signature.obj
 0001:0004e460       ?what@SigException@@UBEPBDXZ 1004f460 f i Signature.obj
 0001:0004e480       ??_ESigException@@UAEPAXI@Z 1004f480 f i Signature.obj
 0001:0004e480       ??_GSigException@@UAEPAXI@Z 1004f480 f i Signature.obj
 0001:0004e4c0       ??1SigException@@UAE@XZ    1004f4c0 f i Signature.obj
 0001:0004e4f0       ??4CConfig@@QAEAAV0@ABV0@@Z 1004f4f0 f i Signature.obj
 0001:0004e530       ??0SigException@@QAE@ABV0@@Z 1004f530 f i Signature.obj
 0001:0004e580       ?Empty@CComBSTR@ATL@@QAEXXZ 1004f580 f i Signature.obj
 0001:0004e5c0       ??_G?$list@PAUTempFilePathInfo@@V?$allocator@PAUTempFilePathInfo@@@std@@@std@@QAEPAXI@Z 1004f5c0 f i Signature.obj
 0001:0004e5c0       ??_G?$list@PAEV?$allocator@PAE@std@@@std@@QAEPAXI@Z 1004f5c0 f i CertVerify.obj
 0001:0004e600       ??_GCSignature@@QAEPAXI@Z  1004f600 f i Signature.obj
 0001:0004e640       ?Copy@CComBSTR@ATL@@QBEPAGXZ 1004f640 f i Signature.obj
 0001:0004e6a0       ?getSignAllowed@CLicense@@QAEHXZ 1004f6a0 f i Signature.obj
 0001:0004e6e0       ?checkLicense@CLicense@@QAEHXZ 1004f6e0 f i Signature.obj
 0001:0004e720       ??B_bstr_t@@QBEPAGXZ       1004f720 f i Signature.obj
 0001:0004e720       ??B_bstr_t@@QBEPBGXZ       1004f720 f i Signature.obj
 0001:0004e770       ??B_bstr_t@@QBEPADXZ       1004f770 f i Signature.obj
 0001:0004e7c0       ?GetString@Data_t@_bstr_t@@QBEPBDXZ 1004f7c0 f i Signature.obj
 0001:0004e800       ??0_variant_t@@QAE@_N@Z    1004f800 f i Signature.obj
 0001:0004e830       ??1_variant_t@@QAE@XZ      1004f830 f i Signature.obj
 0001:0004e870       ?CheckError@_com_util@@YAXJ@Z 1004f870 f i Signature.obj
 0001:0004e890       ??0_bstr_t@@QAE@ABV_variant_t@@@Z 1004f890 f i Signature.obj
 0001:0004e970       ??4_bstr_t@@QAEAAV0@PBG@Z  1004f970 f i Signature.obj
 0001:0004ea50       ??0Data_t@_bstr_t@@QAE@PBG@Z 1004fa50 f i Signature.obj
 0001:0004eac0       ?ChangeType@_variant_t@@QAEXGPBV1@@Z 1004fac0 f i Signature.obj
 0001:0004eb30       ?ExportNetscapeCert@ICertStore@NetscapeCert@@QAE?AV_bstr_t@@V3@@Z 1004fb30 f i Signature.obj
 0001:0004ec30       ??0_bstr_t@@QAE@PAG_N@Z    1004fc30 f i Signature.obj
 0001:0004ece0       ??0Data_t@_bstr_t@@QAE@PAG_N@Z 1004fce0 f i Signature.obj
 0001:0004ed70       ?getVerifyAllowed@CLicense@@QAEHXZ 1004fd70 f i Signature.obj
 0001:0004edb0       ?getEncryptAllowed@CLicense@@QAEHXZ 1004fdb0 f i Signature.obj
 0001:0004edf0       ?getDecryptAllowed@CLicense@@QAEHXZ 1004fdf0 f i Signature.obj
 0001:0004ee30       ?getSecureSignAllowed@CLicense@@QAEHXZ 1004fe30 f i Signature.obj
 0001:0004ee70       ?getSecureSignProfessionalAllowed@CLicense@@QAEHXZ 1004fe70 f i Signature.obj
 0001:0004eeb0       ?getSecureSignEnterpriseAllowed@CLicense@@QAEHXZ 1004feb0 f i Signature.obj
 0001:0004eef0       ?getSecureSignServerAllowed@CLicense@@QBEHXZ 1004fef0 f i Signature.obj
 0001:0004ef10       ?endl@std@@YAAAV?$basic_ostream@DU?$char_traits@D@std@@@1@AAV21@@Z 1004ff10 f i Signature.obj
 0001:0004ef40       ??_D?$basic_ofstream@DU?$char_traits@D@std@@@std@@QAEXXZ 1004ff40 f i Signature.obj
 0001:0004ef80       ??0CComBSTR@ATL@@QAE@PBD@Z 1004ff80 f i Signature.obj
 0001:0004efe0       ?selectCertificate@CShowSelectCert@@QAEPADXZ 1004ffe0 f i Signature.obj
 0001:0004f160       ??0_bstr_t@@QAE@PBG@Z      10050160 f i Signature.obj
 0001:0004f210       ?MessageBoxA@CWindow@ATL@@QAEHPBD0I@Z 10050210 f i Signature.obj
 0001:0004f290       ?SwapUnicodeBytes@CSignature@@SAHPAUSECItemStr@@@Z 10050290 f i Signature.obj
 0001:0004f330       ??0NtpServerResponse@@QAE@XZ 10050330 f i Signature.obj
 0001:0004f380       ?CaptureMouseSignature@ICaptureImage@SigWinImage@@QAE?AV_bstr_t@@V3@@Z 10050380 f i Signature.obj
 0001:0004f480       ?GetIDispatchProperty@CSignature@@QAE_NQAUIDispatch@@PBDAAVCComVariant@ATL@@@Z 10050480 f i Signature.obj
 0001:0004f6c0       ??0CComVariant@ATL@@QAE@ABUtagVARIANT@@@Z 100506c0 f i Signature.obj
 0001:0004f700       ??4CComVariant@ATL@@QAEAAV01@ABV01@@Z 10050700 f i Signature.obj
 0001:0004f730       ?InternalCopy@CComVariant@ATL@@QAEXPBUtagVARIANT@@@Z 10050730 f i Signature.obj
 0001:0004f780       ?Copy@CComVariant@ATL@@QAEJPBUtagVARIANT@@@Z 10050780 f i Signature.obj
 0001:0004f7c0       ?ANSIToUnicode@CSignature@@QAEPAGPBD@Z 100507c0 f i Signature.obj
 0001:0004f850       ?verify@IOcspClient@ocspAX@@QAEGV_bstr_t@@@Z 10050850 f i Signature.obj
 0001:0004f940       ?GetTextResponse@IOcspClient@ocspAX@@QAE?AV_bstr_t@@XZ 10050940 f i Signature.obj
 0001:0004fa00       ?GetBase64Response@IOcspClient@ocspAX@@QAE?AV_bstr_t@@XZ 10050a00 f i Signature.obj
 0001:0004fac0       ?GetRevocationTime@IOcspClient@ocspAX@@QAE?AV_bstr_t@@XZ 10050ac0 f i Signature.obj
 0001:0004fb80       ?GetRevocationReason@IOcspClient@ocspAX@@QAE?AV_bstr_t@@XZ 10050b80 f i Signature.obj
 0001:0004fc40       ?GetOcspNonce@IOcspClient@ocspAX@@QAE?AV_bstr_t@@XZ 10050c40 f i Signature.obj
 0001:0004fd00       ?PutOcspNonce@IOcspClient@ocspAX@@QAEXV_bstr_t@@@Z 10050d00 f i Signature.obj
 0001:0004fda0       ?PutResponderCAFileName@IOcspClient@ocspAX@@QAEXV_bstr_t@@@Z 10050da0 f i Signature.obj
 0001:0004fe40       ?PutCheckCertificate@IOcspClient@ocspAX@@QAEXV_bstr_t@@@Z 10050e40 f i Signature.obj
 0001:0004fee0       ?PutIssuerCertificate@IOcspClient@ocspAX@@QAEXV_bstr_t@@@Z 10050ee0 f i Signature.obj
 0001:0004ff80       ?PutSignerPFXCertificate@IOcspClient@ocspAX@@QAEXV_bstr_t@@@Z 10050f80 f i Signature.obj
 0001:00050020       ?PutSignerPFXPassword@IOcspClient@ocspAX@@QAEXV_bstr_t@@@Z 10051020 f i Signature.obj
 0001:000500c0       ?GetresponderUrl@IOcspClient@ocspAX@@QAE?AV_bstr_t@@XZ 100510c0 f i Signature.obj
 0001:00050180       ?PutproxyHost@IOcspClient@ocspAX@@QAEXV_bstr_t@@@Z 10051180 f i Signature.obj
 0001:00050220       ?PutproxyPort@IOcspClient@ocspAX@@QAEXG@Z 10051220 f i Signature.obj
 0001:00050280       ?PutproxyUsername@IOcspClient@ocspAX@@QAEXV_bstr_t@@@Z 10051280 f i Signature.obj
 0001:00050320       ?PutproxyPassword@IOcspClient@ocspAX@@QAEXV_bstr_t@@@Z 10051320 f i Signature.obj
 0001:000503c0       ?GetCertificateList@ICertStore@NetscapeCert@@QAEPADPAK@Z 100513c0 f i Signature.obj
 0001:00050460       ?PutNetscapeStorePassword@ICertStore@NetscapeCert@@QAEXV_bstr_t@@@Z 10051460 f i Signature.obj
 0001:00050500       ?CovertToPFX@IPemObject@PemUtil@@QAE?AV_bstr_t@@V3@0@Z 10051500 f i Signature.obj
 0001:00050610       ??0CBufferVariant@@QAE@XZ  10051610 f i Signature.obj
 0001:00050660       ??_GCBufferVariant@@UAEPAXI@Z 10051660 f i Signature.obj
 0001:00050660       ??_ECBufferVariant@@UAEPAXI@Z 10051660 f i Signature.obj
 0001:000506a0       ??1CBufferVariant@@UAE@XZ  100516a0 f i Signature.obj
 0001:00050700       ??BCBufferVariant@@QBEPBXXZ 10051700 f i Signature.obj
 0001:00050700       ??BCBufferVariant@@QBEPADXZ 10051700 f i Signature.obj
 0001:00050700       ??BCBufferVariant@@QBEPAXXZ 10051700 f i Signature.obj
 0001:00050700       ??BCBufferVariant@@QBEPAEXZ 10051700 f i Signature.obj
 0001:00050700       ?rdbuf@?$basic_ios@DU?$char_traits@D@std@@@std@@QBEPAV?$basic_streambuf@DU?$char_traits@D@std@@@2@XZ 10051700 f i Signature.obj
 0001:00050700       ??BCBufferVariant@@QBEPBEXZ 10051700 f i Signature.obj
 0001:00050720       ??4CBufferVariant@@QAEAAV0@ABUtagVARIANT@@@Z 10051720 f i Signature.obj
 0001:00050750       ?AssignData@CBufferVariant@@QAEXPBXJ@Z 10051750 f i Signature.obj
 0001:00050780       ?SetLength@CBufferVariant@@QAEXJ@Z 10051780 f i Signature.obj
 0001:00050880       ?Copy@CBufferVariant@@QAE?AUtagVARIANT@@XZ 10051880 f i Signature.obj
 0001:00050930       ?MyVariantCopy@CBufferVariant@@QAEXPAUtagVARIANT@@0@Z 10051930 f i Signature.obj
 0001:000509b0       ?GetLength@CBufferVariant@@QAEJXZ 100519b0 f i Signature.obj
 0001:00050a80       ?BuildByteArrayFromVariant@CBufferVariant@@AAEXPBUtagVARIANT@@@Z 10051a80 f i Signature.obj
 0001:00050bf0       ?BuildByteArrayFromData@CBufferVariant@@AAEXPBXJ@Z 10051bf0 f i Signature.obj
 0001:00050c40       ??4CBufferVariant@@QAEAAV0@PBD@Z 10051c40 f i Signature.obj
 0001:00050c80       ?getLicensedUserCount@CLicense@@QBEHXZ 10051c80 f i Signature.obj
 0001:00050ca0       ?PutPhysicalSignatureFile@ICaptureImage@SigWinImage@@QAEXV_bstr_t@@@Z 10051ca0 f i Signature.obj
 0001:00050d40       ?ShowFileSignature@ICaptureImage@SigWinImage@@QAE?AV_bstr_t@@V3@@Z 10051d40 f i Signature.obj
 0001:00050e40       ?CaptureCurrentWindowImage@ICaptureImage@SigWinImage@@QAE?AV_bstr_t@@XZ 10051e40 f i Signature.obj
 0001:00050f00       ?getMaintExpiryYear@CLicense@@QBEHXZ 10051f00 f i Signature.obj
 0001:00050f20       ?getMaintExpiryMonth@CLicense@@QBEHXZ 10051f20 f i Signature.obj
 0001:00050f40       ?getMaintExpiryDay@CLicense@@QBEHXZ 10051f40 f i Signature.obj
 0001:00050f60       ?isClientLinux@CLicense@@QBEHXZ 10051f60 f i Signature.obj
 0001:00050f80       ?isClientWindows@CLicense@@QBEHXZ 10051f80 f i Signature.obj
 0001:00050fa0       ?isClientSolaris@CLicense@@QBEHXZ 10051fa0 f i Signature.obj
 0001:00050fc0       ?isClientMac@CLicense@@QBEHXZ 10051fc0 f i Signature.obj
 0001:00050fe0       ??0?$CStringT@DV?$StrTraitATL@DV?$ChTraitsCRT@D@ATL@@@ATL@@@ATL@@QAE@XZ 10051fe0 f i Signature.obj
 0001:00051010       ??1?$CStringT@DV?$StrTraitATL@DV?$ChTraitsCRT@D@ATL@@@ATL@@@ATL@@QAE@XZ 10052010 f i Signature.obj
 0001:00051040       ?Format@?$CStringT@DV?$StrTraitATL@DV?$ChTraitsCRT@D@ATL@@@ATL@@@ATL@@QAAXPBDZZ 10052040 f i Signature.obj
 0001:000510b0       ?AtlIsValidString@ATL@@YAHPBDI@Z 100520b0 f i Signature.obj
 0001:000510f0       ??4?$basic_string@DU?$char_traits@D@std@@V?$allocator@D@2@@std@@QAEAAV01@ABV01@@Z 100520f0 f i Signature.obj
 0001:00051120       ??Y?$basic_string@DU?$char_traits@D@std@@V?$allocator@D@2@@std@@QAEAAV01@PBD@Z 10052120 f i Signature.obj
 0001:00051150       ?rfind@?$basic_string@DU?$char_traits@D@std@@V?$allocator@D@2@@std@@QBEIDI@Z 10052150 f i Signature.obj
 0001:00051180       ?substr@?$basic_string@DU?$char_traits@D@std@@V?$allocator@D@2@@std@@QBE?AV12@II@Z 10052180 f i Signature.obj
 0001:000511d0       ?compare@?$basic_string@DU?$char_traits@D@std@@V?$allocator@D@2@@std@@QBEHPBD@Z 100521d0 f i Signature.obj
 0001:00051210       ??6?$basic_ostream@DU?$char_traits@D@std@@@std@@QAEAAV01@P6AAAV01@AAV01@@Z@Z 10052210 f i Signature.obj
 0001:00051250       ?put@?$basic_ostream@DU?$char_traits@D@std@@@std@@QAEAAV12@D@Z 10052250 f i Signature.obj
 0001:000513c0       ?eq_int_type@?$char_traits@D@std@@SA_NABH0@Z 100523c0 f i Signature.obj
 0001:000513e0       ?flush@?$basic_ostream@DU?$char_traits@D@std@@@std@@QAEAAV12@XZ 100523e0 f i Signature.obj
 0001:00051470       ?fail@ios_base@std@@QBE_NXZ 10052470 f i Signature.obj
 0001:000514a0       ??1?$basic_ios@DU?$char_traits@D@std@@@std@@UAE@XZ 100524a0 f i Signature.obj
 0001:000514d0       ?setstate@?$basic_ios@DU?$char_traits@D@std@@@std@@QAEXH_N@Z 100524d0 f i Signature.obj
 0001:00051510       ?DoModal@?$CAxDialogImpl@VCShowSelectCert@@VCWindow@ATL@@@ATL@@QAEHPAUHWND__@@J@Z 10052510 f i Signature.obj
 0001:000515a0       _AtlAxDialogBoxA@20        100525a0 f i Signature.obj
 0001:000515d0       ??0?$list@PAUTempFilePathInfo@@V?$allocator@PAUTempFilePathInfo@@@std@@@std@@QAE@XZ 100525d0 f i Signature.obj
 0001:00051620       ??1?$list@PAEV?$allocator@PAE@std@@@std@@QAE@XZ 10052620 f i CertVerify.obj
 0001:00051620       ??1?$list@PAUTempFilePathInfo@@V?$allocator@PAUTempFilePathInfo@@@std@@@std@@QAE@XZ 10052620 f i Signature.obj
 0001:00051650       ?insert@?$list@PAUTempFilePathInfo@@V?$allocator@PAUTempFilePathInfo@@@std@@@std@@QAE?AViterator@12@V312@ABQAUTempFilePathInfo@@@Z 10052650 f i Signature.obj
 0001:00051690       ??Diterator@?$list@PAEV?$allocator@PAE@std@@@std@@QBEAAPAEXZ 10052690 f i CertVerify.obj
 0001:00051690       ??Diterator@?$list@PAUTempFilePathInfo@@V?$allocator@PAUTempFilePathInfo@@@std@@@std@@QBEAAPAUTempFilePathInfo@@XZ 10052690 f i Signature.obj
 0001:00051690       ??Diterator@?$list@PAUAllocInfo@@V?$allocator@PAUAllocInfo@@@std@@@std@@QBEAAPAUAllocInfo@@XZ 10052690 f i xmlsigd_nss:DebugLog.obj
 0001:000516c0       ??Eiterator@?$list@PAUAllocInfo@@V?$allocator@PAUAllocInfo@@@std@@@std@@QAE?AV012@H@Z 100526c0 f i xmlsigd_nss:DebugLog.obj
 0001:000516c0       ??Eiterator@?$list@PAUTempFilePathInfo@@V?$allocator@PAUTempFilePathInfo@@@std@@@std@@QAE?AV012@H@Z 100526c0 f i Signature.obj
 0001:00051730       ??0?$basic_ofstream@DU?$char_traits@D@std@@@std@@QAE@XZ 10052730 f i Signature.obj
 0001:000517f0       ??1?$basic_ostream@DU?$char_traits@D@std@@@std@@UAE@XZ 100527f0 f i Signature.obj
 0001:00051820       ??0?$basic_ofstream@DU?$char_traits@D@std@@@std@@QAE@PBDHH@Z 10052820 f i Signature.obj
 0001:00051910       ??1?$basic_ofstream@DU?$char_traits@D@std@@@std@@UAE@XZ 10052910 f i Signature.obj
 0001:00051990       ?open@?$basic_ofstream@DU?$char_traits@D@std@@@std@@QAEXPBDHH@Z 10052990 f i Signature.obj
 0001:000519f0       ?close@?$basic_ofstream@DU?$char_traits@D@std@@@std@@QAEXXZ 100529f0 f i Signature.obj
 0001:00051a40       ??1?$basic_filebuf@DU?$char_traits@D@std@@@std@@UAE@XZ 10052a40 f i Signature.obj
 0001:00051ac0       ??1?$basic_streambuf@DU?$char_traits@D@std@@@std@@UAE@XZ 10052ac0 f i Signature.obj
 0001:00051b30       ?overflow@?$basic_streambuf@DU?$char_traits@D@std@@@std@@MAEHH@Z 10052b30 f i Signature.obj
 0001:00051b30       ?pbackfail@?$basic_streambuf@DU?$char_traits@D@std@@@std@@MAEHH@Z 10052b30 f i Signature.obj
 0001:00051b60       ?underflow@?$basic_streambuf@DU?$char_traits@D@std@@@std@@MAEHXZ 10052b60 f i Signature.obj
 0001:00051b90       ?uflow@?$basic_streambuf@DU?$char_traits@D@std@@@std@@MAEHXZ 10052b90 f i Signature.obj
 0001:00051c20       ?to_int_type@?$char_traits@D@std@@SAHABD@Z 10052c20 f i Signature.obj
 0001:00051c30       ?xsgetn@?$basic_streambuf@DU?$char_traits@D@std@@@std@@MAEHPADH@Z 10052c30 f i Signature.obj
 0001:00051d90       ?to_char_type@?$char_traits@D@std@@SADABH@Z 10052d90 f i Signature.obj
 0001:00051da0       ?xsputn@?$basic_streambuf@DU?$char_traits@D@std@@@std@@MAEHPBDH@Z 10052da0 f i Signature.obj
 0001:00051ed0       ?seekoff@?$basic_streambuf@DU?$char_traits@D@std@@@std@@MAE?AV?$fpos@H@2@JHH@Z 10052ed0 f i Signature.obj
 0001:00051f00       ?seekpos@?$basic_streambuf@DU?$char_traits@D@std@@@std@@MAE?AV?$fpos@H@2@V32@H@Z 10052f00 f i Signature.obj
 0001:00051f30       ?setbuf@?$basic_streambuf@DU?$char_traits@D@std@@@std@@MAEPAV12@PADH@Z 10052f30 f i Signature.obj
 0001:00051f50       ?overflow@?$basic_filebuf@DU?$char_traits@D@std@@@std@@MAEHH@Z 10052f50 f i Signature.obj
 0001:000522e0       ?not_eof@?$char_traits@D@std@@SAHABH@Z 100532e0 f i Signature.obj
 0001:00052320       ??$_Fputc@D@std@@YA_NDPAU_iobuf@@@Z 10053320 f i Signature.obj
 0001:00052350       ?pbackfail@?$basic_filebuf@DU?$char_traits@D@std@@@std@@MAEHH@Z 10053350 f i Signature.obj
 0001:000524c0       ??$_Ungetc@D@std@@YA_NABDPAU_iobuf@@@Z 100534c0 f i Signature.obj
 0001:000524f0       ?underflow@?$basic_filebuf@DU?$char_traits@D@std@@@std@@MAEHXZ 100534f0 f i Signature.obj
 0001:000525e0       ?uflow@?$basic_filebuf@DU?$char_traits@D@std@@@std@@MAEHXZ 100535e0 f i Signature.obj
 0001:000528c0       ??$_Fgetc@D@std@@YA_NAADPAU_iobuf@@@Z 100538c0 f i Signature.obj
 0001:00052900       ?seekoff@?$basic_filebuf@DU?$char_traits@D@std@@@std@@MAE?AV?$fpos@H@2@JHH@Z 10053900 f i Signature.obj
 0001:00052ac0       ?seekpos@?$basic_filebuf@DU?$char_traits@D@std@@@std@@MAE?AV?$fpos@H@2@V32@H@Z 10053ac0 f i Signature.obj
 0001:00052c30       ?setbuf@?$basic_filebuf@DU?$char_traits@D@std@@@std@@MAEPAV?$basic_streambuf@DU?$char_traits@D@std@@@2@PADH@Z 10053c30 f i Signature.obj
 0001:00052cc0       ?sync@?$basic_filebuf@DU?$char_traits@D@std@@@std@@MAEHXZ 10053cc0 f i Signature.obj
 0001:00052d60       ?imbue@?$basic_filebuf@DU?$char_traits@D@std@@@std@@MAEXABVlocale@2@@Z 10053d60 f i Signature.obj
 0001:00052da0       ??_G?$basic_ostream@DU?$char_traits@D@std@@@std@@UAEPAXI@Z 10053da0 f i Signature.obj
 0001:00052da0       ??_E?$basic_ostream@DU?$char_traits@D@std@@@std@@UAEPAXI@Z 10053da0 f i Signature.obj
 0001:00052df0       ??_E?$basic_ios@DU?$char_traits@D@std@@@std@@UAEPAXI@Z 10053df0 f i Signature.obj
 0001:00052df0       ??_G?$basic_ios@DU?$char_traits@D@std@@@std@@UAEPAXI@Z 10053df0 f i Signature.obj
 0001:00052e30       ??_G?$basic_streambuf@DU?$char_traits@D@std@@@std@@UAEPAXI@Z 10053e30 f i Signature.obj
 0001:00052e30       ??_E?$basic_streambuf@DU?$char_traits@D@std@@@std@@UAEPAXI@Z 10053e30 f i Signature.obj
 0001:00052e70       ??_E?$basic_ofstream@DU?$char_traits@D@std@@@std@@UAEPAXI@Z 10053e70 f i Signature.obj
 0001:00052e70       ??_G?$basic_ofstream@DU?$char_traits@D@std@@@std@@UAEPAXI@Z 10053e70 f i Signature.obj
 0001:00052ec0       ??_E?$basic_filebuf@DU?$char_traits@D@std@@@std@@UAEPAXI@Z 10053ec0 f i Signature.obj
 0001:00052ec0       ??_G?$basic_filebuf@DU?$char_traits@D@std@@@std@@UAEPAXI@Z 10053ec0 f i Signature.obj
 0001:00052f00       ??_D?$basic_ostream@DU?$char_traits@D@std@@@std@@QAEXXZ 10053f00 f i Signature.obj
 0001:00052f40       ??0?$CSimpleStringT@D$0A@@ATL@@QAE@PAUIAtlStringMgr@1@@Z 10053f40 f i Signature.obj
 0001:00052fc0       ??1?$CSimpleStringT@D$0A@@ATL@@QAE@XZ 10053fc0 f i Signature.obj
 0001:00053000       ?Release@CStringData@ATL@@QAEXXZ 10054000 f i Signature.obj
 0001:00053080       ?FormatV@?$CStringT@DV?$StrTraitATL@DV?$ChTraitsCRT@D@ATL@@@ATL@@@ATL@@QAEXPBDPAD@Z 10054080 f i Signature.obj
 0001:00053140       ?GetDefaultManager@?$StrTraitATL@DV?$ChTraitsCRT@D@ATL@@@ATL@@SAPAUIAtlStringMgr@2@XZ 10054140 f i Signature.obj
 0001:00053150       ??0?$basic_string@DU?$char_traits@D@std@@V?$allocator@D@2@@std@@QAE@ABV01@II@Z 10054150 f i Signature.obj
 0001:000531b0       ??0?$basic_string@DU?$char_traits@D@std@@V?$allocator@D@2@@std@@QAE@ID@Z 100541b0 f i Signature.obj
 0001:00053210       ?append@?$basic_string@DU?$char_traits@D@std@@V?$allocator@D@2@@std@@QAEAAV12@PBD@Z 10054210 f i Signature.obj
 0001:00053250       ?append@?$basic_string@DU?$char_traits@D@std@@V?$allocator@D@2@@std@@QAEAAV12@ID@Z 10054250 f i Signature.obj
 0001:000532f0       ?assign@?$char_traits@D@std@@SAPADPADID@Z 100542f0 f i Signature.obj
 0001:00053320       ?assign@?$basic_string@DU?$char_traits@D@std@@V?$allocator@D@2@@std@@QAEAAV12@ABV12@@Z 10054320 f i Signature.obj
 0001:00053360       ?rfind@?$basic_string@DU?$char_traits@D@std@@V?$allocator@D@2@@std@@QBEIPBDII@Z 10054360 f i Signature.obj
 0001:00053460       ?eq@?$char_traits@D@std@@SA_NABD0@Z 10054460 f i Signature.obj
 0001:00053480       ?append@?$basic_string@DU?$char_traits@D@std@@V?$_DebugHeapAllocator@D@2@@std@@QAEAAV12@ID@Z 10054480 f i Signature.obj
 0001:00053520       ?erase@?$basic_string@DU?$char_traits@D@std@@V?$_DebugHeapAllocator@D@2@@std@@QAEAAV12@II@Z 10054520 f i Signature.obj
 0001:00053520       ?erase@?$basic_string@DU?$char_traits@D@std@@V?$allocator@D@2@@std@@QAEAAV12@II@Z 10054520 f i CertVerify.obj
 0001:000535d0       ?begin@?$basic_string@DU?$char_traits@D@std@@V?$_DebugHeapAllocator@D@2@@std@@QAE?AViterator@12@XZ 100545d0 f i Signature.obj
 0001:000535d0       ?begin@?$basic_string@DU?$char_traits@D@std@@V?$allocator@D@2@@std@@QAE?AViterator@12@XZ 100545d0 f i Signature.obj
 0001:00053610       ??A?$basic_string@DU?$char_traits@D@std@@V?$_DebugHeapAllocator@D@2@@std@@QAEAADI@Z 10054610 f i Signature.obj
 0001:00053640       ??0?$basic_ostream@DU?$char_traits@D@std@@@std@@QAE@PAV?$basic_streambuf@DU?$char_traits@D@std@@@1@_N@Z 10054640 f i Signature.obj
 0001:000536f0       ?clear@?$basic_ios@DU?$char_traits@D@std@@@std@@QAEXH_N@Z 100546f0 f i Signature.obj
 0001:00053750       ??0?$basic_ios@DU?$char_traits@D@std@@@std@@IAE@XZ 10054750 f i Signature.obj
 0001:00053780       ??0ios_base@std@@IAE@XZ    10054780 f i Signature.obj
 0001:000537a0       ??_Gios_base@std@@UAEPAXI@Z 100547a0 f i Signature.obj
 0001:000537a0       ??_Eios_base@std@@UAEPAXI@Z 100547a0 f i Signature.obj
 0001:000537e0       ?GetBuffer@?$CSimpleStringT@D$0A@@ATL@@QAEPADH@Z 100547e0 f i Signature.obj
 0001:00053810       ?pubsync@?$basic_streambuf@DU?$char_traits@D@std@@@std@@QAEHXZ 10054810 f i Signature.obj
 0001:00053850       ?sputc@?$basic_streambuf@DU?$char_traits@D@std@@@std@@QAEHD@Z 10054850 f i Signature.obj
 0001:000538f0       ?eback@?$basic_streambuf@DU?$char_traits@D@std@@@std@@IBEPADXZ 100548f0 f i Signature.obj
 0001:00053910       ?gptr@?$basic_streambuf@DU?$char_traits@D@std@@@std@@IBEPADXZ 10054910 f i Signature.obj
 0001:00053930       ?pptr@?$basic_streambuf@DU?$char_traits@D@std@@@std@@IBEPADXZ 10054930 f i Signature.obj
 0001:00053950       ?egptr@?$basic_streambuf@DU?$char_traits@D@std@@@std@@IBEPADXZ 10054950 f i Signature.obj
 0001:00053980       ?gbump@?$basic_streambuf@DU?$char_traits@D@std@@@std@@IAEXH@Z 10054980 f i Signature.obj
 0001:000539c0       ?setg@?$basic_streambuf@DU?$char_traits@D@std@@@std@@IAEXPAD00@Z 100549c0 f i Signature.obj
 0001:00053a00       ?epptr@?$basic_streambuf@DU?$char_traits@D@std@@@std@@IBEPADXZ 10054a00 f i Signature.obj
 0001:00053a30       ?_Gndec@?$basic_streambuf@DU?$char_traits@D@std@@@std@@IAEPADXZ 10054a30 f i Signature.obj
 0001:00053a70       ?_Gninc@?$basic_streambuf@DU?$char_traits@D@std@@@std@@IAEPADXZ 10054a70 f i Signature.obj
 0001:00053ac0       ?pbump@?$basic_streambuf@DU?$char_traits@D@std@@@std@@IAEXH@Z 10054ac0 f i Signature.obj
 0001:00053b00       ?_Pninc@?$basic_streambuf@DU?$char_traits@D@std@@@std@@IAEPADXZ 10054b00 f i Signature.obj
 0001:00053b50       ?_Insert@?$list@PAUTempFilePathInfo@@V?$allocator@PAUTempFilePathInfo@@@std@@@std@@QAEXViterator@12@ABQAUTempFilePathInfo@@@Z 10054b50 f i Signature.obj
 0001:00053bf0       ?_Buynode@?$list@PAUTempFilePathInfo@@V?$allocator@PAUTempFilePathInfo@@@std@@@std@@IAEPAU_Node@?$_List_nod@PAUTempFilePathInfo@@V?$allocator@PAUTempFilePathInfo@@@std@@@2@XZ 10054bf0 f i Signature.obj
 0001:00053d20       ?_Tidy@?$list@PAUTempFilePathInfo@@V?$allocator@PAUTempFilePathInfo@@@std@@@std@@IAEXXZ 10054d20 f i Signature.obj
 0001:00053d20       ?_Tidy@?$list@PAEV?$allocator@PAE@std@@@std@@IAEXXZ 10054d20 f i CertVerify.obj
 0001:00053da0       ??0?$_List_val@PAEV?$allocator@PAE@std@@@std@@IAE@V?$allocator@PAE@1@@Z 10054da0 f i CertVerify.obj
 0001:00053da0       ??0?$_List_val@PAUTempFilePathInfo@@V?$allocator@PAUTempFilePathInfo@@@std@@@std@@IAE@V?$allocator@PAUTempFilePathInfo@@@1@@Z 10054da0 f i Signature.obj
 0001:00053da0       ??0?$_List_val@PAUAllocInfo@@V?$allocator@PAUAllocInfo@@@std@@@std@@IAE@V?$allocator@PAUAllocInfo@@@1@@Z 10054da0 f i xmlsigd_nss:DebugLog.obj
 0001:00053df0       ?GetCodeAddress@_stdcallthunk@ATL@@QAEPAXXZ 10054df0 f i ShowSelectCert.obj
 0001:00053df0       ??0?$allocator@PAUAllocInfo@@@std@@QAE@XZ 10054df0 f i xmlsigd_nss:DebugLog.obj
 0001:00053df0       ??0CMessageMap@ATL@@QAE@XZ 10054df0 f i ShowSelectCert.obj
 0001:00053df0       ?GetWString@Data_t@_bstr_t@@QAEAAPAGXZ 10054df0 f i Signature.obj
 0001:00053df0       ??0?$allocator@PAUTempFilePathInfo@@@std@@QAE@XZ 10054df0 f i Signature.obj
 0001:00053df0       ??0?$allocator@D@std@@QAE@XZ 10054df0 f i CertVerify.obj
 0001:00053df0       ??ICComBSTR@ATL@@QAEPAPAGXZ 10054df0 f i ShowSelectCert.obj
 0001:00053df0       ??0?$allocator@PAUSECItemStr@@@std@@QAE@XZ 10054df0 f i CertVerify.obj
 0001:00053df0       ??0IUnknown@@QAE@XZ        10054df0 f i ShowSelectCert.obj
 0001:00053df0       ??0?$allocator@PAE@std@@QAE@XZ 10054df0 f i CertVerify.obj
 0001:00053e10       ??Eiterator@?$list@PAUAllocInfo@@V?$allocator@PAUAllocInfo@@@std@@@std@@QAEAAV012@XZ 10054e10 f i xmlsigd_nss:DebugLog.obj
 0001:00053e10       ??Eiterator@?$list@PAUTempFilePathInfo@@V?$allocator@PAUTempFilePathInfo@@@std@@@std@@QAEAAV012@XZ 10054e10 f i Signature.obj
 0001:00053e40       ??Fiterator@?$list@PAUAllocInfo@@V?$allocator@PAUAllocInfo@@@std@@@std@@QAEAAV012@XZ 10054e40 f i xmlsigd_nss:DebugLog.obj
 0001:00053e40       ??Fiterator@?$list@PAUTempFilePathInfo@@V?$allocator@PAUTempFilePathInfo@@@std@@@std@@QAEAAV012@XZ 10054e40 f i Signature.obj
 0001:00053e40       ??Fiterator@?$list@PAEV?$allocator@PAE@std@@@std@@QAEAAV012@XZ 10054e40 f i CertVerify.obj
 0001:00053e70       ??0?$basic_filebuf@DU?$char_traits@D@std@@@std@@QAE@PAU_iobuf@@@Z 10054e70 f i Signature.obj
 0001:00053ef0       ?open@?$basic_filebuf@DU?$char_traits@D@std@@@std@@QAEPAV12@PBDHH@Z 10054ef0 f i Signature.obj
 0001:00053fc0       ??1locale@std@@QAE@XZ      10054fc0 f i Signature.obj
 0001:00054000       ?_Decref@facet@locale@std@@QAEPAV123@XZ 10055000 f i Signature.obj
 0001:000540a0       ?close@?$basic_filebuf@DU?$char_traits@D@std@@@std@@QAEPAV12@XZ 100550a0 f i Signature.obj
 0001:00054100       ?_Endwrite@?$basic_filebuf@DU?$char_traits@D@std@@@std@@IAE_NXZ 10055100 f i Signature.obj
 0001:00054320       ?_Initcvt@?$basic_filebuf@DU?$char_traits@D@std@@@std@@IAEXPAV?$codecvt@DDH@2@@Z 10055320 f i Signature.obj
 0001:00054400       ??0_DebugHeapString@std@@QAE@XZ 10055400 f i Signature.obj
 0001:00054430       ?always_noconv@codecvt_base@std@@QBE_NXZ 10055430 f i Signature.obj
 0001:00054470       ??0?$basic_string@DU?$char_traits@D@std@@V?$_DebugHeapAllocator@D@2@@std@@QAE@XZ 10055470 f i Signature.obj
 0001:000544c0       ?_Tidy@?$basic_string@DU?$char_traits@D@std@@V?$_DebugHeapAllocator@D@2@@std@@IAEX_NI@Z 100554c0 f i Signature.obj
 0001:00054550       ??0?$_String_val@DV?$_DebugHeapAllocator@D@std@@@std@@IAE@V?$_DebugHeapAllocator@D@1@@Z 10055550 f i Signature.obj
 0001:00054580       ??0?$_DebugHeapAllocator@D@std@@QAE@ABV01@@Z 10055580 f i Signature.obj
 0001:000545b0       ??0?$fpos@H@std@@QAE@J@Z   100555b0 f i Signature.obj
 0001:000545f0       ??0?$fpos@H@std@@QAE@H_J@Z 100555f0 f i Signature.obj
 0001:00054630       ?state@?$fpos@H@std@@QBEHXZ 10055630 f i Signature.obj
 0001:00054630       ?flags@ios_base@std@@QBEHXZ 10055630 f i Signature.obj
 0001:00054650       ?seekpos@?$fpos@H@std@@QBE_JXZ 10055650 f i Signature.obj
 0001:00054670       ??B?$fpos@H@std@@QBEJXZ    10055670 f i Signature.obj
 0001:00054690       ??0sentry@?$basic_ostream@DU?$char_traits@D@std@@@std@@QAE@AAV12@@Z 10055690 f i Signature.obj
 0001:00054750       ?good@ios_base@std@@QBE_NXZ 10055750 f i Signature.obj
 0001:00054780       ??1sentry@?$basic_ostream@DU?$char_traits@D@std@@@std@@QAE@XZ 10055780 f i Signature.obj
 0001:000547f0       ??Bsentry@?$basic_ostream@DU?$char_traits@D@std@@@std@@QBE_NXZ 100557f0 f i Signature.obj
 0001:00054810       ?in@?$codecvt@DDH@std@@QBEHAAHPBD1AAPBDPAD3AAPAD@Z 10055810 f i Signature.obj
 0001:00054860       ?out@?$codecvt@DDH@std@@QBEHAAHPBD1AAPBDPAD3AAPAD@Z 10055860 f i Signature.obj
 0001:000548b0       ??Diterator@?$basic_string@DU?$char_traits@D@std@@V?$allocator@D@2@@std@@QBEAADXZ 100558b0 f i Signature.obj
 0001:000548b0       ??Diterator@?$basic_string@DU?$char_traits@D@std@@V?$_DebugHeapAllocator@D@2@@std@@QBEAADXZ 100558b0 f i Signature.obj
 0001:000548b0       ??Diterator@?$vector@PAUSECItemStr@@V?$allocator@PAUSECItemStr@@@std@@@std@@QBEAAPAUSECItemStr@@XZ 100558b0 f i CertVerify.obj
 0001:000548e0       ?ReleaseBufferSetLength@?$CSimpleStringT@D$0A@@ATL@@QAEXH@Z 100558e0 f i Signature.obj
 0001:00054940       ?GetFormattedLength@?$ChTraitsCRT@D@ATL@@SAHPBDPAD@Z 10055940 f i Signature.obj
 0001:00054960       ?Format@?$ChTraitsCRT@D@ATL@@SAHPADPBD0@Z 10055960 f i Signature.obj
 0001:00054980       ?append@?$basic_string@DU?$char_traits@D@std@@V?$allocator@D@2@@std@@QAEAAV12@PBDI@Z 10055980 f i Signature.obj
 0001:00054a50       ?assign@?$basic_string@DU?$char_traits@D@std@@V?$allocator@D@2@@std@@QAEAAV12@ID@Z 10055a50 f i Signature.obj
 0001:00054ac0       ?_Grow@?$basic_string@DU?$char_traits@D@std@@V?$_DebugHeapAllocator@D@2@@std@@IAE_NI_N@Z 10055ac0 f i Signature.obj
 0001:00054b70       ?_Myptr@?$basic_string@DU?$char_traits@D@std@@V?$_DebugHeapAllocator@D@2@@std@@QAEPADXZ 10055b70 f i Signature.obj
 0001:00054b70       ?_Myptr@?$basic_string@DU?$char_traits@D@std@@V?$allocator@D@2@@std@@QBEPBDXZ 10055b70 f i CertVerify.obj
 0001:00054b70       ?_Myptr@?$basic_string@DU?$char_traits@D@std@@V?$allocator@D@2@@std@@QAEPADXZ 10055b70 f i CertVerify.obj
 0001:00054bb0       ?deallocate@?$_DebugHeapAllocator@D@std@@QAEXPADI@Z 10055bb0 f i Signature.obj
 0001:00054be0       ?_Osfx@?$basic_ostream@DU?$char_traits@D@std@@@std@@QAEXXZ 10055be0 f i Signature.obj
 0001:00054c20       ?tie@?$basic_ios@DU?$char_traits@D@std@@@std@@QBEPAV?$basic_ostream@DU?$char_traits@D@std@@@2@XZ 10055c20 f i Signature.obj
 0001:00054c40       ?init@?$basic_ios@DU?$char_traits@D@std@@@std@@IAEXPAV?$basic_streambuf@DU?$char_traits@D@std@@@2@_N@Z 10055c40 f i Signature.obj
 0001:00054cc0       ??0?$basic_streambuf@DU?$char_traits@D@std@@@std@@IAE@XZ 10055cc0 f i Signature.obj
 0001:00054d80       ?getloc@?$basic_streambuf@DU?$char_traits@D@std@@@std@@QBE?AVlocale@2@XZ 10055d80 f i Signature.obj
 0001:00054dd0       ??0locale@std@@QAE@ABV01@@Z 10055dd0 f i Signature.obj
 0001:00054e10       ?_Incref@facet@locale@std@@QAEXXZ 10055e10 f i Signature.obj
 0001:00054e90       ?_Init@?$basic_streambuf@DU?$char_traits@D@std@@@std@@IAEXXZ 10055e90 f i Signature.obj
 0001:00054f10       ?_Prevnode@?$list@PAEV?$allocator@PAE@std@@@std@@KAAAPAU_Node@?$_List_nod@PAEV?$allocator@PAE@std@@@2@PAU342@@Z 10055f10 f i CertVerify.obj
 0001:00054f10       ?_Prevnode@?$list@PAUAllocInfo@@V?$allocator@PAUAllocInfo@@@std@@@std@@KAAAPAU_Node@?$_List_nod@PAUAllocInfo@@V?$allocator@PAUAllocInfo@@@std@@@2@PAU342@@Z 10055f10 f i xmlsigd_nss:DebugLog.obj
 0001:00054f10       ?_Prevnode@?$list@PAUTempFilePathInfo@@V?$allocator@PAUTempFilePathInfo@@@std@@@std@@KAAAPAU_Node@?$_List_nod@PAUTempFilePathInfo@@V?$allocator@PAUTempFilePathInfo@@@std@@@2@PAU342@@Z 10055f10 f i Signature.obj
 0001:00054f20       ?_Myval@?$list@PAUAllocInfo@@V?$allocator@PAUAllocInfo@@@std@@@std@@KAAAPAUAllocInfo@@PAU_Node@?$_List_nod@PAUAllocInfo@@V?$allocator@PAUAllocInfo@@@std@@@2@@Z 10055f20 f i xmlsigd_nss:DebugLog.obj
 0001:00054f20       ?_Myval@?$list@PAUTempFilePathInfo@@V?$allocator@PAUTempFilePathInfo@@@std@@@std@@KAAAPAUTempFilePathInfo@@PAU_Node@?$_List_nod@PAUTempFilePathInfo@@V?$allocator@PAUTempFilePathInfo@@@std@@@2@@Z 10055f20 f i Signature.obj
 0001:00054f20       ?_Myval@?$list@PAEV?$allocator@PAE@std@@@std@@KAAAPAEPAU_Node@?$_List_nod@PAEV?$allocator@PAE@std@@@2@@Z 10055f20 f i CertVerify.obj
 0001:00054f30       ?clear@?$list@PAUTempFilePathInfo@@V?$allocator@PAUTempFilePathInfo@@@std@@@std@@QAEXXZ 10055f30 f i Signature.obj
 0001:00054f30       ?clear@?$list@PAEV?$allocator@PAE@std@@@std@@QAEXXZ 10055f30 f i CertVerify.obj
 0001:00054ff0       ?_Buynode@?$list@PAUTempFilePathInfo@@V?$allocator@PAUTempFilePathInfo@@@std@@@std@@IAEPAU_Node@?$_List_nod@PAUTempFilePathInfo@@V?$allocator@PAUTempFilePathInfo@@@std@@@2@PAU342@0ABQAUTempFilePathInfo@@@Z 10055ff0 f i Signature.obj
 0001:000550e0       ?_Incsize@?$list@PAUTempFilePathInfo@@V?$allocator@PAUTempFilePathInfo@@@std@@@std@@IAEXI@Z 100560e0 f i Signature.obj
 0001:00055180       ?construct@?$allocator@PAU_Node@?$_List_nod@PAEV?$allocator@PAE@std@@@std@@@std@@QAEXPAPAU_Node@?$_List_nod@PAEV?$allocator@PAE@std@@@2@ABQAU342@@Z 10056180 f i CertVerify.obj
 0001:00055180       ?construct@?$allocator@PAU_Node@?$_List_nod@PAUAllocInfo@@V?$allocator@PAUAllocInfo@@@std@@@std@@@std@@QAEXPAPAU_Node@?$_List_nod@PAUAllocInfo@@V?$allocator@PAUAllocInfo@@@std@@@2@ABQAU342@@Z 10056180 f i xmlsigd_nss:DebugLog.obj
 0001:00055180       ?construct@?$allocator@PAU_Node@?$_List_nod@PAUTempFilePathInfo@@V?$allocator@PAUTempFilePathInfo@@@std@@@std@@@std@@QAEXPAPAU_Node@?$_List_nod@PAUTempFilePathInfo@@V?$allocator@PAUTempFilePathInfo@@@std@@@2@ABQAU342@@Z 10056180 f i Signature.obj
 0001:000551b0       ??0_U_MENUorID@ATL@@QAE@I@Z 100561b0 f i ShowSelectCert.obj
 0001:000551b0       ??0const_iterator@?$list@PAUAllocInfo@@V?$allocator@PAUAllocInfo@@@std@@@std@@QAE@PAU_Node@?$_List_nod@PAUAllocInfo@@V?$allocator@PAUAllocInfo@@@std@@@2@@Z 100561b0 f i xmlsigd_nss:DebugLog.obj
 0001:000551b0       ??0CWindow@ATL@@QAE@PAUHWND__@@@Z 100561b0 f i ShowSelectCert.obj
 0001:000551b0       ??0const_iterator@?$basic_string@DU?$char_traits@D@std@@V?$_DebugHeapAllocator@D@2@@std@@QAE@PBD@Z 100561b0 f i Signature.obj
 0001:000551b0       ??0const_iterator@?$basic_string@DU?$char_traits@D@std@@V?$allocator@D@2@@std@@QAE@PBD@Z 100561b0 f i Signature.obj
 0001:000551b0       ??0id@locale@std@@QAE@I@Z  100561b0 f i Signature.obj
 0001:000551b0       ??0_U_RECT@ATL@@QAE@PAUtagRECT@@@Z 100561b0 f i ShowSelectCert.obj
 0001:000551b0       ??0const_iterator@?$list@PAEV?$allocator@PAE@std@@@std@@QAE@PAU_Node@?$_List_nod@PAEV?$allocator@PAE@std@@@2@@Z 100561b0 f i CertVerify.obj
 0001:000551b0       ??0CAtlException@ATL@@QAE@J@Z 100561b0 f i config.obj
 0001:000551b0       ??0const_iterator@?$vector@PAUSECItemStr@@V?$allocator@PAUSECItemStr@@@std@@@std@@QAE@PAPAUSECItemStr@@@Z 100561b0 f i CertVerify.obj
 0001:000551b0       ??0CRegKey@ATL@@QAE@PAUHKEY__@@@Z 100561b0 f i XMLSign.obj
 0001:000551b0       ??0const_iterator@?$list@PAUTempFilePathInfo@@V?$allocator@PAUTempFilePathInfo@@@std@@@std@@QAE@PAU_Node@?$_List_nod@PAUTempFilePathInfo@@V?$allocator@PAUTempFilePathInfo@@@std@@@2@@Z 100561b0 f i Signature.obj
 0001:000551d0       ??Econst_iterator@?$list@PAUAllocInfo@@V?$allocator@PAUAllocInfo@@@std@@@std@@QAEAAV012@XZ 100561d0 f i xmlsigd_nss:DebugLog.obj
 0001:000551d0       ??Econst_iterator@?$list@PAUTempFilePathInfo@@V?$allocator@PAUTempFilePathInfo@@@std@@@std@@QAEAAV012@XZ 100561d0 f i Signature.obj
 0001:00055210       ?_Init@?$basic_filebuf@DU?$char_traits@D@std@@@std@@IAEXPAU_iobuf@@W4_Initfl@12@@Z 10056210 f i Signature.obj
 0001:000552e0       ??0_Sentry_base@?$basic_ostream@DU?$char_traits@D@std@@@std@@QAE@AAV12@@Z 100562e0 f i Signature.obj
 0001:00055340       ?_Lock@?$basic_streambuf@DU?$char_traits@D@std@@@std@@QAEXXZ 10056340 f i Signature.obj
 0001:00055370       ??1_Sentry_base@?$basic_ostream@DU?$char_traits@D@std@@@std@@QAE@XZ 10056370 f i Signature.obj
 0001:000553c0       ?_Unlock@?$basic_streambuf@DU?$char_traits@D@std@@@std@@QAEXXZ 100563c0 f i Signature.obj
 0001:000553f0       ?unshift@?$codecvt@DDH@std@@QBEHAAHPAD1AAPAD@Z 100563f0 f i Signature.obj
 0001:00055440       ?max_size@?$basic_string@DU?$char_traits@D@std@@V?$allocator@D@2@@std@@QBEIXZ 10056440 f i CertVerify.obj
 0001:00055440       ?max_size@?$basic_string@DU?$char_traits@D@std@@V?$_DebugHeapAllocator@D@2@@std@@QBEIXZ 10056440 f i Signature.obj
 0001:000554a0       ?_Copy@?$basic_string@DU?$char_traits@D@std@@V?$_DebugHeapAllocator@D@2@@std@@IAEXII@Z 100564a0 f i Signature.obj
 0001:00055620       ?widen@?$basic_ios@DU?$char_traits@D@std@@@std@@QBEDD@Z 10056620 f i Signature.obj
 0001:000556c0       ?widen@?$ctype@D@std@@QBEDD@Z 100566c0 f i Signature.obj
 0001:00055700       ?getloc@ios_base@std@@QBE?AVlocale@2@XZ 10056700 f i Signature.obj
 0001:00055750       ?setp@?$basic_streambuf@DU?$char_traits@D@std@@@std@@IAEXPAD0@Z 10056750 f i Signature.obj
 0001:00055790       ?_Init@?$basic_streambuf@DU?$char_traits@D@std@@@std@@IAEXPAPAD0PAH001@Z 10056790 f i Signature.obj
 0001:000557e0       ?max_size@?$list@PAEV?$allocator@PAE@std@@@std@@QBEIXZ 100567e0 f i CertVerify.obj
 0001:000557e0       ?max_size@?$list@PAUAllocInfo@@V?$allocator@PAUAllocInfo@@@std@@@std@@QBEIXZ 100567e0 f i xmlsigd_nss:DebugLog.obj
 0001:000557e0       ?max_size@?$list@PAUTempFilePathInfo@@V?$allocator@PAUTempFilePathInfo@@@std@@@std@@QBEIXZ 100567e0 f i Signature.obj
 0001:00055810       ?allocate@?$_DebugHeapAllocator@D@std@@QAEPADI@Z 10056810 f i Signature.obj
 0001:00055860       ?StartDialogProc@?$CDialogImplBaseT@VCWindow@ATL@@@ATL@@SGHPAUHWND__@@IIJ@Z 10056860 f i Signature.obj
 0001:00055970       ?Attach@?$CSimpleStringT@D$0A@@ATL@@AAEXPAUCStringData@2@@Z 10056970 f i Signature.obj
 0001:000559a0       ?data@CStringData@ATL@@QAEPAXXZ 100569a0 f i Signature.obj
 0001:000559c0       ?GetData@?$CSimpleStringT@D$0A@@ATL@@ABEPAUCStringData@2@XZ 100569c0 f i Signature.obj
 0001:000559e0       ?PrepareWrite@?$CSimpleStringT@D$0A@@ATL@@AAEPADH@Z 100569e0 f i Signature.obj
 0001:00055a50       ?SetLength@?$CSimpleStringT@D$0A@@ATL@@AAEXH@Z 10056a50 f i Signature.obj
 0001:00055b00       ??$_DebugHeapDelete@Vfacet@locale@std@@@std@@YAXPAVfacet@locale@0@@Z 10056b00 f i Signature.obj
 0001:00055b40       ??$use_facet@V?$ctype@D@std@@@std@@YAABV?$ctype@D@0@ABVlocale@0@@Z 10056b40 f i Signature.obj
 0001:00055c80       ??Bid@locale@std@@QAEIXZ   10056c80 f i Signature.obj
 0001:00055d20       ?_Getcat@?$ctype@D@std@@SAIPAPBVfacet@locale@2@@Z 10056d20 f i Signature.obj
 0001:00055de0       ??0?$ctype@D@std@@QAE@PBF_NI@Z 10056de0 f i Signature.obj
 0001:00055ed0       ??0ctype_base@std@@QAE@I@Z 10056ed0 f i Signature.obj
 0001:00055f10       ??0facet@locale@std@@IAE@I@Z 10056f10 f i Signature.obj
 0001:00055f40       ??_Efacet@locale@std@@UAEPAXI@Z 10056f40 f i Signature.obj
 0001:00055f40       ??_Gfacet@locale@std@@UAEPAXI@Z 10056f40 f i Signature.obj
 0001:00055f80       ??1facet@locale@std@@UAE@XZ 10056f80 f i Signature.obj
 0001:00055fa0       ??1ctype_base@std@@UAE@XZ  10056fa0 f i Signature.obj
 0001:00055fd0       ??_Ectype_base@std@@UAEPAXI@Z 10056fd0 f i Signature.obj
 0001:00055fd0       ??_Gctype_base@std@@UAEPAXI@Z 10056fd0 f i Signature.obj
 0001:00056010       ?_Init@?$ctype@D@std@@IAEXABV_Locinfo@2@@Z 10057010 f i Signature.obj
 0001:00056070       ?_Getctype@_Locinfo@std@@QBE?AU_Ctypevec@@XZ 10057070 f i Signature.obj
 0001:000560f0       ?_Tidy@?$ctype@D@std@@IAEXXZ 100570f0 f i Signature.obj
 0001:00056150       ?do_tolower@?$ctype@D@std@@MBEDD@Z 10057150 f i Signature.obj
 0001:00056190       ?do_tolower@?$ctype@D@std@@MBEPBDPADPBD@Z 10057190 f i Signature.obj
 0001:000561f0       ?do_toupper@?$ctype@D@std@@MBEDD@Z 100571f0 f i Signature.obj
 0001:00056230       ?do_toupper@?$ctype@D@std@@MBEPBDPADPBD@Z 10057230 f i Signature.obj
 0001:00056290       ?do_widen@?$ctype@D@std@@MBEDD@Z 10057290 f i Signature.obj
 0001:000562b0       ?do_widen@?$ctype@D@std@@MBEPBDPBD0PAD@Z 100572b0 f i Signature.obj
 0001:000562f0       ?do_narrow@?$ctype@D@std@@MBEDDD@Z 100572f0 f i Signature.obj
 0001:00056310       ?do_narrow@?$ctype@D@std@@MBEPBDPBD0DPAD@Z 10057310 f i Signature.obj
 0001:00056350       ??_E?$ctype@D@std@@MAEPAXI@Z 10057350 f i Signature.obj
 0001:00056350       ??_G?$ctype@D@std@@MAEPAXI@Z 10057350 f i Signature.obj
 0001:00056390       ??1?$ctype@D@std@@MAE@XZ   10057390 f i Signature.obj
 0001:00056400       ??$?HDU?$char_traits@D@std@@V?$allocator@D@1@@std@@YA?AV?$basic_string@DU?$char_traits@D@std@@V?$allocator@D@2@@0@ABV10@PBD@Z 10057400 f i Signature.obj
 0001:000564a0       ??$?8DU?$char_traits@D@std@@V?$allocator@D@1@@std@@YA_NABV?$basic_string@DU?$char_traits@D@std@@V?$allocator@D@2@@0@PBD@Z 100574a0 f i Signature.obj
 0001:000564c0       ??$?6U?$char_traits@D@std@@@std@@YAAAV?$basic_ostream@DU?$char_traits@D@std@@@0@AAV10@PBE@Z 100574c0 f i Signature.obj
 0001:000564e0       ??$?6U?$char_traits@D@std@@@std@@YAAAV?$basic_ostream@DU?$char_traits@D@std@@@0@AAV10@PBD@Z 100574e0 f i Signature.obj
 0001:000567d0       ?width@ios_base@std@@QBEHXZ 100577d0 f i Signature.obj
 0001:000567f0       ?width@ios_base@std@@QAEHH@Z 100577f0 f i Signature.obj
 0001:00056830       ??$_DebugHeapDelete@Vlocale@std@@@std@@YAXPAVlocale@0@@Z 10057830 f i Signature.obj
 0001:00056860       ??$_DebugHeapDelete@V_DebugHeapString@std@@@std@@YAXPAV_DebugHeapString@0@@Z 10057860 f i Signature.obj
 0001:00056890       ??$use_facet@V?$codecvt@DDH@std@@@std@@YAABV?$codecvt@DDH@0@ABVlocale@0@@Z 10057890 f i Signature.obj
 0001:000569d0       ??$_DebugHeapDelete@X@std@@YAXPAX@Z 100579d0 f i Signature.obj
 0001:000569f0       ??$?0PAUTempFilePathInfo@@@?$allocator@PAU_Node@?$_List_nod@PAUTempFilePathInfo@@V?$allocator@PAUTempFilePathInfo@@@std@@@std@@@std@@QAE@ABV?$allocator@PAUTempFilePathInfo@@@1@@Z 100579f0 f i Signature.obj
 0001:000569f0       ??$?0PAUAllocInfo@@@?$allocator@U_Node@?$_List_nod@PAUAllocInfo@@V?$allocator@PAUAllocInfo@@@std@@@std@@@std@@QAE@ABV?$allocator@PAUAllocInfo@@@1@@Z 100579f0 f i xmlsigd_nss:DebugLog.obj
 0001:000569f0       ??0?$allocator@PAUAllocInfo@@@std@@QAE@ABV01@@Z 100579f0 f i xmlsigd_nss:DebugLog.obj
 0001:000569f0       ??0?$allocator@D@std@@QAE@ABV01@@Z 100579f0 f i CertVerify.obj
 0001:000569f0       ??$?0PAE@?$allocator@PAU_Node@?$_List_nod@PAEV?$allocator@PAE@std@@@std@@@std@@QAE@ABV?$allocator@PAE@1@@Z 100579f0 f i CertVerify.obj
 0001:000569f0       ??0?$allocator@PAUTempFilePathInfo@@@std@@QAE@ABV01@@Z 100579f0 f i Signature.obj
 0001:000569f0       ??$?0PAUAllocInfo@@@?$allocator@PAU_Node@?$_List_nod@PAUAllocInfo@@V?$allocator@PAUAllocInfo@@@std@@@std@@@std@@QAE@ABV?$allocator@PAUAllocInfo@@@1@@Z 100579f0 f i xmlsigd_nss:DebugLog.obj
 0001:000569f0       ??$?0PAE@?$allocator@U_Node@?$_List_nod@PAEV?$allocator@PAE@std@@@std@@@std@@QAE@ABV?$allocator@PAE@1@@Z 100579f0 f i CertVerify.obj
 0001:000569f0       ??$?0PAUTempFilePathInfo@@@?$allocator@U_Node@?$_List_nod@PAUTempFilePathInfo@@V?$allocator@PAUTempFilePathInfo@@@std@@@std@@@std@@QAE@ABV?$allocator@PAUTempFilePathInfo@@@1@@Z 100579f0 f i Signature.obj
 0001:000569f0       ??0?$allocator@PAE@std@@QAE@ABV01@@Z 100579f0 f i CertVerify.obj
 0001:000569f0       ??0?$allocator@PAUSECItemStr@@@std@@QAE@ABV01@@Z 100579f0 f i CertVerify.obj
 0001:00056a10       ??$_Construct@PAU_Node@?$_List_nod@PAUTempFilePathInfo@@V?$allocator@PAUTempFilePathInfo@@@std@@@std@@PAU123@@std@@YAXPAPAU_Node@?$_List_nod@PAUTempFilePathInfo@@V?$allocator@PAUTempFilePathInfo@@@std@@@0@ABQAU120@@Z 10057a10 f i Signature.obj
 0001:00056a10       ??$_Construct@PAU_Node@?$_List_nod@PAEV?$allocator@PAE@std@@@std@@PAU123@@std@@YAXPAPAU_Node@?$_List_nod@PAEV?$allocator@PAE@std@@@0@ABQAU120@@Z 10057a10 f i CertVerify.obj
 0001:00056a10       ??$_Construct@PAU_Node@?$_List_nod@PAUAllocInfo@@V?$allocator@PAUAllocInfo@@@std@@@std@@PAU123@@std@@YAXPAPAU_Node@?$_List_nod@PAUAllocInfo@@V?$allocator@PAUAllocInfo@@@std@@@0@ABQAU120@@Z 10057a10 f i xmlsigd_nss:DebugLog.obj
 0001:00056a70       ??_Glocale@std@@QAEPAXI@Z  10057a70 f i Signature.obj
 0001:00056ab0       ??_G_DebugHeapString@std@@QAEPAXI@Z 10057ab0 f i Signature.obj
 0001:00056af0       ??1_DebugHeapString@std@@QAE@XZ 10057af0 f i Signature.obj
 0001:00056b20       ??1?$basic_string@DU?$char_traits@D@std@@V?$_DebugHeapAllocator@D@2@@std@@QAE@XZ 10057b20 f i Signature.obj
 0001:00056b50       ?fill@?$basic_ios@DU?$char_traits@D@std@@@std@@QBEDXZ 10057b50 f i Signature.obj
 0001:00056b70       ?sputn@?$basic_streambuf@DU?$char_traits@D@std@@@std@@QAEHPBDH@Z 10057b70 f i Signature.obj
 0001:00056bb0       ?_Getcat@?$codecvt@DDH@std@@SAIPAPBVfacet@locale@2@@Z 10057bb0 f i Signature.obj
 0001:00056c60       ?PrepareWrite2@?$CSimpleStringT@D$0A@@ATL@@AAEXH@Z 10057c60 f i Signature.obj
 0001:00056d20       ?IsShared@CStringData@ATL@@QBE_NXZ 10057d20 f i Signature.obj
 0001:00056d40       ??0?$codecvt@DDH@std@@QAE@I@Z 10057d40 f i Signature.obj
 0001:00056e00       ??0codecvt_base@std@@QAE@I@Z 10057e00 f i Signature.obj
 0001:00056e40       ??1codecvt_base@std@@UAE@XZ 10057e40 f i Signature.obj
 0001:00056e70       ?do_always_noconv@codecvt_base@std@@MBE_NXZ 10057e70 f i Signature.obj
 0001:00056e90       ?do_max_length@codecvt_base@std@@MBEHXZ 10057e90 f i Signature.obj
 0001:00056e90       ?do_encoding@codecvt_base@std@@MBEHXZ 10057e90 f i Signature.obj
 0001:00056eb0       ??_Ecodecvt_base@std@@UAEPAXI@Z 10057eb0 f i Signature.obj
 0001:00056eb0       ??_Gcodecvt_base@std@@UAEPAXI@Z 10057eb0 f i Signature.obj
 0001:00056ef0       ?do_out@?$codecvt@DDH@std@@MBEHAAHPBD1AAPBDPAD3AAPAD@Z 10057ef0 f i Signature.obj
 0001:00056ef0       ?do_in@?$codecvt@DDH@std@@MBEHAAHPBD1AAPBDPAD3AAPAD@Z 10057ef0 f i Signature.obj
 0001:00056f20       ?do_unshift@?$codecvt@DDH@std@@MBEHAAHPAD1AAPAD@Z 10057f20 f i Signature.obj
 0001:00056f40       ?do_length@?$codecvt@DDH@std@@MBEHABHPBD1I@Z 10057f40 f i Signature.obj
 0001:00056f80       ??_G?$codecvt@DDH@std@@MAEPAXI@Z 10057f80 f i Signature.obj
 0001:00056f80       ??_E?$codecvt@DDH@std@@MAEPAXI@Z 10057f80 f i Signature.obj
 0001:00056fc0       ??1?$codecvt@DDH@std@@MAE@XZ 10057fc0 f i Signature.obj
 0001:00056ff0       ?Fork@?$CSimpleStringT@D$0A@@ATL@@AAEXH@Z 10057ff0 f i Signature.obj
 0001:000570e0       ?Reallocate@?$CSimpleStringT@D$0A@@ATL@@AAEXH@Z 100580e0 f i Signature.obj
 0001:00057190       ?ThrowMemoryException@?$CSimpleStringT@D$0A@@ATL@@KAXXZ 10058190 f i Signature.obj
 0001:000571b0       ??$AtlAxDialogCreateT@PBDV_AtlDialogBoxIndirectParamHelper@ATL@@$1?DialogBoxIndirectParamA@@YGHPAUHINSTANCE__@@PBUDLGTEMPLATE@@PAUHWND__@@P6GH2IIJ@ZJ@Z@ATL@@YAHPAUHINSTANCE__@@PBDPAUHWND__@@P6GH2IIJ@ZJ@Z 100581b0 f i Signature.obj
 0001:00057390       ?SplitDialogTemplate@_DialogSplitHelper@ATL@@SAPAUDLGTEMPLATE@@PAU3@PAE@Z 10058390 f i Signature.obj
 0001:000575d0       ?AtlFindResource@ATL@@YAPAUHRSRC__@@PAUHINSTANCE__@@PBD1@Z 100585d0 f i Signature.obj
 0001:00057600       ?eof@?$char_traits@D@std@@SAHXZ 10058600 f i Signature.obj
 0001:00057600       ?GetInvalidValue@_AtlDialogBoxIndirectParamHelper@ATL@@SAHXZ 10058600 f i Signature.obj
 0001:00057610       ?IsValidReturnVal@_AtlDialogBoxIndirectParamHelper@ATL@@SA_NH@Z 10058610 f i Signature.obj
 0001:00057640       ??0CNtpTime@@QAE@XZ        10058640 f   Sntp.obj
 0001:00057670       ??0CNtpTime@@QAE@ABV0@@Z   10058670 f   Sntp.obj
 0001:000576a0       ??0CNtpTime@@QAE@AAUCNtpTimePacket@@@Z 100586a0 f   Sntp.obj
 0001:00057730       ??0CNtpTime@@QAE@ABU_SYSTEMTIME@@@Z 10058730 f   Sntp.obj
 0001:00057870       ?GetJulianDay@CNtpTime@@KAJGGG@Z 10058870 f   Sntp.obj
 0001:00057940       ?GetGregorianDate@CNtpTime@@KAXJAAG00@Z 10058940 f   Sntp.obj
 0001:00057a70       ??4CNtpTime@@QAEAAV0@ABV0@@Z 10058a70 f   Sntp.obj
 0001:00057aa0       ??GCNtpTime@@QBENABV0@@Z   10058aa0 f   Sntp.obj
 0001:00057bd0       ??HCNtpTime@@QBE?AV0@ABN@Z 10058bd0 f   Sntp.obj
 0001:00057d50       ??BCNtpTime@@QBE?AU_SYSTEMTIME@@XZ 10058d50 f   Sntp.obj
 0001:00057e90       ?Seconds@CNtpTime@@QBEKXZ  10058e90 f   Sntp.obj
 0001:00057ec0       ?Fraction@CNtpTime@@QBEKXZ 10058ec0 f   Sntp.obj
 0001:00057ee0       ??BCNtpTime@@QBE?AUCNtpTimePacket@@XZ 10058ee0 f   Sntp.obj
 0001:00057f80       ?GetTickCount@CNtpTime@@SA?AV1@XZ 10058f80 f   Sntp.obj
 0001:00058010       ?MsToNtpFraction@CNtpTime@@SAKG@Z 10059010 f   Sntp.obj
 0001:00058060       ?NtpFractionToMs@CNtpTime@@SAGK@Z 10059060 f   Sntp.obj
 0001:000580a0       ?NtpFractionToSecond@CNtpTime@@SANK@Z 100590a0 f   Sntp.obj
 0001:00058100       ??0CNtpSocket@@QAE@XZ      10059100 f   Sntp.obj
 0001:00058120       ??1CNtpSocket@@QAE@XZ      10059120 f   Sntp.obj
 0001:00058150       ?Create@CNtpSocket@@QAEHXZ 10059150 f   Sntp.obj
 0001:000581a0       ?Connect@CNtpSocket@@QAEHPBDH@Z 100591a0 f   Sntp.obj
 0001:000582f0       ?Connect@CNtpSocket@@IAEHPBUsockaddr@@H@Z 100592f0 f   Sntp.obj
 0001:00058350       ?Send@CNtpSocket@@QAEHPBDH@Z 10059350 f   Sntp.obj
 0001:000583d0       ?Receive@CNtpSocket@@QAEHPADH@Z 100593d0 f   Sntp.obj
 0001:00058440       ?Close@CNtpSocket@@QAEXXZ  10059440 f   Sntp.obj
 0001:000584b0       ?IsReadible@CNtpSocket@@QAEHAAHK@Z 100594b0 f   Sntp.obj
 0001:00058620       ??0CSNTPClient@@QAE@XZ     10059620 f   Sntp.obj
 0001:00058640       ?GetServerTime@CSNTPClient@@QAEHPBDAAUNtpServerResponse@@H@Z 10059640 f   Sntp.obj
 0001:00058c80       ?EnableSetTimePriviledge@CSNTPClient@@IAEHXZ 10059c80 f   Sntp.obj
 0001:00058e20       ?RevertSetTimePriviledge@CSNTPClient@@IAEXXZ 10059e20 f   Sntp.obj
 0001:00058eb0       ?SetClientTime@CSNTPClient@@QAEHABVCNtpTime@@@Z 10059eb0 f   Sntp.obj
 0001:00058f90       ?T2A@@YAPADPAD@Z           10059f90 f i Sntp.obj
 0001:00058f90       ?_Nextnode@?$list@PAUTempFilePathInfo@@V?$allocator@PAUTempFilePathInfo@@@std@@@std@@KAAAPAU_Node@?$_List_nod@PAUTempFilePathInfo@@V?$allocator@PAUTempFilePathInfo@@@std@@@2@PAU342@@Z 10059f90 f i Signature.obj
 0001:00058f90       ?_Nextnode@?$list@PAEV?$allocator@PAE@std@@@std@@KAAAPAU_Node@?$_List_nod@PAEV?$allocator@PAE@std@@@2@PAU342@@Z 10059f90 f i CertVerify.obj
 0001:00058f90       ?_Nextnode@?$list@PAUAllocInfo@@V?$allocator@PAUAllocInfo@@@std@@@std@@KAAAPAU_Node@?$_List_nod@PAUAllocInfo@@V?$allocator@PAUAllocInfo@@@std@@@2@PAU342@@Z 10059f90 f i xmlsigd_nss:DebugLog.obj
 0001:00058fa0       ??_GCNtpSocket@@QAEPAXI@Z  10059fa0 f i Sntp.obj
 0001:00058fe0       ??RCTraceFileAndLineInfo@ATL@@QBAXPBDZZ 10059fe0 f i Sntp.obj
 0001:00059040       ?UpdateRegistry@CSignature@@SGJH@Z 1005a040 f i XMLSign.obj
 0001:00059070       ?UpdateRegistryFromResourceS@CComModule@ATL@@UAGJIHPAU_ATL_REGMAP_ENTRY@2@@Z 1005a070 f i XMLSign.obj
 0001:000590a0       ?UpdateRegistryFromResourceS@CAtlModule@ATL@@QAGJIHPAU_ATL_REGMAP_ENTRY@2@@Z 1005a0a0 f i XMLSign.obj
 0001:00059570       ?EscapeSingleQuote@CAtlModule@ATL@@SAXPAGPBG@Z 1005a570 f i XMLSign.obj
 0001:000595d0       ??1CRegObject@ATL@@UAE@XZ  1005a5d0 f i XMLSign.obj
 0001:00059640       ??1CExpansionVector@ATL@@QAE@XZ 1005a640 f i XMLSign.obj
 0001:000596a0       ?ClearReplacements@CExpansionVector@ATL@@QAEJXZ 1005a6a0 f i XMLSign.obj
 0001:00059730       ?QueryInterface@CRegObject@ATL@@UAGJABU_GUID@@PAPAX@Z 1005a730 f i XMLSign.obj
 0001:00059770       ?AddRef@CRegObject@ATL@@UAGKXZ 1005a770 f i XMLSign.obj
 0001:000597b0       ?Release@CRegObject@ATL@@UAGKXZ 1005a7b0 f i XMLSign.obj
 0001:000597f0       ??_ECRegObject@ATL@@UAEPAXI@Z 1005a7f0 f i XMLSign.obj
 0001:000597f0       ??_GCRegObject@ATL@@UAEPAXI@Z 1005a7f0 f i XMLSign.obj
 0001:00059830       ?AddReplacement@CRegObject@ATL@@UAGJPBG0@Z 1005a830 f i XMLSign.obj
 0001:00059a00       ?Add@CExpansionVector@ATL@@QAEHPBDPBG@Z 1005aa00 f i XMLSign.obj
 0001:00059c00       ?ResourceRegister@CRegObject@ATL@@QAGJPBGI0@Z 1005ac00 f i XMLSign.obj
 0001:00059d90       ?RegisterFromResource@CRegObject@ATL@@IAEJPBGPBD1H@Z 1005ad90 f i XMLSign.obj
 0001:0005a1d0       ?ResourceUnregister@CRegObject@ATL@@QAGJPBGI0@Z 1005b1d0 f i XMLSign.obj
 0001:0005a360       ?ClearReplacements@CRegObject@ATL@@UAGJXZ 1005b360 f i XMLSign.obj
 0001:0005a3b0       ??0CRegParser@ATL@@QAE@PAVCRegObject@1@@Z 1005b3b0 f i XMLSign.obj
 0001:0005a3e0       ?RegisterBuffer@CRegParser@ATL@@QAEJPADH@Z 1005b3e0 f i XMLSign.obj
 0001:0005a730       ?GenerateError@CRegParser@ATL@@IAEJI@Z 1005b730 f i XMLSign.obj
 0001:0005a750       ?HKeyFromString@CRegParser@ATL@@KAPAUHKEY__@@PAD@Z 1005b750 f i XMLSign.obj
 0001:0005a7c0       ?SkipWhiteSpace@CRegParser@ATL@@IAEXXZ 1005b7c0 f i XMLSign.obj
 0001:0005a810       ?IsSpace@CRegParser@ATL@@IAEHD@Z 1005b810 f i XMLSign.obj
 0001:0005a880       ?NextToken@CRegParser@ATL@@IAEJPAD@Z 1005b880 f i XMLSign.obj
 0001:0005ab00       ?EndOfVar@CRegParser@ATL@@IAEHXZ 1005bb00 f i XMLSign.obj
 0001:0005ab70       ?PreProcessBuffer@CRegParser@ATL@@QAEJPADPAPAD@Z 1005bb70 f i XMLSign.obj
 0001:0005aeb0       ??0CParseBuffer@CRegParser@ATL@@QAE@H@Z 1005beb0 f i XMLSign.obj
 0001:0005af20       ??1CParseBuffer@CRegParser@ATL@@QAE@XZ 1005bf20 f i XMLSign.obj
 0001:0005af60       ?AddChar@CParseBuffer@CRegParser@ATL@@QAEHPBD@Z 1005bf60 f i XMLSign.obj
 0001:0005afc0       ?Append@CParseBuffer@CRegParser@ATL@@QAEHPBDH@Z 1005bfc0 f i XMLSign.obj
 0001:0005b0c0       ?AddString@CParseBuffer@CRegParser@ATL@@QAEHPBG@Z 1005c0c0 f i XMLSign.obj
 0001:0005b240       ?Detach@CParseBuffer@CRegParser@ATL@@QAEPADXZ 1005c240 f i XMLSign.obj
 0001:0005b290       ?StrFromMap@CRegObject@ATL@@QAEPBGPAD@Z 1005c290 f i XMLSign.obj
 0001:0005b320       ?StrChrA@CRegParser@ATL@@KAPADPADD@Z 1005c320 f i XMLSign.obj
 0001:0005b390       ?RegisterSubkeys@CRegParser@ATL@@IAEJPADPAUHKEY__@@HH@Z 1005c390 f i XMLSign.obj
 0001:0005bed0       ?AtlHresultFromWin32@ATL@@YAJK@Z 1005ced0 f i XMLSign.obj
 0001:0005bf10       ??1CRegKey@ATL@@QAE@XZ     1005cf10 f i XMLSign.obj
 0001:0005bf40       ?Attach@CRegKey@ATL@@QAEXPAUHKEY__@@@Z 1005cf40 f i XMLSign.obj
 0001:0005bf90       ?DeleteSubKey@CRegKey@ATL@@QAEJPBD@Z 1005cf90 f i XMLSign.obj
 0001:0005c000       ?DeleteValue@CRegKey@ATL@@QAEJPBD@Z 1005d000 f i XMLSign.obj
 0001:0005c070       ?Close@CRegKey@ATL@@QAEJXZ 1005d070 f i XMLSign.obj
 0001:0005c0d0       ?Create@CRegKey@ATL@@QAEJPAUHKEY__@@PBDPADKKPAU_SECURITY_ATTRIBUTES@@PAK@Z 1005d0d0 f i XMLSign.obj
 0001:0005c1d0       ?Open@CRegKey@ATL@@QAEJPAUHKEY__@@PBDK@Z 1005d1d0 f i XMLSign.obj
 0001:0005c2c0       ?RecurseDeleteKey@CRegKey@ATL@@QAEJPBD@Z 1005d2c0 f i XMLSign.obj
 0001:0005c490       ?AddValue@CRegParser@ATL@@IAEJAAVCRegKey@2@PBDPAD@Z 1005d490 f i XMLSign.obj
 0001:0005cd80       ?SetDWORDValue@CRegKey@ATL@@QAEJPBDK@Z 1005dd80 f i XMLSign.obj
 0001:0005cdf0       ?SetStringValue@CRegKey@ATL@@QAEJPBD0K@Z 1005ddf0 f i XMLSign.obj
 0001:0005ced0       ?SetMultiStringValue@CRegKey@ATL@@QAEJPBD0@Z 1005ded0 f i XMLSign.obj
 0001:0005cfb0       ?VTFromRegType@CRegParser@ATL@@KAHPBDAAG@Z 1005dfb0 f i XMLSign.obj
 0001:0005d090       ?ChToByte@CRegParser@ATL@@KAED@Z 1005e090 f i XMLSign.obj
 0001:0005d1a0       ?CanForceRemoveKey@CRegParser@ATL@@IAEHPBD@Z 1005e1a0 f i XMLSign.obj
 0001:0005d210       ?HasSubKeys@CRegParser@ATL@@IAEHPAUHKEY__@@@Z 1005e210 f i XMLSign.obj
 0001:0005d310       ?SkipAssignment@CRegParser@ATL@@IAEJPAD@Z 1005e310 f i XMLSign.obj
 0001:0005d3f0       ??0CRegObject@ATL@@QAE@XZ  1005e3f0 f i XMLSign.obj
 0001:0005d430       ??0CExpansionVector@ATL@@QAE@XZ 1005e430 f i XMLSign.obj
 0001:0005d460       ?GetCategoryMap@CSignature@@SAPBU_ATL_CATMAP_ENTRY@ATL@@XZ 1005e460 f i XMLSign.obj
 0001:0005d470       _DllMain@12                1005e470 f   XMLSign.obj
 0001:0005d690       _DllCanUnloadNow@0         1005e690 f   XMLSign.obj
 0001:0005d6b0       _DllGetClassObject@12      1005e6b0 f   XMLSign.obj
 0001:0005d6e0       _DllRegisterServer@0       1005e6e0 f   XMLSign.obj
 0001:0005d700       _DllUnregisterServer@0     1005e700 f   XMLSign.obj
 0001:0005d7e0       ?Init@CComModule@ATL@@QAEJPAU_ATL_OBJMAP_ENTRY30@2@PAUHINSTANCE__@@PBU_GUID@@@Z 1005e7e0 f i XMLSign.obj
 0001:0005d8c0       ?Term@CComModule@ATL@@QAEXXZ 1005e8c0 f i XMLSign.obj
 0001:0005d9a0       ?Term@CAtlModule@ATL@@QAEXXZ 1005e9a0 f i XMLSign.obj
 0001:0005da40       ?GetClassObject@CComModule@ATL@@QAEJABU_GUID@@0PAPAX@Z 1005ea40 f i XMLSign.obj
 0001:0005dc30       ?RegisterServer@CComModule@ATL@@QAEJHPBU_GUID@@@Z 1005ec30 f i XMLSign.obj
 0001:0005dd10       _IsEqualGUID               1005ed10 f i XMLSign.obj
 0001:0005dd40       ?AtlRegisterClassCategoriesHelper@ATL@@YGJABU_GUID@@PBU_ATL_CATMAP_ENTRY@1@H@Z 1005ed40 f i XMLSign.obj
 0001:0005e440       ?UnregisterServer@CComModule@ATL@@QAEJHPBU_GUID@@@Z 1005f440 f i XMLSign.obj
 0001:0005e520       ?CreateInstance@?$CComCreator@V?$CComObjectCached@VCComClassFactory@ATL@@@ATL@@@ATL@@SGJPAXABU_GUID@@PAPAX@Z 1005f520 f i XMLSign.obj
 0001:0005e6d0       ?CreateInstance@?$CComCreator2@V?$CComCreator@V?$CComObject@VCSignature@@@ATL@@@ATL@@V?$CComCreator@V?$CComAggObject@VCSignature@@@ATL@@@2@@ATL@@SGJPAXABU_GUID@@PAPAX@Z 1005f6d0 f i XMLSign.obj
 0001:0005e750       ??0?$CComObjectCached@VCComClassFactory@ATL@@@ATL@@QAE@PAX@Z 1005f750 f i XMLSign.obj
 0001:0005e7c0       ??0CComAutoCriticalSection@ATL@@QAE@XZ 1005f7c0 f i XMLSign.obj
 0001:0005e810       ?Init@CComCriticalSection@ATL@@QAEJXZ 1005f810 f i XMLSign.obj
 0001:0005e8d0       ?AddRef@?$CComObjectCached@VCComClassFactory@ATL@@@ATL@@UAGKXZ 1005f8d0 f i XMLSign.obj
 0001:0005e940       ?Release@?$CComObjectCached@VCComClassFactory@ATL@@@ATL@@UAGKXZ 1005f940 f i XMLSign.obj
 0001:0005ea00       ?QueryInterface@?$CComObjectCached@VCComClassFactory@ATL@@@ATL@@UAGJABU_GUID@@PAPAX@Z 1005fa00 f i XMLSign.obj
 0001:0005ea20       ?_InternalQueryInterface@CComClassFactory@ATL@@QAEJABU_GUID@@PAPAX@Z 1005fa20 f i XMLSign.obj
 0001:0005ea60       ?CreateInstance@?$CComCreator@V?$CComObject@VCSignature@@@ATL@@@ATL@@SGJPAXABU_GUID@@PAPAX@Z 1005fa60 f i XMLSign.obj
 0001:0005ec10       ?InternalFinalConstructAddRef@CSignature@@QAEXXZ 1005fc10 f i XMLSign.obj
 0001:0005ec40       ?InternalFinalConstructRelease@CSignature@@QAEXXZ 1005fc40 f i XMLSign.obj
 0001:0005ec70       ?_GetEntries@CComClassFactory@ATL@@SGPBU_ATL_INTMAP_ENTRY@2@XZ 1005fc70 f i XMLSign.obj
 0001:0005ec80       ??1CComClassFactory@ATL@@UAE@XZ 1005fc80 f i XMLSign.obj
 0001:0005ecd0       ?CreateInstance@CComClassFactory@ATL@@UAGJPAUIUnknown@@ABU_GUID@@PAPAX@Z 1005fcd0 f i XMLSign.obj
 0001:0005edb0       ?CreateInstance@?$CComCreator@V?$CComAggObject@VCSignature@@@ATL@@@ATL@@SGJPAXABU_GUID@@PAPAX@Z 1005fdb0 f i XMLSign.obj
 0001:0005ef60       ?LockServer@CComClassFactory@ATL@@UAGJH@Z 1005ff60 f i XMLSign.obj
 0001:0005efb0       ?SetVoid@CComClassFactory@ATL@@QAEXPAX@Z 1005ffb0 f i XMLSign.obj
 0001:0005efd0       ??_GCComClassFactory@ATL@@UAEPAXI@Z 1005ffd0 f i XMLSign.obj
 0001:0005efd0       ??_ECComClassFactory@ATL@@UAEPAXI@Z 1005ffd0 f i XMLSign.obj
 0001:0005f010       ??1?$CComObjectRootEx@VCComMultiThreadModel@ATL@@@ATL@@QAE@XZ 10060010 f i XMLSign.obj
 0001:0005f040       ??1CComAutoCriticalSection@ATL@@QAE@XZ 10060040 f i XMLSign.obj
 0001:0005f070       ??_E?$CComObjectCached@VCComClassFactory@ATL@@@ATL@@UAEPAXI@Z 10060070 f i XMLSign.obj
 0001:0005f070       ??_G?$CComObjectCached@VCComClassFactory@ATL@@@ATL@@UAEPAXI@Z 10060070 f i XMLSign.obj
 0001:0005f0b0       ??1?$CComObjectCached@VCComClassFactory@ATL@@@ATL@@UAE@XZ 100600b0 f i XMLSign.obj
 0001:0005f130       ??0CComClassFactory@ATL@@QAE@XZ 10060130 f i XMLSign.obj
 0001:0005f170       ??0?$CComObjectRootEx@VCComMultiThreadModel@ATL@@@ATL@@QAE@XZ 10060170 f i XMLSign.obj
 0001:0005f1b0       ?InternalAddRef@?$CComObjectRootEx@VCComMultiThreadModel@ATL@@@ATL@@QAEKXZ 100601b0 f i XMLSign.obj
 0001:0005f200       ?Increment@CComMultiThreadModel@ATL@@SGKPAJ@Z 10060200 f i XMLSign.obj
 0001:0005f230       ?InternalRelease@?$CComObjectRootEx@VCComMultiThreadModel@ATL@@@ATL@@QAEKXZ 10060230 f i XMLSign.obj
 0001:0005f2a0       ?Decrement@CComMultiThreadModel@ATL@@SGKPAJ@Z 100602a0 f i XMLSign.obj
 0001:0005f2d0       ??0?$CComObject@VCSignature@@@ATL@@QAE@PAX@Z 100602d0 f i XMLSign.obj
 0001:0005f340       ?GetTypeInfo@?$IDispatchImpl@UISignature@@$1?IID_ISignature@@3U_GUID@@B$1?LIBID_XMLSIGNLib@@3U3@B$00$0A@VCComTypeInfoHolder@ATL@@@ATL@@UAGJIKPAPAUITypeInfo@@@Z 10060340 f i XMLSign.obj
 0001:0005f370       ?GetIDsOfNames@?$IDispatchImpl@UISignature@@$1?IID_ISignature@@3U_GUID@@B$1?LIBID_XMLSIGNLib@@3U3@B$00$0A@VCComTypeInfoHolder@ATL@@@ATL@@UAGJABU_GUID@@PAPAGIKPAJ@Z 10060370 f i XMLSign.obj
 0001:0005f3a0       ?Invoke@?$IDispatchImpl@UISignature@@$1?IID_ISignature@@3U_GUID@@B$1?LIBID_XMLSIGNLib@@3U3@B$00$0A@VCComTypeInfoHolder@ATL@@@ATL@@UAGJJABU_GUID@@KGPAUtagDISPPARAMS@@PAUtagVARIANT@@PAUtagEXCEPINFO@@PAI@Z 100603a0 f i XMLSign.obj
 0001:0005f3e0       ?AddRef@?$CComObject@VCSignature@@@ATL@@UAGKXZ 100603e0 f i XMLSign.obj
 0001:0005f400       ?Release@?$CComObject@VCSignature@@@ATL@@UAGKXZ 10060400 f i XMLSign.obj
 0001:0005f480       ?QueryInterface@?$CComObject@VCSignature@@@ATL@@UAGJABU_GUID@@PAPAX@Z 10060480 f i XMLSign.obj
 0001:0005f4a0       ?_InternalQueryInterface@CSignature@@QAEJABU_GUID@@PAPAX@Z 100604a0 f i XMLSign.obj
 0001:0005f4e0       ?_GetEntries@CSignature@@SGPBU_ATL_INTMAP_ENTRY@ATL@@XZ 100604e0 f i XMLSign.obj
 0001:0005f4f0       ??0?$CComAggObject@VCSignature@@@ATL@@QAE@PAX@Z 100604f0 f i XMLSign.obj
 0001:0005f590       ?FinalConstruct@?$CComAggObject@VCSignature@@@ATL@@QAEJXZ 10060590 f i XMLSign.obj
 0001:0005f5d0       ?Release@?$CComPolyObject@VCAxHostWindow@ATL@@@ATL@@UAGKXZ 100605d0 f i ShowSelectCert.obj
 0001:0005f5d0       ?Release@?$CComAggObject@VCSignature@@@ATL@@UAGKXZ 100605d0 f i XMLSign.obj
 0001:0005f650       ?QueryInterface@?$CComAggObject@VCSignature@@@ATL@@UAGJABU_GUID@@PAPAX@Z 10060650 f i XMLSign.obj
 0001:0005f700       ??_E?$CComObject@VCSignature@@@ATL@@UAEPAXI@Z 10060700 f i XMLSign.obj
 0001:0005f700       ??_G?$CComObject@VCSignature@@@ATL@@UAEPAXI@Z 10060700 f i XMLSign.obj
 0001:0005f740       ??1?$CComObject@VCSignature@@@ATL@@UAE@XZ 10060740 f i XMLSign.obj
 0001:0005f7c0       ??_E?$CComAggObject@VCSignature@@@ATL@@UAEPAXI@Z 100607c0 f i XMLSign.obj
 0001:0005f7c0       ??_G?$CComAggObject@VCSignature@@@ATL@@UAEPAXI@Z 100607c0 f i XMLSign.obj
 0001:0005f800       ??1?$CComAggObject@VCSignature@@@ATL@@UAE@XZ 10060800 f i XMLSign.obj
 0001:0005f890       ??1?$CComContainedObject@VCSignature@@@ATL@@QAE@XZ 10060890 f i XMLSign.obj
 0001:0005f8c0       ?FinalRelease@?$CComAggObject@VCSignature@@@ATL@@QAEXXZ 100608c0 f i XMLSign.obj
 0001:0005f900       ??0?$CComContainedObject@VCSignature@@@ATL@@QAE@PAX@Z 10060900 f i XMLSign.obj
 0001:0005f950       ?AddRef@?$CComContainedObject@VCSignature@@@ATL@@UAGKXZ 10060950 f i XMLSign.obj
 0001:0005f970       ?Release@?$CComContainedObject@VCSignature@@@ATL@@UAGKXZ 10060970 f i XMLSign.obj
 0001:0005f990       ?QueryInterface@?$CComContainedObject@VCSignature@@@ATL@@UAGJABU_GUID@@PAPAX@Z 10060990 f i XMLSign.obj
 0001:0005f9c0       ?QueryInterface@?$CComObject@VCSignature@@@ATL@@W3AGJABU_GUID@@PAPAX@Z 100609c0 f i XMLSign.obj
 0001:0005f9d0       ?AddRef@?$CComObject@VCSignature@@@ATL@@W3AGKXZ 100609d0 f i XMLSign.obj
 0001:0005f9e0       ?Release@?$CComObject@VCSignature@@@ATL@@W3AGKXZ 100609e0 f i XMLSign.obj
 0001:0005f9f0       ?QueryInterface@?$CComObject@VCSignature@@@ATL@@W7AGJABU_GUID@@PAPAX@Z 100609f0 f i XMLSign.obj
 0001:0005fa00       ?AddRef@?$CComObject@VCSignature@@@ATL@@W7AGKXZ 10060a00 f i XMLSign.obj
 0001:0005fa10       ?Release@?$CComObject@VCSignature@@@ATL@@W7AGKXZ 10060a10 f i XMLSign.obj
 0001:0005fa20       ?QueryInterface@?$CComContainedObject@VCSignature@@@ATL@@W3AGJABU_GUID@@PAPAX@Z 10060a20 f i XMLSign.obj
 0001:0005fa30       ?AddRef@?$CComContainedObject@VCSignature@@@ATL@@W3AGKXZ 10060a30 f i XMLSign.obj
 0001:0005fa40       ?Release@?$CComContainedObject@VCSignature@@@ATL@@W3AGKXZ 10060a40 f i XMLSign.obj
 0001:0005fa50       ?QueryInterface@?$CComContainedObject@VCSignature@@@ATL@@W7AGJABU_GUID@@PAPAX@Z 10060a50 f i XMLSign.obj
 0001:0005fa60       ?AddRef@?$CComContainedObject@VCSignature@@@ATL@@W7AGKXZ 10060a60 f i XMLSign.obj
 0001:0005fa70       ?Release@?$CComContainedObject@VCSignature@@@ATL@@W7AGKXZ 10060a70 f i XMLSign.obj
 0001:0005fa80       ?RegisterServer@?$CAtlModuleT@VCComModule@ATL@@@ATL@@QAEJHPBU_GUID@@@Z 10060a80 f i XMLSign.obj
 0001:0005fb00       ?RegisterServer@CAtlComModule@ATL@@QAEJHPBU_GUID@@@Z 10060b00 f i XMLSign.obj
 0001:0005fb30       ?AtlComModuleRegisterServer@ATL@@YGJPAU_ATL_COM_MODULE70@1@HPBU_GUID@@@Z 10060b30 f i XMLSign.obj
 0001:0005fc80       ?AtlRegisterTypeLib@ATL@@YGJPAUHINSTANCE__@@PBG@Z 10060c80 f i XMLSign.obj
 0001:0005fe50       ?CharNextO@@YAPAGPBG@Z     10060e50 f i XMLSign.obj
 0001:0005fe80       ?AtlLoadTypeLib@ATL@@YGJPAUHINSTANCE__@@PBGPAPAGPAPAUITypeLib@@@Z 10060e80 f i XMLSign.obj
 0001:00060470       ?UnregisterServer@?$CAtlModuleT@VCComModule@ATL@@@ATL@@QAEJHPBU_GUID@@@Z 10061470 f i XMLSign.obj
 0001:000604e0       ?UnregisterServer@CAtlComModule@ATL@@QAEJHPBU_GUID@@@Z 100614e0 f i XMLSign.obj
 0001:00060510       ?AtlComModuleUnregisterServer@ATL@@YGJPAU_ATL_COM_MODULE70@1@HPBU_GUID@@@Z 10061510 f i XMLSign.obj
 0001:00060640       ?AtlUnRegisterTypeLib@ATL@@YGJPAUHINSTANCE__@@PBG@Z 10061640 f i XMLSign.obj
 0001:000607a0       ??0?$CSimpleMap@PADPAGVCExpansionVectorEqualHelper@ATL@@@ATL@@QAE@XZ 100617a0 f i XMLSign.obj
 0001:000607a0       ??0?$CSimpleArray@GV?$CSimpleArrayEqualHelper@G@ATL@@@ATL@@QAE@XZ 100617a0 f i CAMClient.obj
 0001:000607e0       ??1?$CSimpleMap@PADPAGVCExpansionVectorEqualHelper@ATL@@@ATL@@QAE@XZ 100617e0 f i XMLSign.obj
 0001:00060810       ?Add@?$CSimpleMap@PADPAGVCExpansionVectorEqualHelper@ATL@@@ATL@@QAEHABQADABQAG@Z 10061810 f i XMLSign.obj
 0001:000608d0       ?RemoveAll@?$CSimpleMap@PADPAGVCExpansionVectorEqualHelper@ATL@@@ATL@@QAEXXZ 100618d0 f i XMLSign.obj
 0001:00060960       ?Lookup@?$CSimpleMap@PADPAGVCExpansionVectorEqualHelper@ATL@@@ATL@@QBEPAGABQAD@Z 10061960 f i XMLSign.obj
 0001:000609b0       ?GetKeyAt@?$CSimpleMap@PADPAGVCExpansionVectorEqualHelper@ATL@@@ATL@@QBEAAPADH@Z 100619b0 f i XMLSign.obj
 0001:00060a30       ?GetValueAt@?$CSimpleMap@PADPAGVCExpansionVectorEqualHelper@ATL@@@ATL@@QBEAAPAGH@Z 10061a30 f i XMLSign.obj
 0001:00060ab0       ?Allocate@?$CTempBuffer@D$0EAA@VCCRTAllocator@ATL@@@ATL@@QAEPADI@Z 10061ab0 f i XMLSign.obj
 0001:00060ae0       ??1?$CTempBuffer@D$0EAA@VCCRTAllocator@ATL@@@ATL@@QAE@XZ 10061ae0 f i XMLSign.obj
 0001:00060ae0       ??1?$CTempBuffer@D$0BAA@VCCRTAllocator@ATL@@@ATL@@QAE@XZ 10061ae0 f i XMLSign.obj
 0001:00060ae0       ??1?$CTempBuffer@E$0BAA@VCCRTAllocator@ATL@@@ATL@@QAE@XZ 10061ae0 f i XMLSign.obj
 0001:00060b20       ?Allocate@?$CTempBuffer@D$0BAA@VCCRTAllocator@ATL@@@ATL@@QAEPADI@Z 10061b20 f i XMLSign.obj
 0001:00060b20       ?Allocate@?$CTempBuffer@E$0BAA@VCCRTAllocator@ATL@@@ATL@@QAEPAEI@Z 10061b20 f i XMLSign.obj
 0001:00060b50       ??0?$CComObjectRootEx@VCComSingleThreadModel@ATL@@@ATL@@QAE@XZ 10061b50 f i ShowSelectCert.obj
 0001:00060b50       ??0?$CComPtr@UIObjectWithSite@@@ATL@@QAE@XZ 10061b50 f i ShowSelectCert.obj
 0001:00060b50       ??0?$CComPtr@UIHTMLDocument2@@@ATL@@QAE@XZ 10061b50 f i Signature.obj
 0001:00060b50       ??0?$CComPtr@UIOleInPlaceActiveObject@@@ATL@@QAE@XZ 10061b50 f i ShowSelectCert.obj
 0001:00060b50       ??0iterator@?$list@PAUAllocInfo@@V?$allocator@PAUAllocInfo@@@std@@@std@@QAE@XZ 10061b50 f i xmlsigd_nss:DebugLog.obj
 0001:00060b50       ??0?$CComPtr@UIWebBrowser2@@@ATL@@QAE@XZ 10061b50 f i ShowSelectCert.obj
 0001:00060b50       ??0?$CComPtr@UIUnknown@@@ATL@@QAE@XZ 10061b50 f i ShowSelectCert.obj
 0001:00060b50       ??0?$CComPtr@UICatRegister@@@ATL@@QAE@XZ 10061b50 f i XMLSign.obj
 0001:00060b50       ??0?$CComPtr@UIAxWinHostWindowLic@@@ATL@@QAE@XZ 10061b50 f i ShowSelectCert.obj
 0001:00060b50       ??0?$CComPtr@UIOleInPlaceObjectWindowless@@@ATL@@QAE@XZ 10061b50 f i ShowSelectCert.obj
 0001:00060b50       ??0?$CComPtr@UIAdviseSink@@@ATL@@QAE@XZ 10061b50 f i ShowSelectCert.obj
 0001:00060b50       ??0?$CComPtr@UIDocHostUIHandlerDispatch@@@ATL@@QAE@XZ 10061b50 f i ShowSelectCert.obj
 0001:00060b50       ??0?$CComPtr@UIClassFactory2@@@ATL@@QAE@XZ 10061b50 f i ShowSelectCert.obj
 0001:00060b50       ??0?$CComPtr@UIOleObject@@@ATL@@QAE@XZ 10061b50 f i ShowSelectCert.obj
 0001:00060b50       ??0?$CComPtr@UIViewObjectEx@@@ATL@@QAE@XZ 10061b50 f i ShowSelectCert.obj
 0001:00060b50       ??0?$CComPtr@UIOleInPlaceUIWindow@@@ATL@@QAE@XZ 10061b50 f i ShowSelectCert.obj
 0001:00060b50       ??0?$CComPtr@UIOleControl@@@ATL@@QAE@XZ 10061b50 f i ShowSelectCert.obj
 0001:00060b50       ??0?$CComPtr@UIOleInPlaceFrame@@@ATL@@QAE@XZ 10061b50 f i ShowSelectCert.obj
 0001:00060b50       ??0?$CComPtr@UIPersistStreamInit@@@ATL@@QAE@XZ 10061b50 f i ShowSelectCert.obj
 0001:00060b50       ??0iterator@?$list@PAEV?$allocator@PAE@std@@@std@@QAE@XZ 10061b50 f i CertVerify.obj
 0001:00060b50       ??0?$CComPtr@UIStream@@@ATL@@QAE@XZ 10061b50 f i ShowSelectCert.obj
 0001:00060b50       ??0?$CComPtr@UITypeLib@@@ATL@@QAE@XZ 10061b50 f i ShowSelectCert.obj
 0001:00060b50       ??0?$CComPtr@UIPersistStream@@@ATL@@QAE@XZ 10061b50 f i ShowSelectCert.obj
 0001:00060b50       ??0?$CComPtr@UITypeInfo@@@ATL@@QAE@XZ 10061b50 f i ShowSelectCert.obj
 0001:00060b50       ??0?$CComPtr@UITypeInfo2@@@ATL@@QAE@XZ 10061b50 f i ShowSelectCert.obj
 0001:00060b50       ??0?$CComPtr@UIOleClientSite@@@ATL@@QAE@XZ 10061b50 f i ShowSelectCert.obj
 0001:00060b50       ??0?$CComPtr@UIDispatch@@@ATL@@QAE@XZ 10061b50 f i ShowSelectCert.obj
 0001:00060b50       ??0?$CComPtr@UIServiceProvider@@@ATL@@QAE@XZ 10061b50 f i ShowSelectCert.obj
 0001:00060b50       ??0?$CComPtr@UIFontDisp@@@ATL@@QAE@XZ 10061b50 f i ShowSelectCert.obj
 0001:00060b80       ?FindKey@?$CSimpleMap@PADPAGVCExpansionVectorEqualHelper@ATL@@@ATL@@QBEHABQAD@Z 10061b80 f i XMLSign.obj
 0001:00060bf0       ?IsEqualKey@CExpansionVectorEqualHelper@ATL@@SA_NQAD0@Z 10061bf0 f i XMLSign.obj
 0001:00060c20       ?InternalSetAtIndex@?$CSimpleMap@PADPAGVCExpansionVectorEqualHelper@ATL@@@ATL@@QAEXHABQADABQAG@Z 10061c20 f i XMLSign.obj
 0001:00060d10       ?AllocateBytes@?$CTempBuffer@D$0EAA@VCCRTAllocator@ATL@@@ATL@@QAEPADI@Z 10061d10 f i XMLSign.obj
 0001:00060d80       ?AllocateBytes@?$CTempBuffer@D$0BAA@VCCRTAllocator@ATL@@@ATL@@QAEPADI@Z 10061d80 f i XMLSign.obj
 0001:00060d80       ?AllocateBytes@?$CTempBuffer@E$0BAA@VCCRTAllocator@ATL@@@ATL@@QAEPAEI@Z 10061d80 f i XMLSign.obj
 0001:00060df0       ?FreeHeap@?$CTempBuffer@D$0EAA@VCCRTAllocator@ATL@@@ATL@@AAEXXZ 10061df0 f i XMLSign.obj
 0001:00060df0       ?FreeHeap@?$CTempBuffer@D$0BAA@VCCRTAllocator@ATL@@@ATL@@AAEXXZ 10061df0 f i XMLSign.obj
 0001:00060df0       ?FreeHeap@?$CTempBuffer@E$0BAA@VCCRTAllocator@ATL@@@ATL@@AAEXXZ 10061df0 f i XMLSign.obj
 0001:00060e20       ?AllocateHeap@?$CTempBuffer@D$0EAA@VCCRTAllocator@ATL@@@ATL@@AAEXI@Z 10061e20 f i XMLSign.obj
 0001:00060e20       ?AllocateHeap@?$CTempBuffer@E$0BAA@VCCRTAllocator@ATL@@@ATL@@AAEXI@Z 10061e20 f i XMLSign.obj
 0001:00060e20       ?AllocateHeap@?$CTempBuffer@D$0BAA@VCCRTAllocator@ATL@@@ATL@@AAEXI@Z 10061e20 f i XMLSign.obj
 0001:00060e70       ??0?$Wrapper@PAD@?$CSimpleMap@PADPAGVCExpansionVectorEqualHelper@ATL@@@ATL@@QAE@ABQAD@Z 10061e70 f i XMLSign.obj
 0001:00060e70       ??0?$Wrapper@PAG@?$CSimpleMap@PADPAGVCExpansionVectorEqualHelper@ATL@@@ATL@@QAE@ABQAG@Z 10061e70 f i XMLSign.obj
 0001:00060ea0       ??0CComModule@ATL@@QAE@XZ  10061ea0 f i XMLSign.obj
 0001:00060f10       ?Lock@CAtlModule@ATL@@UAEJXZ 10061f10 f i XMLSign.obj
 0001:00060f40       ?Unlock@CAtlModule@ATL@@UAEJXZ 10061f40 f i XMLSign.obj
 0001:00060f70       ?GetGITPtr@CAtlModule@ATL@@UAEJPAPAUIGlobalInterfaceTable@@@Z 10061f70 f i XMLSign.obj
 0001:00061060       ?UpdateRegistryFromResourceD@CComModule@ATL@@UAGJIHPAU_ATL_REGMAP_ENTRY@2@@Z 10062060 f i XMLSign.obj
 0001:00061060       ?UpdateRegistryFromResourceD@CComModule@ATL@@UAGJPBDHPAU_ATL_REGMAP_ENTRY@2@@Z 10062060 f i XMLSign.obj
 0001:00061070       ?UpdateRegistryFromResourceS@CComModule@ATL@@UAGJPBDHPAU_ATL_REGMAP_ENTRY@2@@Z 10062070 f i XMLSign.obj
 0001:000610a0       ??_GCComModule@ATL@@UAEPAXI@Z 100620a0 f i XMLSign.obj
 0001:000610a0       ??_ECComModule@ATL@@UAEPAXI@Z 100620a0 f i XMLSign.obj
 0001:000610e0       ??1CComModule@ATL@@UAE@XZ  100620e0 f i XMLSign.obj
 0001:00061110       ??1?$CAtlModuleT@VCComModule@ATL@@@ATL@@UAE@XZ 10062110 f i XMLSign.obj
 0001:00061140       ??1CAtlModule@ATL@@UAE@XZ  10062140 f i XMLSign.obj
 0001:00061170       ?UpdateRegistryFromResourceS@CAtlModule@ATL@@QAGJPBDHPAU_ATL_REGMAP_ENTRY@2@@Z 10062170 f i XMLSign.obj
 0001:00061730       ?ResourceRegisterSz@CRegObject@ATL@@QAGJPBG00@Z 10062730 f i XMLSign.obj
 0001:00061980       ?ResourceUnregisterSz@CRegObject@ATL@@QAGJPBG00@Z 10062980 f i XMLSign.obj
 0001:00061bd0       ??0?$CAtlModuleT@VCComModule@ATL@@@ATL@@QAE@XZ 10062bd0 f i XMLSign.obj
 0001:00061c00       ??0CAtlModule@ATL@@QAE@XZ  10062c00 f i XMLSign.obj
 0001:00061d00       ??0_ATL_MODULE70@ATL@@QAE@XZ 10062d00 f i XMLSign.obj
 0001:00061d30       ?AddCommonRGSReplacements@?$CAtlModuleT@VCComModule@ATL@@@ATL@@UAEJPAUIRegistrarBase@@@Z 10062d30 f i XMLSign.obj
 0001:00061d70       ?GetAppId@?$CAtlModuleT@VCComModule@ATL@@@ATL@@SAPBGXZ 10062d70 f i XMLSign.obj
 0001:00061d7a       _SEC_PKCS7DestroyContentInfo 10062d7a f   smime3:smime3.dll
 0001:00061d80       _SEC_PKCS7EncoderFinish    10062d80 f   smime3:smime3.dll
 0001:00061d86       _SEC_PKCS7EncoderUpdate    10062d86 f   smime3:smime3.dll
 0001:00061d8c       _SEC_PKCS7EncoderStart     10062d8c f   smime3:smime3.dll
 0001:00061d92       _SEC_PKCS7AddRecipient     10062d92 f   smime3:smime3.dll
 0001:00061d98       _SEC_PKCS7CreateEnvelopedData 10062d98 f   smime3:smime3.dll
 0001:00061d9e       _CERT_DestroyCertificate   10062d9e f   nss3:nss3.dll
 0001:00061da4       _CERT_DestroyCertArray     10062da4 f   nss3:nss3.dll
 0001:00061daa       _CERT_ImportCerts          10062daa f   nss3:nss3.dll
 0001:00061db0       _SEC_DeletePermCertificate 10062db0 f   nss3:nss3.dll
 0001:00061db6       _CERT_GetDefaultCertDB     10062db6 f   nss3:nss3.dll
 0001:00061dbc       _CERT_DestroyCertificateList 10062dbc f   nss3:nss3.dll
 0001:00061dc2       _CERT_VerifyCertificate    10062dc2 f   nss3:nss3.dll
 0001:00061dc8       _PORT_NewArena             10062dc8 f   nss3:nss3.dll
 0001:00061dce       _CERT_CertChainFromCert    10062dce f   nss3:nss3.dll
 0001:00061dd4       _SECITEM_FreeItem          10062dd4 f   nss3:nss3.dll
 0001:00061dda       _SEC_DestroyCrl            10062dda f   nss3:nss3.dll
 0001:00061de0       _CERT_VerifySignedData     10062de0 f   nss3:nss3.dll
 0001:00061de6       _PORT_Free                 10062de6 f   nss3:nss3.dll
 0001:00061dec       _CERT_NameToAscii          10062dec f   nss3:nss3.dll
 0001:00061df2       _CERT_DecodeDERCrl         10062df2 f   nss3:nss3.dll
 0001:00061df8       _SECITEM_CompareItem       10062df8 f   nss3:nss3.dll
 0001:00061dfe       _DER_UTCTimeToTime         10062dfe f   nss3:nss3.dll
 0001:00061e04       _PORT_Alloc                10062e04 f   nss3:nss3.dll
 0001:00061e10       _base64encodeSize          10062e10 f   xmlsigd_nss:base64.obj
 0001:00061e50       _base64encode              10062e50 f   xmlsigd_nss:base64.obj
 0001:00062020       _base64decodeSize          10063020 f   xmlsigd_nss:base64.obj
 0001:00062050       _base64decode              10063050 f   xmlsigd_nss:base64.obj
 0001:00062340       _myMalloc                  10063340 f   xmlsigd_nss:DebugLog.obj
 0001:00062390       _myFree                    10063390 f   xmlsigd_nss:DebugLog.obj
 0001:000623c0       _rFree                     100633c0 f   xmlsigd_nss:DebugLog.obj
 0001:000623e0       _myRealloc                 100633e0 f   xmlsigd_nss:DebugLog.obj
 0001:00062450       _AddTrack                  10063450 f   xmlsigd_nss:DebugLog.obj
 0001:00062600       _RemoveTrack               10063600 f   xmlsigd_nss:DebugLog.obj
 0001:00062830       _DumpUnfreed               10063830 f   xmlsigd_nss:DebugLog.obj
 0001:000629e0       _AddLog                    100639e0 f   xmlsigd_nss:DebugLog.obj
 0001:00062b60       _AddLogDetail              10063b60 f   xmlsigd_nss:DebugLog.obj
 0001:00062d00       _LogMemoryStatus           10063d00 f   xmlsigd_nss:DebugLog.obj
 0001:00062e30       ??0?$list@PAUAllocInfo@@V?$allocator@PAUAllocInfo@@@std@@@std@@QAE@XZ 10063e30 f i xmlsigd_nss:DebugLog.obj
 0001:00062e80       ?insert@?$list@PAUAllocInfo@@V?$allocator@PAUAllocInfo@@@std@@@std@@QAE?AViterator@12@V312@ABQAUAllocInfo@@@Z 10063e80 f i xmlsigd_nss:DebugLog.obj
 0001:00062ec0       ?remove@?$list@PAUTempFilePathInfo@@V?$allocator@PAUTempFilePathInfo@@@std@@@std@@QAEXABQAUTempFilePathInfo@@@Z 10063ec0 f i Signature.obj
 0001:00062ec0       ?remove@?$list@PAUAllocInfo@@V?$allocator@PAUAllocInfo@@@std@@@std@@QAEXABQAUAllocInfo@@@Z 10063ec0 f i xmlsigd_nss:DebugLog.obj
 0001:00062fa0       ??9const_iterator@?$list@PAUTempFilePathInfo@@V?$allocator@PAUTempFilePathInfo@@@std@@@std@@QBE_NABV012@@Z 10063fa0 f i Signature.obj
 0001:00062fa0       ??9const_iterator@?$list@PAUAllocInfo@@V?$allocator@PAUAllocInfo@@@std@@@std@@QBE_NABV012@@Z 10063fa0 f i xmlsigd_nss:DebugLog.obj
 0001:00062fe0       ?_Insert@?$list@PAUAllocInfo@@V?$allocator@PAUAllocInfo@@@std@@@std@@QAEXViterator@12@ABQAUAllocInfo@@@Z 10063fe0 f i xmlsigd_nss:DebugLog.obj
 0001:00063080       ?erase@?$list@PAUAllocInfo@@V?$allocator@PAUAllocInfo@@@std@@@std@@QAE?AViterator@12@V312@@Z 10064080 f i xmlsigd_nss:DebugLog.obj
 0001:00063080       ?erase@?$list@PAUTempFilePathInfo@@V?$allocator@PAUTempFilePathInfo@@@std@@@std@@QAE?AViterator@12@V312@@Z 10064080 f i Signature.obj
 0001:00063160       ?_Buynode@?$list@PAUAllocInfo@@V?$allocator@PAUAllocInfo@@@std@@@std@@IAEPAU_Node@?$_List_nod@PAUAllocInfo@@V?$allocator@PAUAllocInfo@@@std@@@2@XZ 10064160 f i xmlsigd_nss:DebugLog.obj
 0001:00063290       ??Dconst_iterator@?$list@PAUTempFilePathInfo@@V?$allocator@PAUTempFilePathInfo@@@std@@@std@@QBEABQAUTempFilePathInfo@@XZ 10064290 f i Signature.obj
 0001:00063290       ??Dconst_iterator@?$list@PAUAllocInfo@@V?$allocator@PAUAllocInfo@@@std@@@std@@QBEABQAUAllocInfo@@XZ 10064290 f i xmlsigd_nss:DebugLog.obj
 0001:00063290       ??Dconst_iterator@?$list@PAEV?$allocator@PAE@std@@@std@@QBEABQAEXZ 10064290 f i CertVerify.obj
 0001:000632c0       ??8const_iterator@?$list@PAUAllocInfo@@V?$allocator@PAUAllocInfo@@@std@@@std@@QBE_NABV012@@Z 100642c0 f i xmlsigd_nss:DebugLog.obj
 0001:000632c0       ??8const_iterator@?$list@PAUTempFilePathInfo@@V?$allocator@PAUTempFilePathInfo@@@std@@@std@@QBE_NABV012@@Z 100642c0 f i Signature.obj
 0001:000632f0       ?_Buynode@?$list@PAUAllocInfo@@V?$allocator@PAUAllocInfo@@@std@@@std@@IAEPAU_Node@?$_List_nod@PAUAllocInfo@@V?$allocator@PAUAllocInfo@@@std@@@2@PAU342@0ABQAUAllocInfo@@@Z 100642f0 f i xmlsigd_nss:DebugLog.obj
 0001:000633d0       ?_Incsize@?$list@PAUAllocInfo@@V?$allocator@PAUAllocInfo@@@std@@@std@@IAEXI@Z 100643d0 f i xmlsigd_nss:DebugLog.obj
 0001:00063470       ?deallocate@?$allocator@D@std@@QAEXPADI@Z 10064470 f i CertVerify.obj
 0001:00063470       ?deallocate@?$allocator@U_Node@?$_List_nod@PAUTempFilePathInfo@@V?$allocator@PAUTempFilePathInfo@@@std@@@std@@@std@@QAEXPAU_Node@?$_List_nod@PAUTempFilePathInfo@@V?$allocator@PAUTempFilePathInfo@@@std@@@2@I@Z 10064470 f i Signature.obj
 0001:00063470       ?deallocate@?$allocator@U_Node@?$_List_nod@PAUAllocInfo@@V?$allocator@PAUAllocInfo@@@std@@@std@@@std@@QAEXPAU_Node@?$_List_nod@PAUAllocInfo@@V?$allocator@PAUAllocInfo@@@std@@@2@I@Z 10064470 f i xmlsigd_nss:DebugLog.obj
 0001:00063470       ?deallocate@?$allocator@PAUSECItemStr@@@std@@QAEXPAPAUSECItemStr@@I@Z 10064470 f i CertVerify.obj
 0001:00063470       ?deallocate@?$allocator@U_Node@?$_List_nod@PAEV?$allocator@PAE@std@@@std@@@std@@QAEXPAU_Node@?$_List_nod@PAEV?$allocator@PAE@std@@@2@I@Z 10064470 f i CertVerify.obj
 0001:000634a0       ??0?$_List_nod@PAUTempFilePathInfo@@V?$allocator@PAUTempFilePathInfo@@@std@@@std@@IAE@V?$allocator@PAUTempFilePathInfo@@@1@@Z 100644a0 f i Signature.obj
 0001:000634a0       ??0?$_List_nod@PAUAllocInfo@@V?$allocator@PAUAllocInfo@@@std@@@std@@IAE@V?$allocator@PAUAllocInfo@@@1@@Z 100644a0 f i xmlsigd_nss:DebugLog.obj
 0001:000634a0       ??0?$_String_val@DV?$allocator@D@std@@@std@@IAE@V?$allocator@D@1@@Z 100644a0 f i CertVerify.obj
 0001:000634a0       ??0?$_List_nod@PAEV?$allocator@PAE@std@@@std@@IAE@V?$allocator@PAE@1@@Z 100644a0 f i CertVerify.obj
 0001:000634a0       ??0?$_Vector_val@PAUSECItemStr@@V?$allocator@PAUSECItemStr@@@std@@@std@@IAE@V?$allocator@PAUSECItemStr@@@1@@Z 100644a0 f i CertVerify.obj
 0001:000634d0       ??0_Node@?$_List_nod@PAUAllocInfo@@V?$allocator@PAUAllocInfo@@@std@@@std@@QAE@PAU012@0ABQAUAllocInfo@@@Z 100644d0 f i xmlsigd_nss:DebugLog.obj
 0001:000634d0       ??0_Node@?$_List_nod@PAUTempFilePathInfo@@V?$allocator@PAUTempFilePathInfo@@@std@@@std@@QAE@PAU012@0ABQAUTempFilePathInfo@@@Z 100644d0 f i Signature.obj
 0001:000634d0       ??0_Node@?$_List_nod@PAEV?$allocator@PAE@std@@@std@@QAE@PAU012@0ABQAE@Z 100644d0 f i CertVerify.obj
 0001:00063510       ?max_size@?$allocator@PAUAllocInfo@@@std@@QBEIXZ 10064510 f i xmlsigd_nss:DebugLog.obj
 0001:00063510       ?max_size@?$allocator@PAUSECItemStr@@@std@@QBEIXZ 10064510 f i CertVerify.obj
 0001:00063510       ?max_size@?$allocator@PAE@std@@QBEIXZ 10064510 f i CertVerify.obj
 0001:00063510       ?max_size@?$allocator@PAUTempFilePathInfo@@@std@@QBEIXZ 10064510 f i Signature.obj
 0001:00063560       ??$_Allocate@U_Node@?$_List_nod@PAUAllocInfo@@V?$allocator@PAUAllocInfo@@@std@@@std@@@std@@YAPAU_Node@?$_List_nod@PAUAllocInfo@@V?$allocator@PAUAllocInfo@@@std@@@0@IPAU120@@Z 10064560 f i xmlsigd_nss:DebugLog.obj
 0001:00063560       ??$_Allocate@U_Node@?$_List_nod@PAUTempFilePathInfo@@V?$allocator@PAUTempFilePathInfo@@@std@@@std@@@std@@YAPAU_Node@?$_List_nod@PAUTempFilePathInfo@@V?$allocator@PAUTempFilePathInfo@@@std@@@0@IPAU120@@Z 10064560 f i Signature.obj
 0001:00063560       ??$_Allocate@U_Node@?$_List_nod@PAEV?$allocator@PAE@std@@@std@@@std@@YAPAU_Node@?$_List_nod@PAEV?$allocator@PAE@std@@@0@IPAU120@@Z 10064560 f i CertVerify.obj
 0001:00063580       _crComputeHash             10064580 f   xmlsigd_nss:cr.obj
 0001:000637d0       _crGetPubKey               100647d0 f   xmlsigd_nss:cr.obj
 0001:000638b0       _crGetCertPubKey           100648b0 f   xmlsigd_nss:cr.obj
 0001:00063c60       _crVerifyDigest            10064c60 f   xmlsigd_nss:cr.obj
 0001:000640a0       _crVerifySignature         100650a0 f   xmlsigd_nss:cr.obj
 0001:00064690       _crI2O                     10065690 f   xmlsigd_nss:cr.obj
 0001:000648b0       _crO2I                     100658b0 f   xmlsigd_nss:cr.obj
 0001:00064a10       _crGetCertDetails          10065a10 f   xmlsigd_nss:cr.obj
 0001:00064c40       _crGetProviderType         10065c40 f   xmlsigd_nss:cr.obj
 0001:00064df0       _crSign                    10065df0 f   xmlsigd_nss:cr.obj
 0001:00065670       _crGetCALG                 10066670 f   xmlsigd_nss:cr.obj
 0001:00065710       _crConvertXmlDSASigToApi   10066710 f   xmlsigd_nss:cr.obj
 0001:00065900       _crConvertXmlRSASigToApi   10066900 f   xmlsigd_nss:cr.obj
 0001:00065960       _crConvertApiDSASigToXml   10066960 f   xmlsigd_nss:cr.obj
 0001:00065a50       _crConvertApiRSASigToXml   10066a50 f   xmlsigd_nss:cr.obj
 0001:00065b30       _crPFX2X509                10066b30 f   xmlsigd_nss:cr.obj
 0001:00065c20       _crIsPFX                   10066c20 f   xmlsigd_nss:cr.obj
 0001:00065d80       _getCRLDist                10066d80 f   xmlsigd_nss:cr.obj
 0001:00065e40       _fetch_URL                 10066e40 f   xmlsigd_nss:cr.obj
 0001:00065ec0       _fetchLDAP_URL             10066ec0 f   xmlsigd_nss:cr.obj
 0001:00066720       _cleanupError              10067720 f   xmlsigd_nss:cr.obj
 0001:00066790       ?normalizeCertName@@YAPAEPAE@Z 10067790 f   xmlsigd_nss:cr.obj
 0001:000668b0       _certIsNameEqual           100678b0 f   xmlsigd_nss:cr.obj
 0001:00066950       _certIsNameChainOK         10067950 f   xmlsigd_nss:cr.obj
 0001:00066b20       _certIsBasicExtensionConstraintOK 10067b20 f   xmlsigd_nss:cr.obj
 0001:00066c50       _certIsPathLengthConstraintOK 10067c50 f   xmlsigd_nss:cr.obj
 0001:00066e10       _certIsKeyUsageOK          10067e10 f   xmlsigd_nss:cr.obj
 0001:00066f80       _getAuthConstrainedPolicySet 10067f80 f   xmlsigd_nss:cr.obj
 0001:00067490       _getUserConstrainedPolicySet 10068490 f   xmlsigd_nss:cr.obj
 0001:00067800       _crGetSignerCertChain      10068800 f   xmlsigd_nss:cr.obj
 0001:00067df0       _crNSS_PFXIsPFXBlob        10068df0 f   xmlsigd_nss:cr.obj
 0001:00067e10       _crDecodeCertificate       10068e10 f   xmlsigd_nss:cr.obj
 0001:000692c0       _NSS_ImportPKCS12Object    1006a2c0 f   xmlsigd_nss:cr.obj
 0001:000693a0       _FindCertInCRL             1006a3a0 f   xmlsigd_nss:cr.obj
 0001:00069450       _setError                  1006a450 f   xmlsigd_nss:utils.obj
 0001:000694f0       _setErrorWithDescr         1006a4f0 f   xmlsigd_nss:utils.obj
 0001:00069590       _xsGetErrorDescription     1006a590 f   xmlsigd_nss:utils.obj
 0001:000696f0       _xsGetErrorNumber          1006a6f0 f   xmlsigd_nss:utils.obj
 0001:00069710       _xsCheckError              1006a710 f   xmlsigd_nss:utils.obj
 0001:00069770       _trim                      1006a770 f   xmlsigd_nss:utils.obj
 0001:000698a0       _zeroSpace                 1006a8a0 f   xmlsigd_nss:utils.obj
 0001:000699e0       _xsRemovePath              1006a9e0 f   xmlsigd_nss:utils.obj
 0001:00069b40       _decodeBigEndian           1006ab40 f   xmlsigd_nss:utils.obj
 0001:00069de0       _printStatus               1006ade0 f   xmlsigd_nss:utils.obj
 0001:00069df0       _freeThisSignature         1006adf0 f   xmlsigd_nss:utils.obj
 0001:00069ea0       _simpleSort                1006aea0 f   xmlsigd_nss:utils.obj
 0001:0006a1f0       _rfcTimeToSystem           1006b1f0 f   xmlsigd_nss:utils.obj
 0001:0006a480       _getSystemTimeAsRfcTime    1006b480 f   xmlsigd_nss:utils.obj
 0001:0006a560       _systemTimeToRfcTime       1006b560 f   xmlsigd_nss:utils.obj
 0001:0006a5f0       _systemTimeToVbNowTime     1006b5f0 f   xmlsigd_nss:utils.obj
 0001:0006a6a0       _vbNowTimeToSystem         1006b6a0 f   xmlsigd_nss:utils.obj
 0001:0006a900       _systemTimeToJsUtcTime     1006b900 f   xmlsigd_nss:utils.obj
 0001:0006a990       _jsUtcTimeToSystem         1006b990 f   xmlsigd_nss:utils.obj
 0001:0006abe0       _stolower                  1006bbe0 f   xmlsigd_nss:utils.obj
 0001:0006ac90       _DecodeDERCertificate      1006bc90 f   xmlsigd_nss:nsscert.obj
 0001:0006acd0       _FindCRLDistributionPoints 1006bcd0 f   xmlsigd_nss:nsscert.obj
 0001:0006b120       _FindBasicConstraintExten  1006c120 f   xmlsigd_nss:nsscert.obj
 0001:0006b1e0       _i_GetExtension            1006c1e0 f   xmlsigd_nss:nsscert.obj
 0001:0006b270       _i_cert_FindExtensionByOID 1006c270 f   xmlsigd_nss:nsscert.obj
 0001:0006b2f0       _i_CERT_GetExtenCriticality 1006c2f0 f   xmlsigd_nss:nsscert.obj
 0001:0006b390       _i_cert_FindExtension      1006c390 f   xmlsigd_nss:nsscert.obj
 0001:0006b3e0       _i_cert_HasCriticalExtension 1006c3e0 f   xmlsigd_nss:nsscert.obj
 0001:0006b460       _i_CERT_DecodeCertificatePolicyConstraintsExtension 1006c460 f   xmlsigd_nss:nsscert.obj
 0001:0006b750       _i_CERT_DecodeCertificatePoliciesExtension 1006c750 f   xmlsigd_nss:nsscert.obj
 0001:0006b8c0       _i_CERT_DestroyCertificatePoliciesExtension 1006c8c0 f   xmlsigd_nss:nsscert.obj
 0001:0006bbc0       _xsDereferenceURI          1006cbc0 f   xmlsigd_nss:xs.obj
 0001:0006be30       _xsGenerateReference       1006ce30 f   xmlsigd_nss:xs.obj
 0001:0006c1c0       _xsGenerateObject          1006d1c0 f   xmlsigd_nss:xs.obj
 0001:0006c550       _xsGenerateTransform       1006d550 f   xmlsigd_nss:xs.obj
 0001:0006c7b0       _xsInitSignature           1006d7b0 f   xmlsigd_nss:xs.obj
 0001:0006ccb0       _xsGetReferenceOctets      1006dcb0 f   xmlsigd_nss:xs.obj
 0001:0006d9b0       _xsDecodeAlg               1006e9b0 f   xmlsigd_nss:xs.obj
 0001:0006dbe0       _xsFree                    1006ebe0 f   xmlsigd_nss:xs.obj
 0001:0006e190       _xsHTTPFetch               1006f190 f   xmlsigd_nss:xs.obj
 0001:0006e450       _xsSigNodeById             1006f450 f   xmlsigd_nss:xs.obj
 0001:0006e660       _xsGetSigNodeSet           1006f660 f   xmlsigd_nss:xs.obj
 0001:0006e7b0       _isSignatureComplete       1006f7b0 f   xmlsigd_nss:xs.obj
 0001:0006e880       _xsGetChildNodeSet         1006f880 f   xmlsigd_nss:xs.obj
 0001:0006ead0       ?bin2hex@@YADD@Z           1006fad0 f   xmlsigd_nss:xs.obj
 0001:0006eb00       ?isAllowed@@YAHD@Z         1006fb00 f   xmlsigd_nss:xs.obj
 0001:0006ecc0       ?URLencode@@YAHPBDPADH@Z   1006fcc0 f   xmlsigd_nss:xs.obj
 0001:0006edc0       _axInit                    1006fdc0 f   xmlsigd_nss:axBean.obj
 0001:0006ee00       _axGetSignature            1006fe00 f   xmlsigd_nss:axBean.obj
 0001:0006ee30       _axFree                    1006fe30 f   xmlsigd_nss:axBean.obj
 0001:0006efb0       _axGetError                1006ffb0 f   xmlsigd_nss:axBean.obj
 0001:0006efd0       _axGetLastError            1006ffd0 f   xmlsigd_nss:axBean.obj
 0001:0006eff0       _axVerifyDetachedFile      1006fff0 f   xmlsigd_nss:axBean.obj
 0001:0006f050       _axVerifyFile              10070050 f   xmlsigd_nss:axBean.obj
 0001:0006f120       _axVerify                  10070120 f   xmlsigd_nss:axBean.obj
 0001:0006f650       ?NSSStop@@YAHXZ            10070650 f   xmlsigd_nss:axBean.obj
 0001:0006f670       _axSelectCertificate       10070670 f   xmlsigd_nss:cryptui.obj
 0001:0006f690       _crFilterCerts             10070690 f   xmlsigd_nss:cryptui.obj
 0001:0006f6f0       _axGetRecipientCertificateList 100706f0 f   xmlsigd_nss:cryptui.obj
 0001:0006f750       _axGetCertificateList      10070750 f   xmlsigd_nss:cryptui.obj
 0001:0006f930       _axGetCertificate          10070930 f   xmlsigd_nss:cryptui.obj
 0001:0006f940       _axViewCertificate         10070940 f   xmlsigd_nss:cryptui.obj
 0001:0006f950       _axViewAnyCertificate      10070950 f   xmlsigd_nss:cryptui.obj
 0001:0006f960       _axExportCertificate       10070960 f   xmlsigd_nss:cryptui.obj
 0001:0006f980       _xsCoreInit                10070980 f   xmlsigd_nss:coresig.obj
 0001:0006fc30       _xsCoreInitSignature       10070c30 f   xmlsigd_nss:coresig.obj
 0001:0006fc50       _xsCoreInitXmlDocument     10070c50 f   xmlsigd_nss:coresig.obj
 0001:0006ffc0       _xsCoreGetSignedInfoBlob   10070fc0 f   xmlsigd_nss:coresig.obj
 0001:00070220       _xsCoreGetReference        10071220 f   xmlsigd_nss:coresig.obj
 0001:00070290       _xsCoreAddReference        10071290 f   xmlsigd_nss:coresig.obj
 0001:00070330       ?xsCoreGetTransforms@@YAPAU_transforms@@PAU_reference@@PAU_GLOBAL_SIG@@@Z 10071330 f   xmlsigd_nss:coresig.obj
 0001:00070360       _xsCoreGetRMTransforms     10071360 f   xmlsigd_nss:coresig.obj
 0001:00070390       ?xsCoreGetDigestMethod@@YAPAU_digestmethod@@PAU_reference@@PAU_GLOBAL_SIG@@@Z 10071390 f   xmlsigd_nss:coresig.obj
 0001:000703c0       ?xsCoreGetDigestValue@@YAPAU_digestvalue@@PAU_reference@@PAU_GLOBAL_SIG@@@Z 100713c0 f   xmlsigd_nss:coresig.obj
 0001:000703f0       _xsCoreGetTransform        100713f0 f   xmlsigd_nss:coresig.obj
 0001:00070460       _xsCoreAddTransform        10071460 f   xmlsigd_nss:coresig.obj
 0001:00070500       _xsCoreGetKeyValueElements 10071500 f   xmlsigd_nss:coresig.obj
 0001:00070570       _xsCoreAddKeyValueElements 10071570 f   xmlsigd_nss:coresig.obj
 0001:00070610       _xsCoreGetX509Data         10071610 f   xmlsigd_nss:coresig.obj
 0001:000706a0       _xsCoreAddX509Data         100716a0 f   xmlsigd_nss:coresig.obj
 0001:00070740       _xsCoreAddX509Group        10071740 f   xmlsigd_nss:coresig.obj
 0001:000707d0       _xsCoreGetObject           100717d0 f   xmlsigd_nss:coresig.obj
 0001:00070830       _xsCoreAddObject           10071830 f   xmlsigd_nss:coresig.obj
 0001:000708d0       _xsCoreGetSignatureProperties 100718d0 f   xmlsigd_nss:coresig.obj
 0001:00070900       _xsCoreGetSignatureProperty 10071900 f   xmlsigd_nss:coresig.obj
 0001:00070970       _xsCoreAddSignatureProperty 10071970 f   xmlsigd_nss:coresig.obj
 0001:00070a10       _xsCoreSetSignature        10071a10 f   xmlsigd_nss:coresig.obj
 0001:00070a70       _xsCoreSetSignatureNSPrefix 10071a70 f   xmlsigd_nss:coresig.obj
 0001:00070ab0       _xsCoreSetSignedInfo       10071ab0 f   xmlsigd_nss:coresig.obj
 0001:00070af0       _xsCoreSetCanonicalizationMethod 10071af0 f   xmlsigd_nss:coresig.obj
 0001:00070c00       _xsCoreSetSignatureMethod  10071c00 f   xmlsigd_nss:coresig.obj
 0001:00070d20       _xsCoreSetReference        10071d20 f   xmlsigd_nss:coresig.obj
 0001:00070de0       _xsCoreSetDigestMethod     10071de0 f   xmlsigd_nss:coresig.obj
 0001:00070eb0       _xsCoreSetDigestValue      10071eb0 f   xmlsigd_nss:coresig.obj
 0001:00070f60       _xsCoreSetTransforms       10071f60 f   xmlsigd_nss:coresig.obj
 0001:00070fa0       _xsCoreSetTransform        10071fa0 f   xmlsigd_nss:coresig.obj
 0001:000710a0       _xsCoreSetSignatureValue   100720a0 f   xmlsigd_nss:coresig.obj
 0001:00071190       _xsCoreSetKeyInfo          10072190 f   xmlsigd_nss:coresig.obj
 0001:000711f0       _xsCoreSetKeyName          100721f0 f   xmlsigd_nss:coresig.obj
 0001:00071290       _xsCoreSetKeyValueElements 10072290 f   xmlsigd_nss:coresig.obj
 0001:00071340       _xsCoreSetDSAKeyValue      10072340 f   xmlsigd_nss:coresig.obj
 0001:00071430       _xsCoreSetRSAKeyValue      10072430 f   xmlsigd_nss:coresig.obj
 0001:00071490       _xsCoreSetRetrievalMethod  10072490 f   xmlsigd_nss:coresig.obj
 0001:00071500       _xsCoreSetRMTransforms     10072500 f   xmlsigd_nss:coresig.obj
 0001:00071550       _xsCoreSetX509Group        10072550 f   xmlsigd_nss:coresig.obj
 0001:00071690       _xsCoreSetPGPData          10072690 f   xmlsigd_nss:coresig.obj
 0001:000716f0       _xsCoreSetSPKIData         100726f0 f   xmlsigd_nss:coresig.obj
 0001:00071730       _xsCoreSetMgmtData         10072730 f   xmlsigd_nss:coresig.obj
 0001:00071780       _xsCoreSetObject           10072780 f   xmlsigd_nss:coresig.obj
 0001:00071880       _xsCoreSetSignatureProperties 10072880 f   xmlsigd_nss:coresig.obj
 0001:000718e0       _xsCoreSetSignatureProperty 100728e0 f   xmlsigd_nss:coresig.obj
 0001:00071a60       _xsCoreGenerateXMLSecDoc   10072a60 f   xmlsigd_nss:coresig.obj
 0001:00071b40       _xsCoreGenerateXMLSec      10072b40 f   xmlsigd_nss:coresig.obj
 0001:00074270       _xsCoreFreeSignature       10075270 f   xmlsigd_nss:coresig.obj
 0001:00075d40       _xsCoreAddXPath            10076d40 f   xmlsigd_nss:coresig.obj
 0001:00075de0       _xsCoreSetXPath            10076de0 f   xmlsigd_nss:coresig.obj
 0001:00075f30       _xsCoreAddManifest         10076f30 f   xmlsigd_nss:coresig.obj
 0001:00076010       _xsCoreAddSignatureProperties 10077010 f   xmlsigd_nss:coresig.obj
 0001:000760f0       _xsCoreAddDsaKeyValue      100770f0 f   xmlsigd_nss:coresig.obj
 0001:00076230       _xsCoreAddRsaKeyValue      10077230 f   xmlsigd_nss:coresig.obj
 0001:000762f0       _xsCoreAddKeyInfo          100772f0 f   xmlsigd_nss:coresig.obj
 0001:000763c0       _xsCoreAddKeyName          100773c0 f   xmlsigd_nss:coresig.obj
 0001:00076470       _xsCoreAddRetrievalMethod  10077470 f   xmlsigd_nss:coresig.obj
 0001:000765a0       _xsCoreAddPGPData          100775a0 f   xmlsigd_nss:coresig.obj
 0001:00076660       _xsCoreAddSPKIData         10077660 f   xmlsigd_nss:coresig.obj
 0001:00076710       _xsCoreSetCSP              10077710 f   xmlsigd_nss:coresig.obj
 0001:000767c0       _xsCoreNewReference        100777c0 f   xmlsigd_nss:coresig.obj
 0001:000767e0       _xsCoreNewX509Data         100777e0 f   xmlsigd_nss:coresig.obj
 0001:00076800       _xsCoreNewX509Group        10077800 f   xmlsigd_nss:coresig.obj
 0001:00076820       _xsCoreAddTimestamp        10077820 f   xmlsigd_nss:coresig.obj
 0001:00076b00       _xsCoreSetManifest         10077b00 f   xmlsigd_nss:coresig.obj
 0001:00076b50       _xsCoreManifestAddReference 10077b50 f   xmlsigd_nss:coresig.obj
 0001:00076c00       ?NSSStart@@YAHXZ           10077c00 f   xmlsigd_nss:coresig.obj
 0001:00076ce0       ?getNSSDatabaseHome@@YAHPAD@Z 10077ce0 f   xmlsigd_nss:coresig.obj
 0001:00076e80       ?GetModulePassword@@YAPADPAUPK11SlotInfoStr@@HPAX@Z 10077e80 f   xmlsigd_nss:coresig.obj
 0001:00076f10       _xsSign                    10077f10 f   xmlsigd_nss:xsSign.obj
 0001:00076ff0       _xsSignOnClient            10077ff0 f   xmlsigd_nss:xsSign.obj
 0001:000770b0       _xsGetSignedInfo           100780b0 f   xmlsigd_nss:xsSign.obj
 0001:00077c90       _xsAcceptSignature         10078c90 f   xmlsigd_nss:xsSign.obj
 0001:00078bd0       ?P12U_NicknameCollisionCallback@@YAPAUSECItemStr@@PAU1@PAHPAX@Z 10079bd0 f   xmlsigd_nss:pk12util.obj
 0001:00078c20       _P12U_UnicodeConversion    10079c20 f   xmlsigd_nss:pk12util.obj
 0001:00078d10       _iP12U_InitSlot            10079d10 f   xmlsigd_nss:pk12util.obj
 0001:00078e60       _P12U_ImportPKCS12Object   10079e60 f   xmlsigd_nss:pk12util.obj
 0001:00079370       _P12U_Init                 1007a370 f   xmlsigd_nss:pk12util.obj
 0001:00079650       _PKCS12ValidData           1007a650 f   xmlsigd_nss:pk12util.obj
 0001:000796e0       _xsCoreParseSignature      1007a6e0 f   xmlsigd_nss:parser.obj
 0001:0007b9c0       _xsCoreValidateXMLStructure 1007c9c0 f   xmlsigd_nss:parser.obj
 0001:0007ba20       _CanonicalizeOctets        1007ca20 f   xmlsigd_nss:c14n.obj
 0001:0007bbf0       _xmlXPathHereFunction      1007cbf0 f   xmlsigd_nss:c14n.obj
 0001:0007bd20       _xmlC14NDocDumpMemory_Wrapper 1007cd20 f   xmlsigd_nss:c14n.obj
 0001:0007d7f0       _xsTransform               1007e7f0 f   xmlsigd_nss:transform.obj
 0001:0007f430       _xsVerify                  10080430 f   xmlsigd_nss:xsVerify.obj
 0001:00082100       _xmlBuildQName             10083100 f   libxml2:tree.obj
 0001:000821b0       _xmlSplitQName2            100831b0 f   libxml2:tree.obj
 0001:00082260       _xmlValidateNCName         10083260 f   libxml2:tree.obj
 0001:000823f0       _xmlValidateQName          100833f0 f   libxml2:tree.obj
 0001:00082660       _xmlValidateName           10083660 f   libxml2:tree.obj
 0001:00082800       _xmlValidateNMToken        10083800 f   libxml2:tree.obj
 0001:000829e0       _xmlSetNs                  100839e0 f   libxml2:tree.obj
 0001:000829f0       _xmlFreeNs                 100839f0 f   libxml2:tree.obj
 0001:00082a30       _xmlFreeNsList             10083a30 f   libxml2:tree.obj
 0001:00082a80       _xmlNewDtd                 10083a80 f   libxml2:tree.obj
 0001:00082b40       _xmlGetIntSubset           10083b40 f   libxml2:tree.obj
 0001:00082b70       _xmlCreateIntSubset        10083b70 f   libxml2:tree.obj
 0001:00082ca0       _xmlNewDoc                 10083ca0 f   libxml2:tree.obj
 0001:00082d30       _xmlNodeListGetString      10083d30 f   libxml2:tree.obj
 0001:00082e40       _xmlNewPI                  10083e40 f   libxml2:tree.obj
 0001:00082ed0       _xmlNewNode                10083ed0 f   libxml2:tree.obj
 0001:00082f50       _xmlNewNodeEatName         10083f50 f   libxml2:tree.obj
 0001:00082fd0       _xmlNewText                10083fd0 f   libxml2:tree.obj
 0001:00083050       _xmlNewCharRef             10084050 f   libxml2:tree.obj
 0001:000830f0       _xmlNewReference           100840f0 f   libxml2:tree.obj
 0001:000831b0       _xmlNewDocText             100841b0 f   libxml2:tree.obj
 0001:000831d0       _xmlNewTextLen             100841d0 f   libxml2:tree.obj
 0001:00083250       _xmlNewComment             10084250 f   libxml2:tree.obj
 0001:000832d0       _xmlNewCDataBlock          100842d0 f   libxml2:tree.obj
 0001:00083350       _xmlNewDocComment          10084350 f   libxml2:tree.obj
 0001:00083370       _xmlSetListDoc             10084370 f   libxml2:tree.obj
 0001:000833a0       _xmlGetLastChild           100843a0 f   libxml2:tree.obj
 0001:000833a0       _xmlAutomataGetInitState   100843a0 f   libxml2:xmlregexp.obj
 0001:000833b0       _xmlUnlinkNode             100843b0 f   libxml2:tree.obj
 0001:00083430       _xmlReplaceNode            10084430 f   libxml2:tree.obj
 0001:00083510       _xmlGetLineNo              10084510 f   libxml2:tree.obj
 0001:00083570       _xmlDocGetRootElement      10084570 f   libxml2:tree.obj
 0001:000835a0       _xmlGetNsList              100845a0 f   libxml2:tree.obj
 0001:000836f0       _xmlSearchNs               100846f0 f   libxml2:tree.obj
 0001:000838a0       _xmlSearchNsByHref         100848a0 f   libxml2:tree.obj
 0001:00083a60       _xmlHasProp                10084a60 f   libxml2:tree.obj
 0001:00083af0       _xmlHasNsProp              10084af0 f   libxml2:tree.obj
 0001:00083c70       _xmlGetProp                10084c70 f   libxml2:tree.obj
 0001:00083d30       _xmlGetNoNsProp            10084d30 f   libxml2:tree.obj
 0001:00083e00       _xmlGetNsProp              10084e00 f   libxml2:tree.obj
 0001:00083f30       _xmlNodeIsText             10084f30 f   libxml2:tree.obj
 0001:00083f50       _xmlIsBlankNode            10084f50 f   libxml2:tree.obj
 0001:00083fa0       _xmlTextConcat             10084fa0 f   libxml2:tree.obj
 0001:00083fe0       _xmlBufferCreate           10084fe0 f   libxml2:tree.obj
 0001:00084060       _xmlBufferCreateSize       10085060 f   libxml2:tree.obj
 0001:00084100       _xmlBufferFree             10085100 f   libxml2:tree.obj
 0001:00084130       _xmlBufferShrink           10085130 f   libxml2:tree.obj
 0001:00084180       _xmlBufferGrow             10085180 f   libxml2:tree.obj
 0001:000841d0       _xmlBufferContent          100851d0 f   libxml2:tree.obj
 0001:000841e0       _xmlBufferResize           100851e0 f   libxml2:tree.obj
 0001:00084260       _xmlBufferAdd              10085260 f   libxml2:tree.obj
 0001:000842f0       _xmlBufferAddHead          100852f0 f   libxml2:tree.obj
 0001:00084390       _xmlBufferCat              10085390 f   libxml2:tree.obj
 0001:00084410       _xmlBufferCCat             10085410 f   libxml2:tree.obj
 0001:00084480       _xmlBufferWriteCHAR        10085480 f   libxml2:tree.obj
 0001:00084490       _xmlBufferWriteChar        10085490 f   libxml2:tree.obj
 0001:000844a0       _xmlBufferWriteQuotedString 100854a0 f   libxml2:tree.obj
 0001:00084cf0       _xmlNsListDumpOutput       10085cf0 f   libxml2:tree.obj
 0001:000851e0       _xmlIsXHTML                100861e0 f   libxml2:tree.obj
 0001:000854b0       _xmlNewNs                  100864b0 f   libxml2:tree.obj
 0001:000855d0       _xmlFreeDtd                100865d0 f   libxml2:tree.obj
 0001:000856c0       _xmlFreeDoc                100866c0 f   libxml2:tree.obj
 0001:000857c0       _xmlSetTreeDoc             100867c0 f   libxml2:tree.obj
 0001:00085830       _xmlFreeNodeList           10086830 f   libxml2:tree.obj
 0001:000859c0       _xmlCopyNamespaceList      100869c0 f   libxml2:tree.obj
 0001:00085aa0       _xmlNodeGetLang            10086aa0 f   libxml2:tree.obj
 0001:00085ae0       _xmlNodeGetSpacePreserve   10086ae0 f   libxml2:tree.obj
 0001:00085b70       _xmlNodeGetBase            10086b70 f   libxml2:tree.obj
 0001:00085d20       _xmlNodeGetContent         10086d20 f   libxml2:tree.obj
 0001:00085f60       _xmlNodeSetContent         10086f60 f   libxml2:tree.obj
 0001:00086030       _xmlNewReconciliedNs       10087030 f   libxml2:tree.obj
 0001:000861c0       _xmlFreeProp               100871c0 f   libxml2:tree.obj
 0001:00086360       _xmlFreePropList           10087360 f   libxml2:tree.obj
 0001:00086390       _xmlFreeNode               10087390 f   libxml2:tree.obj
 0001:000864f0       _xmlTextMerge              100874f0 f   libxml2:tree.obj
 0001:00086de0       _xmlAddChild               10087de0 f   libxml2:tree.obj
 0001:00087000       _xmlNodeAddContentLen      10088000 f   libxml2:tree.obj
 0001:000870a0       _xmlNodeAddContent         100880a0 f   libxml2:tree.obj
 0001:000870d0       _xmlNodeDumpOutput         100880d0 f   libxml2:tree.obj
 0001:000872f0       _xmlDocDumpFormatMemoryEnc 100882f0 f   libxml2:tree.obj
 0001:000874a0       _xmlDocDumpMemory          100884a0 f   libxml2:tree.obj
 0001:000874c0       _xmlDocDumpFormatMemory    100884c0 f   libxml2:tree.obj
 0001:000874e0       _xmlDocDumpMemoryEnc       100884e0 f   libxml2:tree.obj
 0001:00087500       _xmlAddNextSibling         10088500 f   libxml2:tree.obj
 0001:00087630       _xmlAddPrevSibling         10088630 f   libxml2:tree.obj
 0001:00087760       _xmlAddSibling             10088760 f   libxml2:tree.obj
 0001:00087810       _xmlAddChildList           10088810 f   libxml2:tree.obj
 0001:000878d0       _xmlDocSetRootElement      100888d0 f   libxml2:tree.obj
 0001:00087950       _xmlNodeDump               10088950 f   libxml2:tree.obj
 0001:00087a00       _xmlStringGetNodeList      10088a00 f   libxml2:tree.obj
 0001:00087d70       _xmlNewProp                10088d70 f   libxml2:tree.obj
 0001:00087e80       _xmlNewNsPropEatName       10088e80 f   libxml2:tree.obj
 0001:00087f90       _xmlNewDocProp             10088f90 f   libxml2:tree.obj
 0001:00088050       _xmlNewDocNode             10089050 f   libxml2:tree.obj
 0001:000880b0       _xmlNewDocNodeEatName      100890b0 f   libxml2:tree.obj
 0001:00088110       _xmlCopyProp               10089110 f   libxml2:tree.obj
 0001:000882c0       _xmlCopyPropList           100892c0 f   libxml2:tree.obj
 0001:00088580       _xmlCopyNode               10089580 f   libxml2:tree.obj
 0001:000885a0       _xmlDocCopyNode            100895a0 f   libxml2:tree.obj
 0001:000885c0       _xmlCopyDtd                100895c0 f   libxml2:tree.obj
 0001:00088730       _xmlCopyDoc                10089730 f   libxml2:tree.obj
 0001:00088810       _xmlInitGlobals            10089810 f   libxml2:globals.obj
 0001:00088820       _xmlCleanupGlobals         10089820 f   libxml2:globals.obj
 0001:00088830       _inputPush                 10089830 f   libxml2:parser.obj
 0001:00088890       _inputPop                  10089890 f   libxml2:parser.obj
 0001:000888e0       _nodePush                  100898e0 f   libxml2:parser.obj
 0001:00088990       _nodePop                   10089990 f   libxml2:parser.obj
 0001:000889e0       _namePush                  100899e0 f   libxml2:parser.obj
 0001:00088a60       _namePop                   10089a60 f   libxml2:parser.obj
 0001:00088ba0       _xmlPopInput               10089ba0 f   libxml2:parser.obj
 0001:00088df0       _xmlStrndup                10089df0 f   libxml2:parser.obj
 0001:00088e50       _xmlStrdup                 10089e50 f   libxml2:parser.obj
 0001:00088e80       _xmlCharStrndup            10089e80 f   libxml2:parser.obj
 0001:00088ef0       _xmlCharStrdup             10089ef0 f   libxml2:parser.obj
 0001:00088f20       _xmlStrcmp                 10089f20 f   libxml2:parser.obj
 0001:00088f60       _xmlStrEqual               10089f60 f   libxml2:parser.obj
 0001:00088f90       _xmlStrncmp                10089f90 f   libxml2:parser.obj
 0001:00088ff0       _xmlStrcasecmp             10089ff0 f   libxml2:parser.obj
 0001:00089050       _xmlStrncasecmp            1008a050 f   libxml2:parser.obj
 0001:000890c0       _xmlStrchr                 1008a0c0 f   libxml2:parser.obj
 0001:000890f0       _xmlStrlen                 1008a0f0 f   libxml2:parser.obj
 0001:00089110       _xmlStrncat                1008a110 f   libxml2:parser.obj
 0001:000891b0       _xmlStrcat                 1008a1b0 f   libxml2:parser.obj
 0001:000892e0       _xmlSplitQName             1008a2e0 f   libxml2:parser.obj
 0001:000899b0       _xmlParseStringEntityRef   1008a9b0 f   libxml2:parser.obj
 0001:00089ca0       _xmlParseStringPEReference 1008aca0 f   libxml2:parser.obj
 0001:00089e80       _xmlParseVersionNum        1008ae80 f   libxml2:parser.obj
 0001:00089f70       _xmlCreateEntityParserCtxt 1008af70 f   libxml2:parser.obj
 0001:0008a070       _xmlCreateFileParserCtxt   1008b070 f   libxml2:parser.obj
 0001:0008a100       _xmlCreateMemoryParserCtxt 1008b100 f   libxml2:parser.obj
 0001:0008a1a0       _xmlInitParser             1008b1a0 f   libxml2:parser.obj
 0001:0008a210       _xmlCleanupParser          1008b210 f   libxml2:parser.obj
 0001:0008a2c0       _xmlSkipBlankChars         1008b2c0 f   libxml2:parser.obj
 0001:0008a3e0       _xmlPushInput              1008b3e0 f   libxml2:parser.obj
 0001:0008a560       _xmlStringDecodeEntities   1008b560 f   libxml2:parser.obj
 0001:0008a970       _xmlStrstr                 1008b970 f   libxml2:parser.obj
 0001:0008a9e0       _xmlParsePubidLiteral      1008b9e0 f   libxml2:parser.obj
 0001:0008ad40       _xmlParseVersionInfo       1008bd40 f   libxml2:parser.obj
 0001:0008af60       _xmlParseEncName           1008bf60 f   libxml2:parser.obj
 0001:0008b150       _xmlParseEncodingDecl      1008c150 f   libxml2:parser.obj
 0001:0008b720       _xmlParseTextDecl          1008c720 f   libxml2:parser.obj
 0001:0008bd90       _xmlParserHandlePEReference 1008cd90 f   libxml2:parser.obj
 0001:0008c550       _xmlParseNmtoken           1008d550 f   libxml2:parser.obj
 0001:0008c8e0       _xmlParseEntityValue       1008d8e0 f   libxml2:parser.obj
 0001:0008cd90       _xmlParseSystemLiteral     1008dd90 f   libxml2:parser.obj
 0001:0008d180       _xmlParseCharDataComplex   1008e180 f   libxml2:parser.obj
 0001:0008d420       _xmlParseExternalID        1008e420 f   libxml2:parser.obj
 0001:0008d800       _xmlParseComment           1008e800 f   libxml2:parser.obj
 0001:0008dd00       _xmlParseEnumerationType   1008ed00 f   libxml2:parser.obj
 0001:0008de50       _xmlParseCDSect            1008ee50 f   libxml2:parser.obj
 0001:0008e380       _xmlParseSDDecl            1008f380 f   libxml2:parser.obj
 0001:0008e720       _xmlParseXMLDecl           1008f720 f   libxml2:parser.obj
 0001:0008ead0       _xmlParseCharRef           1008fad0 f   libxml2:parser.obj
 0001:0008eef0       _xmlParseName              1008fef0 f   libxml2:parser.obj
 0001:0008f0a0       _xmlParseCharData          100900a0 f   libxml2:parser.obj
 0001:0008f360       _xmlParsePITarget          10090360 f   libxml2:parser.obj
 0001:0008f490       _xmlParsePI                10090490 f   libxml2:parser.obj
 0001:0008fa80       _xmlParseNotationDecl      10090a80 f   libxml2:parser.obj
 0001:0008fd40       _xmlParseEntityDecl        10090d40 f   libxml2:parser.obj
 0001:00090640       _xmlParseNotationType      10091640 f   libxml2:parser.obj
 0001:000907d0       _xmlParseEnumeratedType    100917d0 f   libxml2:parser.obj
 0001:00090910       _xmlParseAttributeType     10091910 f   libxml2:parser.obj
 0001:00090cf0       _xmlParseElementMixedContentDecl 10091cf0 f   libxml2:parser.obj
 0001:00091110       _xmlParseElementChildrenContentDecl 10092110 f   libxml2:parser.obj
 0001:000917f0       _xmlParseElementContentDecl 100927f0 f   libxml2:parser.obj
 0001:00091900       _xmlParseElementDecl       10092900 f   libxml2:parser.obj
 0001:00091de0       _xmlParseEntityRef         10092de0 f   libxml2:parser.obj
 0001:000920f0       _xmlParsePEReference       100930f0 f   libxml2:parser.obj
 0001:00092360       _xmlParseDocTypeDecl       10093360 f   libxml2:parser.obj
 0001:00092760       _xmlParseMisc              10093760 f   libxml2:parser.obj
 0001:000927e0       _xmlParseAttValueComplex   100937e0 f   libxml2:parser.obj
 0001:000933d0       _xmlParseReference         100943d0 f   libxml2:parser.obj
 0001:00093a80       _xmlParseContent           10094a80 f   libxml2:parser.obj
 0001:00093cc0       _xmlParseCtxtExternalEntity 10094cc0 f   libxml2:parser.obj
 0001:00094020       _xmlParseAttValue          10095020 f   libxml2:parser.obj
 0001:00094140       _xmlParseDefaultDecl       10095140 f   libxml2:parser.obj
 0001:000943f0       _xmlParseAttributeListDecl 100953f0 f   libxml2:parser.obj
 0001:00094940       _xmlParseMarkupDecl        10095940 f   libxml2:parser.obj
 0001:000949e0       _xmlParseExternalSubset    100959e0 f   libxml2:parser.obj
 0001:00094d70       _xmlParseAttribute         10095d70 f   libxml2:parser.obj
 0001:00094f80       _xmlParseStartTag          10095f80 f   libxml2:parser.obj
 0001:00095440       _xmlParseElement           10096440 f   libxml2:parser.obj
 0001:000957a0       _xmlParseDocument          100967a0 f   libxml2:parser.obj
 0001:00095b70       _xmlParseFile              10096b70 f   libxml2:parser.obj
 0001:00095c10       _xmlParseMemory            10096c10 f   libxml2:parser.obj
 0001:00095cc0       _xmlSchemaNewFacet         10096cc0 f   libxml2:xmlschemas.obj
 0001:00095ec0       _xmlSchemaFreeFacet        10096ec0 f   libxml2:xmlschemas.obj
 0001:00095f30       _xmlSchemaFreeType         10096f30 f   libxml2:xmlschemas.obj
 0001:00095fb0       _xmlSchemaFree             10096fb0 f   libxml2:xmlschemas.obj
 0001:000981b0       _xmlSchemaNewMemParserCtxt 100991b0 f   libxml2:xmlschemas.obj
 0001:00098210       _xmlSchemaFreeParserCtxt   10099210 f   libxml2:xmlschemas.obj
 0001:00099ab0       _xmlSchemaNewValidCtxt     1009aab0 f   libxml2:xmlschemas.obj
 0001:00099b40       _xmlSchemaFreeValidCtxt    1009ab40 f   libxml2:xmlschemas.obj
 0001:0009a940       _xmlSchemaCheckFacet       1009b940 f   libxml2:xmlschemas.obj
 0001:0009b5a0       _xmlSchemaValidateDoc      1009c5a0 f   libxml2:xmlschemas.obj
 0001:0009d190       _xmlSchemaParse            1009e190 f   libxml2:xmlschemas.obj
 0001:0009d620       _xmlXPathInit              1009e620 f   libxml2:xpath.obj
 0001:0009d6c0       _xmlXPathIsNaN             1009e6c0 f   libxml2:xpath.obj
 0001:0009d6e0       _xmlXPathIsInf             1009e6e0 f   libxml2:xpath.obj
 0001:0009d8e0       _valuePop                  1009e8e0 f   libxml2:xpath.obj
 0001:0009d930       _valuePush                 1009e930 f   libxml2:xpath.obj
 0001:0009dc10       _xmlXPatherror             1009ec10 f   libxml2:xpath.obj
 0001:0009dd90       _xmlXPathCmpNodes          1009ed90 f   libxml2:xpath.obj
 0001:0009df20       _xmlXPathNodeSetSort       1009ef20 f   libxml2:xpath.obj
 0001:0009e0a0       _xmlXPathNodeSetFreeNs     1009f0a0 f   libxml2:xpath.obj
 0001:0009e0f0       _xmlXPathNodeSetCreate     1009f0f0 f   libxml2:xpath.obj
 0001:0009e1c0       _xmlXPathNodeSetContains   1009f1c0 f   libxml2:xpath.obj
 0001:0009e250       _xmlXPathNodeSetAddNs      1009f250 f   libxml2:xpath.obj
 0001:0009e380       _xmlXPathNodeSetAdd        1009f380 f   libxml2:xpath.obj
 0001:0009e480       _xmlXPathNodeSetAddUnique  1009f480 f   libxml2:xpath.obj
 0001:0009e560       _xmlXPathNodeSetMerge      1009f560 f   libxml2:xpath.obj
 0001:0009e820       _xmlXPathFreeNodeSet       1009f820 f   libxml2:xpath.obj
 0001:0009e8e0       _xmlXPathNewNodeSet        1009f8e0 f   libxml2:xpath.obj
 0001:0009e940       _xmlXPathWrapNodeSet       1009f940 f   libxml2:xpath.obj
 0001:0009e990       _xmlXPathFunctionLookupNS  1009f990 f   libxml2:xpath.obj
 0001:0009e9f0       _xmlXPathRegisterNs        1009f9f0 f   libxml2:xpath.obj
 0001:0009ea50       _xmlXPathNsLookup          1009fa50 f   libxml2:xpath.obj
 0001:0009eae0       _xmlXPathNewFloat          1009fae0 f   libxml2:xpath.obj
 0001:0009eb30       _xmlXPathNewBoolean        1009fb30 f   libxml2:xpath.obj
 0001:0009eb80       _xmlXPathNewString         1009fb80 f   libxml2:xpath.obj
 0001:0009ebf0       _xmlXPathWrapString        1009fbf0 f   libxml2:xpath.obj
 0001:0009ec40       _xmlXPathNewCString        1009fc40 f   libxml2:xpath.obj
 0001:0009eca0       _xmlXPathObjectCopy        1009fca0 f   libxml2:xpath.obj
 0001:0009ee30       _xmlXPathFreeObject        1009fe30 f   libxml2:xpath.obj
 0001:0009ef00       _xmlXPathCastBooleanToString 1009ff00 f   libxml2:xpath.obj
 0001:0009ef20       _xmlXPathCastNumberToString 1009ff20 f   libxml2:xpath.obj
 0001:0009eff0       _xmlXPathCastNodeToString  1009fff0 f   libxml2:xpath.obj
 0001:0009f000       _xmlXPathCastNodeSetToString 100a0000 f   libxml2:xpath.obj
 0001:0009f040       _xmlXPathConvertString     100a0040 f   libxml2:xpath.obj
 0001:0009f100       _xmlXPathCastBooleanToNumber 100a0100 f   libxml2:xpath.obj
 0001:0009f120       _xmlXPathCastNumberToBoolean 100a0120 f   libxml2:xpath.obj
 0001:0009f160       _xmlXPathCastStringToBoolean 100a0160 f   libxml2:xpath.obj
 0001:0009f180       _xmlXPathCastToBoolean     100a0180 f   libxml2:xpath.obj
 0001:0009f220       _xmlXPathConvertBoolean    100a0220 f   libxml2:xpath.obj
 0001:0009f2a0       _xmlXPathNewParserContext  100a02a0 f   libxml2:xpath.obj
 0001:0009fa00       _xmlXPathNextSelf          100a0a00 f   libxml2:xpath.obj
 0001:0009fa20       _xmlXPathNextChild         100a0a20 f   libxml2:xpath.obj
 0001:0009fa90       _xmlXPathNextDescendant    100a0a90 f   libxml2:xpath.obj
 0001:0009fb30       _xmlXPathNextDescendantOrSelf 100a0b30 f   libxml2:xpath.obj
 0001:0009fb60       _xmlXPathNextParent        100a0b60 f   libxml2:xpath.obj
 0001:0009fc00       _xmlXPathNextAncestor      100a0c00 f   libxml2:xpath.obj
 0001:0009fd30       _xmlXPathNextAncestorOrSelf 100a0d30 f   libxml2:xpath.obj
 0001:0009fd50       _xmlXPathNextFollowingSibling 100a0d50 f   libxml2:xpath.obj
 0001:0009fd80       _xmlXPathNextPrecedingSibling 100a0d80 f   libxml2:xpath.obj
 0001:0009fdd0       _xmlXPathNextFollowing     100a0dd0 f   libxml2:xpath.obj
 0001:0009fe90       _xmlXPathNextNamespace     100a0e90 f   libxml2:xpath.obj
 0001:0009ff50       _xmlXPathNextAttribute     100a0f50 f   libxml2:xpath.obj
 0001:0009ff90       _xmlXPathRoot              100a0f90 f   libxml2:xpath.obj
 0001:0009ffc0       _xmlXPathLastFunction      100a0fc0 f   libxml2:xpath.obj
 0001:000a0040       _xmlXPathPositionFunction  100a1040 f   libxml2:xpath.obj
 0001:000a00c0       _xmlXPathCountFunction     100a10c0 f   libxml2:xpath.obj
 0001:000a02c0       _xmlXPathIdFunction        100a12c0 f   libxml2:xpath.obj
 0001:000a0460       _xmlXPathLocalNameFunction 100a1460 f   libxml2:xpath.obj
 0001:000a0580       _xmlXPathNamespaceURIFunction 100a1580 f   libxml2:xpath.obj
 0001:000a0800       _xmlXPathStringFunction    100a1800 f   libxml2:xpath.obj
 0001:000a0890       _xmlXPathStringLengthFunction 100a1890 f   libxml2:xpath.obj
 0001:000a09d0       _xmlXPathConcatFunction    100a19d0 f   libxml2:xpath.obj
 0001:000a0b90       _xmlXPathContainsFunction  100a1b90 f   libxml2:xpath.obj
 0001:000a0d00       _xmlXPathStartsWithFunction 100a1d00 f   libxml2:xpath.obj
 0001:000a0e80       _xmlXPathSubstringBeforeFunction 100a1e80 f   libxml2:xpath.obj
 0001:000a0fb0       _xmlXPathSubstringAfterFunction 100a1fb0 f   libxml2:xpath.obj
 0001:000a1130       _xmlXPathNormalizeFunction 100a2130 f   libxml2:xpath.obj
 0001:000a12c0       _xmlXPathTranslateFunction 100a22c0 f   libxml2:xpath.obj
 0001:000a1530       _xmlXPathBooleanFunction   100a2530 f   libxml2:xpath.obj
 0001:000a15a0       _xmlXPathNotFunction       100a25a0 f   libxml2:xpath.obj
 0001:000a1650       _xmlXPathTrueFunction      100a2650 f   libxml2:xpath.obj
 0001:000a16d0       _xmlXPathFalseFunction     100a26d0 f   libxml2:xpath.obj
 0001:000a1750       _xmlXPathLangFunction      100a2750 f   libxml2:xpath.obj
 0001:000a1c90       _xmlXPathStringEvalNumber  100a2c90 f   libxml2:xpath.obj
 0001:000a23c0       _xmlXPathIsNodeType        100a33c0 f   libxml2:xpath.obj
 0001:000a3be0       _xmlXPathEvaluatePredicateResult 100a4be0 f   libxml2:xpath.obj
 0001:000a3c90       _xmlXPathFreeCompExpr      100a4c90 f   libxml2:xpath.obj
 0001:000a3d20       _xmlXPathPopBoolean        100a4d20 f   libxml2:xpath.obj
 0001:000a3da0       _xmlXPathRegisterFunc      100a4da0 f   libxml2:xpath.obj
 0001:000a3df0       _xmlXPathFunctionLookup    100a4df0 f   libxml2:xpath.obj
 0001:000a3e30       _xmlXPathVariableLookupNS  100a4e30 f   libxml2:xpath.obj
 0001:000a3e90       _xmlXPathCastNodeToNumber  100a4e90 f   libxml2:xpath.obj
 0001:000a3ee0       _xmlXPathCastNodeSetToNumber 100a4ee0 f   libxml2:xpath.obj
 0001:000a3f50       _xmlXPathCastToNumber      100a4f50 f   libxml2:xpath.obj
 0001:000a4000       _xmlXPathConvertNumber     100a5000 f   libxml2:xpath.obj
 0001:000a4080       _xmlXPathFreeContext       100a5080 f   libxml2:xpath.obj
 0001:000a42d0       _xmlXPathNumberFunction    100a52d0 f   libxml2:xpath.obj
 0001:000a4370       _xmlXPathSumFunction       100a5370 f   libxml2:xpath.obj
 0001:000a4460       _xmlXPathFloorFunction     100a5460 f   libxml2:xpath.obj
 0001:000a4520       _xmlXPathCeilingFunction   100a5520 f   libxml2:xpath.obj
 0001:000a4610       _xmlXPathRoundFunction     100a5610 f   libxml2:xpath.obj
 0001:000a4770       _xmlXPathParseNCName       100a5770 f   libxml2:xpath.obj
 0001:000a5670       _xmlXPathVariableLookup    100a6670 f   libxml2:xpath.obj
 0001:000a5d50       _xmlXPathEqualValues       100a6d50 f   libxml2:xpath.obj
 0001:000a5f10       _xmlXPathNotEqualValues    100a6f10 f   libxml2:xpath.obj
 0001:000a60e0       _xmlXPathCompareValues     100a70e0 f   libxml2:xpath.obj
 0001:000a6420       _xmlXPathValueFlipSign     100a7420 f   libxml2:xpath.obj
 0001:000a6540       _xmlXPathAddValues         100a7540 f   libxml2:xpath.obj
 0001:000a6620       _xmlXPathSubValues         100a7620 f   libxml2:xpath.obj
 0001:000a6700       _xmlXPathMultValues        100a7700 f   libxml2:xpath.obj
 0001:000a67e0       _xmlXPathDivValues         100a77e0 f   libxml2:xpath.obj
 0001:000a69c0       _xmlXPathModValues         100a79c0 f   libxml2:xpath.obj
 0001:000a6ad0       _xmlXPathSubstringFunction 100a7ad0 f   libxml2:xpath.obj
 0001:000a8b80       _xmlXPathEvalExpression    100a9b80 f   libxml2:xpath.obj
 0001:000a8cd0       _xmlXPathRegisterAllFunctions 100a9cd0 f   libxml2:xpath.obj
 0001:000a9230       _xmlXPathNewContext        100aa230 f   libxml2:xpath.obj
 0001:000a96e0       _xmlNewValidCtxt           100aa6e0 f   libxml2:valid.obj
 0001:000a9710       _xmlFreeValidCtxt          100aa710 f   libxml2:valid.obj
 0001:000a9720       _xmlNewElementContent      100aa720 f   libxml2:valid.obj
 0001:000a9850       _xmlCopyElementContent     100aa850 f   libxml2:valid.obj
 0001:000a98f0       _xmlFreeElementContent     100aa8f0 f   libxml2:valid.obj
 0001:000a9b00       _xmlSnprintfElementContent 100aab00 f   libxml2:valid.obj
 0001:000a9ed0       _xmlAddElementDecl         100aaed0 f   libxml2:valid.obj
 0001:000aa260       _xmlFreeElementTable       100ab260 f   libxml2:valid.obj
 0001:000aa320       _xmlCopyElementTable       100ab320 f   libxml2:valid.obj
 0001:000aa340       _xmlDumpElementDecl        100ab340 f   libxml2:valid.obj
 0001:000aa4e0       _xmlCreateEnumeration      100ab4e0 f   libxml2:valid.obj
 0001:000aa530       _xmlFreeEnumeration        100ab530 f   libxml2:valid.obj
 0001:000aa570       _xmlCopyEnumeration        100ab570 f   libxml2:valid.obj
 0001:000aa690       _xmlFreeAttributeTable     100ab690 f   libxml2:valid.obj
 0001:000aa790       _xmlCopyAttributeTable     100ab790 f   libxml2:valid.obj
 0001:000aa7b0       _xmlDumpAttributeDecl      100ab7b0 f   libxml2:valid.obj
 0001:000aa9f0       _xmlAddNotationDecl        100ab9f0 f   libxml2:valid.obj
 0001:000aab40       _xmlFreeNotationTable      100abb40 f   libxml2:valid.obj
 0001:000aabf0       _xmlCopyNotationTable      100abbf0 f   libxml2:valid.obj
 0001:000aac50       _xmlAddID                  100abc50 f   libxml2:valid.obj
 0001:000aae00       _xmlFreeIDTable            100abe00 f   libxml2:valid.obj
 0001:000aae20       _xmlRemoveID               100abe20 f   libxml2:valid.obj
 0001:000aaea0       _xmlGetID                  100abea0 f   libxml2:valid.obj
 0001:000aaf80       _xmlAddRef                 100abf80 f   libxml2:valid.obj
 0001:000ab110       _xmlFreeRefTable           100ac110 f   libxml2:valid.obj
 0001:000ab130       _xmlGetDtdElementDesc      100ac130 f   libxml2:valid.obj
 0001:000ab2e0       _xmlGetDtdQElementDesc     100ac2e0 f   libxml2:valid.obj
 0001:000ab300       _xmlGetDtdAttrDesc         100ac300 f   libxml2:valid.obj
 0001:000ab390       _xmlGetDtdQAttrDesc        100ac390 f   libxml2:valid.obj
 0001:000ab3c0       _xmlGetDtdNotationDesc     100ac3c0 f   libxml2:valid.obj
 0001:000ab3e0       _xmlValidateNotationUse    100ac3e0 f   libxml2:valid.obj
 0001:000ab460       _xmlIsMixedElement         100ac460 f   libxml2:valid.obj
 0001:000ab4e0       _xmlValidateNameValue      100ac4e0 f   libxml2:valid.obj
 0001:000ab5b0       _xmlValidateNamesValue     100ac5b0 f   libxml2:valid.obj
 0001:000ab770       _xmlValidateNmtokenValue   100ac770 f   libxml2:valid.obj
 0001:000ab870       _xmlValidateNmtokensValue  100ac870 f   libxml2:valid.obj
 0001:000abad0       _xmlFileMatch              100acad0 f   libxml2:xmlIO.obj
 0001:000abad0       _xmlValidateNotationDecl   100acad0 f   libxml2:valid.obj
 0001:000abae0       _xmlValidateAttributeValue 100acae0 f   libxml2:valid.obj
 0001:000abd80       _xmlValidCtxtNormalizeAttributeValue 100acd80 f   libxml2:valid.obj
 0001:000abf60       _xmlValidNormalizeAttributeValue 100acf60 f   libxml2:valid.obj
 0001:000ac0c0       _xmlValidateAttributeDecl  100ad0c0 f   libxml2:valid.obj
 0001:000ac300       _xmlValidateElementDecl    100ad300 f   libxml2:valid.obj
 0001:000ac500       _xmlValidateOneAttribute   100ad500 f   libxml2:valid.obj
 0001:000acb80       _xmlValidateOneNamespace   100adb80 f   libxml2:valid.obj
 0001:000ad840       _xmlValidateRoot           100ae840 f   libxml2:valid.obj
 0001:000add20       _xmlValidateDocumentFinal  100aed20 f   libxml2:valid.obj
 0001:000adee0       _xmlValidateDtdFinal       100aeee0 f   libxml2:valid.obj
 0001:000adf80       _xmlValidBuildContentModel 100aef80 f   libxml2:valid.obj
 0001:000ae0d0       _xmlAddAttributeDecl       100af0d0 f   libxml2:valid.obj
 0001:000ae4b0       _xmlIsID                   100af4b0 f   libxml2:valid.obj
 0001:000ae600       _xmlIsRef                  100af600 f   libxml2:valid.obj
 0001:000aeac0       _xmlValidateOneElement     100afac0 f   libxml2:valid.obj
 0001:000af8f0       _xmlValidateElement        100b08f0 f   libxml2:valid.obj
 0001:000afc70       _xmlNanoHTTPScanProxy      100b0c70 f   libxml2:nanohttp.obj
 0001:000b0910       _xmlNanoHTTPRead           100b1910 f   libxml2:nanohttp.obj
 0001:000b0990       _xmlNanoHTTPClose          100b1990 f   libxml2:nanohttp.obj
 0001:000b09a0       _xmlNanoHTTPReturnCode     100b19a0 f   libxml2:nanohttp.obj
 0001:000b09b0       _xmlNanoHTTPInit           100b19b0 f   libxml2:nanohttp.obj
 0001:000b0a40       _xmlNanoHTTPMethodRedir    100b1a40 f   libxml2:nanohttp.obj
 0001:000b0f50       _xmlNanoHTTPMethod         100b1f50 f   libxml2:nanohttp.obj
 0001:000b0f80       _xmlNanoHTTPOpen           100b1f80 f   libxml2:nanohttp.obj
 0001:000b0fb0       _xmlGenericErrorDefaultFunc 100b1fb0 f   libxml2:error.obj
 0001:000b0fe0       _initGenericErrorDefaultFunc 100b1fe0 f   libxml2:error.obj
 0001:000b1000       _xmlSetGenericErrorFunc    100b2000 f   libxml2:error.obj
 0001:000b1030       _xmlParserPrintFileInfo    100b2030 f   libxml2:error.obj
 0001:000b1080       _xmlParserPrintFileContext 100b2080 f   libxml2:error.obj
 0001:000b1170       _xmlParserError            100b2170 f   libxml2:error.obj
 0001:000b1290       _xmlParserWarning          100b2290 f   libxml2:error.obj
 0001:000b13b0       _xmlParserValidityError    100b23b0 f   libxml2:error.obj
 0001:000b14e0       _xmlParserValidityWarning  100b24e0 f   libxml2:error.obj
 0001:000b15e0       _xmlIsChar                 100b25e0 f   libxml2:parserInternals.obj
 0001:000b1630       _xmlIsBaseChar             100b2630 f   libxml2:parserInternals.obj
 0001:000b22a0       _xmlIsDigit                100b32a0 f   libxml2:parserInternals.obj
 0001:000b23a0       _xmlIsCombining            100b33a0 f   libxml2:parserInternals.obj
 0001:000b2980       _xmlIsExtender             100b3980 f   libxml2:parserInternals.obj
 0001:000b2ae0       _xmlIsIdeographic          100b3ae0 f   libxml2:parserInternals.obj
 0001:000b2b30       _xmlIsLetter               100b3b30 f   libxml2:parserInternals.obj
 0001:000b2b60       _xmlIsPubidChar            100b3b60 f   libxml2:parserInternals.obj
 0001:000b2c10       _xmlParserInputGrow        100b3c10 f   libxml2:parserInternals.obj
 0001:000b2ca0       _xmlParserInputShrink      100b3ca0 f   libxml2:parserInternals.obj
 0001:000b2d60       _xmlNextChar               100b3d60 f   libxml2:parserInternals.obj
 0001:000b3030       _xmlCurrentChar            100b4030 f   libxml2:parserInternals.obj
 0001:000b3310       _xmlStringCurrentChar      100b4310 f   libxml2:parserInternals.obj
 0001:000b3500       _xmlCopyCharMultiByte      100b4500 f   libxml2:parserInternals.obj
 0001:000b35a0       _xmlCopyChar               100b45a0 f   libxml2:parserInternals.obj
 0001:000b35d0       _xmlSwitchToEncoding       100b45d0 f   libxml2:parserInternals.obj
 0001:000b3800       _xmlFreeInputStream        100b4800 f   libxml2:parserInternals.obj
 0001:000b3880       _xmlNewInputStream         100b4880 f   libxml2:parserInternals.obj
 0001:000b38f0       _xmlNewEntityInputStream   100b48f0 f   libxml2:parserInternals.obj
 0001:000b3a90       _xmlNewInputFromFile       100b4a90 f   libxml2:parserInternals.obj
 0001:000b3b70       _xmlFreeParserCtxt         100b4b70 f   libxml2:parserInternals.obj
 0001:000b3cd0       _xmlParserFindNodeInfoIndex 100b4cd0 f   libxml2:parserInternals.obj
 0001:000b3d40       _xmlParserAddNodeInfo      100b4d40 f   libxml2:parserInternals.obj
 0001:000b3e80       _xmlSubstituteEntitiesDefault 100b4e80 f   libxml2:parserInternals.obj
 0001:000b3e90       _xmlKeepBlanksDefault      100b4e90 f   libxml2:parserInternals.obj
 0001:000b3eb0       _xmlCheckLanguageID        100b4eb0 f   libxml2:parserInternals.obj
 0001:000b3f80       _xmlSwitchEncoding         100b4f80 f   libxml2:parserInternals.obj
 0001:000b42d0       _xmlInitParserCtxt         100b52d0 f   libxml2:parserInternals.obj
 0001:000b45b0       _xmlNewParserCtxt          100b55b0 f   libxml2:parserInternals.obj
 0001:000b5d20       _xmlC14NExecute            100b6d20 f   libxml2:c14n.obj
 0001:000b5dd0       _xmlC14NDocDumpMemory      100b6dd0 f   libxml2:c14n.obj
 0001:000b5e70       _xmlCheckFilename          100b6e70 f   libxml2:xmlIO.obj
 0001:000b5f30       _xmlFileOpen               100b6f30 f   libxml2:xmlIO.obj
 0001:000b5fe0       _xmlFileRead               100b6fe0 f   libxml2:xmlIO.obj
 0001:000b6020       _xmlFileClose              100b7020 f   libxml2:xmlIO.obj
 0001:000b6060       _xmlIOHTTPMatch            100b7060 f   libxml2:xmlIO.obj
 0001:000b6080       _xmlIOHTTPOpen             100b7080 f   libxml2:xmlIO.obj
 0001:000b6090       _xmlIOHTTPRead             100b7090 f   libxml2:xmlIO.obj
 0001:000b60a0       _xmlIOHTTPClose            100b70a0 f   libxml2:xmlIO.obj
 0001:000b60b0       _xmlIOFTPMatch             100b70b0 f   libxml2:xmlIO.obj
 0001:000b60d0       _xmlIOFTPOpen              100b70d0 f   libxml2:xmlIO.obj
 0001:000b60e0       _xmlIOFTPRead              100b70e0 f   libxml2:xmlIO.obj
 0001:000b60f0       _xmlIOFTPClose             100b70f0 f   libxml2:xmlIO.obj
 0001:000b6100       _xmlRegisterDefaultInputCallbacks 100b7100 f   libxml2:xmlIO.obj
 0001:000b61d0       _xmlAllocParserInputBuffer 100b71d0 f   libxml2:xmlIO.obj
 0001:000b6270       _xmlAllocOutputBuffer      100b7270 f   libxml2:xmlIO.obj
 0001:000b6320       _xmlFreeParserInputBuffer  100b7320 f   libxml2:xmlIO.obj
 0001:000b6380       _xmlParserInputBufferCreateFilename 100b7380 f   libxml2:xmlIO.obj
 0001:000b6420       _xmlParserInputBufferCreateMem 100b7420 f   libxml2:xmlIO.obj
 0001:000b6480       _xmlGetThreadId            100b7480 f   libxml2:threads.obj
 0001:000b6480       _getPublicId               100b7480 f   libxml2:SAX.obj
 0001:000b6490       _xmlParserInputBufferGrow  100b7490 f   libxml2:xmlIO.obj
 0001:000b65d0       _xmlParserInputBufferRead  100b75d0 f   libxml2:xmlIO.obj
 0001:000b65f0       _xmlOutputBufferWrite      100b75f0 f   libxml2:xmlIO.obj
 0001:000b6760       _xmlOutputBufferWriteString 100b7760 f   libxml2:xmlIO.obj
 0001:000b67a0       _xmlOutputBufferFlush      100b77a0 f   libxml2:xmlIO.obj
 0001:000b6870       _xmlParserGetDirectory     100b7870 f   libxml2:xmlIO.obj
 0001:000b6b30       _xmlLoadExternalEntity     100b7b30 f   libxml2:xmlIO.obj
 0001:000b6c10       _xmlOutputBufferClose      100b7c10 f   libxml2:xmlIO.obj
 0001:000b6cd0       _xmlIOHTTPOpenW            100b7cd0 f   libxml2:xmlIO.obj
 0001:000b6ea0       _xmlRegisterDefaultOutputCallbacks 100b7ea0 f   libxml2:xmlIO.obj
 0001:000b6fa0       _xmlListCreate             100b7fa0 f   libxml2:list.obj
 0001:000b7040       _xmlListSearch             100b8040 f   libxml2:list.obj
 0001:000b7060       _xmlListInsert             100b8060 f   libxml2:list.obj
 0001:000b70d0       _xmlListClear              100b80d0 f   libxml2:list.obj
 0001:000b7120       _xmlLinkGetData            100b8120 f   libxml2:list.obj
 0001:000b7130       _xmlListWalk               100b8130 f   libxml2:list.obj
 0001:000b7170       _xmlListDelete             100b8170 f   libxml2:list.obj
 0001:000b7190       _xmlCreateURI              100b8190 f   libxml2:uri.obj
 0001:000b71e0       _xmlSaveUri                100b81e0 f   libxml2:uri.obj
 0001:000b7cd0       _xmlFreeURI                100b8cd0 f   libxml2:uri.obj
 0001:000b7d70       _xmlNormalizeURIPath       100b8d70 f   libxml2:uri.obj
 0001:000b7f10       _xmlURIUnescapeString      100b8f10 f   libxml2:uri.obj
 0001:000b92a0       _xmlParseURIReference      100ba2a0 f   libxml2:uri.obj
 0001:000b9330       _xmlParseURI               100ba330 f   libxml2:uri.obj
 0001:000b9370       _xmlBuildURI               100ba370 f   libxml2:uri.obj
 0001:000b9750       _xmlCanonicPath            100ba750 f   libxml2:uri.obj
 0001:000b98e0       _xmlHashCreate             100ba8e0 f   libxml2:hash.obj
 0001:000b9b00       _xmlHashFree               100bab00 f   libxml2:hash.obj
 0001:000b9bf0       _xmlHashAddEntry3          100babf0 f   libxml2:hash.obj
 0001:000b9d60       _xmlHashUpdateEntry3       100bad60 f   libxml2:hash.obj
 0001:000b9ec0       _xmlHashLookup3            100baec0 f   libxml2:hash.obj
 0001:000b9f70       _xmlHashScanFull           100baf70 f   libxml2:hash.obj
 0001:000ba000       _xmlHashScanFull3          100bb000 f   libxml2:hash.obj
 0001:000ba0f0       _xmlHashCopy               100bb0f0 f   libxml2:hash.obj
 0001:000ba1a0       _xmlHashRemoveEntry3       100bb1a0 f   libxml2:hash.obj
 0001:000ba310       _xmlHashAddEntry           100bb310 f   libxml2:hash.obj
 0001:000ba330       _xmlHashAddEntry2          100bb330 f   libxml2:hash.obj
 0001:000ba350       _xmlHashUpdateEntry        100bb350 f   libxml2:hash.obj
 0001:000ba380       _xmlHashLookup             100bb380 f   libxml2:hash.obj
 0001:000ba3a0       _xmlHashLookup2            100bb3a0 f   libxml2:hash.obj
 0001:000ba3c0       _xmlHashScan               100bb3c0 f   libxml2:hash.obj
 0001:000ba3f0       _xmlHashScan3              100bb3f0 f   libxml2:hash.obj
 0001:000ba400       _xmlHashRemoveEntry2       100bb400 f   libxml2:hash.obj
 0001:000ba620       _xmlAddDtdEntity           100bb620 f   libxml2:entities.obj
 0001:000ba6b0       _xmlAddDocEntity           100bb6b0 f   libxml2:entities.obj
 0001:000ba740       _xmlGetParameterEntity     100bb740 f   libxml2:entities.obj
 0001:000ba790       _xmlEncodeEntitiesReentrant 100bb790 f   libxml2:entities.obj
 0001:000bab10       _xmlEncodeSpecialChars     100bbb10 f   libxml2:entities.obj
 0001:000bac40       _xmlFreeEntitiesTable      100bbc40 f   libxml2:entities.obj
 0001:000bad20       _xmlCopyEntitiesTable      100bbd20 f   libxml2:entities.obj
 0001:000bad40       _xmlDumpEntityDecl         100bbd40 f   libxml2:entities.obj
 0001:000bafc0       _xmlInitializePredefinedEntities 100bbfc0 f   libxml2:entities.obj
 0001:000bb100       _xmlCleanupPredefinedEntities 100bc100 f   libxml2:entities.obj
 0001:000bb130       _xmlGetPredefinedEntity    100bc130 f   libxml2:entities.obj
 0001:000bb160       _xmlGetDocEntity           100bc160 f   libxml2:entities.obj
 0001:000bb1d0       _htmlSetMetaEncoding       100bc1d0 f   libxml2:HTMLtree.obj
 0001:000bb450       _htmlIsBooleanAttr         100bc450 f   libxml2:HTMLtree.obj
 0001:000bb490       _xmlUTF8Strlen             100bc490 f   libxml2:encoding.obj
 0001:000bb500       _xmlGetUTF8Char            100bc500 f   libxml2:encoding.obj
 0001:000bb620       _xmlUTF8Strsize            100bc620 f   libxml2:encoding.obj
 0001:000bb660       _xmlUTF8Strndup            100bc660 f   libxml2:encoding.obj
 0001:000bb6d0       _xmlUTF8Strpos             100bc6d0 f   libxml2:encoding.obj
 0001:000bb730       _xmlUTF8Strloc             100bc730 f   libxml2:encoding.obj
 0001:000bb7c0       _xmlUTF8Strsub             100bc7c0 f   libxml2:encoding.obj
 0001:000bba20       _isolat1ToUTF8             100bca20 f   libxml2:encoding.obj
 0001:000bbb40       _UTF8Toisolat1             100bcb40 f   libxml2:encoding.obj
 0001:000bc440       _xmlDetectCharEncoding     100bd440 f   libxml2:encoding.obj
 0001:000bc550       _xmlCleanupEncodingAliases 100bd550 f   libxml2:encoding.obj
 0001:000bc5d0       _xmlGetEncodingAlias       100bd5d0 f   libxml2:encoding.obj
 0001:000bc690       _xmlParseCharEncoding      100bd690 f   libxml2:encoding.obj
 0001:000bca00       _xmlGetCharEncodingName    100bda00 f   libxml2:encoding.obj
 0001:000bcae0       _xmlCleanupCharEncodingHandlers 100bdae0 f   libxml2:encoding.obj
 0001:000bcb70       _xmlRegisterCharEncodingHandler 100bdb70 f   libxml2:encoding.obj
 0001:000bcbf0       _xmlCharEncFirstLine       100bdbf0 f   libxml2:encoding.obj
 0001:000bccb0       _xmlCharEncInFunc          100bdcb0 f   libxml2:encoding.obj
 0001:000bcdb0       _xmlCharEncOutFunc         100bddb0 f   libxml2:encoding.obj
 0001:000bcf80       _xmlCharEncCloseFunc       100bdf80 f   libxml2:encoding.obj
 0001:000bcfa0       _xmlNewCharEncodingHandler 100bdfa0 f   libxml2:encoding.obj
 0001:000bd0b0       _xmlInitCharEncodingHandlers 100be0b0 f   libxml2:encoding.obj
 0001:000bd190       _xmlFindCharEncodingHandler 100be190 f   libxml2:encoding.obj
 0001:000bd2e0       _xmlGetCharEncodingHandler 100be2e0 f   libxml2:encoding.obj
 0001:000bd480       _getSystemId               100be480 f   libxml2:SAX.obj
 0001:000bd490       _getLineNumber             100be490 f   libxml2:SAX.obj
 0001:000bd4a0       _getColumnNumber           100be4a0 f   libxml2:SAX.obj
 0001:000bd4b0       _isStandalone              100be4b0 f   libxml2:SAX.obj
 0001:000bd4d0       _hasInternalSubset         100be4d0 f   libxml2:SAX.obj
 0001:000bd4f0       _hasExternalSubset         100be4f0 f   libxml2:SAX.obj
 0001:000bd510       _internalSubset            100be510 f   libxml2:SAX.obj
 0001:000bd570       _externalSubset            100be570 f   libxml2:SAX.obj
 0001:000bd770       _resolveEntity             100be770 f   libxml2:SAX.obj
 0001:000bd7c0       _getEntity                 100be7c0 f   libxml2:SAX.obj
 0001:000bd8f0       _getParameterEntity        100be8f0 f   libxml2:SAX.obj
 0001:000bd900       _entityDecl                100be900 f   libxml2:SAX.obj
 0001:000bda30       _attributeDecl             100bea30 f   libxml2:SAX.obj
 0001:000bdb60       _elementDecl               100beb60 f   libxml2:SAX.obj
 0001:000bdc10       _notationDecl              100bec10 f   libxml2:SAX.obj
 0001:000bdcf0       _unparsedEntityDecl        100becf0 f   libxml2:SAX.obj
 0001:000bde20       _startDocument             100bee20 f   libxml2:SAX.obj
 0001:000bdf10       _endDocument               100bef10 f   libxml2:SAX.obj
 0001:000be9e0       _startElement              100bf9e0 f   libxml2:SAX.obj
 0001:000bed00       _endElement                100bfd00 f   libxml2:SAX.obj
 0001:000bed90       _reference                 100bfd90 f   libxml2:SAX.obj
 0001:000bede0       _characters                100bfde0 f   libxml2:SAX.obj
 0001:000beff0       _processingInstruction     100bfff0 f   libxml2:SAX.obj
 0001:000bf070       _comment                   100c0070 f   libxml2:SAX.obj
 0001:000bf100       _cdataBlock                100c0100 f   libxml2:SAX.obj
 0001:000bf150       _initxmlDefaultSAXHandler  100c0150 f   libxml2:SAX.obj
 0001:000bf230       _xmlDefaultSAXHandlerInit  100c0230 f   libxml2:SAX.obj
 0001:000bf250       _inithtmlDefaultSAXHandler 100c0250 f   libxml2:SAX.obj
 0001:000bf2f0       _htmlDefaultSAXHandlerInit 100c02f0 f   libxml2:SAX.obj
 0001:000bf300       _xmlNewMutex               100c0300 f   libxml2:threads.obj
 0001:000bf300       _xmlNewRMutex              100c0300 f   libxml2:threads.obj
 0001:000bf310       _xmlFreeRMutex             100c0310 f   libxml2:threads.obj
 0001:000bf310       _xmlFreeMutex              100c0310 f   libxml2:threads.obj
 0001:000bf320       _ignorableWhitespace       100c0320 f   libxml2:SAX.obj
 0001:000bf320       _xmlCleanupThreads         100c0320 f   libxml2:threads.obj
 0001:000bf320       _xmlRMutexLock             100c0320 f   libxml2:threads.obj
 0001:000bf320       _xmlInitThreads            100c0320 f   libxml2:threads.obj
 0001:000bf320       _setDocumentLocator        100c0320 f   libxml2:SAX.obj
 0001:000bf320       _xmlRMutexUnlock           100c0320 f   libxml2:threads.obj
 0001:000bf4e0       _xmlFreeCatalog            100c04e0 f   libxml2:catalog.obj
 0001:000bf5e0       _xmlParseCatalogFile       100c05e0 f   libxml2:catalog.obj
 0001:000c0930       _xmlACatalogResolve        100c1930 f   libxml2:catalog.obj
 0001:000c09d0       _xmlACatalogResolveURI     100c19d0 f   libxml2:catalog.obj
 0001:000c0a50       _xmlInitializeCatalog      100c1a50 f   libxml2:catalog.obj
 0001:000c0c30       _xmlCatalogCleanup         100c1c30 f   libxml2:catalog.obj
 0001:000c0cd0       _xmlCatalogResolve         100c1cd0 f   libxml2:catalog.obj
 0001:000c0d00       _xmlCatalogResolveURI      100c1d00 f   libxml2:catalog.obj
 0001:000c0d30       _xmlCatalogGetDefaults     100c1d30 f   libxml2:catalog.obj
 0001:000c0d40       _xmlCatalogFreeLocal       100c1d40 f   libxml2:catalog.obj
 0001:000c0d70       _xmlCatalogAddLocal        100c1d70 f   libxml2:catalog.obj
 0001:000c0e40       _xmlCatalogLocalResolve    100c1e40 f   libxml2:catalog.obj
 0001:000c0ec0       _xmlCatalogLocalResolveURI 100c1ec0 f   libxml2:catalog.obj
 0001:000c0f20       _htmlInitAutoClose         100c1f20 f   libxml2:HTMLparser.obj
 0001:000c0fa0       _UTF8ToHtml                100c1fa0 f   libxml2:HTMLparser.obj
 0001:000c1160       _htmlNewDocNoDtD           100c2160 f   libxml2:HTMLparser.obj
 0001:000c11f0       _xmlInitMemory             100c21f0 f   libxml2:xmlmemory.obj
 0001:000c2d60       _xmlRegNewExecCtxt         100c3d60 f   libxml2:xmlregexp.obj
 0001:000c2e50       _xmlRegFreeExecCtxt        100c3e50 f   libxml2:xmlregexp.obj
 0001:000c30f0       _xmlRegExecPushString      100c40f0 f   libxml2:xmlregexp.obj
 0001:000c47d0       _xmlRegexpExec             100c57d0 f   libxml2:xmlregexp.obj
 0001:000c47f0       _xmlRegFreeRegexp          100c57f0 f   libxml2:xmlregexp.obj
 0001:000c4910       _xmlFreeAutomata           100c5910 f   libxml2:xmlregexp.obj
 0001:000c4920       _xmlAutomataSetFinalState  100c5920 f   libxml2:xmlregexp.obj
 0001:000c4940       _xmlAutomataNewTransition  100c5940 f   libxml2:xmlregexp.obj
 0001:000c49c0       _xmlAutomataNewCountTrans  100c59c0 f   libxml2:xmlregexp.obj
 0001:000c4aa0       _xmlAutomataNewOnceTrans   100c5aa0 f   libxml2:xmlregexp.obj
 0001:000c4bb0       _xmlAutomataNewState       100c5bb0 f   libxml2:xmlregexp.obj
 0001:000c4bd0       _xmlAutomataNewEpsilon     100c5bd0 f   libxml2:xmlregexp.obj
 0001:000c4c30       _xmlAutomataNewAllTrans    100c5c30 f   libxml2:xmlregexp.obj
 0001:000c4c70       _xmlAutomataNewCounter     100c5c70 f   libxml2:xmlregexp.obj
 0001:000c4ca0       _xmlAutomataNewCountedTrans 100c5ca0 f   libxml2:xmlregexp.obj
 0001:000c4ce0       _xmlAutomataNewCounterTrans 100c5ce0 f   libxml2:xmlregexp.obj
 0001:000c5340       _xmlRegexpCompile          100c6340 f   libxml2:xmlregexp.obj
 0001:000c5420       _xmlNewAutomata            100c6420 f   libxml2:xmlregexp.obj
 0001:000c54b0       _xmlAutomataCompile        100c64b0 f   libxml2:xmlregexp.obj
 0001:000c54e0       _xmlRegexpIsDeterminist    100c64e0 f   libxml2:xmlregexp.obj
 0001:000c5600       _xmlSchemaInitTypes        100c6600 f   libxml2:xmlschemastypes.obj
 0001:000c5970       _xmlSchemaFreeValue        100c6970 f   libxml2:xmlschemastypes.obj
 0001:000c59f0       _xmlSchemaGetPredefinedType 100c69f0 f   libxml2:xmlschemastypes.obj
 0001:000c7db0       _xmlSchemaValPredefTypeNode 100c8db0 f   libxml2:xmlschemastypes.obj
 0001:000c7dd0       _xmlSchemaValidatePredefinedType 100c8dd0 f   libxml2:xmlschemastypes.obj
 0001:000c91f0       _xmlSchemaCompareValues    100ca1f0 f   libxml2:xmlschemastypes.obj
 0001:000c9520       _xmlSchemaValidateFacet    100ca520 f   libxml2:xmlschemastypes.obj
 0001:000c98a0       _xmlXPtrNewRangeNodeObject 100ca8a0 f   libxml2:xpointer.obj
 0001:000c9990       _xmlXPtrLocationSetCreate  100ca990 f   libxml2:xpointer.obj
 0001:000c9a30       _xmlXPtrLocationSetAdd     100caa30 f   libxml2:xpointer.obj
 0001:000c9b60       _xmlXPtrLocationSetMerge   100cab60 f   libxml2:xpointer.obj
 0001:000c9ba0       _xmlXPtrFreeLocationSet    100caba0 f   libxml2:xpointer.obj
 0001:000c9bf0       _xmlXPtrWrapLocationSet    100cabf0 f   libxml2:xpointer.obj
 0001:000c9fa0       _xmlNanoFTPScanProxy       100cafa0 f   libxml2:nanoftp.obj
 0001:000ca210       _xmlNanoFTPNewCtxt         100cb210 f   libxml2:nanoftp.obj
 0001:000ca290       _xmlNanoFTPFreeCtxt        100cb290 f   libxml2:nanoftp.obj
 0001:000ca610       _xmlNanoFTPQuit            100cb610 f   libxml2:nanoftp.obj
 0001:000ca660       _xmlNanoFTPConnect         100cb660 f   libxml2:nanoftp.obj
 0001:000cab00       _xmlNanoFTPGetConnection   100cbb00 f   libxml2:nanoftp.obj
 0001:000cae10       _xmlNanoFTPCloseConnection 100cbe10 f   libxml2:nanoftp.obj
 0001:000caed0       _xmlNanoFTPGetSocket       100cbed0 f   libxml2:nanoftp.obj
 0001:000cb050       _xmlNanoFTPRead            100cc050 f   libxml2:nanoftp.obj
 0001:000cb0a0       _xmlNanoFTPClose           100cc0a0 f   libxml2:nanoftp.obj
 0001:000cb0f0       _xmlNanoFTPInit            100cc0f0 f   libxml2:nanoftp.obj
 0001:000cb1c0       _xmlNanoFTPOpen            100cc1c0 f   libxml2:nanoftp.obj
 0001:000cb220       _xmlUCSIsArabicPresentationFormsB 100cc220 f   libxml2:xmlunicode.obj
 0001:000cb240       _xmlUCSIsArmenian          100cc240 f   libxml2:xmlunicode.obj
 0001:000cb260       _xmlUCSIsArrows            100cc260 f   libxml2:xmlunicode.obj
 0001:000cb280       _xmlUCSIsBasicLatin        100cc280 f   libxml2:xmlunicode.obj
 0001:000cb2a0       _xmlUCSIsBengali           100cc2a0 f   libxml2:xmlunicode.obj
 0001:000cb2c0       _xmlUCSIsBlockElements     100cc2c0 f   libxml2:xmlunicode.obj
 0001:000cb2e0       _xmlUCSIsBopomofo          100cc2e0 f   libxml2:xmlunicode.obj
 0001:000cb300       _xmlUCSIsBopomofoExtended  100cc300 f   libxml2:xmlunicode.obj
 0001:000cb320       _xmlUCSIsBoxDrawing        100cc320 f   libxml2:xmlunicode.obj
 0001:000cb340       _xmlUCSIsBraillePatterns   100cc340 f   libxml2:xmlunicode.obj
 0001:000cb360       _xmlUCSIsByzantineMusicalSymbols 100cc360 f   libxml2:xmlunicode.obj
 0001:000cb380       _xmlUCSIsCJKCompatibility  100cc380 f   libxml2:xmlunicode.obj
 0001:000cb3a0       _xmlUCSIsCJKCompatibilityForms 100cc3a0 f   libxml2:xmlunicode.obj
 0001:000cb3c0       _xmlUCSIsCJKCompatibilityIdeographs 100cc3c0 f   libxml2:xmlunicode.obj
 0001:000cb3e0       _xmlUCSIsCJKCompatibilityIdeographsSupplement 100cc3e0 f   libxml2:xmlunicode.obj
 0001:000cb400       _xmlUCSIsCJKRadicalsSupplement 100cc400 f   libxml2:xmlunicode.obj
 0001:000cb420       _xmlUCSIsCJKSymbolsandPunctuation 100cc420 f   libxml2:xmlunicode.obj
 0001:000cb440       _xmlUCSIsCJKUnifiedIdeographs 100cc440 f   libxml2:xmlunicode.obj
 0001:000cb460       _xmlUCSIsCJKUnifiedIdeographsExtensionA 100cc460 f   libxml2:xmlunicode.obj
 0001:000cb480       _xmlUCSIsCJKUnifiedIdeographsExtensionB 100cc480 f   libxml2:xmlunicode.obj
 0001:000cb4a0       _xmlUCSIsCherokee          100cc4a0 f   libxml2:xmlunicode.obj
 0001:000cb4c0       _xmlUCSIsCombiningDiacriticalMarks 100cc4c0 f   libxml2:xmlunicode.obj
 0001:000cb4e0       _xmlUCSIsCombiningHalfMarks 100cc4e0 f   libxml2:xmlunicode.obj
 0001:000cb500       _xmlUCSIsCombiningMarksforSymbols 100cc500 f   libxml2:xmlunicode.obj
 0001:000cb520       _xmlUCSIsControlPictures   100cc520 f   libxml2:xmlunicode.obj
 0001:000cb540       _xmlUCSIsCurrencySymbols   100cc540 f   libxml2:xmlunicode.obj
 0001:000cb560       _xmlUCSIsCyrillic          100cc560 f   libxml2:xmlunicode.obj
 0001:000cb580       _xmlUCSIsDeseret           100cc580 f   libxml2:xmlunicode.obj
 0001:000cb5a0       _xmlUCSIsDevanagari        100cc5a0 f   libxml2:xmlunicode.obj
 0001:000cb5c0       _xmlUCSIsDingbats          100cc5c0 f   libxml2:xmlunicode.obj
 0001:000cb5e0       _xmlUCSIsEnclosedAlphanumerics 100cc5e0 f   libxml2:xmlunicode.obj
 0001:000cb600       _xmlUCSIsEnclosedCJKLettersandMonths 100cc600 f   libxml2:xmlunicode.obj
 0001:000cb620       _xmlUCSIsEthiopic          100cc620 f   libxml2:xmlunicode.obj
 0001:000cb640       _xmlUCSIsGeneralPunctuation 100cc640 f   libxml2:xmlunicode.obj
 0001:000cb660       _xmlUCSIsGeometricShapes   100cc660 f   libxml2:xmlunicode.obj
 0001:000cb680       _xmlUCSIsGeorgian          100cc680 f   libxml2:xmlunicode.obj
 0001:000cb6a0       _xmlUCSIsGothic            100cc6a0 f   libxml2:xmlunicode.obj
 0001:000cb6c0       _xmlUCSIsGreek             100cc6c0 f   libxml2:xmlunicode.obj
 0001:000cb6e0       _xmlUCSIsGreekExtended     100cc6e0 f   libxml2:xmlunicode.obj
 0001:000cb700       _xmlUCSIsGujarati          100cc700 f   libxml2:xmlunicode.obj
 0001:000cb720       _xmlUCSIsGurmukhi          100cc720 f   libxml2:xmlunicode.obj
 0001:000cb740       _xmlUCSIsHalfwidthandFullwidthForms 100cc740 f   libxml2:xmlunicode.obj
 0001:000cb760       _xmlUCSIsHangulCompatibilityJamo 100cc760 f   libxml2:xmlunicode.obj
 0001:000cb780       _xmlUCSIsHangulJamo        100cc780 f   libxml2:xmlunicode.obj
 0001:000cb7a0       _xmlUCSIsHangulSyllables   100cc7a0 f   libxml2:xmlunicode.obj
 0001:000cb7c0       _xmlUCSIsHebrew            100cc7c0 f   libxml2:xmlunicode.obj
 0001:000cb7e0       _xmlUCSIsHighPrivateUseSurrogates 100cc7e0 f   libxml2:xmlunicode.obj
 0001:000cb800       _xmlUCSIsHighSurrogates    100cc800 f   libxml2:xmlunicode.obj
 0001:000cb820       _xmlUCSIsHiragana          100cc820 f   libxml2:xmlunicode.obj
 0001:000cb840       _xmlUCSIsIPAExtensions     100cc840 f   libxml2:xmlunicode.obj
 0001:000cb860       _xmlUCSIsIdeographicDescriptionCharacters 100cc860 f   libxml2:xmlunicode.obj
 0001:000cb880       _xmlUCSIsKanbun            100cc880 f   libxml2:xmlunicode.obj
 0001:000cb8a0       _xmlUCSIsKangxiRadicals    100cc8a0 f   libxml2:xmlunicode.obj
 0001:000cb8c0       _xmlUCSIsKannada           100cc8c0 f   libxml2:xmlunicode.obj
 0001:000cb8e0       _xmlUCSIsKatakana          100cc8e0 f   libxml2:xmlunicode.obj
 0001:000cb900       _xmlUCSIsKhmer             100cc900 f   libxml2:xmlunicode.obj
 0001:000cb920       _xmlUCSIsLao               100cc920 f   libxml2:xmlunicode.obj
 0001:000cb940       _xmlUCSIsLatin1Supplement  100cc940 f   libxml2:xmlunicode.obj
 0001:000cb960       _xmlUCSIsLatinExtendedA    100cc960 f   libxml2:xmlunicode.obj
 0001:000cb980       _xmlUCSIsLatinExtendedB    100cc980 f   libxml2:xmlunicode.obj
 0001:000cb9a0       _xmlUCSIsLatinExtendedAdditional 100cc9a0 f   libxml2:xmlunicode.obj
 0001:000cb9c0       _xmlUCSIsLetterlikeSymbols 100cc9c0 f   libxml2:xmlunicode.obj
 0001:000cb9e0       _xmlUCSIsLowSurrogates     100cc9e0 f   libxml2:xmlunicode.obj
 0001:000cba00       _xmlUCSIsMalayalam         100cca00 f   libxml2:xmlunicode.obj
 0001:000cba20       _xmlUCSIsMathematicalAlphanumericSymbols 100cca20 f   libxml2:xmlunicode.obj
 0001:000cba40       _xmlUCSIsMathematicalOperators 100cca40 f   libxml2:xmlunicode.obj
 0001:000cba60       _xmlUCSIsMiscellaneousSymbols 100cca60 f   libxml2:xmlunicode.obj
 0001:000cba80       _xmlUCSIsMiscellaneousTechnical 100cca80 f   libxml2:xmlunicode.obj
 0001:000cbaa0       _xmlUCSIsMongolian         100ccaa0 f   libxml2:xmlunicode.obj
 0001:000cbac0       _xmlUCSIsMusicalSymbols    100ccac0 f   libxml2:xmlunicode.obj
 0001:000cbae0       _xmlUCSIsMyanmar           100ccae0 f   libxml2:xmlunicode.obj
 0001:000cbb00       _xmlUCSIsNumberForms       100ccb00 f   libxml2:xmlunicode.obj
 0001:000cbb20       _xmlUCSIsOgham             100ccb20 f   libxml2:xmlunicode.obj
 0001:000cbb40       _xmlUCSIsOldItalic         100ccb40 f   libxml2:xmlunicode.obj
 0001:000cbb60       _xmlUCSIsOpticalCharacterRecognition 100ccb60 f   libxml2:xmlunicode.obj
 0001:000cbb80       _xmlUCSIsOriya             100ccb80 f   libxml2:xmlunicode.obj
 0001:000cbba0       _xmlUCSIsPrivateUse        100ccba0 f   libxml2:xmlunicode.obj
 0001:000cbbc0       _xmlUCSIsRunic             100ccbc0 f   libxml2:xmlunicode.obj
 0001:000cbbe0       _xmlUCSIsSinhala           100ccbe0 f   libxml2:xmlunicode.obj
 0001:000cbc00       _xmlUCSIsSmallFormVariants 100ccc00 f   libxml2:xmlunicode.obj
 0001:000cbc20       _xmlUCSIsSpacingModifierLetters 100ccc20 f   libxml2:xmlunicode.obj
 0001:000cbc40       _xmlUCSIsSpecials          100ccc40 f   libxml2:xmlunicode.obj
 0001:000cbc60       _xmlUCSIsSuperscriptsandSubscripts 100ccc60 f   libxml2:xmlunicode.obj
 0001:000cbc80       _xmlUCSIsSyriac            100ccc80 f   libxml2:xmlunicode.obj
 0001:000cbca0       _xmlUCSIsTags              100ccca0 f   libxml2:xmlunicode.obj
 0001:000cbcc0       _xmlUCSIsTamil             100cccc0 f   libxml2:xmlunicode.obj
 0001:000cbce0       _xmlUCSIsTelugu            100ccce0 f   libxml2:xmlunicode.obj
 0001:000cbd00       _xmlUCSIsThaana            100ccd00 f   libxml2:xmlunicode.obj
 0001:000cbd20       _xmlUCSIsThai              100ccd20 f   libxml2:xmlunicode.obj
 0001:000cbd40       _xmlUCSIsTibetan           100ccd40 f   libxml2:xmlunicode.obj
 0001:000cbd60       _xmlUCSIsUnifiedCanadianAboriginalSyllabics 100ccd60 f   libxml2:xmlunicode.obj
 0001:000cbd80       _xmlUCSIsYiRadicals        100ccd80 f   libxml2:xmlunicode.obj
 0001:000cbda0       _xmlUCSIsYiSyllables       100ccda0 f   libxml2:xmlunicode.obj
 0001:000cbdc0       _xmlUCSIsBlock             100ccdc0 f   libxml2:xmlunicode.obj
 0001:000ccaa0       _xmlUCSIsCatC              100cdaa0 f   libxml2:xmlunicode.obj
 0001:000ccbb0       _xmlUCSIsCatCc             100cdbb0 f   libxml2:xmlunicode.obj
 0001:000ccbe0       _xmlUCSIsCatCf             100cdbe0 f   libxml2:xmlunicode.obj
 0001:000ccc70       _xmlUCSIsCatCo             100cdc70 f   libxml2:xmlunicode.obj
 0001:000cccb0       _xmlUCSIsCatL              100cdcb0 f   libxml2:xmlunicode.obj
 0001:000cdfc0       _xmlUCSIsCatLl             100cefc0 f   libxml2:xmlunicode.obj
 0001:000cf300       _xmlUCSIsCatLm             100d0300 f   libxml2:xmlunicode.obj
 0001:000cf3e0       _xmlUCSIsCatLo             100d03e0 f   libxml2:xmlunicode.obj
 0001:000d0060       _xmlUCSIsCatLt             100d1060 f   libxml2:xmlunicode.obj
 0001:000d00d0       _xmlUCSIsCatLu             100d10d0 f   libxml2:xmlunicode.obj
 0001:000d1400       _xmlUCSIsCatM              100d2400 f   libxml2:xmlunicode.obj
 0001:000d1ab0       _xmlUCSIsCatMc             100d2ab0 f   libxml2:xmlunicode.obj
 0001:000d1df0       _xmlUCSIsCatMe             100d2df0 f   libxml2:xmlunicode.obj
 0001:000d1e40       _xmlUCSIsCatMn             100d2e40 f   libxml2:xmlunicode.obj
 0001:000d23f0       _xmlUCSIsCatN              100d33f0 f   libxml2:xmlunicode.obj
 0001:000d2690       _xmlUCSIsCatNd             100d3690 f   libxml2:xmlunicode.obj
 0001:000d27f0       _xmlUCSIsCatNl             100d37f0 f   libxml2:xmlunicode.obj
 0001:000d2850       _xmlUCSIsCatNo             100d3850 f   libxml2:xmlunicode.obj
 0001:000d2970       _xmlUCSIsCatP              100d3970 f   libxml2:xmlunicode.obj
 0001:000d2da0       _xmlUCSIsCatPc             100d3da0 f   libxml2:xmlunicode.obj
 0001:000d2e00       _xmlUCSIsCatPd             100d3e00 f   libxml2:xmlunicode.obj
 0001:000d2e70       _xmlUCSIsCatPe             100d3e70 f   libxml2:xmlunicode.obj
 0001:000d2fd0       _xmlUCSIsCatPf             100d3fd0 f   libxml2:xmlunicode.obj
 0001:000d3000       _xmlUCSIsCatPi             100d4000 f   libxml2:xmlunicode.obj
 0001:000d3040       _xmlUCSIsCatPo             100d4040 f   libxml2:xmlunicode.obj
 0001:000d33d0       _xmlUCSIsCatPs             100d43d0 f   libxml2:xmlunicode.obj
 0001:000d3540       _xmlUCSIsCatS              100d4540 f   libxml2:xmlunicode.obj
 0001:000d3d90       _xmlUCSIsCatSc             100d4d90 f   libxml2:xmlunicode.obj
 0001:000d3e10       _xmlUCSIsCatSk             100d4e10 f   libxml2:xmlunicode.obj
 0001:000d3f40       _xmlUCSIsCatSm             100d4f40 f   libxml2:xmlunicode.obj
 0001:000d4150       _xmlUCSIsCatSo             100d5150 f   libxml2:xmlunicode.obj
 0001:000d47d0       _xmlUCSIsCatZ              100d57d0 f   libxml2:xmlunicode.obj
 0001:000d4820       _xmlUCSIsCatZl             100d5820 f   libxml2:xmlunicode.obj
 0001:000d4830       _xmlUCSIsCatZp             100d5830 f   libxml2:xmlunicode.obj
 0001:000d4840       _xmlUCSIsCatZs             100d5840 f   libxml2:xmlunicode.obj
 0001:000d487c       _VerQueryValueA@16         100d587c f   Version:VERSION.dll
 0001:000d4882       _GetFileVersionInfoA@16    100d5882 f   Version:VERSION.dll
 0001:000d4888       _GetFileVersionInfoSizeA@8 100d5888 f   Version:VERSION.dll
 0001:000d4ec0       _gzclose                   100d5ec0 f   zlib:gzio.obj
 0001:000d5180       _gzopen                    100d6180 f   zlib:gzio.obj
 0001:000d51a0       _gzread                    100d61a0 f   zlib:gzio.obj
 0001:000d5470       _deflate                   100d6470 f   zlib:deflate.obj
 0001:000d5700       _deflateEnd                100d6700 f   zlib:deflate.obj
 0001:000d64c0       _deflateReset              100d74c0 f   zlib:deflate.obj
 0001:000d6540       _deflateInit2_             100d7540 f   zlib:deflate.obj
 0001:000d6730       _inflateReset              100d7730 f   zlib:inflate.obj
 0001:000d6780       _inflateEnd                100d7780 f   zlib:inflate.obj
 0001:000d67d0       _inflateInit2_             100d77d0 f   zlib:inflate.obj
 0001:000d68d0       _inflate                   100d78d0 f   zlib:inflate.obj
 0001:000d6cd0       _crc32                     100d7cd0 f   zlib:crc32.obj
 0001:000d6e00       _zcalloc                   100d7e00 f   zlib:zutil.obj
 0001:000d6e20       _zcfree                    100d7e20 f   zlib:zutil.obj
 0001:000d6e30       _adler32                   100d7e30 f   zlib:adler32.obj
 0001:000d8170       __tr_init                  100d9170 f   zlib:trees.obj
 0001:000d84e0       __tr_stored_block          100d94e0 f   zlib:trees.obj
 0001:000d8580       __tr_align                 100d9580 f   zlib:trees.obj
 0001:000d8780       __tr_flush_block           100d9780 f   zlib:trees.obj
 0001:000d8970       _inflate_blocks_reset      100d9970 f   zlib:infblock.obj
 0001:000d89f0       _inflate_blocks_new        100d99f0 f   zlib:infblock.obj
 0001:000d8a90       _inflate_blocks            100d9a90 f   zlib:infblock.obj
 0001:000d9620       _inflate_blocks_free       100da620 f   zlib:infblock.obj
 0001:000d96b0       _inflate_codes_new         100da6b0 f   zlib:infcodes.obj
 0001:000d96f0       _inflate_codes             100da6f0 f   zlib:infcodes.obj
 0001:000d9e10       _inflate_codes_free        100dae10 f   zlib:infcodes.obj
 0001:000da320       _inflate_trees_bits        100db320 f   zlib:inftrees.obj
 0001:000da3d0       _inflate_trees_dynamic     100db3d0 f   zlib:inftrees.obj
 0001:000da560       _inflate_trees_fixed       100db560 f   zlib:inftrees.obj
 0001:000da590       _inflate_flush             100db590 f   zlib:infutil.obj
 0001:000da6c0       _inflate_fast              100db6c0 f   zlib:inffast.obj
 0001:000daa56       _VarBstrCat@12             100dba56 f   oleaut32:OLEAUT32.dll
 0001:000daa60       ?AtlAdvise@ATL@@YGJPAUIUnknown@@0ABU_GUID@@PAK@Z 100dba60 f   atlsd:atlfuncs.obj
 0001:000dab20       ?AtlUnadvise@ATL@@YGJPAUIUnknown@@ABU_GUID@@K@Z 100dbb20 f   atlsd:atlfuncs.obj
 0001:000dabe0       ?AtlFreeMarshalStream@ATL@@YGJPAUIStream@@@Z 100dbbe0 f   atlsd:atlfuncs.obj
 0001:000dac30       ?AtlMarshalPtrInProc@ATL@@YGJPAUIUnknown@@ABU_GUID@@PAPAUIStream@@@Z 100dbc30 f   atlsd:atlfuncs.obj
 0001:000dacd0       ?AtlUnmarshalPtr@ATL@@YGJPAUIStream@@ABU_GUID@@PAPAUIUnknown@@@Z 100dbcd0 f   atlsd:atlfuncs.obj
 0001:000dad70       ?AtlComModuleGetClassObject@ATL@@YGJPAU_ATL_COM_MODULE70@1@ABU_GUID@@1PAPAX@Z 100dbd70 f   atlsd:atlfuncs.obj
 0001:000daf40       ?AtlComModuleRegisterClassObjects@ATL@@YGJPAU_ATL_COM_MODULE70@1@KK@Z 100dbf40 f   atlsd:atlfuncs.obj
 0001:000dafd0       ?AtlComModuleRevokeClassObjects@ATL@@YGJPAU_ATL_COM_MODULE70@1@@Z 100dbfd0 f   atlsd:atlfuncs.obj
 0001:000db060       ?AtlWaitWithMessageLoop@ATL@@YGHPAX@Z 100dc060 f   atlsd:atlfuncs.obj
 0001:000db150       ?AtlInternalQueryInterface@ATL@@YGJPAXPBU_ATL_INTMAP_ENTRY@1@ABU_GUID@@PAPAX@Z 100dc150 f   atlsd:atlfuncs.obj
 0001:000db310       ?AtlGetVersion@ATL@@YGKPAX@Z 100dc310 f   atlsd:atlfuncs.obj
 0001:000db320       ?AtlWinModuleAddCreateWndData@ATL@@YGXPAU_ATL_WIN_MODULE70@1@PAU_AtlCreateWndData@1@PAX@Z 100dc320 f   atlsd:atlfuncs.obj
 0001:000db430       ?AtlWinModuleExtractCreateWndData@ATL@@YGPAXPAU_ATL_WIN_MODULE70@1@@Z 100dc430 f   atlsd:atlfuncs.obj
 0001:000db550       ?AtlWinModuleInit@ATL@@YGJPAU_ATL_WIN_MODULE70@1@@Z 100dc550 f   atlsd:atlfuncs.obj
 0001:000db5f0       ?AtlModuleAddTermFunc@ATL@@YGJPAU_ATL_MODULE70@1@P6GXK@ZK@Z 100dc5f0 f   atlsd:atlfuncs.obj
 0001:000db700       ?AtlCallTermFunc@ATL@@YGXPAU_ATL_MODULE70@1@@Z 100dc700 f   atlsd:atlfuncs.obj
 0001:000db770       ?CComStdCallThunkHelper@ATL@@YGXXZ 100dc770 f   atlsd:atlfuncs.obj
 0001:000db780       ??1?$CComPtr@UIConnectionPoint@@@ATL@@QAE@XZ 100dc780 f i atlsd:atlfuncs.obj
 0001:000db780       ??1?$CComPtr@UIConnectionPointContainer@@@ATL@@QAE@XZ 100dc780 f i atlsd:atlfuncs.obj
 0001:000db7a0       ??0?$CComPtr@UIConnectionPoint@@@ATL@@QAE@XZ 100dc7a0 f i atlsd:atlfuncs.obj
 0001:000db7a0       ??0?$CComPtr@UIConnectionPointContainer@@@ATL@@QAE@XZ 100dc7a0 f i atlsd:atlfuncs.obj
 0001:000db7c0       ??1?$CComPtrBase@UIConnectionPointContainer@@@ATL@@QAE@XZ 100dc7c0 f i atlsd:atlfuncs.obj
 0001:000db7c0       ??1?$CComPtrBase@UIConnectionPoint@@@ATL@@QAE@XZ 100dc7c0 f i atlsd:atlfuncs.obj
 0001:000db7f0       ??I?$CComPtrBase@UIConnectionPoint@@@ATL@@QAEPAPAUIConnectionPoint@@XZ 100dc7f0 f i atlsd:atlfuncs.obj
 0001:000db7f0       ??I?$CComPtrBase@UIConnectionPointContainer@@@ATL@@QAEPAPAUIConnectionPointContainer@@XZ 100dc7f0 f i atlsd:atlfuncs.obj
 0001:000db830       ??C?$CComPtrBase@UIConnectionPoint@@@ATL@@QBEPAV?$_NoAddRefReleaseOnCComPtr@UIConnectionPoint@@@1@XZ 100dc830 f i atlsd:atlfuncs.obj
 0001:000db830       ??C?$CComPtrBase@UIConnectionPointContainer@@@ATL@@QBEPAV?$_NoAddRefReleaseOnCComPtr@UIConnectionPointContainer@@@1@XZ 100dc830 f i atlsd:atlfuncs.obj
 0001:000db870       ??0?$CComPtrBase@UIConnectionPoint@@@ATL@@IAE@XZ 100dc870 f i atlsd:atlfuncs.obj
 0001:000db870       ??0?$CComPtrBase@UIConnectionPointContainer@@@ATL@@IAE@XZ 100dc870 f i atlsd:atlfuncs.obj
 0001:000db890       ?RevokeClassObject@_ATL_OBJMAP_ENTRY30@ATL@@QAGJXZ 100dc890 f i atlsd:atlfuncs.obj
 0001:000db8c0       ?RegisterClassObject@_ATL_OBJMAP_ENTRY30@ATL@@QAGJKK@Z 100dc8c0 f i atlsd:atlfuncs.obj
 0001:000db940       ??0CAtlBaseModule@ATL@@QAE@XZ 100dc940 f   atlsd:atlbase.obj
 0001:000dbab0       ??1CAtlBaseModule@ATL@@QAE@XZ 100dcab0 f   atlsd:atlbase.obj
 0001:000dbad0       ?AddResourceInstance@CAtlBaseModule@ATL@@QAE_NPAUHINSTANCE__@@@Z 100dcad0 f   atlsd:atlbase.obj
 0001:000dbb80       ?RemoveResourceInstance@CAtlBaseModule@ATL@@QAE_NPAUHINSTANCE__@@@Z 100dcb80 f   atlsd:atlbase.obj
 0001:000dbc80       ?GetHInstanceAt@CAtlBaseModule@ATL@@QAEPAUHINSTANCE__@@H@Z 100dcc80 f   atlsd:atlbase.obj
 0001:000dbd80       ??0_ATL_BASE_MODULE70@ATL@@QAE@XZ 100dcd80 f i atlsd:atlbase.obj
 0001:000dbdb0       ??1_ATL_BASE_MODULE70@ATL@@QAE@XZ 100dcdb0 f i atlsd:atlbase.obj
 0001:000dbdd0       ??0?$CSimpleArray@UCModuleInfo@CTraceSnapshot@@V?$CSimpleArrayEqualHelper@UCModuleInfo@CTraceSnapshot@@@ATL@@@ATL@@QAE@XZ 100dcdd0 f i atlsd:Externs.obj
 0001:000dbdd0       ??0?$CSimpleArray@KV?$CSimpleArrayEqualHelper@K@ATL@@@ATL@@QAE@XZ 100dcdd0 f i atlsd:Externs.obj
 0001:000dbdd0       ??0?$CSimpleArray@PAUHINSTANCE__@@V?$CSimpleArrayEqualHelper@PAUHINSTANCE__@@@ATL@@@ATL@@QAE@XZ 100dcdd0 f i atlsd:atlbase.obj
 0001:000dbe00       ?Add@?$CSimpleArray@KV?$CSimpleArrayEqualHelper@K@ATL@@@ATL@@QAEHABK@Z 100dce00 f i atlsd:Allocate.obj
 0001:000dbe00       ?Add@?$CSimpleArray@PAUHINSTANCE__@@V?$CSimpleArrayEqualHelper@PAUHINSTANCE__@@@ATL@@@ATL@@QAEHABQAUHINSTANCE__@@@Z 100dce00 f i atlsd:atlbase.obj
 0001:000dbea0       ?RemoveAt@?$CSimpleArray@PAUHINSTANCE__@@V?$CSimpleArrayEqualHelper@PAUHINSTANCE__@@@ATL@@@ATL@@QAEHH@Z 100dcea0 f i atlsd:atlbase.obj
 0001:000dbea0       ?RemoveAt@?$CSimpleArray@KV?$CSimpleArrayEqualHelper@K@ATL@@@ATL@@QAEHH@Z 100dcea0 f i atlsd:Allocate.obj
 0001:000dbf50       ??A?$CSimpleArray@PAUHINSTANCE__@@V?$CSimpleArrayEqualHelper@PAUHINSTANCE__@@@ATL@@@ATL@@QAEAAPAUHINSTANCE__@@H@Z 100dcf50 f i atlsd:atlbase.obj
 0001:000dbf50       ??A?$CSimpleArray@KV?$CSimpleArrayEqualHelper@K@ATL@@@ATL@@QAEAAKH@Z 100dcf50 f i atlsd:Allocate.obj
 0001:000dbfc0       ??0CTraceCategory@ATL@@QAE@PBDI@Z 100dcfc0 f i atlsd:atltrace.obj
 0001:000dc010       ?ChangeCategory@CTrace@ATL@@QAE_NKIW4ATLTRACESTATUS@2@@Z 100dd010 f i atlsd:atltrace.obj
 0001:000dc040       ?RegisterCategory@CTrace@ATL@@QAEKPBD@Z 100dd040 f i atlsd:atltrace.obj
 0001:000dc060       ??0CAtlAllocator@@QAE@XZ   100dd060 f i atlsd:Externs.obj
 0001:000dc0b0       ??0CTraceSnapshot@@QAE@XZ  100dd0b0 f i atlsd:Externs.obj
 0001:000dc1b0       ??0CTrace@ATL@@AAE@P6AHHPBDH00ZZ@Z 100dd1b0 f i atlsd:Externs.obj
 0001:000dc1f0       ??1CAtlAllocator@@QAE@XZ   100dd1f0 f i atlsd:Externs.obj
 0001:000dc210       ??1CTraceSnapshot@@QAE@XZ  100dd210 f i atlsd:Externs.obj
 0001:000dc230       ??1?$CSimpleArray@UCModuleInfo@CTraceSnapshot@@V?$CSimpleArrayEqualHelper@UCModuleInfo@CTraceSnapshot@@@ATL@@@ATL@@QAE@XZ 100dd230 f i atlsd:Externs.obj
 0001:000dc230       ??1?$CSimpleArray@KV?$CSimpleArrayEqualHelper@K@ATL@@@ATL@@QAE@XZ 100dd230 f i atlsd:Externs.obj
 0001:000dc230       ??1?$CSimpleArray@PAUHINSTANCE__@@V?$CSimpleArrayEqualHelper@PAUHINSTANCE__@@@ATL@@@ATL@@QAE@XZ 100dd230 f i atlsd:atlbase.obj
 0001:000dc250       ?RemoveAll@?$CSimpleArray@PAUHINSTANCE__@@V?$CSimpleArrayEqualHelper@PAUHINSTANCE__@@@ATL@@@ATL@@QAEXXZ 100dd250 f i atlsd:atlbase.obj
 0001:000dc250       ?RemoveAll@?$CSimpleArray@UCModuleInfo@CTraceSnapshot@@V?$CSimpleArrayEqualHelper@UCModuleInfo@CTraceSnapshot@@@ATL@@@ATL@@QAEXXZ 100dd250 f i atlsd:Externs.obj
 0001:000dc250       ?RemoveAll@?$CSimpleArray@KV?$CSimpleArrayEqualHelper@K@ATL@@@ATL@@QAEXXZ 100dd250 f i atlsd:Externs.obj
 0001:000dc2b0       ??1CTrace@ATL@@AAE@XZ      100dd2b0 f i atlsd:Externs.obj
 0001:000dc2d0       ?NotifyTool@ATL@@YGXXZ     100dd2d0 f   atlsd:AtlDebugAPI.obj
 0001:000dc310       _AtlTraceRegister@8        100dd310 f   atlsd:AtlDebugAPI.obj
 0001:000dc380       _AtlTraceUnregister@4      100dd380 f   atlsd:AtlDebugAPI.obj
 0001:000dc3b0       _AtlTraceRegisterCategoryA@8 100dd3b0 f   atlsd:AtlDebugAPI.obj
 0001:000dc450       _AtlTraceRegisterCategoryU@8 100dd450 f   atlsd:AtlDebugAPI.obj
 0001:000dc490       _AtlTraceModifyProcess@20  100dd490 f   atlsd:AtlDebugAPI.obj
 0001:000dc530       _AtlTraceModifyModule@16   100dd530 f   atlsd:AtlDebugAPI.obj
 0001:000dc610       _AtlTraceModifyCategory@16 100dd610 f   atlsd:AtlDebugAPI.obj
 0001:000dc6c0       _AtlTraceGetProcess@20     100dd6c0 f   atlsd:AtlDebugAPI.obj
 0001:000dc770       _AtlTraceGetModule@16      100dd770 f   atlsd:AtlDebugAPI.obj
 0001:000dc860       _AtlTraceGetCategory@16    100dd860 f   atlsd:AtlDebugAPI.obj
 0001:000dc920       _AtlTraceGetUpdateEventNameA@4 100dd920 f   atlsd:AtlDebugAPI.obj
 0001:000dc950       _AtlTraceGetUpdateEventNameU@4 100dd950 f   atlsd:AtlDebugAPI.obj
 0001:000dc9f0       _AtlTraceVA                100dd9f0 f   atlsd:AtlDebugAPI.obj
 0001:000dcbb0       _AtlTraceVU                100ddbb0 f   atlsd:AtlDebugAPI.obj
 0001:000dcd70       _AtlTraceOpenProcess@4     100ddd70 f   atlsd:AtlDebugAPI.obj
 0001:000dce20       _AtlTraceCloseProcess@4    100dde20 f   atlsd:AtlDebugAPI.obj
 0001:000dce70       _AtlTraceSnapshotProcess@4 100dde70 f   atlsd:AtlDebugAPI.obj
 0001:000dce90       _AtlTraceGetProcessInfo@8  100dde90 f   atlsd:AtlDebugAPI.obj
 0001:000dcfe0       _AtlTraceGetModuleInfo@12  100ddfe0 f   atlsd:AtlDebugAPI.obj
 0001:000dd120       _AtlTraceGetCategoryInfo@16 100de120 f   atlsd:AtlDebugAPI.obj
 0001:000dd450       ?GetProcess@CAtlAllocator@@QBEPAVCAtlTraceProcess@@XZ 100de450 f i atlsd:AtlDebugAPI.obj
 0001:000dd470       ?Name@CAtlTraceCategory@@QBEPBGXZ 100de470 f i atlsd:AtlDebugAPI.obj
 0001:000dd490       ??_GCAtlAllocator@@QAEPAXI@Z 100de490 f i atlsd:AtlDebugAPI.obj
 0001:000dd4c0       ?Path@CAtlTraceModuleInfo@@QBEPBGXZ 100de4c0 f i atlsd:AtlDebugAPI.obj
 0001:000dd4e0       ?Name@CAtlTraceModuleInfo@@QBEPBGXZ 100de4e0 f i atlsd:AtlDebugAPI.obj
 0001:000dd500       ?Id@CAtlTraceProcess@@QBEKXZ 100de500 f i atlsd:AtlDebugAPI.obj
 0001:000dd520       ?CrtDbgReport@CAtlTraceModule@@QBEP6AHHPBDH00ZZXZ 100de520 f i atlsd:AtlDebugAPI.obj
 0001:000dd540       ??A?$CSimpleArray@UCModuleInfo@CTraceSnapshot@@V?$CSimpleArrayEqualHelper@UCModuleInfo@CTraceSnapshot@@@ATL@@@ATL@@QAEAAUCModuleInfo@CTraceSnapshot@@H@Z 100de540 f i atlsd:AtlDebugAPI.obj
 0001:000dd5b0       ??0CTimeSpan@ATL@@QAE@XZ   100de5b0 f   atlsd:atltime.obj
 0001:000dd5d0       ??0CTimeSpan@ATL@@QAE@_J@Z 100de5d0 f   atlsd:atltime.obj
 0001:000dd5f0       ??0CTimeSpan@ATL@@QAE@JHHH@Z 100de5f0 f   atlsd:atltime.obj
 0001:000dd670       ?GetDays@CTimeSpan@ATL@@QBE_JXZ 100de670 f   atlsd:atltime.obj
 0001:000dd6a0       ?GetTotalHours@CTimeSpan@ATL@@QBE_JXZ 100de6a0 f   atlsd:atltime.obj
 0001:000dd6d0       ?GetHours@CTimeSpan@ATL@@QBEJXZ 100de6d0 f   atlsd:atltime.obj
 0001:000dd710       ?GetTotalMinutes@CTimeSpan@ATL@@QBE_JXZ 100de710 f   atlsd:atltime.obj
 0001:000dd730       ?GetMinutes@CTimeSpan@ATL@@QBEJXZ 100de730 f   atlsd:atltime.obj
 0001:000dd770       ?GetTotalSeconds@CTimeSpan@ATL@@QBE_JXZ 100de770 f   atlsd:atltime.obj
 0001:000dd790       ?GetSeconds@CTimeSpan@ATL@@QBEJXZ 100de790 f   atlsd:atltime.obj
 0001:000dd7d0       ?GetTimeSpan@CTimeSpan@ATL@@QBE_JXZ 100de7d0 f   atlsd:atltime.obj
 0001:000dd7f0       ??HCTimeSpan@ATL@@QBE?AV01@V01@@Z 100de7f0 f   atlsd:atltime.obj
 0001:000dd820       ??GCTimeSpan@ATL@@QBE?AV01@V01@@Z 100de820 f   atlsd:atltime.obj
 0001:000dd850       ??YCTimeSpan@ATL@@QAEAAV01@V01@@Z 100de850 f   atlsd:atltime.obj
 0001:000dd880       ??ZCTimeSpan@ATL@@QAEAAV01@V01@@Z 100de880 f   atlsd:atltime.obj
 0001:000dd8b0       ??8CTimeSpan@ATL@@QBE_NV01@@Z 100de8b0 f   atlsd:atltime.obj
 0001:000dd8f0       ??9CTimeSpan@ATL@@QBE_NV01@@Z 100de8f0 f   atlsd:atltime.obj
 0001:000dd930       ??MCTimeSpan@ATL@@QBE_NV01@@Z 100de930 f   atlsd:atltime.obj
 0001:000dd970       ??OCTimeSpan@ATL@@QBE_NV01@@Z 100de970 f   atlsd:atltime.obj
 0001:000dd9b0       ??NCTimeSpan@ATL@@QBE_NV01@@Z 100de9b0 f   atlsd:atltime.obj
 0001:000dd9f0       ??PCTimeSpan@ATL@@QBE_NV01@@Z 100de9f0 f   atlsd:atltime.obj
 0001:000dda30       ?GetTickCount@CTime@ATL@@SG?AV12@XZ 100dea30 f   atlsd:atltime.obj
 0001:000dda50       ??0CTime@ATL@@QAE@XZ       100dea50 f   atlsd:atltime.obj
 0001:000dda70       ??0CTime@ATL@@QAE@_J@Z     100dea70 f   atlsd:atltime.obj
 0001:000dda90       ??0CTime@ATL@@QAE@HHHHHHH@Z 100dea90 f   atlsd:atltime.obj
 0001:000ddbd0       ??0CTime@ATL@@QAE@GGH@Z    100debd0 f   atlsd:atltime.obj
 0001:000ddcb0       ??0CTime@ATL@@QAE@ABU_SYSTEMTIME@@H@Z 100decb0 f   atlsd:atltime.obj
 0001:000ddd50       ??0CTime@ATL@@QAE@ABU_FILETIME@@H@Z 100ded50 f   atlsd:atltime.obj
 0001:000ddde0       ??4CTime@ATL@@QAEAAV01@_J@Z 100dede0 f   atlsd:atltime.obj
 0001:000dde00       ??YCTime@ATL@@QAEAAV01@VCTimeSpan@1@@Z 100dee00 f   atlsd:atltime.obj
 0001:000dde30       ??ZCTime@ATL@@QAEAAV01@VCTimeSpan@1@@Z 100dee30 f   atlsd:atltime.obj
 0001:000dde60       ??GCTime@ATL@@QBE?AVCTimeSpan@1@V01@@Z 100dee60 f   atlsd:atltime.obj
 0001:000dde90       ??GCTime@ATL@@QBE?AV01@VCTimeSpan@1@@Z 100dee90 f   atlsd:atltime.obj
 0001:000ddec0       ??HCTime@ATL@@QBE?AV01@VCTimeSpan@1@@Z 100deec0 f   atlsd:atltime.obj
 0001:000ddef0       ??8CTime@ATL@@QBE_NV01@@Z  100deef0 f   atlsd:atltime.obj
 0001:000ddf30       ??9CTime@ATL@@QBE_NV01@@Z  100def30 f   atlsd:atltime.obj
 0001:000ddf70       ??MCTime@ATL@@QBE_NV01@@Z  100def70 f   atlsd:atltime.obj
 0001:000ddfb0       ??OCTime@ATL@@QBE_NV01@@Z  100defb0 f   atlsd:atltime.obj
 0001:000ddff0       ??NCTime@ATL@@QBE_NV01@@Z  100deff0 f   atlsd:atltime.obj
 0001:000de030       ??PCTime@ATL@@QBE_NV01@@Z  100df030 f   atlsd:atltime.obj
 0001:000de070       ?GetGmtTm@CTime@ATL@@QBEPAUtm@@PAU3@@Z 100df070 f   atlsd:atltime.obj
 0001:000de0c0       ?GetLocalTm@CTime@ATL@@QBEPAUtm@@PAU3@@Z 100df0c0 f   atlsd:atltime.obj
 0001:000de110       ?GetAsSystemTime@CTime@ATL@@QBE_NAAU_SYSTEMTIME@@@Z 100df110 f   atlsd:atltime.obj
 0001:000de1b0       ?GetTime@CTime@ATL@@QBE_JXZ 100df1b0 f   atlsd:atltime.obj
 0001:000de1d0       ?GetYear@CTime@ATL@@QBEHXZ 100df1d0 f   atlsd:atltime.obj
 0001:000de210       ?GetMonth@CTime@ATL@@QBEHXZ 100df210 f   atlsd:atltime.obj
 0001:000de250       ?GetDay@CTime@ATL@@QBEHXZ  100df250 f   atlsd:atltime.obj
 0001:000de290       ?GetHour@CTime@ATL@@QBEHXZ 100df290 f   atlsd:atltime.obj
 0001:000de2d0       ?GetMinute@CTime@ATL@@QBEHXZ 100df2d0 f   atlsd:atltime.obj
 0001:000de310       ?GetSecond@CTime@ATL@@QBEHXZ 100df310 f   atlsd:atltime.obj
 0001:000de350       ?GetDayOfWeek@CTime@ATL@@QBEHXZ 100df350 f   atlsd:atltime.obj
 0001:000de390       ??0CFileTimeSpan@ATL@@QAE@XZ 100df390 f   atlsd:atltime.obj
 0001:000de3b0       ??0CFileTimeSpan@ATL@@QAE@ABV01@@Z 100df3b0 f   atlsd:atltime.obj
 0001:000de3d0       ??0CFileTimeSpan@ATL@@QAE@_J@Z 100df3d0 f   atlsd:atltime.obj
 0001:000de3f0       ??4CFileTimeSpan@ATL@@QAEAAV01@ABV01@@Z 100df3f0 f   atlsd:atltime.obj
 0001:000de410       ??YCFileTimeSpan@ATL@@QAEAAV01@V01@@Z 100df410 f   atlsd:atltime.obj
 0001:000de440       ??ZCFileTimeSpan@ATL@@QAEAAV01@V01@@Z 100df440 f   atlsd:atltime.obj
 0001:000de470       ??HCFileTimeSpan@ATL@@QBE?AV01@V01@@Z 100df470 f   atlsd:atltime.obj
 0001:000de4a0       ??GCFileTimeSpan@ATL@@QBE?AV01@V01@@Z 100df4a0 f   atlsd:atltime.obj
 0001:000de4d0       ??8CFileTimeSpan@ATL@@QBE_NV01@@Z 100df4d0 f   atlsd:atltime.obj
 0001:000de510       ??9CFileTimeSpan@ATL@@QBE_NV01@@Z 100df510 f   atlsd:atltime.obj
 0001:000de550       ??MCFileTimeSpan@ATL@@QBE_NV01@@Z 100df550 f   atlsd:atltime.obj
 0001:000de590       ??OCFileTimeSpan@ATL@@QBE_NV01@@Z 100df590 f   atlsd:atltime.obj
 0001:000de5d0       ??NCFileTimeSpan@ATL@@QBE_NV01@@Z 100df5d0 f   atlsd:atltime.obj
 0001:000de610       ??PCFileTimeSpan@ATL@@QBE_NV01@@Z 100df610 f   atlsd:atltime.obj
 0001:000de650       ?GetTimeSpan@CFileTimeSpan@ATL@@QBE_JXZ 100df650 f   atlsd:atltime.obj
 0001:000de670       ?SetTimeSpan@CFileTimeSpan@ATL@@QAEX_J@Z 100df670 f   atlsd:atltime.obj
 0001:000de690       ??0CFileTime@ATL@@QAE@XZ   100df690 f   atlsd:atltime.obj
 0001:000de6c0       ??0CFileTime@ATL@@QAE@ABU_FILETIME@@@Z 100df6c0 f   atlsd:atltime.obj
 0001:000de6f0       ??0CFileTime@ATL@@QAE@_K@Z 100df6f0 f   atlsd:atltime.obj
 0001:000de720       ??4CFileTime@ATL@@QAEAAV01@ABU_FILETIME@@@Z 100df720 f   atlsd:atltime.obj
 0001:000de750       ?GetTickCount@CFileTime@ATL@@SG?AV12@XZ 100df750 f   atlsd:atltime.obj
 0001:000de780       ??YCFileTime@ATL@@QAEAAV01@VCFileTimeSpan@1@@Z 100df780 f   atlsd:atltime.obj
 0001:000de7c0       ??ZCFileTime@ATL@@QAEAAV01@VCFileTimeSpan@1@@Z 100df7c0 f   atlsd:atltime.obj
 0001:000de800       ??HCFileTime@ATL@@QBE?AV01@VCFileTimeSpan@1@@Z 100df800 f   atlsd:atltime.obj
 0001:000de840       ??GCFileTime@ATL@@QBE?AV01@VCFileTimeSpan@1@@Z 100df840 f   atlsd:atltime.obj
 0001:000de880       ??GCFileTime@ATL@@QBE?AVCFileTimeSpan@1@V01@@Z 100df880 f   atlsd:atltime.obj
 0001:000de8c0       ??8CFileTime@ATL@@QBE_NV01@@Z 100df8c0 f   atlsd:atltime.obj
 0001:000de920       ??9CFileTime@ATL@@QBE_NV01@@Z 100df920 f   atlsd:atltime.obj
 0001:000de980       ??MCFileTime@ATL@@QBE_NV01@@Z 100df980 f   atlsd:atltime.obj
 0001:000de9e0       ??OCFileTime@ATL@@QBE_NV01@@Z 100df9e0 f   atlsd:atltime.obj
 0001:000dea40       ??NCFileTime@ATL@@QBE_NV01@@Z 100dfa40 f   atlsd:atltime.obj
 0001:000deaa0       ??PCFileTime@ATL@@QBE_NV01@@Z 100dfaa0 f   atlsd:atltime.obj
 0001:000deb00       ?GetTime@CFileTime@ATL@@QBE_KXZ 100dfb00 f   atlsd:atltime.obj
 0001:000deb30       ?SetTime@CFileTime@ATL@@QAEX_K@Z 100dfb30 f   atlsd:atltime.obj
 0001:000deb60       ?UTCToLocal@CFileTime@ATL@@QBE?AV12@XZ 100dfb60 f   atlsd:atltime.obj
 0001:000deba0       ?LocalToUTC@CFileTime@ATL@@QBE?AV12@XZ 100dfba0 f   atlsd:atltime.obj
 0001:000debe0       ??0CWin32Heap@ATL@@QAE@PAX@Z 100dfbe0 f i atlsd:atlstr.obj
 0001:000dec30       ?Allocate@CWin32Heap@ATL@@UAEPAXI@Z 100dfc30 f i atlsd:atlstr.obj
 0001:000dec50       ?Free@CWin32Heap@ATL@@UAEXPAX@Z 100dfc50 f i atlsd:atlstr.obj
 0001:000decb0       ?Reallocate@CWin32Heap@ATL@@UAEPAXPAXI@Z 100dfcb0 f i atlsd:atlstr.obj
 0001:000decf0       ?GetSize@CWin32Heap@ATL@@UAEIPAX@Z 100dfcf0 f i atlsd:atlstr.obj
 0001:000ded10       ??_GCWin32Heap@ATL@@UAEPAXI@Z 100dfd10 f i atlsd:atlstr.obj
 0001:000ded10       ??_ECWin32Heap@ATL@@UAEPAXI@Z 100dfd10 f i atlsd:atlstr.obj
 0001:000ded40       ??1CWin32Heap@ATL@@UAE@XZ  100dfd40 f i atlsd:atlstr.obj
 0001:000deda0       ??0CAtlStringMgr@ATL@@QAE@PAUIAtlMemMgr@1@@Z 100dfda0 f i atlsd:atlstr.obj
 0001:000dede0       ??0CNilStringData@ATL@@QAE@XZ 100dfde0 f i atlsd:atlstr.obj
 0001:000dee30       ?SetManager@CNilStringData@ATL@@QAEXPAUIAtlStringMgr@2@@Z 100dfe30 f i atlsd:atlstr.obj
 0001:000dee70       ?Allocate@CAtlStringMgr@ATL@@UAEPAUCStringData@2@HH@Z 100dfe70 f i atlsd:atlstr.obj
 0001:000deef0       ?Free@CAtlStringMgr@ATL@@UAEXPAUCStringData@2@@Z 100dfef0 f i atlsd:atlstr.obj
 0001:000def40       ?Reallocate@CAtlStringMgr@ATL@@UAEPAUCStringData@2@PAU32@HH@Z 100dff40 f i atlsd:atlstr.obj
 0001:000defd0       ?GetNilString@CAtlStringMgr@ATL@@UAEPAUCStringData@2@XZ 100dffd0 f i atlsd:atlstr.obj
 0001:000deff0       ?AddRef@CStringData@ATL@@QAEXXZ 100dfff0 f i atlsd:atlstr.obj
 0001:000df040       ?Clone@CAtlStringMgr@ATL@@UAEPAUIAtlStringMgr@2@XZ 100e0040 f i atlsd:atlstr.obj
 0001:000df050       ??_GCAtlStringMgr@ATL@@UAEPAXI@Z 100e0050 f i atlsd:atlstr.obj
 0001:000df050       ??_ECAtlStringMgr@ATL@@UAEPAXI@Z 100e0050 f i atlsd:atlstr.obj
 0001:000df080       ??1CAtlStringMgr@ATL@@UAE@XZ 100e0080 f i atlsd:atlstr.obj
 0001:000df0a0       ??$AtlAlignUp@H@ATL@@YGHHK@Z 100e00a0 f i atlsd:atlstr.obj
 0001:000df0c0       ??0CAtlComModule@ATL@@QAE@XZ 100e00c0 f i atlsd:atlcommodule.obj
 0001:000df170       ??0_ATL_COM_MODULE70@ATL@@QAE@XZ 100e0170 f i atlsd:atlcommodule.obj
 0001:000df190       ??1CAtlComModule@ATL@@QAE@XZ 100e0190 f i atlsd:atlcommodule.obj
 0001:000df1b0       ?Term@CAtlComModule@ATL@@QAEXXZ 100e01b0 f i atlsd:atlcommodule.obj
 0001:000df240       ?Init@CAtlAllocator@@QAE_NPBDK@Z 100e0240 f   atlsd:Allocate.obj
 0001:000df580       ?Open@CAtlAllocator@@QAE_NPBD@Z 100e0580 f   atlsd:Allocate.obj
 0001:000df6b0       ?Close@CAtlAllocator@@QAEX_N@Z 100e06b0 f   atlsd:Allocate.obj
 0001:000df720       ?GetModule@CAtlAllocator@@QBEPAVCAtlTraceModule@@H@Z 100e0720 f   atlsd:Allocate.obj
 0001:000df7a0       ?GetCategory@CAtlAllocator@@QBEPAVCAtlTraceCategory@@H@Z 100e07a0 f   atlsd:Allocate.obj
 0001:000df840       ?GetCategoryCount@CAtlAllocator@@QBEHH@Z 100e0840 f   atlsd:Allocate.obj
 0001:000df8b0       ?GetCategoryCount@CAtlAllocator@@QBEHABVCAtlTraceModule@@@Z 100e08b0 f   atlsd:Allocate.obj
 0001:000df910       ?GetModuleCount@CAtlAllocator@@QBEHXZ 100e0910 f   atlsd:Allocate.obj
 0001:000df950       ?FindModule@CAtlAllocator@@QBE_NPBGPAI@Z 100e0950 f   atlsd:Allocate.obj
 0001:000df9c0       ?AddModule@CAtlAllocator@@QAEHPAUHINSTANCE__@@@Z 100e09c0 f   atlsd:Allocate.obj
 0001:000dfb80       ?AddCategory@CAtlAllocator@@QAEHHPBG@Z 100e0b80 f   atlsd:Allocate.obj
 0001:000dfda0       ?RemoveModule@CAtlAllocator@@QAE_NH@Z 100e0da0 f   atlsd:Allocate.obj
 0001:000dfe40       ?CleanUp@CAtlAllocator@@QAEXXZ 100e0e40 f   atlsd:Allocate.obj
 0001:000dfe60       ?TakeSnapshot@CAtlAllocator@@QAEXXZ 100e0e60 f   atlsd:Allocate.obj
 0001:000e0020       ?ReleaseSnapshot@CAtlAllocator@@QAEXXZ 100e1020 f   atlsd:Allocate.obj
 0001:000e00f0       ?IncRef@CAtlTraceProcess@@QAEIXZ 100e10f0 f i atlsd:Allocate.obj
 0001:000e0120       ?Base@CAtlTraceProcess@@QBEPAXXZ 100e1120 f i atlsd:Allocate.obj
 0001:000e0140       ?DecRef@CAtlTraceProcess@@QAEIXZ 100e1140 f i atlsd:Allocate.obj
 0001:000e0170       ?ModuleCount@CAtlTraceProcess@@QBEHXZ 100e1170 f i atlsd:Allocate.obj
 0001:000e0190       ?MaxSize@CAtlTraceProcess@@QBEKXZ 100e1190 f i atlsd:Allocate.obj
 0001:000e01b0       ?CategoryCount@CAtlTraceProcess@@QBEHXZ 100e11b0 f i atlsd:Allocate.obj
 0001:000e01d0       ?TryAllocate@CAtlTraceSettings@@QAE_NXZ 100e11d0 f i atlsd:Allocate.obj
 0001:000e0210       ?MarkValid@CAtlTraceSettings@@QAEXJ@Z 100e1210 f i atlsd:Allocate.obj
 0001:000e0250       ?IncModuleCount@CAtlTraceProcess@@QAEXI@Z 100e1250 f i atlsd:Allocate.obj
 0001:000e0280       ?TryAddRef@CAtlTraceSettings@@QAE_NXZ 100e1280 f i atlsd:Allocate.obj
 0001:000e02c0       ?Release@CAtlTraceSettings@@QAEXXZ 100e12c0 f i atlsd:Allocate.obj
 0001:000e02f0       ?IncCategoryCount@CAtlTraceProcess@@QAEXI@Z 100e12f0 f i atlsd:Allocate.obj
 0001:000e0320       ?Add@?$CSimpleArray@UCModuleInfo@CTraceSnapshot@@V?$CSimpleArrayEqualHelper@UCModuleInfo@CTraceSnapshot@@@ATL@@@ATL@@QAEHABUCModuleInfo@CTraceSnapshot@@@Z 100e1320 f i atlsd:Allocate.obj
 0001:000e03c0       ?GetSize@?$CSimpleArray@KV?$CSimpleArrayEqualHelper@K@ATL@@@ATL@@QBEHXZ 100e13c0 f i atlsd:Allocate.obj
 0001:000e03c0       ?GetSize@?$CSimpleArray@UCModuleInfo@CTraceSnapshot@@V?$CSimpleArrayEqualHelper@UCModuleInfo@CTraceSnapshot@@@ATL@@@ATL@@QBEHXZ 100e13c0 f i atlsd:AtlDebugAPI.obj
 0001:000e03c0       ?GetSize@?$CSimpleArray@PAUHINSTANCE__@@V?$CSimpleArrayEqualHelper@PAUHINSTANCE__@@@ATL@@@ATL@@QBEHXZ 100e13c0 f i atlsd:atlbase.obj
 0001:000e03e0       ?InternalSetAtIndex@?$CSimpleArray@UCModuleInfo@CTraceSnapshot@@V?$CSimpleArrayEqualHelper@UCModuleInfo@CTraceSnapshot@@@ATL@@@ATL@@QAEXHABUCModuleInfo@CTraceSnapshot@@@Z 100e13e0 f i atlsd:Allocate.obj
 0001:000e0430       ?InternalSetAtIndex@?$CSimpleArray@PAUHINSTANCE__@@V?$CSimpleArrayEqualHelper@PAUHINSTANCE__@@@ATL@@@ATL@@QAEXHABQAUHINSTANCE__@@@Z 100e1430 f i atlsd:atlbase.obj
 0001:000e0430       ?InternalSetAtIndex@?$CSimpleArray@KV?$CSimpleArrayEqualHelper@K@ATL@@@ATL@@QAEXHABK@Z 100e1430 f i atlsd:Allocate.obj
 0001:000e0480       ??0Wrapper@?$CSimpleArray@UCModuleInfo@CTraceSnapshot@@V?$CSimpleArrayEqualHelper@UCModuleInfo@CTraceSnapshot@@@ATL@@@ATL@@QAE@ABUCModuleInfo@CTraceSnapshot@@@Z 100e1480 f i atlsd:Allocate.obj
 0001:000e04b0       ??0Wrapper@?$CSimpleArray@KV?$CSimpleArrayEqualHelper@K@ATL@@@ATL@@QAE@ABK@Z 100e14b0 f i atlsd:Allocate.obj
 0001:000e04b0       ??0Wrapper@?$CSimpleArray@PAUHINSTANCE__@@V?$CSimpleArrayEqualHelper@PAUHINSTANCE__@@@ATL@@@ATL@@QAE@ABQAUHINSTANCE__@@@Z 100e14b0 f i atlsd:atlbase.obj
 0001:000e04d0       ??0CAtlTraceModuleInfo@@QAE@XZ 100e14d0 f   atlsd:AtlTraceModuleManager.obj
 0001:000e0520       ?Reset@CAtlTraceModuleInfo@@QAEXPAUHINSTANCE__@@@Z 100e1520 f   atlsd:AtlTraceModuleManager.obj
 0001:000e0730       ??0CAtlTraceCategory@@QAE@XZ 100e1730 f   atlsd:AtlTraceModuleManager.obj
 0001:000e0760       ?Reset@CAtlTraceCategory@@QAEXPBGJ@Z 100e1760 f   atlsd:AtlTraceModuleManager.obj
 0001:000e0790       ??0CAtlTraceModule@@QAE@XZ 100e1790 f   atlsd:AtlTraceModuleManager.obj
 0001:000e07d0       ?CrtDbgReport@CAtlTraceModule@@QAEXP6AHHPBDH00ZZ@Z 100e17d0 f   atlsd:AtlTraceModuleManager.obj
 0001:000e0800       ??0CAtlTraceProcess@@QAE@K@Z 100e1800 f   atlsd:AtlTraceModuleManager.obj
 0001:000e08d0       ?GetNextCookie@CAtlTraceProcess@@QAEJXZ 100e18d0 f   atlsd:AtlTraceModuleManager.obj
 0001:000e08f0       ??0CAtlTraceSettings@@QAE@XZ 100e18f0 f i atlsd:AtlTraceModuleManager.obj
 0001:000e0930       __RTC_InitBase             100e1930 f   LIBCMTD:init.obj
 0001:000e0960       __RTC_Shutdown             100e1960 f   LIBCMTD:init.obj
 0001:000e0980       _malloc                    100e1980 f   LIBCMTD:dbgheap.obj
 0001:000e09b0       __malloc_dbg               100e19b0 f   LIBCMTD:dbgheap.obj
 0001:000e09e0       __nh_malloc                100e19e0 f   LIBCMTD:dbgheap.obj
 0001:000e0a00       __nh_malloc_dbg            100e1a00 f   LIBCMTD:dbgheap.obj
 0001:000e0aa0       __heap_alloc_dbg           100e1aa0 f   LIBCMTD:dbgheap.obj
 0001:000e0dc0       _calloc                    100e1dc0 f   LIBCMTD:dbgheap.obj
 0001:000e0df0       __calloc_dbg               100e1df0 f   LIBCMTD:dbgheap.obj
 0001:000e0e50       _realloc                   100e1e50 f   LIBCMTD:dbgheap.obj
 0001:000e0e80       __realloc_dbg              100e1e80 f   LIBCMTD:dbgheap.obj
 0001:000e1420       _free                      100e2420 f   LIBCMTD:dbgheap.obj
 0001:000e1440       __free_dbg                 100e2440 f   LIBCMTD:dbgheap.obj
 0001:000e14b0       __free_dbg_lk              100e24b0 f   LIBCMTD:dbgheap.obj
 0001:000e18c0       __msize_dbg                100e28c0 f   LIBCMTD:dbgheap.obj
 0001:000e1a80       __CrtCheckMemory           100e2a80 f   LIBCMTD:dbgheap.obj
 0001:000e1df0       __CrtSetDbgFlag            100e2df0 f   LIBCMTD:dbgheap.obj
 0001:000e1ea0       __CrtIsValidPointer        100e2ea0 f   LIBCMTD:dbgheap.obj
 0001:000e1ef0       __CrtIsValidHeapPointer    100e2ef0 f   LIBCMTD:dbgheap.obj
 0001:000e1fa0       __CrtMemCheckpoint         100e2fa0 f   LIBCMTD:dbgheap.obj
 0001:000e2140       __CrtMemDumpAllObjectsSince 100e3140 f   LIBCMTD:dbgheap.obj
 0001:000e2540       __CrtDumpMemoryLeaks       100e3540 f   LIBCMTD:dbgheap.obj
 0001:000e25b0       _strlen                    100e35b0 f   LIBCMTD:strlen.obj
 0001:000e2640       __RTC_CheckEsp             100e3640 f   LIBCMTD:stack.obj
 0001:000e2670       @_RTC_CheckStackVars@8     100e3670 f   LIBCMTD:stack.obj
 0001:000e26e0       _memcpy                    100e36e0 f   LIBCMTD:memcpy.obj
 0001:000e2a20       _sscanf                    100e3a20 f   LIBCMTD:sscanf.obj
 0001:000e2ad0       @__security_check_cookie@4 100e3ad0 f   LIBCMTD:secchk.obj
 0001:000e2b50       _fclose                    100e3b50 f   LIBCMTD:fclose.obj
 0001:000e2c10       __fclose_lk                100e3c10 f   LIBCMTD:fclose.obj
 0001:000e2cc0       _fread                     100e3cc0 f   LIBCMTD:fread.obj
 0001:000e2d40       __fread_lk                 100e3d40 f   LIBCMTD:fread.obj
 0001:000e2f10       __fsopen                   100e3f10 f   LIBCMTD:fopen.obj
 0001:000e3040       _fopen                     100e4040 f   LIBCMTD:fopen.obj
 0001:000e3060       __onexit                   100e4060 f   LIBCMTD:onexit.obj
 0001:000e31c0       _atexit                    100e41c0 f   LIBCMTD:onexit.obj
 0001:000e31e0       ___onexitinit              100e41e0 f   LIBCMTD:onexit.obj
 0001:000e3230       _memset                    100e4230 f   LIBCMTD:memset.obj
 0001:000e3290       ?_JumpToContinuation@@YGXPAXPAUEHRegistrationNode@@@Z 100e4290 f   LIBCMTD:trnsctrl.obj
 0001:000e32d0       ?_CallMemberFunction1@@YGXPAX00@Z 100e42d0 f   LIBCMTD:trnsctrl.obj
 0001:000e32d0       ?_CallMemberFunction2@@YGXPAX00H@Z 100e42d0 f   LIBCMTD:trnsctrl.obj
 0001:000e32d0       ?_CallMemberFunction0@@YGXPAX0@Z 100e42d0 f   LIBCMTD:trnsctrl.obj
 0001:000e32e0       ?_UnwindNestedFrames@@YGXPAUEHRegistrationNode@@PAUEHExceptionRecord@@@Z 100e42e0 f   LIBCMTD:trnsctrl.obj
 0001:000e3340       ___CxxFrameHandler         100e4340 f   LIBCMTD:trnsctrl.obj
 0001:000e3380       ?_CallCatchBlock2@@YAPAXPAUEHRegistrationNode@@PBU_s_FuncInfo@@PAXHK@Z 100e4380 f   LIBCMTD:trnsctrl.obj
 0001:000e3450       ?_CallSETranslator@@YAHPAUEHExceptionRecord@@PAUEHRegistrationNode@@PAX2PBU_s_FuncInfo@@H1@Z 100e4450 f   LIBCMTD:trnsctrl.obj
 0001:000e3600       ?_GetRangeOfTrysToCheck@@YAPBU_s_TryBlockMapEntry@@PBU_s_FuncInfo@@HHPAI1@Z 100e4600 f   LIBCMTD:trnsctrl.obj
 0001:000e3690       ?_CreateFrameInfo@@YAPAUFrameInfo@@PAU1@PAX@Z 100e4690 f   LIBCMTD:trnsctrl.obj
 0001:000e36c0       ?IsExceptionObjectToBeDestroyed@@YAHPAX@Z 100e46c0 f   LIBCMTD:trnsctrl.obj
 0001:000e36f0       ?_FindAndUnlinkFrame@@YAXPAUFrameInfo@@@Z 100e46f0 f   LIBCMTD:trnsctrl.obj
 0001:000e3748       __global_unwind2           100e4748 f   LIBCMTD:exsup.obj
 0001:000e378a       __local_unwind2            100e478a f   LIBCMTD:exsup.obj
 0001:000e37e2       __NLG_Return2              100e47e2     LIBCMTD:exsup.obj
 0001:000e37f2       __abnormal_termination     100e47f2 f   LIBCMTD:exsup.obj
 0001:000e3815       __NLG_Notify1              100e4815 f   LIBCMTD:exsup.obj
 0001:000e381e       __NLG_Notify               100e481e f   LIBCMTD:exsup.obj
 0001:000e3831       __NLG_Dispatch             100e4831     LIBCMTD:exsup.obj
 0001:000e3840       __CrtDbgBreak              100e4840 f   LIBCMTD:dbgrpt.obj
 0001:000e3850       __CrtDbgReport             100e4850 f   LIBCMTD:dbgrpt.obj
 0001:000e3fc0       ?_RTC_Failure@@YAXPAXH@Z   100e4fc0 f   LIBCMTD:error.obj
 0001:000e4220       ?_RTC_StackFailure@@YAXPAXPBD@Z 100e5220 f   LIBCMTD:error.obj
 0001:000e42e0       __RTC_UninitUse            100e52e0 f   LIBCMTD:error.obj
 0001:000e44a0       ??3@YAXPAX@Z               100e54a0 f   LIBCMTD:dbgdel.obj
 0001:000e4580       _strcpy                    100e5580 f   LIBCMTD:strcat.obj
 0001:000e4590       _strcat                    100e5590 f   LIBCMTD:strcat.obj
 0001:000e4680       ??2@YAPAXI@Z               100e5680 f   LIBCMTD:new.obj
 0001:000e46a0       _strncmp                   100e56a0 f   LIBCMTD:strncmp.obj
 0001:000e46e0       __alldiv                   100e56e0 f   LIBCMTD:lldiv.obj
 0001:000e4790       __CxxThrowException@8      100e5790 f   LIBCMTD:throw.obj
 0001:000e47e0       ??0exception@@QAE@XZ       100e57e0 f   LIBCMTD:stdexcpt.obj
 0001:000e4810       ??_Gexception@@UAEPAXI@Z   100e5810 f i LIBCMTD:stdexcpt.obj
 0001:000e4810       ??_Eexception@@UAEPAXI@Z   100e5810 f i LIBCMTD:stdexcpt.obj
 0001:000e4840       ??0exception@@QAE@ABQBD@Z  100e5840 f   LIBCMTD:stdexcpt.obj
 0001:000e48b0       ??0exception@@QAE@ABV0@@Z  100e58b0 f   LIBCMTD:stdexcpt.obj
 0001:000e4930       ??1exception@@UAE@XZ       100e5930 f   LIBCMTD:stdexcpt.obj
 0001:000e4960       ?what@exception@@UBEPBDXZ  100e5960 f   LIBCMTD:stdexcpt.obj
 0001:000e4990       ??0bad_cast@@QAE@PBD@Z     100e5990 f   LIBCMTD:stdexcpt.obj
 0001:000e49c0       ??_Gbad_cast@@UAEPAXI@Z    100e59c0 f i LIBCMTD:stdexcpt.obj
 0001:000e49c0       ??_Ebad_cast@@UAEPAXI@Z    100e59c0 f i LIBCMTD:stdexcpt.obj
 0001:000e49f0       ??0bad_cast@@QAE@ABV0@@Z   100e59f0 f   LIBCMTD:stdexcpt.obj
 0001:000e4a20       ??1bad_cast@@UAE@XZ        100e5a20 f   LIBCMTD:stdexcpt.obj
 0001:000e4a40       ??1type_info@@UAE@XZ       100e5a40 f   LIBCMTD:typinfo.obj
 0001:000e4ad0       ??_Etype_info@@UAEPAXI@Z   100e5ad0 f i LIBCMTD:typinfo.obj
 0001:000e4ad0       ??_Gtype_info@@UAEPAXI@Z   100e5ad0 f i LIBCMTD:typinfo.obj
 0001:000e4b00       _memmove                   100e5b00 f   LIBCMTD:memmove.obj
 0001:000e4e40       _printf                    100e5e40 f   LIBCMTD:printf.obj
 0001:000e4f10       _isupper                   100e5f10 f   LIBCMTD:_ctype.obj
 0001:000e4f70       _islower                   100e5f70 f   LIBCMTD:_ctype.obj
 0001:000e4fd0       _isdigit                   100e5fd0 f   LIBCMTD:_ctype.obj
 0001:000e5030       _isxdigit                  100e6030 f   LIBCMTD:_ctype.obj
 0001:000e50a0       _isspace                   100e60a0 f   LIBCMTD:_ctype.obj
 0001:000e5100       _isprint                   100e6100 f   LIBCMTD:_ctype.obj
 0001:000e5170       __fgetchar                 100e6170 f   LIBCMTD:fgetchar.obj
 0001:000e5190       _getchar                   100e6190 f   LIBCMTD:fgetchar.obj
 0001:000e51a0       __alloca_probe             100e61a0     LIBCMTD:chkstk.obj
 0001:000e51a0       __chkstk                   100e61a0 f   LIBCMTD:chkstk.obj
 0001:000e51e0       __resetstkoflw             100e61e0 f   LIBCMTD:resetstk.obj
 0001:000e5334       __except_handler3          100e6334 f   LIBCMTD:exsup3.obj
 0001:000e541a       __seh_longjmp_unwind@4     100e641a f   LIBCMTD:exsup3.obj
 0001:000e5440       _wcscat                    100e6440 f   LIBCMTD:wcscat.obj
 0001:000e5490       _wcscpy                    100e6490 f   LIBCMTD:wcscat.obj
 0001:000e54e0       _strchr                    100e64e0 f   LIBCMTD:strchr.obj
 0001:000e54e6       ___from_strstr_to_strchr   100e64e6     LIBCMTD:strchr.obj
 0001:000e55a0       _atol                      100e65a0 f   LIBCMTD:atox.obj
 0001:000e56b0       _atoi                      100e66b0 f   LIBCMTD:atox.obj
 0001:000e56d0       ??_V@YAXPAX@Z              100e66d0 f   LIBCMTD:delete2.obj
 0001:000e56f0       ??_M@YGXPAXIHP6EX0@Z@Z     100e66f0 f   LIBCMTD:ehvecdtr.obj
 0001:000e5790       ?__ArrayUnwind@@YGXPAXIHP6EX0@Z@Z 100e6790 f   LIBCMTD:ehvecdtr.obj
 0001:000e5840       _strcmp                    100e6840 f   LIBCMTD:strcmp.obj
 0001:000e58d0       _strstr                    100e68d0 f   LIBCMTD:strstr.obj
 0001:000e5960       _sprintf                   100e6960 f   LIBCMTD:sprintf.obj
 0001:000e5a50       _memcmp                    100e6a50 f   LIBCMTD:memcmp.obj
 0001:000e5b10       ??_L@YGXPAXIHP6EX0@Z1@Z    100e6b10 f   LIBCMTD:ehvecctr.obj
 0001:000e5bb0       ??_U@YAPAXI@Z              100e6bb0 f   LIBCMTD:new2.obj
 0001:000e5bd0       __strlwr                   100e6bd0 f   LIBCMTD:strlwr.obj
 0001:000e5d90       _wcsrchr                   100e6d90 f   LIBCMTD:wcsrchr.obj
 0001:000e5df0       __assert                   100e6df0 f   LIBCMTD:assert.obj
 0001:000e63f0       __wfsopen                  100e73f0 f   LIBCMTD:wfopen.obj
 0001:000e6520       __wfopen                   100e7520 f   LIBCMTD:wfopen.obj
 0001:000e6540       ___wdtoxmode               100e7540 f   LIBCMTD:wstat.obj
 0001:000e6680       __wstat                    100e7680 f   LIBCMTD:wstat.obj
 0001:000e6bc0       _fwrite                    100e7bc0 f   LIBCMTD:fwrite.obj
 0001:000e6c40       __fwrite_lk                100e7c40 f   LIBCMTD:fwrite.obj
 0001:000e6e60       _wcslen                    100e7e60 f   LIBCMTD:wcslen.obj
 0001:000e6e90       _wcscmp                    100e7e90 f   LIBCMTD:wcscmp.obj
 0001:000e6ef0       _wcschr                    100e7ef0 f   LIBCMTD:wcschr.obj
 0001:000e6f30       _fputc                     100e7f30 f   LIBCMTD:fputc.obj
 0001:000e7010       _ungetc                    100e8010 f   LIBCMTD:ungetc.obj
 0001:000e70b0       __ungetc_lk                100e80b0 f   LIBCMTD:ungetc.obj
 0001:000e71e0       _fgetc                     100e81e0 f   LIBCMTD:fgetc.obj
 0001:000e72c0       _getc                      100e82c0 f   LIBCMTD:fgetc.obj
 0001:000e73a0       _fgetpos                   100e83a0 f   LIBCMTD:fgetpos.obj
 0001:000e73e0       _fseek                     100e83e0 f   LIBCMTD:fseek.obj
 0001:000e7480       __fseek_lk                 100e8480 f   LIBCMTD:fseek.obj
 0001:000e7590       _fsetpos                   100e8590 f   LIBCMTD:fsetpos.obj
 0001:000e75b0       _setvbuf                   100e85b0 f   LIBCMTD:setvbuf.obj
 0001:000e7750       _fflush                    100e8750 f   LIBCMTD:fflush.obj
 0001:000e77e0       __fflush_lk                100e87e0 f   LIBCMTD:fflush.obj
 0001:000e7820       __flush                    100e8820 f   LIBCMTD:fflush.obj
 0001:000e78e0       __flushall                 100e88e0 f   LIBCMTD:fflush.obj
 0001:000e7a80       _vsprintf                  100e8a80 f   LIBCMTD:vsprintf.obj
 0001:000e7b70       __vscprintf                100e8b70 f   LIBCMTD:vsprintf.obj
 0001:000e7bf0       __allshl                   100e8bf0 f   LIBCMTD:llshl.obj
 0001:000e7c10       __allmul                   100e8c10 f   LIBCMTD:llmul.obj
 0001:000e7c50       __fpmath                   100e8c50 f   LIBCMTD:fpinit.obj
 0001:000e7c80       __cfltcvt_init             100e8c80 f   LIBCMTD:fpinit.obj
 0001:000e7cd0       _modf                      100e8cd0 f   LIBCMTD:modf_pentium4.obj
 0001:000e7d10       __modf_pentium4            100e8d10 f   LIBCMTD:modf_pentium4.obj
 0001:000e7e18       __ftol2                    100e8e18 f   LIBCMTD:ftol2.obj
 0001:000e7e90       __aullshr                  100e8e90 f   LIBCMTD:ullshr.obj
 0001:000e7eb0       __purecall                 100e8eb0 f   LIBCMTD:purevirt.obj
 0001:000e7ed0       _wcsncpy                   100e8ed0 f   LIBCMTD:wcsncpy.obj
 0001:000e7f40       __CRT_INIT@12              100e8f40 f   LIBCMTD:dllcrt0.obj
 0001:000e8190       __DllMainCRTStartup@12     100e9190 f   LIBCMTD:dllcrt0.obj
 0001:000e8310       __amsg_exit                100e9310 f   LIBCMTD:dllcrt0.obj
 0001:000e8350       _strncpy                   100e9350 f   LIBCMTD:strncpy.obj
 0001:000e8480       _fprintf                   100e9480 f   LIBCMTD:fprintf.obj
 0001:000e8570       __ctime64                  100e9570 f   LIBCMTD:ctime64.obj
 0001:000e85a0       __time64                   100e95a0 f   LIBCMTD:time64.obj
 0001:000e8600       __aulldiv                  100e9600 f   LIBCMTD:ulldiv.obj
 0001:000e8670       _strtol                    100e9670 f   LIBCMTD:strtol.obj
 0001:000e8990       _strtoul                   100e9990 f   LIBCMTD:strtol.obj
 0001:000e89b0       _fmod                      100e99b0 f   LIBCMTD:87fmod.obj
 0001:000e89ba       __CIfmod                   100e99ba f   LIBCMTD:87fmod.obj
 0001:000e89f0       _strtok                    100e99f0 f   LIBCMTD:strtok.obj
 0001:000e8b30       _toupper                   100e9b30 f   LIBCMTD:toupper.obj
 0001:000e8b70       ___toupper_mt              100e9b70 f   LIBCMTD:toupper.obj
 0001:000e8cb0       _strncat                   100e9cb0 f   LIBCMTD:strncat.obj
 0001:000e8df0       _strrchr                   100e9df0 f   LIBCMTD:strrchr.obj
 0001:000e8e20       _tolower                   100e9e20 f   LIBCMTD:tolower.obj
 0001:000e8e60       ___tolower_mt              100e9e60 f   LIBCMTD:tolower.obj
 0001:000e8fa0       _rand                      100e9fa0 f   LIBCMTD:rand.obj
 0001:000e8fe0       ___dtoxmode                100e9fe0 f   LIBCMTD:stat.obj
 0001:000e9120       _stat                      100ea120 f   LIBCMTD:stat.obj
 0001:000e9120       __stat                     100ea120 f   LIBCMTD:stat.obj
 0001:000e9660       _perror                    100ea660 f   LIBCMTD:perror.obj
 0001:000e9780       __snprintf                 100ea780 f   LIBCMTD:snprintf.obj
 0001:000e9870       ___initstdio               100ea870 f   LIBCMTD:_file.obj
 0001:000e99a0       ___endstdio                100ea9a0 f   LIBCMTD:_file.obj
 0001:000e99c0       __lock_file                100ea9c0 f   LIBCMTD:_file.obj
 0001:000e9a00       __lock_file2               100eaa00 f   LIBCMTD:_file.obj
 0001:000e9a30       __unlock_file              100eaa30 f   LIBCMTD:_file.obj
 0001:000e9a70       __unlock_file2             100eaa70 f   LIBCMTD:_file.obj
 0001:000e9aa0       __copysign                 100eaaa0 f   LIBCMTD:ieeemisc.obj
 0001:000e9ad0       __isnan                    100eaad0 f   LIBCMTD:ieeemisc.obj
 0001:000e9b10       __fpclass                  100eab10 f   LIBCMTD:ieeemisc.obj
 0001:000e9be0       _pow                       100eabe0 f   LIBCMTD:pow.obj
 0001:000e9c20       __CIpow                    100eac20 f   LIBCMTD:pow.obj
 0001:000e9c5b       __CIpow_default            100eac5b f   LIBCMTD:pow.obj
 0001:000e9c74       __pow_default              100eac74     LIBCMTD:pow.obj
 0001:000e9e70       _strerror                  100eae70 f   LIBCMTD:strerror.obj
 0001:000e9f00       __dosmaperr                100eaf00 f   LIBCMTD:dosmap.obj
 0001:000e9fa0       __errno                    100eafa0 f   LIBCMTD:dosmap.obj
 0001:000e9fb0       ___doserrno                100eafb0 f   LIBCMTD:dosmap.obj
 0001:000e9fc0       _getenv                    100eafc0 f   LIBCMTD:getenv.obj
 0001:000ea030       __getenv_lk                100eb030 f   LIBCMTD:getenv.obj
 0001:000ea100       _vfprintf                  100eb100 f   LIBCMTD:vfprintf.obj
 0001:000ea1f0       __vsnprintf                100eb1f0 f   LIBCMTD:vsnprint.obj
 0001:000ea2c0       _floor                     100eb2c0 f   LIBCMTD:floor_pentium4.obj
 0001:000ea300       __floor_pentium4           100eb300 f   LIBCMTD:floor_pentium4.obj
 0001:000ea3f0       _ftell                     100eb3f0 f   LIBCMTD:ftell.obj
 0001:000ea490       __ftell_lk                 100eb490 f   LIBCMTD:ftell.obj
 0001:000ea710       __fdopen                   100eb710 f   LIBCMTD:fdopen.obj
 0001:000eaa00       __vsnwprintf               100eba00 f   LIBCMTD:vsnwprnt.obj
 0001:000eab30       __snwprintf                100ebb30 f   LIBCMTD:snwprint.obj
 0001:000eac70       __mktime64                 100ebc70 f   LIBCMTD:mktime64.obj
 0001:000eb010       __gmtime64                 100ec010 f   LIBCMTD:gmtime64.obj
 0001:000eb340       __localtime64              100ec340 f   LIBCMTD:loctim64.obj
 0001:000eb640       __RTC_SetErrorFunc         100ec640 f   LIBCMTD:userapi.obj
 0001:000eb660       ?_RTC_GetErrorFunc@@YAP6AHHPBDH00ZZPBX@Z 100ec660 f   LIBCMTD:userapi.obj
 0001:000eb670       __CRT_RTC_INIT             100ec670 f   LIBCMTD:chkesp.obj
 0001:000eb680       __callnewh                 100ec680 f   LIBCMTD:handler.obj
 0001:000eb6b0       __mtinitlocks              100ec6b0 f   LIBCMTD:mlock.obj
 0001:000eb740       __mtdeletelocks            100ec740 f   LIBCMTD:mlock.obj
 0001:000eb800       __mtinitlocknum            100ec800 f   LIBCMTD:mlock.obj
 0001:000eb920       __lock                     100ec920 f   LIBCMTD:mlock.obj
 0001:000eb960       __unlock                   100ec960 f   LIBCMTD:mlock.obj
 0001:000eb980       __malloc_base              100ec980 f   LIBCMTD:malloc.obj
 0001:000eb9a0       __nh_malloc_base           100ec9a0 f   LIBCMTD:malloc.obj
 0001:000eba00       __heap_alloc_base          100eca00 f   LIBCMTD:malloc.obj
 0001:000ebad0       __CrtDefaultAllocHook      100ecad0 f   LIBCMTD:dbghook.obj
 0001:000ebae0       __expand_base              100ecae0 f   LIBCMTD:expand.obj
 0001:000ebc00       __realloc_base             100ecc00 f   LIBCMTD:realloc.obj
 0001:000ebeb0       __free_base                100eceb0 f   LIBCMTD:free.obj
 0001:000ebf80       __heapchk                  100ecf80 f   LIBCMTD:heapchk.obj
 0001:000ec040       ___heap_select             100ed040 f   LIBCMTD:heapinit.obj
 0001:000ec070       __heap_init                100ed070 f   LIBCMTD:heapinit.obj
 0001:000ec0e0       __heap_term                100ed0e0 f   LIBCMTD:heapinit.obj
 0001:000ec190       __cinit                    100ed190 f   LIBCMTD:crt0dat.obj
 0001:000ec1f0       __exit                     100ed1f0 f   LIBCMTD:crt0dat.obj
 0001:000ec210       __cexit                    100ed210 f   LIBCMTD:crt0dat.obj
 0001:000ec360       ___crtExitProcess          100ed360 f   LIBCMTD:crt0dat.obj
 0001:000ec3b0       __lockexit                 100ed3b0 f   LIBCMTD:crt0dat.obj
 0001:000ec3c0       __unlockexit               100ed3c0 f   LIBCMTD:crt0dat.obj
 0001:000ec440       ___sbh_heap_init           100ed440 f   LIBCMTD:sbheap.obj
 0001:000ec4b0       ___sbh_find_block          100ed4b0 f   LIBCMTD:sbheap.obj
 0001:000ec510       ___sbh_verify_block        100ed510 f   LIBCMTD:sbheap.obj
 0001:000ec570       ___sbh_free_block          100ed570 f   LIBCMTD:sbheap.obj
 0001:000ecb30       ___sbh_alloc_block         100edb30 f   LIBCMTD:sbheap.obj
 0001:000ed050       ___sbh_alloc_new_region    100ee050 f   LIBCMTD:sbheap.obj
 0001:000ed160       ___sbh_alloc_new_group     100ee160 f   LIBCMTD:sbheap.obj
 0001:000ed350       ___sbh_resize_block        100ee350 f   LIBCMTD:sbheap.obj
 0001:000ed920       ___sbh_heap_check          100ee920 f   LIBCMTD:sbheap.obj
 0001:000ede30       ____setlc_active_func      100eee30 f   LIBCMTD:setlocal.obj
 0001:000ede40       ____unguarded_readlc_active_add_func 100eee40 f   LIBCMTD:setlocal.obj
 0001:000ede50       ___freetlocinfo            100eee50 f   LIBCMTD:setlocal.obj
 0001:000edfd0       ___updatetlocinfo          100eefd0 f   LIBCMTD:setlocal.obj
 0001:000ee210       _setlocale                 100ef210 f   LIBCMTD:setlocal.obj
 0001:000eecc0       __expandlocale             100efcc0 f   LIBCMTD:setlocal.obj
 0001:000eeea0       ?GetWndClassName@CWindow@ATL@@SAPBDXZ 100efea0 f   ShowSelectCert.obj
 0001:000eeea0       ___init_dummy              100efea0 f   LIBCMTD:setlocal.obj
 0001:000eeea0       ?GetObjectDescription@?$CComCoClass@VCSignature@@$1?CLSID_Signature@@3U_GUID@@B@ATL@@SGPBDXZ 100efea0 f   XMLSign.obj
 0001:000eeea0       ___init_collate            100efea0 f   LIBCMTD:initcoll.obj
 0001:000eeea0       __matherr                  100efea0 f   LIBCMTD:matherr.obj
 0001:000eeea0       ?GetWndCaption@?$CWindowImpl@VCAxUIWindow@ATL@@VCWindow@2@V?$CWinTraits@$0FGAAAAAA@$0A@@2@@ATL@@SAPBDXZ 100efea0 f   ShowSelectCert.obj
 0001:000eeea0       ?GetWndCaption@?$CWindowImpl@VCAxFrameWindow@ATL@@VCWindow@2@V?$CWinTraits@$0FGAAAAAA@$0A@@2@@ATL@@SAPBDXZ 100efea0 f   ShowSelectCert.obj
 0001:000eeeb0       __strcats                  100efeb0 f   LIBCMTD:setlocal.obj
 0001:000eef00       ___lc_strtolc              100eff00 f   LIBCMTD:setlocal.obj
 0001:000ef070       ___lc_lctostr              100f0070 f   LIBCMTD:setlocal.obj
 0001:000ef0e0       ___crtTlsAlloc@4           100f00e0 f   LIBCMTD:tidtable.obj
 0001:000ef0f0       __mtinit                   100f00f0 f   LIBCMTD:tidtable.obj
 0001:000ef240       __mtterm                   100f0240 f   LIBCMTD:tidtable.obj
 0001:000ef270       __initptd                  100f0270 f   LIBCMTD:tidtable.obj
 0001:000ef290       __getptd                   100f0290 f   LIBCMTD:tidtable.obj
 0001:000ef330       __freefls@4                100f0330 f   LIBCMTD:tidtable.obj
 0001:000ef5b0       __freeptd                  100f05b0 f   LIBCMTD:tidtable.obj
 0001:000ef5f0       __chvalidator              100f05f0 f   LIBCMTD:isctype.obj
 0001:000ef630       __chvalidator_mt           100f0630 f   LIBCMTD:isctype.obj
 0001:000ef670       ___isctype_mt              100f0670 f   LIBCMTD:isctype.obj
 0001:000ef730       __input                    100f0730 f   LIBCMTD:input.obj
 0001:000f0ba0       ___security_init_cookie    100f1ba0 f   LIBCMTD:seccinit.obj
 0001:000f0c40       ___security_error_handler  100f1c40 f   LIBCMTD:secfail.obj
 0001:000f0e70       _close                     100f1e70 f   LIBCMTD:close.obj
 0001:000f0e70       __close                    100f1e70 f   LIBCMTD:close.obj
 0001:000f0f60       __close_lk                 100f1f60 f   LIBCMTD:close.obj
 0001:000f1010       __freebuf                  100f2010 f   LIBCMTD:_freebuf.obj
 0001:000f10a0       __filbuf                   100f20a0 f   LIBCMTD:_filbuf.obj
 0001:000f1270       _read                      100f2270 f   LIBCMTD:read.obj
 0001:000f1270       __read                     100f2270 f   LIBCMTD:read.obj
 0001:000f1380       __read_lk                  100f2380 f   LIBCMTD:read.obj
 0001:000f17c0       __openfile                 100f27c0 f   LIBCMTD:_open.obj
 0001:000f1b50       __getstream                100f2b50 f   LIBCMTD:stream.obj
 0001:000f1d80       ___InternalCxxFrameHandler 100f2d80 f   LIBCMTD:frame.obj
 0001:000f22f0       ___FrameUnwindToState      100f32f0 f   LIBCMTD:frame.obj
 0001:000f2a60       ___DestructExceptionObject 100f3a60 f   LIBCMTD:frame.obj
 0001:000f2b40       ?__uncaught_exception@@YA_NXZ 100f3b40 f   LIBCMTD:frame.obj
 0001:000f2b60       __CallSettingFrame@12      100f3b60 f   LIBCMTD:lowhelpr.obj
 0001:000f2b87       __NLG_Return               100f3b87     LIBCMTD:lowhelpr.obj
 0001:000f2bb0       ?terminate@@YAXXZ          100f3bb0 f   LIBCMTD:hooks.obj
 0001:000f2c20       ?_inconsistency@@YAXXZ     100f3c20 f   LIBCMTD:hooks.obj
 0001:000f2c90       __itoa                     100f3c90 f   LIBCMTD:xtoa.obj
 0001:000f2c90       _itoa                      100f3c90 f   LIBCMTD:xtoa.obj
 0001:000f2db0       _raise                     100f3db0 f   LIBCMTD:winsig.obj
 0001:000f3070       ___crtMessageBoxA          100f4070 f   LIBCMTD:crtmbox.obj
 0001:000f31e0       ?_RTC_GetSrcLine@@YAHKPADHPAHPAPAD@Z 100f41e0 f   LIBCMTD:pdblkup.obj
 0001:000f3a80       ?__CxxUnhandledExceptionFilter@@YGJPAU_EXCEPTION_POINTERS@@@Z 100f4a80 f   LIBCMTD:unhandld.obj
 0001:000f3af0       ?__CxxSetUnhandledExceptionFilter@@YAHXZ 100f4af0 f   LIBCMTD:unhandld.obj
 0001:000f3b10       ?__CxxRestoreUnhandledExceptionFilter@@YAXXZ 100f4b10 f   LIBCMTD:unhandld.obj
 0001:000f3b30       __stbuf                    100f4b30 f   LIBCMTD:_sftbuf.obj
 0001:000f3c80       __ftbuf                    100f4c80 f   LIBCMTD:_sftbuf.obj
 0001:000f3d10       __output                   100f4d10 f   LIBCMTD:output.obj
 0001:000f4c50       __ValidateEH3RN            100f5c50 f   LIBCMTD:eh3valid.obj
 0001:000f5040       __flsbuf                   100f6040 f   LIBCMTD:_flsbuf.obj
 0001:000f52a0       ___crtLCMapStringA         100f62a0 f   LIBCMTD:a_map.obj
 0001:000f5860       _abort                     100f6860 f   LIBCMTD:abort.obj
 0001:000f5880       __wopenfile                100f6880 f   LIBCMTD:_wopen.obj
 0001:000f5c10       __wcsicmp                  100f6c10 f   LIBCMTD:wcsicmp.obj
 0001:000f5d50       ___loctotime_t             100f6d50 f   LIBCMTD:dtoxtime.obj
 0001:000f5eb0       __wfullpath                100f6eb0 f   LIBCMTD:wfullpat.obj
 0001:000f5f90       __getdrive                 100f6f90 f   LIBCMTD:drive.obj
 0001:000f6130       _towlower                  100f7130 f   LIBCMTD:towlower.obj
 0001:000f61b0       ___towlower_mt             100f71b0 f   LIBCMTD:towlower.obj
 0001:000f6230       _wcspbrk                   100f7230 f   LIBCMTD:wcspbrk.obj
 0001:000f6290       __write                    100f7290 f   LIBCMTD:write.obj
 0001:000f6290       _write                     100f7290 f   LIBCMTD:write.obj
 0001:000f63a0       __write_lk                 100f73a0 f   LIBCMTD:write.obj
 0001:000f6690       __getbuf                   100f7690 f   LIBCMTD:_getbuf.obj
 0001:000f6750       __ftelli64                 100f7750 f   LIBCMTD:ftelli64.obj
 0001:000f67f0       __ftelli64_lk              100f77f0 f   LIBCMTD:ftelli64.obj
 0001:000f6ac0       __lseek                    100f7ac0 f   LIBCMTD:lseek.obj
 0001:000f6bd0       __lseek_lk                 100f7bd0 f   LIBCMTD:lseek.obj
 0001:000f6c90       __fseeki64                 100f7c90 f   LIBCMTD:fseeki64.obj
 0001:000f6d40       __fseeki64_lk              100f7d40 f   LIBCMTD:fseeki64.obj
 0001:000f6e80       __commit                   100f7e80 f   LIBCMTD:commit.obj
 0001:000f6f90       __setdefaultprecision      100f7f90 f   LIBCMTD:fp8.obj
 0001:000f6fb0       __ms_p5_test_fdiv          100f7fb0 f   LIBCMTD:testfdiv.obj
 0001:000f7000       __ms_p5_mp_test_fdiv       100f8000 f   LIBCMTD:testfdiv.obj
 0001:000f7050       __forcdecpt                100f8050 f   LIBCMTD:cvt.obj
 0001:000f70d0       __cropzeros                100f80d0 f   LIBCMTD:cvt.obj
 0001:000f71b0       __positive                 100f81b0 f   LIBCMTD:cvt.obj
 0001:000f71e0       __fassign                  100f81e0 f   LIBCMTD:cvt.obj
 0001:000f7230       __cftoe                    100f8230 f   LIBCMTD:cvt.obj
 0001:000f7430       __cftof                    100f8430 f   LIBCMTD:cvt.obj
 0001:000f75f0       __cftog                    100f85f0 f   LIBCMTD:cvt.obj
 0001:000f76f0       __cfltcvt                  100f86f0 f   LIBCMTD:cvt.obj
 0001:000f7780       ___sse2_available_init     100f8780 f   LIBCMTD:cpu_disp.obj
 0001:000f7910       __modf_default             100f8910 f   LIBCMTD:modf.obj
 0001:000f7a90       ___libm_error_support      100f8a90 f   LIBCMTD:libm_error.obj
 0001:000f84a0       __ioinit                   100f94a0 f   LIBCMTD:ioinit.obj
 0001:000f8830       __ioterm                   100f9830 f   LIBCMTD:ioinit.obj
 0001:000f88d0       __setenvp                  100f98d0 f   LIBCMTD:stdenvp.obj
 0001:000f8a50       __setargv                  100f9a50 f   LIBCMTD:stdargv.obj
 0001:000f8eb0       ___crtGetEnvironmentStringsA 100f9eb0 f   LIBCMTD:a_env.obj
 0001:000f90d0       __RTC_Initialize           100fa0d0 f   LIBCMTD:initsect.obj
 0001:000f9150       __RTC_Terminate            100fa150 f   LIBCMTD:initsect.obj
 0001:000f91d0       ___CppXcptFilter           100fa1d0 f   LIBCMTD:winxfltr.obj
 0001:000f9200       __XcptFilter               100fa200 f   LIBCMTD:winxfltr.obj
 0001:000f9420       __FF_MSGBANNER             100fa420 f   LIBCMTD:crt0msg.obj
 0001:000f9470       __NMSG_WRITE               100fa470 f   LIBCMTD:crt0msg.obj
 0001:000f9680       _asctime                   100fa680 f   LIBCMTD:asctime.obj
 0001:000f9880       __cintrindisp2             100fa880 f   LIBCMTD:87cdisp.obj
 0001:000f98be       __cintrindisp1             100fa8be f   LIBCMTD:87cdisp.obj
 0001:000f98fb       __ctrandisp2               100fa8fb f   LIBCMTD:87cdisp.obj
 0001:000f9a91       __ctrandisp1               100faa91 f   LIBCMTD:87cdisp.obj
 0001:000f9ac4       __fload                    100faac4 f   LIBCMTD:87cdisp.obj
 0001:000f9b00       __trandisp1                100fab00 f   LIBCMTD:87disp.obj
 0001:000f9b67       __trandisp2                100fab67 f   LIBCMTD:87disp.obj
 0001:000f9bf3       __rttospopde               100fabf3     LIBCMTD:87disp.obj
 0001:000f9bf8       __rttospop                 100fabf8     LIBCMTD:87disp.obj
 0001:000f9bfa       __rtnospop                 100fabfa     LIBCMTD:87disp.obj
 0001:000f9bfc       __rttosnpop                100fabfc     LIBCMTD:87disp.obj
 0001:000f9bfd       __rtnospopde               100fabfd     LIBCMTD:87disp.obj
 0001:000f9c04       __rtzeropop                100fac04     LIBCMTD:87disp.obj
 0001:000f9c06       __rtzeronpop               100fac06     LIBCMTD:87disp.obj
 0001:000f9c0b       __rtonepop                 100fac0b     LIBCMTD:87disp.obj
 0001:000f9c0d       __rtonenpop                100fac0d     LIBCMTD:87disp.obj
 0001:000f9c12       __tosnan1                  100fac12     LIBCMTD:87disp.obj
 0001:000f9c3d       __nosnan2                  100fac3d     LIBCMTD:87disp.obj
 0001:000f9c3f       __tosnan2                  100fac3f     LIBCMTD:87disp.obj
 0001:000f9c67       __nan2                     100fac67     LIBCMTD:87disp.obj
 0001:000f9ca6       __rtindfpop                100faca6     LIBCMTD:87disp.obj
 0001:000f9ca8       __rtindfnpop               100faca8     LIBCMTD:87disp.obj
 0001:000f9cb9       __rttosnpopde              100facb9     LIBCMTD:87disp.obj
 0001:000f9cc3       __rtchsifneg               100facc3     LIBCMTD:87disp.obj
 0001:000f9cd0       _fdiv_main_routine         100facd0 f   LIBCMTD:adj_fdiv.obj
 0001:000f9de7       __adj_fdiv_r               100fade7 f   LIBCMTD:adj_fdiv.obj
 0001:000fa286       __fdivp_sti_st             100fb286 f   LIBCMTD:adj_fdiv.obj
 0001:000fa299       __fdivrp_sti_st            100fb299 f   LIBCMTD:adj_fdiv.obj
 0001:000fa2ac       __adj_fdiv_m32             100fb2ac f   LIBCMTD:adj_fdiv.obj
 0001:000fa2f8       __adj_fdiv_m64             100fb2f8 f   LIBCMTD:adj_fdiv.obj
 0001:000fa344       __adj_fdiv_m16i            100fb344 f   LIBCMTD:adj_fdiv.obj
 0001:000fa378       __adj_fdiv_m32i            100fb378 f   LIBCMTD:adj_fdiv.obj
 0001:000fa3ac       __adj_fdivr_m32            100fb3ac f   LIBCMTD:adj_fdiv.obj
 0001:000fa3f8       __adj_fdivr_m64            100fb3f8 f   LIBCMTD:adj_fdiv.obj
 0001:000fa444       __adj_fdivr_m16i           100fb444 f   LIBCMTD:adj_fdiv.obj
 0001:000fa478       __adj_fdivr_m32i           100fb478 f   LIBCMTD:adj_fdiv.obj
 0001:000fa4ac       __safe_fdiv                100fb4ac f   LIBCMTD:adj_fdiv.obj
 0001:000fa4c1       __safe_fdivr               100fb4c1 f   LIBCMTD:adj_fdiv.obj
 0001:000fa4d6       __fprem_common             100fb4d6 f   LIBCMTD:adj_fdiv.obj
 0001:000fa6dc       __adj_fprem                100fb6dc f   LIBCMTD:adj_fdiv.obj
 0001:000fa78e       __fprem1_common            100fb78e f   LIBCMTD:adj_fdiv.obj
 0001:000fa994       __adj_fprem1               100fb994 f   LIBCMTD:adj_fdiv.obj
 0001:000faa49       __safe_fprem               100fba49 f   LIBCMTD:adj_fdiv.obj
 0001:000faa4f       __safe_fprem1              100fba4f f   LIBCMTD:adj_fdiv.obj
 0001:000faa55       __adj_fpatan               100fba55 f   LIBCMTD:adj_fdiv.obj
 0001:000faa58       __adj_fptan                100fba58 f   LIBCMTD:adj_fdiv.obj
 0001:000faa60       __mbsicmp                  100fba60 f   LIBCMTD:mbsicmp.obj
 0001:000fac90       __mbsrchr                  100fbc90 f   LIBCMTD:mbsrchr.obj
 0001:000fad60       __fullpath                 100fbd60 f   LIBCMTD:fullpath.obj
 0001:000fae40       __mbctolower               100fbe40 f   LIBCMTD:mbtolwr.obj
 0001:000faf20       __mbspbrk                  100fbf20 f   LIBCMTD:mbspbrk.obj
 0001:000faf60       ___mbspbrk_mt              100fbf60 f   LIBCMTD:mbspbrk.obj
 0001:000fb070       __alloc_osfhnd             100fc070 f   LIBCMTD:osfinfo.obj
 0001:000fb2f0       __set_osfhnd               100fc2f0 f   LIBCMTD:osfinfo.obj
 0001:000fb3b0       __free_osfhnd              100fc3b0 f   LIBCMTD:osfinfo.obj
 0001:000fb490       __get_osfhandle            100fc490 f   LIBCMTD:osfinfo.obj
 0001:000fb500       __lock_fhandle             100fc500 f   LIBCMTD:osfinfo.obj
 0001:000fb5f0       __unlock_fhandle           100fc5f0 f   LIBCMTD:osfinfo.obj
 0001:000fb620       __fcloseall                100fc620 f   LIBCMTD:closeall.obj
 0001:000fb740       __set_exp                  100fc740 f   LIBCMTD:util.obj
 0001:000fb780       __sptype                   100fc780 f   LIBCMTD:util.obj
 0001:000fb800       __decomp                   100fc800 f   LIBCMTD:util.obj
 0001:000fb930       __handle_qnan1             100fc930 f   LIBCMTD:fpexcept.obj
 0001:000fb990       __except1                  100fc990 f   LIBCMTD:fpexcept.obj
 0001:000fba90       __raise_exc                100fca90 f   LIBCMTD:fpexcept.obj
 0001:000fbf40       __handle_exc               100fcf40 f   LIBCMTD:fpexcept.obj
 0001:000fc260       __umatherr                 100fd260 f   LIBCMTD:fpexcept.obj
 0001:000fc300       __set_errno                100fd300 f   LIBCMTD:fpexcept.obj
 0001:000fc380       __errcode                  100fd380 f   LIBCMTD:fpexcept.obj
 0001:000fc3f0       __statfp                   100fd3f0 f   LIBCMTD:fpctrl.obj
 0001:000fc400       __clrfp                    100fd400 f   LIBCMTD:fpctrl.obj
 0001:000fc420       __ctrlfp                   100fd420 f   LIBCMTD:fpctrl.obj
 0001:000fc450       __set_statfp               100fd450 f   LIBCMTD:fpctrl.obj
 0001:000fc4c0       __CIpow_pentium4           100fd4c0 f   LIBCMTD:pow_pentium4.obj
 0001:000fc4d9       __pow_pentium4             100fd4d9     LIBCMTD:pow_pentium4.obj
 0001:000fd021       __fFEXP                    100fe021     LIBCMTD:87tran.obj
 0001:000fd088       __rtinfpopse               100fe088     LIBCMTD:87tran.obj
 0001:000fd08a       __rtinfnpopse              100fe08a     LIBCMTD:87tran.obj
 0001:000fd09a       __fFLN                     100fe09a     LIBCMTD:87tran.obj
 0001:000fd14f       __rtinfpop                 100fe14f     LIBCMTD:87tran.obj
 0001:000fd151       __rtinfnpop                100fe151     LIBCMTD:87tran.obj
 0001:000fd16e       __ffexpm1                  100fe16e     LIBCMTD:87tran.obj
 0001:000fd220       __startTwoArgErrorHandling 100fe220 f   LIBCMTD:genexcep.obj
 0001:000fd237       __startOneArgErrorHandling 100fe237 f   LIBCMTD:genexcep.obj
 0001:000fd280       __twoToTOS                 100fe280 f   LIBCMTD:common.obj
 0001:000fd295       __load_CW                  100fe295 f   LIBCMTD:common.obj
 0001:000fd2ac       __convertTOStoQNaN         100fe2ac f   LIBCMTD:common.obj
 0001:000fd2c5       __fload_withFB             100fe2c5 f   LIBCMTD:common.obj
 0001:000fd308       __checkTOS_withFB          100fe308 f   LIBCMTD:common.obj
 0001:000fd31e       __fast_exit                100fe31e f   LIBCMTD:common.obj
 0001:000fd32b       __math_exit                100fe32b f   LIBCMTD:common.obj
 0001:000fd355       __check_overflow_exit      100fe355 f   LIBCMTD:common.obj
 0001:000fd369       __check_range_exit         100fe369 f   LIBCMTD:common.obj
 0001:000fd410       __powhlp                   100fe410 f   LIBCMTD:powhlp.obj
 0001:000fd610       __d_inttype                100fe610 f   LIBCMTD:powhlp.obj
 0001:000fd6a0       __mbsnbicoll               100fe6a0 f   LIBCMTD:mbsnbico.obj
 0001:000fd710       ___wtomb_environ           100fe710 f   LIBCMTD:wtombenv.obj
 0001:000fd800       __floor_default            100fe800 f   LIBCMTD:floor.obj
 0001:000fd940       __woutput                  100fe940 f   LIBCMTD:woutput.obj
 0001:000fe810       ___tzset                   100ff810 f   LIBCMTD:tzset.obj
 0001:000fecc0       __isindst                  100ffcc0 f   LIBCMTD:tzset.obj
 0001:000ff2a0       __allrem                   101002a0 f   LIBCMTD:llrem.obj
 0001:000ff360       ___crtInitCritSecAndSpinCount 10100360 f   LIBCMTD:initcrit.obj
 0001:000ff480       ___pctype_func             10100480 f   LIBCMTD:ctype.obj
 0001:000ff490       ___init_time               10100490 f   LIBCMTD:inittime.obj
 0001:000ffaa0       ___free_lc_time            10100aa0 f   LIBCMTD:inittime.obj
 0001:000ffdb0       ___init_numeric            10100db0 f   LIBCMTD:initnum.obj
 0001:00100070       ___free_lconv_num          10101070 f   LIBCMTD:initnum.obj
 0001:00100110       ___init_monetary           10101110 f   LIBCMTD:initmon.obj
 0001:00100510       ___free_lconv_mon          10101510 f   LIBCMTD:initmon.obj
 0001:00100670       ___init_ctype              10101670 f   LIBCMTD:initctyp.obj
 0001:00100930       ____lc_codepage_func       10101930 f   LIBCMTD:initctyp.obj
 0001:00100960       ____lc_handle_func         10101960 f   LIBCMTD:initctyp.obj
 0001:00100990       _strcspn                   10101990 f   LIBCMTD:strcspn.obj
 0001:001009e0       _strpbrk                   101019e0 f   LIBCMTD:strpbrk.obj
 0001:00100a20       ___crtGetStringTypeA       10101a20 f   LIBCMTD:a_str.obj
 0001:00100cc0       ___get_qualified_locale    10101cc0 f   LIBCMTD:getqloc.obj
 0001:00101af0       ___updatetmbcinfo          10102af0 f   LIBCMTD:mbctype.obj
 0001:00101bc0       __setmbcp                  10102bc0 f   LIBCMTD:mbctype.obj
 0001:00102500       ___initmbctable            10103500 f   LIBCMTD:mbctype.obj
 0001:00102530       _mbtowc                    10103530 f   LIBCMTD:mbtowc.obj
 0001:00102570       ___mbtowc_mt               10103570 f   LIBCMTD:mbtowc.obj
 0001:001026c0       __sopen                    101036c0 f   LIBCMTD:open.obj
 0001:00102c70       ?_ValidateRead@@YAHPBXI@Z  10103c70 f   LIBCMTD:validate.obj
 0001:00102ca0       ?_ValidateWrite@@YAHPAXI@Z 10103ca0 f   LIBCMTD:validate.obj
 0001:00102cd0       ?_ValidateExecute@@YAHP6GHXZ@Z 10103cd0 f   LIBCMTD:validate.obj
 0001:00102d00       __aullrem                  10103d00 f   LIBCMTD:ullrem.obj
 0001:00102d80       __isatty                   10103d80 f   LIBCMTD:isatty.obj
 0001:00102dc0       _wctomb                    10103dc0 f   LIBCMTD:wctomb.obj
 0001:00102e00       ___wctomb_mt               10103e00 f   LIBCMTD:wctomb.obj
 0001:00102ea0       ___ansicp                  10103ea0 f   LIBCMTD:convrtcp.obj
 0001:00102f00       ___convertcp               10103f00 f   LIBCMTD:convrtcp.obj
 0001:001031a0       __wsopen                   101041a0 f   LIBCMTD:wopen.obj
 0001:00103750       __wgetcwd                  10104750 f   LIBCMTD:wgetcwd.obj
 0001:001037d0       __wgetdcwd_lk              101047d0 f   LIBCMTD:wgetcwd.obj
 0001:00103930       ___crtLCMapStringW         10104930 f   LIBCMTD:w_map.obj
 0001:00103d10       ___iswctype_mt             10104d10 f   LIBCMTD:iswctype.obj
 0001:00103d80       __lseeki64                 10104d80 f   LIBCMTD:lseeki64.obj
 0001:00103ea0       __lseeki64_lk              10104ea0 f   LIBCMTD:lseeki64.obj
 0001:00103f70       __control87                10104f70 f   LIBCMTD:ieee87.obj
 0001:00103fc0       __controlfp                10104fc0 f   LIBCMTD:ieee87.obj
 0001:00104290       __ZeroTail                 10105290 f   LIBCMTD:intrncvt.obj
 0001:00104320       __IncMan                   10105320 f   LIBCMTD:intrncvt.obj
 0001:001043d0       __RoundMan                 101053d0 f   LIBCMTD:intrncvt.obj
 0001:001044b0       __CopyMan                  101054b0 f   LIBCMTD:intrncvt.obj
 0001:00104500       __FillZeroMan              10105500 f   LIBCMTD:intrncvt.obj
 0001:00104530       __IsZeroMan                10105530 f   LIBCMTD:intrncvt.obj
 0001:00104570       __ShrMan                   10105570 f   LIBCMTD:intrncvt.obj
 0001:00104660       __ld12cvt                  10105660 f   LIBCMTD:intrncvt.obj
 0001:001048a0       __ld12tod                  101058a0 f   LIBCMTD:intrncvt.obj
 0001:001048c0       __ld12tof                  101058c0 f   LIBCMTD:intrncvt.obj
 0001:001048e0       __atodbl                   101058e0 f   LIBCMTD:intrncvt.obj
 0001:00104930       __atoflt                   10105930 f   LIBCMTD:intrncvt.obj
 0001:00104980       __fptostr                  10105980 f   LIBCMTD:_fptostr.obj
 0001:00104a80       __fltout2                  10105a80 f   LIBCMTD:cfout.obj
 0001:00104b10       ___dtold                   10105b10 f   LIBCMTD:cfout.obj
 0001:00104c60       __fptrap                   10105c60 f   LIBCMTD:crt0fp.obj
 0001:00104c70       __frnd                     10105c70 f   LIBCMTD:frnd.obj
 0001:00104c90       __87except                 10105c90 f   LIBCMTD:87except.obj
 0001:00104e40       __stricmp                  10105e40 f   LIBCMTD:stricmp.obj
 0001:00104ef0       _getcwd                    10105ef0 f   LIBCMTD:getcwd.obj
 0001:00104ef0       __getcwd                   10105ef0 f   LIBCMTD:getcwd.obj
 0001:00104f70       __getdcwd_lk               10105f70 f   LIBCMTD:getcwd.obj
 0001:001050d0       __validdrive               101060d0 f   LIBCMTD:getcwd.obj
 0001:00105120       ___crtCompareStringA       10106120 f   LIBCMTD:a_cmp.obj
 0001:00105690       ___crtsetenv               10106690 f   LIBCMTD:setenv.obj
 0001:00105b80       __putwc_lk                 10106b80 f   LIBCMTD:fputwc.obj
 0001:00105d10       ___ascii_stricmp           10106d10 f   LIBCMTD:_stricmp.obj
 0001:00105d60       ___getlocaleinfo           10106d60 f   LIBCMTD:inithelp.obj
 0001:00105fc0       __strnicmp                 10106fc0 f   LIBCMTD:strnicmp.obj
 0001:00105fc0       _strnicmp                  10106fc0 f   LIBCMTD:strnicmp.obj
 0001:00106080       __chsize_lk                10107080 f   LIBCMTD:chsize.obj
 0001:00106260       ___crtGetStringTypeW       10107260 f   LIBCMTD:w_str.obj
 0001:00106590       ___addl                    10107590 f   LIBCMTD:mantold.obj
 0001:001065d0       ___add_12                  101075d0 f   LIBCMTD:mantold.obj
 0001:00106680       ___shl_12                  10107680 f   LIBCMTD:mantold.obj
 0001:001066e0       ___shr_12                  101076e0 f   LIBCMTD:mantold.obj
 0001:00106750       ___mtold12                 10107750 f   LIBCMTD:mantold.obj
 0001:001068a0       ___strgtold12              101078a0 f   LIBCMTD:strgtold.obj
 0001:001072a0       _$I10_OUTPUT               101082a0 f   LIBCMTD:x10fout.obj
 0001:00107780       __mbschr                   10108780 f   LIBCMTD:mbschr.obj
 0001:00107850       __flswbuf                  10108850 f   LIBCMTD:_flswbuf.obj
 0001:00107ac0       ___crtGetLocaleInfoW       10108ac0 f   LIBCMTD:w_loc.obj
 0001:00107ca0       ___crtGetLocaleInfoA       10108ca0 f   LIBCMTD:a_loc.obj
 0001:00107e90       ___ascii_strnicmp          10108e90 f   LIBCMTD:_strnicm.obj
 0001:00107f00       __setmode_lk               10108f00 f   LIBCMTD:setmode.obj
 0001:00107fe0       ___ld12mul                 10108fe0 f   LIBCMTD:tenpow.obj
 0001:001083d0       ___multtenpow12            101093d0 f   LIBCMTD:tenpow.obj
 0001:001084a0       ?_Xlen@_String_base@std@@QBEXXZ 101094a0 f   libcpmtd:string.obj
 0001:00108500       ?_Xran@_String_base@std@@QBEXXZ 10109500 f   libcpmtd:string.obj
 0001:00108560       ?clear@ios_base@std@@QAEXH_N@Z 10109560 f   libcpmtd:ios.obj
 0001:001086a0       ??0failure@ios_base@std@@QAE@ABV?$basic_string@DU?$char_traits@D@std@@V?$allocator@D@2@@2@@Z 101096a0 f i libcpmtd:ios.obj
 0001:001086d0       ??0runtime_error@std@@QAE@ABV?$basic_string@DU?$char_traits@D@std@@V?$allocator@D@2@@1@@Z 101096d0 f i libcpmtd:ios.obj
 0001:00108730       ?what@runtime_error@std@@UBEPBDXZ 10109730 f i libcpmtd:ios.obj
 0001:00108750       ??_Eruntime_error@std@@UAEPAXI@Z 10109750 f i libcpmtd:ios.obj
 0001:00108750       ??_Gruntime_error@std@@UAEPAXI@Z 10109750 f i libcpmtd:ios.obj
 0001:00108780       ??1runtime_error@std@@UAE@XZ 10109780 f i libcpmtd:ios.obj
 0001:001087e0       ??1failure@ios_base@std@@UAE@XZ 101097e0 f i libcpmtd:ios.obj
 0001:00108800       ??_Efailure@ios_base@std@@UAEPAXI@Z 10109800 f i libcpmtd:ios.obj
 0001:00108800       ??_Gfailure@ios_base@std@@UAEPAXI@Z 10109800 f i libcpmtd:ios.obj
 0001:00108830       ??0failure@ios_base@std@@QAE@ABV012@@Z 10109830 f i libcpmtd:ios.obj
 0001:00108860       ??0runtime_error@std@@QAE@ABV01@@Z 10109860 f i libcpmtd:ios.obj
 0001:001088d0       ?clear@ios_base@std@@QAEXH@Z 101098d0 f i libcpmtd:ios.obj
 0001:001088f0       ??1ios_base@std@@UAE@XZ    101098f0 f   libcpmtd:ios.obj
 0001:00108960       ?_Callfns@ios_base@std@@AAEXW4event@12@@Z 10109960 f   libcpmtd:ios.obj
 0001:001089b0       ?_Addstd@ios_base@std@@QAEXXZ 101099b0 f   libcpmtd:ios.obj
 0001:00108a50       ?_Init@ios_base@std@@IAEXXZ 10109a50 f   libcpmtd:ios.obj
 0001:00108af0       ?_Tidy@ios_base@std@@AAEXXZ 10109af0 f   libcpmtd:ios.obj
 0001:00108b80       ??0_Mutex@std@@QAE@XZ      10109b80 f   libcpmtd:xmutex.obj
 0001:00108bc0       ??1_Mutex@std@@QAE@XZ      10109bc0 f   libcpmtd:xmutex.obj
 0001:00108bf0       ?_Lock@_Mutex@std@@QAEXXZ  10109bf0 f   libcpmtd:xmutex.obj
 0001:00108c10       ?_Unlock@_Mutex@std@@QAEXXZ 10109c10 f   libcpmtd:xmutex.obj
 0001:00108c30       ??$_DebugHeapDelete@U_Fnarray@ios_base@std@@@std@@YAXPAU_Fnarray@ios_base@0@@Z 10109c30 f i libcpmtd:ios.obj
 0001:00108c30       ??$_DebugHeapDelete@U_RTL_CRITICAL_SECTION@@@std@@YAXPAU_RTL_CRITICAL_SECTION@@@Z 10109c30 f i libcpmtd:xmutex.obj
 0001:00108c30       ??$_DebugHeapDelete@U_Iosarray@ios_base@std@@@std@@YAXPAU_Iosarray@ios_base@0@@Z 10109c30 f i libcpmtd:ios.obj
 0001:00108c50       ?_Fiopen@std@@YAPAU_iobuf@@PBDHH@Z 10109c50 f   libcpmtd:fiopen.obj
 0001:00108d80       ??0_Init_locks@std@@QAE@XZ 10109d80 f   libcpmtd:xlock.obj
 0001:00108dd0       ??1_Init_locks@std@@QAE@XZ 10109dd0 f   libcpmtd:xlock.obj
 0001:00108e20       ??0_Lockit@std@@QAE@H@Z    10109e20 f   libcpmtd:xlock.obj
 0001:00108e60       ??1_Lockit@std@@QAE@XZ     10109e60 f   libcpmtd:xlock.obj
 0001:00108e90       ??2@YAPAXIABU_DebugHeapTag_t@std@@PADH@Z 10109e90 f   libcpmtd:xdebug.obj
 0001:00108ed0       ??_U@YAPAXIABU_DebugHeapTag_t@std@@PADH@Z 10109ed0 f   libcpmtd:xdebug.obj
 0001:00108ef0       ??3@YAXPAXABU_DebugHeapTag_t@std@@PADH@Z 10109ef0 f   libcpmtd:xdebug.obj
 0001:00108f10       ?uncaught_exception@std@@YA_NXZ 10109f10 f   libcpmtd:uncaught.obj
 0001:00108f20       __Fac_tidy                 10109f20 f   libcpmtd:locale0.obj
 0001:00108f70       __Deletegloballocale       10109f70 f   libcpmtd:locale0.obj
 0001:00108fa0       __Getgloballocale          10109fa0 f   libcpmtd:locale0.obj
 0001:00108fb0       __Setgloballocale          10109fb0 f   libcpmtd:locale0.obj
 0001:00109010       ??0locale@std@@QAE@XZ      1010a010 f   libcpmtd:locale0.obj
 0001:00109040       ??0locale@std@@AAE@PAV_Locimp@01@@Z 1010a040 f i libcpmtd:locale0.obj
 0001:00109060       ?_Getfacet@locale@std@@QBEPBVfacet@12@I@Z 1010a060 f   libcpmtd:locale0.obj
 0001:001090f0       ?_Init@locale@std@@CAPAV_Locimp@12@XZ 1010a0f0 f   libcpmtd:locale0.obj
 0001:00109240       ??0_DebugHeapString@std@@QAE@PBD@Z 1010a240 f i libcpmtd:locale0.obj
 0001:00109260       ??4_DebugHeapString@std@@QAEAAV01@ABV01@@Z 1010a260 f i libcpmtd:locale0.obj
 0001:00109280       ?_Register@facet@locale@std@@QAEXXZ 1010a280 f   libcpmtd:locale0.obj
 0001:00109320       ??0_Fac_node@std@@QAE@PAU01@PAVfacet@locale@1@@Z 1010a320 f i libcpmtd:locale0.obj
 0001:00109350       ??0_Locimp@locale@std@@AAE@_N@Z 1010a350 f   libcpmtd:locale0.obj
 0001:001093e0       ??_G_Locimp@locale@std@@MAEPAXI@Z 1010a3e0 f i libcpmtd:locale0.obj
 0001:001093e0       ??_E_Locimp@locale@std@@MAEPAXI@Z 1010a3e0 f i libcpmtd:locale0.obj
 0001:00109410       ??1_Locimp@locale@std@@MAE@XZ 1010a410 f   libcpmtd:locale0.obj
 0001:001094e0       ??0_Locinfo@std@@QAE@PBD@Z 1010a4e0 f   libcpmtd:locale0.obj
 0001:001095c0       ??1_Locinfo@std@@QAE@XZ    1010a5c0 f   libcpmtd:locale0.obj
 0001:00109670       ??0?$basic_string@DU?$char_traits@D@std@@V?$_DebugHeapAllocator@D@2@@std@@QAE@PBD@Z 1010a670 f i libcpmtd:locale0.obj
 0001:001096b0       ??4?$basic_string@DU?$char_traits@D@std@@V?$_DebugHeapAllocator@D@2@@std@@QAEAAV01@ABV01@@Z 1010a6b0 f i libcpmtd:locale0.obj
 0001:001096d0       ?assign@?$basic_string@DU?$char_traits@D@std@@V?$_DebugHeapAllocator@D@2@@std@@QAEAAV12@ABV12@@Z 1010a6d0 f i libcpmtd:locale0.obj
 0001:00109700       ?assign@?$basic_string@DU?$char_traits@D@std@@V?$_DebugHeapAllocator@D@2@@std@@QAEAAV12@ABV12@II@Z 1010a700 f i libcpmtd:locale0.obj
 0001:001097c0       ?assign@?$basic_string@DU?$char_traits@D@std@@V?$_DebugHeapAllocator@D@2@@std@@QAEAAV12@PBD@Z 1010a7c0 f i libcpmtd:locale0.obj
 0001:001097f0       ?_Myptr@?$basic_string@DU?$char_traits@D@std@@V?$_DebugHeapAllocator@D@2@@std@@QBEPBDXZ 1010a7f0 f i libcpmtd:locale0.obj
 0001:00109820       ?assign@?$basic_string@DU?$char_traits@D@std@@V?$_DebugHeapAllocator@D@2@@std@@QAEAAV12@PBDI@Z 1010a820 f i libcpmtd:locale0.obj
 0001:001098a0       ?_Inside@?$basic_string@DU?$char_traits@D@std@@V?$_DebugHeapAllocator@D@2@@std@@IAE_NPBD@Z 1010a8a0 f i libcpmtd:locale0.obj
 0001:001098e0       ??$_DebugHeapDelete@U_Fac_node@std@@@std@@YAXPAU_Fac_node@0@@Z 1010a8e0 f i libcpmtd:locale0.obj
 0001:00109910       ??_G_Fac_node@std@@QAEPAXI@Z 1010a910 f i libcpmtd:locale0.obj
 0001:00109940       ??1_Fac_node@std@@QAE@XZ   1010a940 f i libcpmtd:locale0.obj
 0001:00109960       ??0locale@std@@QAE@W4_Uninitialized@1@@Z 1010a960 f i libcpmtd:locale0.obj
 0001:00109970       __Tolower                  1010a970 f   libcpmtd:_tolower.obj
 0001:00109a70       __Tolower_lk               1010aa70 f   libcpmtd:_tolower.obj
 0001:00109bb0       __Getctype                 1010abb0 f   libcpmtd:_tolower.obj
 0001:00109ce0       __Toupper                  1010ace0 f   libcpmtd:_toupper.obj
 0001:00109de0       __Toupper_lk               1010ade0 f   libcpmtd:_toupper.obj
 0001:00109f20       __Mtxinit                  1010af20 f   libcpmtd:xmtx.obj
 0001:00109f30       __Mtxdst                   1010af30 f   libcpmtd:xmtx.obj
 0001:00109f40       __Mtxlock                  1010af40 f   libcpmtd:xmtx.obj
 0001:00109f50       __Mtxunlock                1010af50 f   libcpmtd:xmtx.obj
 0001:00109f60       ?_Nomemory@std@@YAXXZ      1010af60 f   libcpmtd:nomemory.obj
 0001:00109fc0       ??0bad_alloc@std@@QAE@PBD@Z 1010afc0 f i libcpmtd:nomemory.obj
 0001:00109ff0       ??1bad_alloc@std@@UAE@XZ   1010aff0 f i libcpmtd:nomemory.obj
 0001:0010a010       ??_Gbad_alloc@std@@UAEPAXI@Z 1010b010 f i libcpmtd:nomemory.obj
 0001:0010a010       ??_Ebad_alloc@std@@UAEPAXI@Z 1010b010 f i libcpmtd:nomemory.obj
 0001:0010a040       ??0bad_alloc@std@@QAE@ABV01@@Z 1010b040 f i libcpmtd:nomemory.obj
 0001:0010a070       __Atexit                   1010b070 f   libcpmtd:iosptrs.obj
 0001:0010a0a0       ??1_Init_atexit@@QAE@XZ    1010b0a0 f i libcpmtd:iosptrs.obj
 0001:0010a0e0       ?_com_issue_error@@YGXJ@Z  1010b0e0 f   comsuppd:comsupp.obj
 0001:0010a100       ?_com_issue_errorex@@YGXJPAUIUnknown@@ABU_GUID@@@Z 1010b100 f   comsuppd:comsupp.obj
 0001:0010a190       ?ConvertStringToBSTR@_com_util@@YGPAGPBD@Z 1010b190 f   comsuppd:comutil.obj
 0001:0010a370       ?ConvertBSTRToString@_com_util@@YGPADPAG@Z 1010b370 f   comsuppd:comutil.obj
 0001:0010a4f0       ??0_variant_t@@QAE@JG@Z    1010b4f0 f i comsuppd:comutil.obj
 0001:0010a580       ?_com_raise_error@@YGXJPAUIErrorInfo@@@Z 1010b580 f   comsuppd:comraise.obj
 0001:0010a5b0       ??0_com_error@@QAE@JPAUIErrorInfo@@_N@Z 1010b5b0 f i comsuppd:comraise.obj
 0001:0010a610       ??_E_com_error@@UAEPAXI@Z  1010b610 f i comsuppd:comraise.obj
 0001:0010a610       ??_G_com_error@@UAEPAXI@Z  1010b610 f i comsuppd:comraise.obj
 0001:0010a640       ??0_com_error@@QAE@ABV0@@Z 1010b640 f i comsuppd:comraise.obj
 0001:0010a6a0       ??1_com_error@@UAE@XZ      1010b6a0 f i comsuppd:comraise.obj
 0001:0010a6e6       _ldap_msgfree@4            1010b6e6 f   nsldap32v50:NSLDAP32V50.dll
 0001:0010a6ec       _ldap_unbind@4             1010b6ec f   nsldap32v50:NSLDAP32V50.dll
 0001:0010a6f2       _ber_free@8                1010b6f2 f   nsldap32v50:NSLDAP32V50.dll
 0001:0010a6f8       _ldap_memfree@4            1010b6f8 f   nsldap32v50:NSLDAP32V50.dll
 0001:0010a6fe       _ldap_value_free_len@4     1010b6fe f   nsldap32v50:NSLDAP32V50.dll
 0001:0010a704       _ldap_get_values_len@12    1010b704 f   nsldap32v50:NSLDAP32V50.dll
 0001:0010a70a       _ldap_first_attribute@12   1010b70a f   nsldap32v50:NSLDAP32V50.dll
 0001:0010a710       _ldap_first_entry@8        1010b710 f   nsldap32v50:NSLDAP32V50.dll
 0001:0010a716       _ldap_count_entries@8      1010b716 f   nsldap32v50:NSLDAP32V50.dll
 0001:0010a71c       _ldap_search_s@28          1010b71c f   nsldap32v50:NSLDAP32V50.dll
 0001:0010a722       _ldap_simple_bind_s@12     1010b722 f   nsldap32v50:NSLDAP32V50.dll
 0001:0010a728       _ldap_set_option@12        1010b728 f   nsldap32v50:NSLDAP32V50.dll
 0001:0010a72e       _ldap_init@8               1010b72e f   nsldap32v50:NSLDAP32V50.dll
 0001:0010a734       _SEC_PKCS12DecoderFinish   1010b734 f   smime3:smime3.dll
 0001:0010a73a       _SEC_PKCS12DecoderGetCerts 1010b73a f   smime3:smime3.dll
 0001:0010a740       _SEC_PKCS12DecoderImportBags 1010b740 f   smime3:smime3.dll
 0001:0010a746       _SEC_PKCS12DecoderValidateBags 1010b746 f   smime3:smime3.dll
 0001:0010a74c       _SEC_PKCS12DecoderVerify   1010b74c f   smime3:smime3.dll
 0001:0010a752       _SEC_PKCS12DecoderUpdate   1010b752 f   smime3:smime3.dll
 0001:0010a758       _SEC_PKCS12DecoderStart    1010b758 f   smime3:smime3.dll
 0001:0010a75e       _SEC_PKCS12SetPreferredCipher 1010b75e f   smime3:smime3.dll
 0001:0010a764       _SEC_PKCS12EnableCipher    1010b764 f   smime3:smime3.dll
 0001:0010a76a       _PK11_FreeSlot             1010b76a f   nss3:nss3.dll
 0001:0010a770       _PK11_FreeSymKey           1010b770 f   nss3:nss3.dll
 0001:0010a776       _PK11_DestroyContext       1010b776 f   nss3:nss3.dll
 0001:0010a77c       _PK11_DigestFinal          1010b77c f   nss3:nss3.dll
 0001:0010a782       _PK11_DigestOp             1010b782 f   nss3:nss3.dll
 0001:0010a788       _PK11_DigestBegin          1010b788 f   nss3:nss3.dll
 0001:0010a78e       _PK11_CreateDigestContext  1010b78e f   nss3:nss3.dll
 0001:0010a794       _PK11_CreateContextBySymKey 1010b794 f   nss3:nss3.dll
 0001:0010a79a       _PK11_ImportSymKey         1010b79a f   nss3:nss3.dll
 0001:0010a7a0       _PK11_GetInternalKeySlot   1010b7a0 f   nss3:nss3.dll
 0001:0010a7a6       _SECKEY_DestroyPublicKey   1010b7a6 f   nss3:nss3.dll
 0001:0010a7ac       _SECKEY_ExtractPublicKey   1010b7ac f   nss3:nss3.dll
 0001:0010a7b2       _VFY_VerifyDigest          1010b7b2 f   nss3:nss3.dll
 0001:0010a7b8       _PORT_FreeArena            1010b7b8 f   nss3:nss3.dll
 0001:0010a7be       _PORT_ArenaZAlloc          1010b7be f   nss3:nss3.dll
 0001:0010a7c4       _SECKEY_DestroyPrivateKey  1010b7c4 f   nss3:nss3.dll
 0001:0010a7ca       _SGN_Digest                1010b7ca f   nss3:nss3.dll
 0001:0010a7d0       _PK11_FindKeyByAnyCert     1010b7d0 f   nss3:nss3.dll
 0001:0010a7d6       _CERT_FindKeyUsageExtension 1010b7d6 f   nss3:nss3.dll
 0001:0010a7dc       _CERT_FindCertExtension    1010b7dc f   nss3:nss3.dll
 0001:0010a7e2       _BTOA_DataToAscii          1010b7e2 f   nss3:nss3.dll
 0001:0010a7e8       _CERT_DestroyCertList      1010b7e8 f   nss3:nss3.dll
 0001:0010a7ee       _CERT_DupCertificate       1010b7ee f   nss3:nss3.dll
 0001:0010a7f4       ___CERT_DecodeDERCertificate 1010b7f4 f   nss3:nss3.dll
 0001:0010a7fa       _PORT_ArenaAlloc           1010b7fa f   nss3:nss3.dll
 0001:0010a800       _PORT_SetError             1010b800 f   nss3:nss3.dll
 0001:0010a806       _SEC_QuickDERDecodeItem    1010b806 f   nss3:nss3.dll
 0001:0010a80c       _SECITEM_CopyItem          1010b80c f   nss3:nss3.dll
 0001:0010a812       _CERT_DecodeGeneralName    1010b812 f   nss3:nss3.dll
 0001:0010a818       _CERT_DecodeBasicConstraintValue 1010b818 f   nss3:nss3.dll
 0001:0010a81e       _SECOID_FindOIDByTag       1010b81e f   nss3:nss3.dll
 0001:0010a824       _SECOID_FindOIDTag         1010b824 f   nss3:nss3.dll
 0001:0010a82a       _NSS_Shutdown              1010b82a f   nss3:nss3.dll
 0001:0010a830       _PK11_ListCertsInSlot      1010b830 f   nss3:nss3.dll
 0001:0010a836       _PK11_ListCerts            1010b836 f   nss3:nss3.dll
 0001:0010a83c       _PK11_FindSlotByName       1010b83c f   nss3:nss3.dll
 0001:0010a842       _NSS_Initialize            1010b842 f   nss3:nss3.dll
 0001:0010a848       _PK11_SetPasswordFunc      1010b848 f   nss3:nss3.dll
 0001:0010a84e       _PORT_UCS2_ASCIIConversion 1010b84e f   nss3:nss3.dll
 0001:0010a854       _PORT_ZAlloc               1010b854 f   nss3:nss3.dll
 0001:0010a85a       _PK11_Authenticate         1010b85a f   nss3:nss3.dll
 0001:0010a860       _PK11_NeedUserInit         1010b860 f   nss3:nss3.dll
 0001:0010a866       _PK11_InitPin              1010b866 f   nss3:nss3.dll
 0001:0010a86c       _PORT_GetError             1010b86c f   nss3:nss3.dll
 0001:0010a872       _PORT_SetUCS2_ASCIIConversionFunction 1010b872 f   nss3:nss3.dll
 0001:0010a878       _PORT_UCS2_UTF8Conversion  1010b878 f   nss3:nss3.dll
 0001:0010a87e       _SECITEM_ZfreeItem         1010b87e f   nss3:nss3.dll
 0001:0010a884       _SECITEM_DupItem           1010b884 f   nss3:nss3.dll
 0001:0010a88a       _PL_strlen                 1010b88a f   libplc4:libplc4.dll
 0001:0010a890       _PL_strdup                 1010b890 f   libplc4:libplc4.dll
 0001:0010a896       ___WSAFDIsSet@8            1010b896 f   ws2_32:WS2_32.dll
 0001:0010a89c       _RtlUnwind@16              1010b89c f   kernel32:KERNEL32.dll
 0002:00000000       __imp__AdjustTokenPrivileges@24 1010e000     advapi32:ADVAPI32.dll
 0002:00000004       __imp__RevertToSelf@0      1010e004     advapi32:ADVAPI32.dll
 0002:00000008       __imp__OpenThreadToken@16  1010e008     advapi32:ADVAPI32.dll
 0002:0000000c       __imp__RegQueryInfoKeyA@48 1010e00c     advapi32:ADVAPI32.dll
 0002:00000010       __imp__RegSetValueExA@24   1010e010     advapi32:ADVAPI32.dll
 0002:00000014       __imp__RegEnumKeyExA@32    1010e014     advapi32:ADVAPI32.dll
 0002:00000018       __imp__RegCreateKeyExA@36  1010e018     advapi32:ADVAPI32.dll
 0002:0000001c       __imp__RegDeleteValueA@8   1010e01c     advapi32:ADVAPI32.dll
 0002:00000020       __imp__RegDeleteKeyA@8     1010e020     advapi32:ADVAPI32.dll
 0002:00000024       __imp__RegCloseKey@4       1010e024     advapi32:ADVAPI32.dll
 0002:00000028       __imp__RegQueryValueExA@24 1010e028     advapi32:ADVAPI32.dll
 0002:0000002c       __imp__RegOpenKeyExA@20    1010e02c     advapi32:ADVAPI32.dll
 0002:00000030       __imp__SetThreadToken@8    1010e030     advapi32:ADVAPI32.dll
 0002:00000034       __imp__LookupPrivilegeValueA@12 1010e034     advapi32:ADVAPI32.dll
 0002:00000038       __imp__OpenProcessToken@12 1010e038     advapi32:ADVAPI32.dll
 0002:0000003c       \177ADVAPI32_NULL_THUNK_DATA 1010e03c     advapi32:ADVAPI32.dll
 0002:00000040       __imp__GetStockObject@4    1010e040     gdi32:GDI32.dll
 0002:00000044       __imp__GetObjectA@12       1010e044     gdi32:GDI32.dll
 0002:00000048       __imp__GetDeviceCaps@8     1010e048     gdi32:GDI32.dll
 0002:0000004c       __imp__CreateSolidBrush@4  1010e04c     gdi32:GDI32.dll
 0002:00000050       __imp__DeleteObject@4      1010e050     gdi32:GDI32.dll
 0002:00000054       __imp__CreateCompatibleBitmap@12 1010e054     gdi32:GDI32.dll
 0002:00000058       __imp__CreateCompatibleDC@4 1010e058     gdi32:GDI32.dll
 0002:0000005c       __imp__SelectObject@8      1010e05c     gdi32:GDI32.dll
 0002:00000060       __imp__DeleteDC@4          1010e060     gdi32:GDI32.dll
 0002:00000064       __imp__BitBlt@36           1010e064     gdi32:GDI32.dll
 0002:00000068       \177GDI32_NULL_THUNK_DATA  1010e068     gdi32:GDI32.dll
 0002:0000006c       __imp__GetEnvironmentStrings@0 1010e06c     kernel32:KERNEL32.dll
 0002:00000070       __imp__FreeEnvironmentStringsA@4 1010e070     kernel32:KERNEL32.dll
 0002:00000074       __imp__GetStartupInfoA@4   1010e074     kernel32:KERNEL32.dll
 0002:00000078       __imp__GetFileType@4       1010e078     kernel32:KERNEL32.dll
 0002:0000007c       __imp__SetHandleCount@4    1010e07c     kernel32:KERNEL32.dll
 0002:00000080       __imp__FlushFileBuffers@4  1010e080     kernel32:KERNEL32.dll
 0002:00000084       __imp__SetFilePointer@16   1010e084     kernel32:KERNEL32.dll
 0002:00000088       __imp__GetCurrentDirectoryA@8 1010e088     kernel32:KERNEL32.dll
 0002:0000008c       __imp__GetFullPathNameW@16 1010e08c     kernel32:KERNEL32.dll
 0002:00000090       __imp__LCMapStringW@24     1010e090     kernel32:KERNEL32.dll
 0002:00000094       __imp__LCMapStringA@24     1010e094     kernel32:KERNEL32.dll
 0002:00000098       __imp__SetUnhandledExceptionFilter@4 1010e098     kernel32:KERNEL32.dll
 0002:0000009c       __imp__ReadFile@20         1010e09c     kernel32:KERNEL32.dll
 0002:000000a0       __imp__GetTickCount@0      1010e0a0     kernel32:KERNEL32.dll
 0002:000000a4       __imp__QueryPerformanceCounter@4 1010e0a4     kernel32:KERNEL32.dll
 0002:000000a8       __imp__TlsGetValue@4       1010e0a8     kernel32:KERNEL32.dll
 0002:000000ac       __imp__TlsSetValue@8       1010e0ac     kernel32:KERNEL32.dll
 0002:000000b0       __imp__TlsFree@4           1010e0b0     kernel32:KERNEL32.dll
 0002:000000b4       __imp__TlsAlloc@0          1010e0b4     kernel32:KERNEL32.dll
 0002:000000b8       __imp__OpenEventA@12       1010e0b8     kernel32:KERNEL32.dll
 0002:000000bc       __imp__lstrcpyW@8          1010e0bc     kernel32:KERNEL32.dll
 0002:000000c0       __imp__OutputDebugStringA@4 1010e0c0     kernel32:KERNEL32.dll
 0002:000000c4       __imp__OutputDebugStringW@4 1010e0c4     kernel32:KERNEL32.dll
 0002:000000c8       __imp__DeleteCriticalSection@4 1010e0c8     kernel32:KERNEL32.dll
 0002:000000cc       __imp__RaiseException@16   1010e0cc     kernel32:KERNEL32.dll
 0002:000000d0       __imp__SystemTimeToFileTime@8 1010e0d0     kernel32:KERNEL32.dll
 0002:000000d4       __imp__GetVersionExA@4     1010e0d4     kernel32:KERNEL32.dll
 0002:000000d8       __imp__InterlockedExchange@8 1010e0d8     kernel32:KERNEL32.dll
 0002:000000dc       __imp__GetACP@0            1010e0dc     kernel32:KERNEL32.dll
 0002:000000e0       __imp__GetLocaleInfoA@16   1010e0e0     kernel32:KERNEL32.dll
 0002:000000e4       __imp__GetThreadLocale@0   1010e0e4     kernel32:KERNEL32.dll
 0002:000000e8       __imp__GetVersion@0        1010e0e8     kernel32:KERNEL32.dll
 0002:000000ec       __imp__MultiByteToWideChar@24 1010e0ec     kernel32:KERNEL32.dll
 0002:000000f0       __imp__CompareStringW@24   1010e0f0     kernel32:KERNEL32.dll
 0002:000000f4       __imp__CompareStringA@24   1010e0f4     kernel32:KERNEL32.dll
 0002:000000f8       __imp__lstrlenW@4          1010e0f8     kernel32:KERNEL32.dll
 0002:000000fc       __imp__WideCharToMultiByte@32 1010e0fc     kernel32:KERNEL32.dll
 0002:00000100       __imp__lstrcmpiA@8         1010e100     kernel32:KERNEL32.dll
 0002:00000104       __imp__lstrlenA@4          1010e104     kernel32:KERNEL32.dll
 0002:00000108       __imp__GetLastError@0      1010e108     kernel32:KERNEL32.dll
 0002:0000010c       __imp__GetComputerNameA@8  1010e10c     kernel32:KERNEL32.dll
 0002:00000110       __imp__GetSystemTime@4     1010e110     kernel32:KERNEL32.dll
 0002:00000114       __imp__FindResourceA@12    1010e114     kernel32:KERNEL32.dll
 0002:00000118       __imp__SizeofResource@8    1010e118     kernel32:KERNEL32.dll
 0002:0000011c       __imp__LockResource@4      1010e11c     kernel32:KERNEL32.dll
 0002:00000120       __imp__LoadResource@8      1010e120     kernel32:KERNEL32.dll
 0002:00000124       __imp__GlobalUnlock@4      1010e124     kernel32:KERNEL32.dll
 0002:00000128       __imp__GlobalLock@4        1010e128     kernel32:KERNEL32.dll
 0002:0000012c       __imp__GlobalAlloc@8       1010e12c     kernel32:KERNEL32.dll
 0002:00000130       __imp__SetLastError@4      1010e130     kernel32:KERNEL32.dll
 0002:00000134       __imp__LocalFree@4         1010e134     kernel32:KERNEL32.dll
 0002:00000138       __imp__FormatMessageA@28   1010e138     kernel32:KERNEL32.dll
 0002:0000013c       __imp__HeapFree@12         1010e13c     kernel32:KERNEL32.dll
 0002:00000140       __imp__GetProcessHeap@0    1010e140     kernel32:KERNEL32.dll
 0002:00000144       __imp__lstrcmpA@8          1010e144     kernel32:KERNEL32.dll
 0002:00000148       __imp__MulDiv@12           1010e148     kernel32:KERNEL32.dll
 0002:0000014c       __imp__GetModuleFileNameA@12 1010e14c     kernel32:KERNEL32.dll
 0002:00000150       __imp__LeaveCriticalSection@4 1010e150     kernel32:KERNEL32.dll
 0002:00000154       __imp__EnterCriticalSection@4 1010e154     kernel32:KERNEL32.dll
 0002:00000158       __imp__FreeEnvironmentStringsW@4 1010e158     kernel32:KERNEL32.dll
 0002:0000015c       __imp__FlushInstructionCache@12 1010e15c     kernel32:KERNEL32.dll
 0002:00000160       __imp__GetCurrentProcess@0 1010e160     kernel32:KERNEL32.dll
 0002:00000164       __imp__lstrcpyA@8          1010e164     kernel32:KERNEL32.dll
 0002:00000168       __imp__LoadLibraryW@4      1010e168     kernel32:KERNEL32.dll
 0002:0000016c       __imp__GetCommandLineA@0   1010e16c     kernel32:KERNEL32.dll
 0002:00000170       __imp__InterlockedDecrement@4 1010e170     kernel32:KERNEL32.dll
 0002:00000174       __imp__DebugBreak@0        1010e174     kernel32:KERNEL32.dll
 0002:00000178       __imp__DeleteFileW@4       1010e178     kernel32:KERNEL32.dll
 0002:0000017c       __imp__DeleteFileA@4       1010e17c     kernel32:KERNEL32.dll
 0002:00000180       __imp__MoveFileA@8         1010e180     kernel32:KERNEL32.dll
 0002:00000184       __imp__WriteFile@20        1010e184     kernel32:KERNEL32.dll
 0002:00000188       __imp__CloseHandle@4       1010e188     kernel32:KERNEL32.dll
 0002:0000018c       __imp__CreateFileA@28      1010e18c     kernel32:KERNEL32.dll
 0002:00000190       __imp__GetTempFileNameA@16 1010e190     kernel32:KERNEL32.dll
 0002:00000194       __imp__GetTempPathA@8      1010e194     kernel32:KERNEL32.dll
 0002:00000198       __imp__GetTempPathW@8      1010e198     kernel32:KERNEL32.dll
 0002:0000019c       __imp__GetProcAddress@8    1010e19c     kernel32:KERNEL32.dll
 0002:000001a0       __imp__LoadLibraryA@4      1010e1a0     kernel32:KERNEL32.dll
 0002:000001a4       __imp__GetTimeZoneInformation@4 1010e1a4     kernel32:KERNEL32.dll
 0002:000001a8       __imp__IsBadStringPtrA@8   1010e1a8     kernel32:KERNEL32.dll
 0002:000001ac       __imp__GlobalFree@4        1010e1ac     kernel32:KERNEL32.dll
 0002:000001b0       __imp__GlobalHandle@4      1010e1b0     kernel32:KERNEL32.dll
 0002:000001b4       __imp__SetSystemTime@4     1010e1b4     kernel32:KERNEL32.dll
 0002:000001b8       __imp__GetModuleHandleA@4  1010e1b8     kernel32:KERNEL32.dll
 0002:000001bc       __imp__FreeLibrary@4       1010e1bc     kernel32:KERNEL32.dll
 0002:000001c0       __imp__LoadLibraryExA@12   1010e1c0     kernel32:KERNEL32.dll
 0002:000001c4       __imp__lstrcpynA@12        1010e1c4     kernel32:KERNEL32.dll
 0002:000001c8       __imp__IsDBCSLeadByte@4    1010e1c8     kernel32:KERNEL32.dll
 0002:000001cc       __imp__DisableThreadLibraryCalls@4 1010e1cc     kernel32:KERNEL32.dll
 0002:000001d0       __imp__lstrcatA@8          1010e1d0     kernel32:KERNEL32.dll
 0002:000001d4       __imp__InitializeCriticalSection@4 1010e1d4     kernel32:KERNEL32.dll
 0002:000001d8       __imp__InterlockedIncrement@4 1010e1d8     kernel32:KERNEL32.dll
 0002:000001dc       __imp__ReleaseMutex@4      1010e1dc     kernel32:KERNEL32.dll
 0002:000001e0       __imp__WaitForSingleObject@8 1010e1e0     kernel32:KERNEL32.dll
 0002:000001e4       __imp__CreateMutexA@12     1010e1e4     kernel32:KERNEL32.dll
 0002:000001e8       __imp__GlobalMemoryStatusEx@4 1010e1e8     kernel32:KERNEL32.dll
 0002:000001ec       __imp__FindClose@4         1010e1ec     kernel32:KERNEL32.dll
 0002:000001f0       __imp__FindFirstFileA@8    1010e1f0     kernel32:KERNEL32.dll
 0002:000001f4       __imp__lstrcpynW@12        1010e1f4     kernel32:KERNEL32.dll
 0002:000001f8       __imp__FileTimeToSystemTime@8 1010e1f8     kernel32:KERNEL32.dll
 0002:000001fc       __imp__FileTimeToLocalFileTime@8 1010e1fc     kernel32:KERNEL32.dll
 0002:00000200       __imp__GetSystemTimeAsFileTime@4 1010e200     kernel32:KERNEL32.dll
 0002:00000204       __imp__LocalFileTimeToFileTime@8 1010e204     kernel32:KERNEL32.dll
 0002:00000208       __imp__HeapReAlloc@16      1010e208     kernel32:KERNEL32.dll
 0002:0000020c       __imp__HeapSize@12         1010e20c     kernel32:KERNEL32.dll
 0002:00000210       __imp__HeapDestroy@4       1010e210     kernel32:KERNEL32.dll
 0002:00000214       __imp__VirtualAlloc@16     1010e214     kernel32:KERNEL32.dll
 0002:00000218       __imp__UnmapViewOfFile@4   1010e218     kernel32:KERNEL32.dll
 0002:0000021c       __imp__IsBadReadPtr@8      1010e21c     kernel32:KERNEL32.dll
 0002:00000220       __imp__GetSystemInfo@4     1010e220     kernel32:KERNEL32.dll
 0002:00000224       __imp__MapViewOfFile@20    1010e224     kernel32:KERNEL32.dll
 0002:00000228       __imp__CreateFileMappingA@24 1010e228     kernel32:KERNEL32.dll
 0002:0000022c       __imp__GetCurrentThread@0  1010e22c     kernel32:KERNEL32.dll
 0002:00000230       __imp__GetEnvironmentStringsW@0 1010e230     kernel32:KERNEL32.dll
 0002:00000234       __imp__UnhandledExceptionFilter@4 1010e234     kernel32:KERNEL32.dll
 0002:00000238       __imp__GetFullPathNameA@16 1010e238     kernel32:KERNEL32.dll
 0002:0000023c       __imp__OpenFileMappingA@12 1010e23c     kernel32:KERNEL32.dll
 0002:00000240       __imp__ExitProcess@4       1010e240     kernel32:KERNEL32.dll
 0002:00000244       __imp__RtlUnwind@16        1010e244     kernel32:KERNEL32.dll
 0002:00000248       __imp__GetStdHandle@4      1010e248     kernel32:KERNEL32.dll
 0002:0000024c       __imp__VirtualProtect@16   1010e24c     kernel32:KERNEL32.dll
 0002:00000250       __imp__VirtualQuery@12     1010e250     kernel32:KERNEL32.dll
 0002:00000254       __imp__GetDriveTypeW@4     1010e254     kernel32:KERNEL32.dll
 0002:00000258       __imp__FindFirstFileW@8    1010e258     kernel32:KERNEL32.dll
 0002:0000025c       __imp__GetDriveTypeA@4     1010e25c     kernel32:KERNEL32.dll
 0002:00000260       __imp__HeapCreate@12       1010e260     kernel32:KERNEL32.dll
 0002:00000264       __imp__VirtualFree@12      1010e264     kernel32:KERNEL32.dll
 0002:00000268       __imp__TerminateProcess@8  1010e268     kernel32:KERNEL32.dll
 0002:0000026c       __imp__SetStdHandle@8      1010e26c     kernel32:KERNEL32.dll
 0002:00000270       __imp__GetCPInfo@8         1010e270     kernel32:KERNEL32.dll
 0002:00000274       __imp__GetStringTypeA@20   1010e274     kernel32:KERNEL32.dll
 0002:00000278       __imp__GetStringTypeW@16   1010e278     kernel32:KERNEL32.dll
 0002:0000027c       __imp__IsValidLocale@8     1010e27c     kernel32:KERNEL32.dll
 0002:00000280       __imp__IsValidCodePage@4   1010e280     kernel32:KERNEL32.dll
 0002:00000284       __imp__EnumSystemLocalesA@8 1010e284     kernel32:KERNEL32.dll
 0002:00000288       __imp__GetUserDefaultLCID@0 1010e288     kernel32:KERNEL32.dll
 0002:0000028c       __imp__GetOEMCP@0          1010e28c     kernel32:KERNEL32.dll
 0002:00000290       __imp__IsBadCodePtr@4      1010e290     kernel32:KERNEL32.dll
 0002:00000294       __imp__CreateFileW@28      1010e294     kernel32:KERNEL32.dll
 0002:00000298       __imp__GetCurrentDirectoryW@8 1010e298     kernel32:KERNEL32.dll
 0002:0000029c       __imp__SetEnvironmentVariableA@8 1010e29c     kernel32:KERNEL32.dll
 0002:000002a0       __imp__SetEndOfFile@4      1010e2a0     kernel32:KERNEL32.dll
 0002:000002a4       __imp__GetLocaleInfoW@16   1010e2a4     kernel32:KERNEL32.dll
 0002:000002a8       __imp__SetEvent@4          1010e2a8     kernel32:KERNEL32.dll
 0002:000002ac       __imp__GetCurrentProcessId@0 1010e2ac     kernel32:KERNEL32.dll
 0002:000002b0       __imp__HeapValidate@12     1010e2b0     kernel32:KERNEL32.dll
 0002:000002b4       __imp__IsBadWritePtr@8     1010e2b4     kernel32:KERNEL32.dll
 0002:000002b8       __imp__HeapAlloc@12        1010e2b8     kernel32:KERNEL32.dll
 0002:000002bc       __imp__GetCurrentThreadId@0 1010e2bc     kernel32:KERNEL32.dll
 0002:000002c0       __imp__GetModuleFileNameW@12 1010e2c0     kernel32:KERNEL32.dll
 0002:000002c4       \177KERNEL32_NULL_THUNK_DATA 1010e2c4     kernel32:KERNEL32.dll
 0002:000002c8       __imp__ldap_init@8         1010e2c8     nsldap32v50:NSLDAP32V50.dll
 0002:000002cc       __imp__ldap_set_option@12  1010e2cc     nsldap32v50:NSLDAP32V50.dll
 0002:000002d0       __imp__ldap_simple_bind_s@12 1010e2d0     nsldap32v50:NSLDAP32V50.dll
 0002:000002d4       __imp__ldap_search_s@28    1010e2d4     nsldap32v50:NSLDAP32V50.dll
 0002:000002d8       __imp__ldap_count_entries@8 1010e2d8     nsldap32v50:NSLDAP32V50.dll
 0002:000002dc       __imp__ldap_first_entry@8  1010e2dc     nsldap32v50:NSLDAP32V50.dll
 0002:000002e0       __imp__ldap_first_attribute@12 1010e2e0     nsldap32v50:NSLDAP32V50.dll
 0002:000002e4       __imp__ldap_get_values_len@12 1010e2e4     nsldap32v50:NSLDAP32V50.dll
 0002:000002e8       __imp__ldap_value_free_len@4 1010e2e8     nsldap32v50:NSLDAP32V50.dll
 0002:000002ec       __imp__ldap_memfree@4      1010e2ec     nsldap32v50:NSLDAP32V50.dll
 0002:000002f0       __imp__ber_free@8          1010e2f0     nsldap32v50:NSLDAP32V50.dll
 0002:000002f4       __imp__ldap_unbind@4       1010e2f4     nsldap32v50:NSLDAP32V50.dll
 0002:000002f8       __imp__ldap_msgfree@4      1010e2f8     nsldap32v50:NSLDAP32V50.dll
 0002:000002fc       \177NSLDAP32V50_NULL_THUNK_DATA 1010e2fc     nsldap32v50:NSLDAP32V50.dll
 0002:00000300       __imp__SafeArrayPutElement@12 1010e300     oleaut32:OLEAUT32.dll
 0002:00000304       __imp__SafeArrayCreate@12  1010e304     oleaut32:OLEAUT32.dll
 0002:00000308       __imp__SafeArrayUnaccessData@4 1010e308     oleaut32:OLEAUT32.dll
 0002:0000030c       __imp__SafeArrayAccessData@8 1010e30c     oleaut32:OLEAUT32.dll
 0002:00000310       __imp__SafeArrayRedim@8    1010e310     oleaut32:OLEAUT32.dll
 0002:00000314       __imp__VariantCopy@8       1010e314     oleaut32:OLEAUT32.dll
 0002:00000318       __imp__VarUI4FromStr@16    1010e318     oleaut32:OLEAUT32.dll
 0002:0000031c       __imp__RegisterTypeLib@12  1010e31c     oleaut32:OLEAUT32.dll
 0002:00000320       __imp__UnRegisterTypeLib@20 1010e320     oleaut32:OLEAUT32.dll
 0002:00000324       __imp__SafeArrayGetDim@4   1010e324     oleaut32:OLEAUT32.dll
 0002:00000328       __imp__SafeArrayGetLBound@12 1010e328     oleaut32:OLEAUT32.dll
 0002:0000032c       __imp__SafeArrayGetUBound@12 1010e32c     oleaut32:OLEAUT32.dll
 0002:00000330       __imp__SafeArrayGetVartype@8 1010e330     oleaut32:OLEAUT32.dll
 0002:00000334       __imp__SafeArrayGetElemsize@4 1010e334     oleaut32:OLEAUT32.dll
 0002:00000338       __imp__SysAllocString@4    1010e338     oleaut32:OLEAUT32.dll
 0002:0000033c       __imp__SafeArrayGetElement@12 1010e33c     oleaut32:OLEAUT32.dll
 0002:00000340       __imp__VarBstrCat@12       1010e340     oleaut32:OLEAUT32.dll
 0002:00000344       __imp__VariantChangeType@16 1010e344     oleaut32:OLEAUT32.dll
 0002:00000348       __imp__LoadTypeLib@8       1010e348     oleaut32:OLEAUT32.dll
 0002:0000034c       __imp__LoadRegTypeLib@20   1010e34c     oleaut32:OLEAUT32.dll
 0002:00000350       __imp__SysAllocStringByteLen@8 1010e350     oleaut32:OLEAUT32.dll
 0002:00000354       __imp__VariantInit@4       1010e354     oleaut32:OLEAUT32.dll
 0002:00000358       __imp__VariantClear@4      1010e358     oleaut32:OLEAUT32.dll
 0002:0000035c       __imp__SafeArrayCopy@8     1010e35c     oleaut32:OLEAUT32.dll
 0002:00000360       __imp__GetErrorInfo@8      1010e360     oleaut32:OLEAUT32.dll
 0002:00000364       __imp__OleCreateFontIndirect@12 1010e364     oleaut32:OLEAUT32.dll
 0002:00000368       __imp__SysStringLen@4      1010e368     oleaut32:OLEAUT32.dll
 0002:0000036c       __imp__SysStringByteLen@4  1010e36c     oleaut32:OLEAUT32.dll
 0002:00000370       __imp__SysFreeString@4     1010e370     oleaut32:OLEAUT32.dll
 0002:00000374       __imp__SysAllocStringLen@8 1010e374     oleaut32:OLEAUT32.dll
 0002:00000378       \177OLEAUT32_NULL_THUNK_DATA 1010e378     oleaut32:OLEAUT32.dll
 0002:0000037c       __imp__StrStrIA@8          1010e37c     shlwapi:SHLWAPI.dll
 0002:00000380       __imp__PathFindExtensionA@4 1010e380     shlwapi:SHLWAPI.dll
 0002:00000384       __imp__StrChrA@8           1010e384     shlwapi:SHLWAPI.dll
 0002:00000388       \177SHLWAPI_NULL_THUNK_DATA 1010e388     shlwapi:SHLWAPI.dll
 0002:0000038c       __imp__GetActiveWindow@0   1010e38c     user32:USER32.dll
 0002:00000390       __imp__FindWindowExA@16    1010e390     user32:USER32.dll
 0002:00000394       __imp__SendMessageTimeoutA@28 1010e394     user32:USER32.dll
 0002:00000398       __imp__wsprintfA           1010e398     user32:USER32.dll
 0002:0000039c       __imp__CallWindowProcA@20  1010e39c     user32:USER32.dll
 0002:000003a0       __imp__InvalidateRgn@12    1010e3a0     user32:USER32.dll
 0002:000003a4       __imp__InvalidateRect@12   1010e3a4     user32:USER32.dll
 0002:000003a8       __imp__SetCapture@4        1010e3a8     user32:USER32.dll
 0002:000003ac       __imp__ReleaseCapture@0    1010e3ac     user32:USER32.dll
 0002:000003b0       __imp__CreateAcceleratorTableA@8 1010e3b0     user32:USER32.dll
 0002:000003b4       __imp__GetDC@4             1010e3b4     user32:USER32.dll
 0002:000003b8       __imp__ReleaseDC@8         1010e3b8     user32:USER32.dll
 0002:000003bc       __imp__CharNextA@4         1010e3bc     user32:USER32.dll
 0002:000003c0       __imp__GetClassNameA@12    1010e3c0     user32:USER32.dll
 0002:000003c4       __imp__RedrawWindow@16     1010e3c4     user32:USER32.dll
 0002:000003c8       __imp__BeginPaint@8        1010e3c8     user32:USER32.dll
 0002:000003cc       __imp__FillRect@12         1010e3cc     user32:USER32.dll
 0002:000003d0       __imp__EndPaint@8          1010e3d0     user32:USER32.dll
 0002:000003d4       __imp__IsChild@8           1010e3d4     user32:USER32.dll
 0002:000003d8       __imp__SetFocus@4          1010e3d8     user32:USER32.dll
 0002:000003dc       __imp__GetFocus@0          1010e3dc     user32:USER32.dll
 0002:000003e0       __imp__GetSysColor@4       1010e3e0     user32:USER32.dll
 0002:000003e4       __imp__DestroyAcceleratorTable@4 1010e3e4     user32:USER32.dll
 0002:000003e8       __imp__GetWindowTextLengthA@4 1010e3e8     user32:USER32.dll
 0002:000003ec       __imp__GetWindowTextA@12   1010e3ec     user32:USER32.dll
 0002:000003f0       __imp__SetWindowTextA@8    1010e3f0     user32:USER32.dll
 0002:000003f4       __imp__SetWindowLongA@12   1010e3f4     user32:USER32.dll
 0002:000003f8       __imp__DefWindowProcA@16   1010e3f8     user32:USER32.dll
 0002:000003fc       __imp__RegisterWindowMessageA@4 1010e3fc     user32:USER32.dll
 0002:00000400       __imp__MessageBoxA@16      1010e400     user32:USER32.dll
 0002:00000404       __imp__LoadCursorA@8       1010e404     user32:USER32.dll
 0002:00000408       __imp__RegisterClassExA@4  1010e408     user32:USER32.dll
 0002:0000040c       __imp__GetParent@4         1010e40c     user32:USER32.dll
 0002:00000410       __imp__GetWindowRect@8     1010e410     user32:USER32.dll
 0002:00000414       __imp__GetWindowLongA@8    1010e414     user32:USER32.dll
 0002:00000418       __imp__MapWindowPoints@16  1010e418     user32:USER32.dll
 0002:0000041c       __imp__SetWindowContextHelpId@8 1010e41c     user32:USER32.dll
 0002:00000420       __imp__GetDlgItem@8        1010e420     user32:USER32.dll
 0002:00000424       __imp__SetWindowPos@28     1010e424     user32:USER32.dll
 0002:00000428       __imp__CreateWindowExA@48  1010e428     user32:USER32.dll
 0002:0000042c       __imp__MsgWaitForMultipleObjects@20 1010e42c     user32:USER32.dll
 0002:00000430       __imp__PeekMessageA@20     1010e430     user32:USER32.dll
 0002:00000434       __imp__IsWindowUnicode@4   1010e434     user32:USER32.dll
 0002:00000438       __imp__GetMessageW@16      1010e438     user32:USER32.dll
 0002:0000043c       __imp__GetMessageA@16      1010e43c     user32:USER32.dll
 0002:00000440       __imp__DestroyWindow@4     1010e440     user32:USER32.dll
 0002:00000444       __imp__MapDialogRect@8     1010e444     user32:USER32.dll
 0002:00000448       __imp__GetWindow@8         1010e448     user32:USER32.dll
 0002:0000044c       __imp__IsWindow@4          1010e44c     user32:USER32.dll
 0002:00000450       __imp__EndDialog@8         1010e450     user32:USER32.dll
 0002:00000454       __imp__SendMessageW@16     1010e454     user32:USER32.dll
 0002:00000458       __imp__SendMessageA@16     1010e458     user32:USER32.dll
 0002:0000045c       __imp__SetWindowTextW@8    1010e45c     user32:USER32.dll
 0002:00000460       __imp__GetDesktopWindow@0  1010e460     user32:USER32.dll
 0002:00000464       __imp__GetClientRect@8     1010e464     user32:USER32.dll
 0002:00000468       __imp__UnregisterClassA@8  1010e468     user32:USER32.dll
 0002:0000046c       __imp__DialogBoxIndirectParamA@20 1010e46c     user32:USER32.dll
 0002:00000470       __imp__GetClassInfoExA@12  1010e470     user32:USER32.dll
 0002:00000474       __imp__TranslateMessage@4  1010e474     user32:USER32.dll
 0002:00000478       __imp__DispatchMessageA@4  1010e478     user32:USER32.dll
 0002:0000047c       __imp__DispatchMessageW@4  1010e47c     user32:USER32.dll
 0002:00000480       __imp__SystemParametersInfoA@16 1010e480     user32:USER32.dll
 0002:00000484       \177USER32_NULL_THUNK_DATA 1010e484     user32:USER32.dll
 0002:00000488       __imp__GetFileVersionInfoSizeA@8 1010e488     Version:VERSION.dll
 0002:0000048c       __imp__GetFileVersionInfoA@16 1010e48c     Version:VERSION.dll
 0002:00000490       __imp__VerQueryValueA@16   1010e490     Version:VERSION.dll
 0002:00000494       \177VERSION_NULL_THUNK_DATA 1010e494     Version:VERSION.dll
 0002:00000498       __imp__gethostbyname@4     1010e498     ws2_32:WS2_32.dll
 0002:0000049c       __imp__setsockopt@20       1010e49c     ws2_32:WS2_32.dll
 0002:000004a0       __imp__connect@12          1010e4a0     ws2_32:WS2_32.dll
 0002:000004a4       __imp__htons@4             1010e4a4     ws2_32:WS2_32.dll
 0002:000004a8       __imp__socket@12           1010e4a8     ws2_32:WS2_32.dll
 0002:000004ac       __imp__WSAStartup@8        1010e4ac     ws2_32:WS2_32.dll
 0002:000004b0       __imp__recv@16             1010e4b0     ws2_32:WS2_32.dll
 0002:000004b4       __imp__WSACleanup@0        1010e4b4     ws2_32:WS2_32.dll
 0002:000004b8       __imp__ntohl@4             1010e4b8     ws2_32:WS2_32.dll
 0002:000004bc       __imp__htonl@4             1010e4bc     ws2_32:WS2_32.dll
 0002:000004c0       __imp__inet_addr@4         1010e4c0     ws2_32:WS2_32.dll
 0002:000004c4       __imp__select@20           1010e4c4     ws2_32:WS2_32.dll
 0002:000004c8       __imp__shutdown@8          1010e4c8     ws2_32:WS2_32.dll
 0002:000004cc       __imp__closesocket@4       1010e4cc     ws2_32:WS2_32.dll
 0002:000004d0       __imp__WSAGetLastError@0   1010e4d0     ws2_32:WS2_32.dll
 0002:000004d4       __imp__send@16             1010e4d4     ws2_32:WS2_32.dll
 0002:000004d8       __imp__getsockopt@20       1010e4d8     ws2_32:WS2_32.dll
 0002:000004dc       __imp__getsockname@12      1010e4dc     ws2_32:WS2_32.dll
 0002:000004e0       __imp__bind@12             1010e4e0     ws2_32:WS2_32.dll
 0002:000004e4       __imp__listen@8            1010e4e4     ws2_32:WS2_32.dll
 0002:000004e8       __imp__ntohs@4             1010e4e8     ws2_32:WS2_32.dll
 0002:000004ec       __imp__ioctlsocket@12      1010e4ec     ws2_32:WS2_32.dll
 0002:000004f0       __imp____WSAFDIsSet@8      1010e4f0     ws2_32:WS2_32.dll
 0002:000004f4       \177WS2_32_NULL_THUNK_DATA 1010e4f4     ws2_32:WS2_32.dll
 0002:000004f8       __imp__PR_ExplodeTime      1010e4f8     libnspr4:libnspr4.dll
 0002:000004fc       __imp__PR_GMTParameters    1010e4fc     libnspr4:libnspr4.dll
 0002:00000500       __imp__PR_Init             1010e500     libnspr4:libnspr4.dll
 0002:00000504       __imp__PR_SetError         1010e504     libnspr4:libnspr4.dll
 0002:00000508       __imp__PR_GetError         1010e508     libnspr4:libnspr4.dll
 0002:0000050c       __imp__PR_Free             1010e50c     libnspr4:libnspr4.dll
 0002:00000510       __imp__PR_Delete           1010e510     libnspr4:libnspr4.dll
 0002:00000514       __imp__PR_Close            1010e514     libnspr4:libnspr4.dll
 0002:00000518       __imp__PR_Open             1010e518     libnspr4:libnspr4.dll
 0002:0000051c       __imp__PR_Now              1010e51c     libnspr4:libnspr4.dll
 0002:00000520       \177libnspr4_NULL_THUNK_DATA 1010e520     libnspr4:libnspr4.dll
 0002:00000524       __imp__PL_strdup           1010e524     libplc4:libplc4.dll
 0002:00000528       __imp__PL_strlen           1010e528     libplc4:libplc4.dll
 0002:0000052c       \177libplc4_NULL_THUNK_DATA 1010e52c     libplc4:libplc4.dll
 0002:00000530       __imp__SECITEM_DupItem     1010e530     nss3:nss3.dll
 0002:00000534       __imp__SECITEM_ZfreeItem   1010e534     nss3:nss3.dll
 0002:00000538       __imp__PORT_UCS2_UTF8Conversion 1010e538     nss3:nss3.dll
 0002:0000053c       __imp__PORT_SetUCS2_ASCIIConversionFunction 1010e53c     nss3:nss3.dll
 0002:00000540       __imp__CERT_DestroyCertList 1010e540     nss3:nss3.dll
 0002:00000544       __imp__BTOA_DataToAscii    1010e544     nss3:nss3.dll
 0002:00000548       __imp__CERT_FindCertExtension 1010e548     nss3:nss3.dll
 0002:0000054c       __imp__CERT_FindKeyUsageExtension 1010e54c     nss3:nss3.dll
 0002:00000550       __imp__PK11_FindKeyByAnyCert 1010e550     nss3:nss3.dll
 0002:00000554       __imp__SGN_Digest          1010e554     nss3:nss3.dll
 0002:00000558       __imp__PORT_GetError       1010e558     nss3:nss3.dll
 0002:0000055c       __imp__PORT_ArenaZAlloc    1010e55c     nss3:nss3.dll
 0002:00000560       __imp__PORT_FreeArena      1010e560     nss3:nss3.dll
 0002:00000564       __imp__VFY_VerifyDigest    1010e564     nss3:nss3.dll
 0002:00000568       __imp__SECKEY_ExtractPublicKey 1010e568     nss3:nss3.dll
 0002:0000056c       __imp__SECKEY_DestroyPublicKey 1010e56c     nss3:nss3.dll
 0002:00000570       __imp__PK11_GetInternalKeySlot 1010e570     nss3:nss3.dll
 0002:00000574       __imp__PK11_ImportSymKey   1010e574     nss3:nss3.dll
 0002:00000578       __imp__PK11_CreateContextBySymKey 1010e578     nss3:nss3.dll
 0002:0000057c       __imp__PK11_CreateDigestContext 1010e57c     nss3:nss3.dll
 0002:00000580       __imp__PK11_DigestBegin    1010e580     nss3:nss3.dll
 0002:00000584       __imp__PK11_DigestOp       1010e584     nss3:nss3.dll
 0002:00000588       __imp__PK11_DigestFinal    1010e588     nss3:nss3.dll
 0002:0000058c       __imp__PK11_DestroyContext 1010e58c     nss3:nss3.dll
 0002:00000590       __imp__PK11_FreeSymKey     1010e590     nss3:nss3.dll
 0002:00000594       __imp__PK11_FreeSlot       1010e594     nss3:nss3.dll
 0002:00000598       __imp__CERT_DestroyCertificate 1010e598     nss3:nss3.dll
 0002:0000059c       __imp__CERT_DestroyCertArray 1010e59c     nss3:nss3.dll
 0002:000005a0       __imp__CERT_ImportCerts    1010e5a0     nss3:nss3.dll
 0002:000005a4       __imp__SEC_DeletePermCertificate 1010e5a4     nss3:nss3.dll
 0002:000005a8       __imp__CERT_GetDefaultCertDB 1010e5a8     nss3:nss3.dll
 0002:000005ac       __imp__CERT_DestroyCertificateList 1010e5ac     nss3:nss3.dll
 0002:000005b0       __imp__CERT_VerifyCertificate 1010e5b0     nss3:nss3.dll
 0002:000005b4       __imp__PORT_NewArena       1010e5b4     nss3:nss3.dll
 0002:000005b8       __imp__CERT_CertChainFromCert 1010e5b8     nss3:nss3.dll
 0002:000005bc       __imp__SECITEM_FreeItem    1010e5bc     nss3:nss3.dll
 0002:000005c0       __imp__SEC_DestroyCrl      1010e5c0     nss3:nss3.dll
 0002:000005c4       __imp__CERT_VerifySignedData 1010e5c4     nss3:nss3.dll
 0002:000005c8       __imp__PORT_Free           1010e5c8     nss3:nss3.dll
 0002:000005cc       __imp__CERT_NameToAscii    1010e5cc     nss3:nss3.dll
 0002:000005d0       __imp__CERT_DecodeDERCrl   1010e5d0     nss3:nss3.dll
 0002:000005d4       __imp__SECITEM_CompareItem 1010e5d4     nss3:nss3.dll
 0002:000005d8       __imp__PK11_InitPin        1010e5d8     nss3:nss3.dll
 0002:000005dc       __imp__PK11_NeedUserInit   1010e5dc     nss3:nss3.dll
 0002:000005e0       __imp__PK11_Authenticate   1010e5e0     nss3:nss3.dll
 0002:000005e4       __imp__PORT_ZAlloc         1010e5e4     nss3:nss3.dll
 0002:000005e8       __imp__PORT_UCS2_ASCIIConversion 1010e5e8     nss3:nss3.dll
 0002:000005ec       __imp__PK11_SetPasswordFunc 1010e5ec     nss3:nss3.dll
 0002:000005f0       __imp__NSS_Initialize      1010e5f0     nss3:nss3.dll
 0002:000005f4       __imp__PK11_FindSlotByName 1010e5f4     nss3:nss3.dll
 0002:000005f8       __imp__PK11_ListCerts      1010e5f8     nss3:nss3.dll
 0002:000005fc       __imp__PK11_ListCertsInSlot 1010e5fc     nss3:nss3.dll
 0002:00000600       __imp__NSS_Shutdown        1010e600     nss3:nss3.dll
 0002:00000604       __imp__SECOID_FindOIDTag   1010e604     nss3:nss3.dll
 0002:00000608       __imp__SECOID_FindOIDByTag 1010e608     nss3:nss3.dll
 0002:0000060c       __imp__CERT_DecodeBasicConstraintValue 1010e60c     nss3:nss3.dll
 0002:00000610       __imp__CERT_DecodeGeneralName 1010e610     nss3:nss3.dll
 0002:00000614       __imp__SECITEM_CopyItem    1010e614     nss3:nss3.dll
 0002:00000618       __imp__SEC_QuickDERDecodeItem 1010e618     nss3:nss3.dll
 0002:0000061c       __imp__PORT_SetError       1010e61c     nss3:nss3.dll
 0002:00000620       __imp__PORT_ArenaAlloc     1010e620     nss3:nss3.dll
 0002:00000624       __imp____CERT_DecodeDERCertificate 1010e624     nss3:nss3.dll
 0002:00000628       __imp__SECKEY_DestroyPrivateKey 1010e628     nss3:nss3.dll
 0002:0000062c       __imp__CERT_DupCertificate 1010e62c     nss3:nss3.dll
 0002:00000630       __imp__PORT_Alloc          1010e630     nss3:nss3.dll
 0002:00000634       __imp__DER_UTCTimeToTime   1010e634     nss3:nss3.dll
 0002:00000638       \177nss3_NULL_THUNK_DATA   1010e638     nss3:nss3.dll
 0002:0000063c       __imp__CoUninitialize@0    1010e63c     ole32:ole32.dll
 0002:00000640       __imp__CreateStreamOnHGlobal@12 1010e640     ole32:ole32.dll
 0002:00000644       __imp__OleInitialize@4     1010e644     ole32:ole32.dll
 0002:00000648       __imp__CoGetClassObject@20 1010e648     ole32:ole32.dll
 0002:0000064c       __imp__CLSIDFromProgID@8   1010e64c     ole32:ole32.dll
 0002:00000650       __imp__CLSIDFromString@8   1010e650     ole32:ole32.dll
 0002:00000654       __imp__CoCreateInstance@20 1010e654     ole32:ole32.dll
 0002:00000658       __imp__StringFromGUID2@12  1010e658     ole32:ole32.dll
 0002:0000065c       __imp__CoTaskMemAlloc@4    1010e65c     ole32:ole32.dll
 0002:00000660       __imp__OleLockRunning@12   1010e660     ole32:ole32.dll
 0002:00000664       __imp__CoCreateGuid@4      1010e664     ole32:ole32.dll
 0002:00000668       __imp__CoInitialize@4      1010e668     ole32:ole32.dll
 0002:0000066c       __imp__CoTaskMemFree@4     1010e66c     ole32:ole32.dll
 0002:00000670       __imp__CoTaskMemRealloc@8  1010e670     ole32:ole32.dll
 0002:00000674       __imp__CoReleaseMarshalData@4 1010e674     ole32:ole32.dll
 0002:00000678       __imp__CoMarshalInterface@24 1010e678     ole32:ole32.dll
 0002:0000067c       __imp__CoUnmarshalInterface@12 1010e67c     ole32:ole32.dll
 0002:00000680       __imp__CoRevokeClassObject@4 1010e680     ole32:ole32.dll
 0002:00000684       __imp__CoRegisterClassObject@20 1010e684     ole32:ole32.dll
 0002:00000688       __imp__OleUninitialize@0   1010e688     ole32:ole32.dll
 0002:0000068c       \177ole32_NULL_THUNK_DATA  1010e68c     ole32:ole32.dll
 0002:00000690       __imp__SEC_PKCS12EnableCipher 1010e690     smime3:smime3.dll
 0002:00000694       __imp__SEC_PKCS12SetPreferredCipher 1010e694     smime3:smime3.dll
 0002:00000698       __imp__SEC_PKCS12DecoderStart 1010e698     smime3:smime3.dll
 0002:0000069c       __imp__SEC_PKCS12DecoderUpdate 1010e69c     smime3:smime3.dll
 0002:000006a0       __imp__SEC_PKCS12DecoderVerify 1010e6a0     smime3:smime3.dll
 0002:000006a4       __imp__SEC_PKCS12DecoderValidateBags 1010e6a4     smime3:smime3.dll
 0002:000006a8       __imp__SEC_PKCS12DecoderImportBags 1010e6a8     smime3:smime3.dll
 0002:000006ac       __imp__SEC_PKCS12DecoderGetCerts 1010e6ac     smime3:smime3.dll
 0002:000006b0       __imp__SEC_PKCS12DecoderFinish 1010e6b0     smime3:smime3.dll
 0002:000006b4       __imp__SEC_PKCS7CreateEnvelopedData 1010e6b4     smime3:smime3.dll
 0002:000006b8       __imp__SEC_PKCS7AddRecipient 1010e6b8     smime3:smime3.dll
 0002:000006bc       __imp__SEC_PKCS7EncoderStart 1010e6bc     smime3:smime3.dll
 0002:000006c0       __imp__SEC_PKCS7EncoderUpdate 1010e6c0     smime3:smime3.dll
 0002:000006c4       __imp__SEC_PKCS7EncoderFinish 1010e6c4     smime3:smime3.dll
 0002:000006c8       __imp__SEC_PKCS7DestroyContentInfo 1010e6c8     smime3:smime3.dll
 0002:000006cc       \177smime3_NULL_THUNK_DATA 1010e6cc     smime3:smime3.dll
 0002:000009c8       ??_C@_0FE@GCCFFNOH@C?3?2Program?5Files?2Microsoft?5Visua@ 1010e9c8     CAMClient.obj
 0002:00000a1c       ??_C@_0CA@CLKCNBMB@nIndex?5?$DO?$DN?50?5?$CG?$CG?5nIndex?5?$DM?5m_nSize?$AA@ 1010ea1c     CAMClient.obj
 0002:00000d10       ??_C@_0BM@NMJKDPPO@invalid?5vector?$DMT?$DO?5subscript?$AA@ 1010ed10     CertVerify.obj
 0002:00000d2c       ?npos@?$basic_string@DU?$char_traits@D@std@@V?$allocator@D@2@@std@@2IB 1010ed2c     CertVerify.obj
 0002:00000d30       ??_C@_0BB@MOGOBHAF@list?$DMT?$DO?5too?5long?$AA@ 1010ed30     CertVerify.obj
 0002:00000d44       ??_C@_0BD@OLBABOEK@vector?$DMT?$DO?5too?5long?$AA@ 1010ed44     CertVerify.obj
 0002:00001da0       ?rgszNeverDelete@CRegParser@ATL@@1QBQBDB 1010fda0     config.obj
 0002:00001dd0       ??_C@_0FB@DNILBHEN@C?3?2Program?5Files?2Microsoft?5Visua@ 1010fdd0     config.obj
 0002:00001e34       ??_C@_01GBGANLPD@0?$AA@    1010fe34     config.obj
 0002:00001e38       ??_C@_08DMHHBMMN@lpa?5?$CB?$DN?50?$AA@ 1010fe38     config.obj
 0002:00001e48       ??_C@_0FA@OHHMODBN@C?3?2Program?5Files?2Microsoft?5Visua@ 1010fe48     config.obj
 0002:00001e98       ??_C@_08DIHJLFDJ@lpw?5?$CB?$DN?50?$AA@ 1010fe98     config.obj
 0002:00001ea8       ??_C@_0FC@CFIFHLCH@C?3?2Program?5Files?2Microsoft?5Visua@ 1010fea8     config.obj
 0002:00001efc       ??_C@_0BF@IAAKIJDJ@AtlThrow?3?5hr?5?$DN?50x?$CFx?6?$AA@ 1010fefc     config.obj
 0002:00001f14       ??_7CConfig@@6B@           1010ff14     config.obj
 0002:00001f18       ??_C@_0BJ@OGJFCAD@nResult?5?$DN?$DN?5nConvertedLen?$AA@ 1010ff18     config.obj
 0002:00001f38       ??_C@_0FB@IAFJMJBP@C?3?2Program?5Files?2Microsoft?5Visua@ 1010ff38     config.obj
 0002:00001f8c       ??_C@_08GPODJFIN@m_p?5?$DN?$DN?50?$AA@ 1010ff8c     config.obj
 0002:000044a0       ??_7CLicense@@6B@          101124a0     License.obj
 0002:00004e70       ??_7CShowSelectCert@@6B@   10112e70     ShowSelectCert.obj
 0002:00004e84       ??_C@_0CE@BJCBICOJ@c?3?2activex?2xmlsign?2ShowSelectCer@ 10112e84     ShowSelectCert.obj
 0002:00004ea8       ??_C@_0BN@BNLFFEBD@Invalid?5message?5map?5ID?5?$CI?$CFi?$CJ?6?$AA@ 10112ea8     ShowSelectCert.obj
 0002:00004ec8       ??_C@_0FC@KBOEFHBO@C?3?2Program?5Files?2Microsoft?5Visua@ 10112ec8     ShowSelectCert.obj
 0002:00004f1c       ??_C@_0O@LPAFDJOF@bstrText?5?$DN?$DN?50?$AA@ 10112f1c     ShowSelectCert.obj
 0002:00004f2c       ??_C@_08LIEICNMC@m_bModal?$AA@ 10112f2c     ShowSelectCert.obj
 0002:00004f38       ??_C@_0EP@FECMNBMC@C?3?2Program?5Files?2Microsoft?5Visua@ 10112f38     ShowSelectCert.obj
 0002:00004f88       ??_C@_0BD@OAFOKPBM@?3?3IsWindow?$CIm_hWnd?$CJ?$AA@ 10112f88     ShowSelectCert.obj
 0002:00004f9c       ??_C@_0BF@CCFFBNDL@?$CI?$CIHRESULT?$CJ?$CIhr?$CJ?5?$DO?$DN?50?$CJ?$AA@ 10112f9c     ShowSelectCert.obj
 0002:00004fb4       __GUID_3935bda8_4ed9_495c_8650_e01fc1e38a4b 10112fb4     ShowSelectCert.obj
 0002:00004fc4       __GUID_00000000_0000_0000_c000_000000000046 10112fc4     ShowSelectCert.obj
 0002:00004fd4       ??_C@_07MEKCDCMA@pp?5?$CB?$DN?50?$AA@ 10112fd4     ShowSelectCert.obj
 0002:00004fdc       ??_C@_0L@PGEBGEDK@ppUnk?5?$CB?$DN?50?$AA@ 10112fdc     ShowSelectCert.obj
 0002:00004fe8       ??_C@_09BNFEDJPE@?$CBm_bModal?$AA@ 10112fe8     ShowSelectCert.obj
 0002:00004ff4       ??_C@_0L@KAJDHFFC@dwLen?5?$DN?$DN?50?$AA@ 10112ff4     ShowSelectCert.obj
 0002:00005000       ??_C@_0M@MFNOGLO@m_hWnd?5?$DN?$DN?50?$AA@ 10113000     ShowSelectCert.obj
 0002:0000500c       ??_C@_0BH@LBNLFONB@?3?3IsWindow?$CIhWndCenter?$CJ?$AA@ 1011300c     ShowSelectCert.obj
 0002:00005024       ??_C@_0BH@ENLIMLGL@?3?3IsWindow?$CIhWndParent?$CJ?$AA@ 10113024     ShowSelectCert.obj
 0002:0000503c       __GUID_b6ea2050_048a_11d1_82b9_00c04fb9942e 1011303c     ShowSelectCert.obj
 0002:0000504c       ??_C@_0BB@ICJMLDDL@WM_ATLGETCONTROL?$AA@ 1011304c     ShowSelectCert.obj
 0002:00005060       ??_C@_0O@POPOELFC@WM_ATLGETHOST?$AA@ 10113060     ShowSelectCert.obj
 0002:00005070       ??_C@_0FA@NHACCMFP@C?3?2Program?5Files?2Microsoft?5Visua@ 10113070     ShowSelectCert.obj
 0002:000050c0       ??_C@_0DJ@HGBKDMEN@ERROR?5?3?5Unable?5to?5lock?5critical?5@ 101130c0     ShowSelectCert.obj
 0002:000050fc       ??_C@_0BD@CFOEICJD@WM_ATLGETHOST?5?$CB?$DN?50?$AA@ 101130fc     ShowSelectCert.obj
 0002:00005110       ??_C@_04DBLLIIGB@p?$DN?$DN0?$AA@ 10113110     ShowSelectCert.obj
 0002:00005118       ??_C@_04CLHEGAEG@p?$CB?$DN0?$AA@ 10113118     ShowSelectCert.obj
 0002:00005120       ??_C@_0DE@JJEOCICO@ERROR?5?9?5Object?5deleted?5before?5wi@ 10113120     ShowSelectCert.obj
 0002:00005154       ??_C@_0L@EFNCNKLF@AtlAxWin71?$AA@ 10113154     ShowSelectCert.obj
 0002:00005160       ??_C@_0O@HHPDHHJB@AtlAxWinLic71?$AA@ 10113160     ShowSelectCert.obj
 0002:00005170       ??_C@_0EP@FBJOMLAB@C?3?2Program?5Files?2Microsoft?5Visua@ 10113170     ShowSelectCert.obj
 0002:000051c0       ??_C@_08NEPKAPOI@ppv?5?$CB?$DN?50?$AA@ 101131c0     ShowSelectCert.obj
 0002:000051cc       ??_C@_0N@JELNCKOF@m_dwRef?5?$DN?$DN?50?$AA@ 101131cc     ShowSelectCert.obj
 0002:000051dc       ??_7?$CComPolyObject@VCAxHostWindow@ATL@@@ATL@@6B@ 101131dc     ShowSelectCert.obj
 0002:000051ec       ??_C@_0P@IDNKKMJE@m_dwRef?5?$CB?$DN?5?91L?$AA@ 101131ec     ShowSelectCert.obj
 0002:00005200       ??_C@_0EC@FOHBGNDM@0?5?$CG?$CG?5?$CCRelease?5called?5on?5a?5pointe@ 10113200     ShowSelectCert.obj
 0002:00005244       ??_C@_0P@BMHEGBAP@ppvObject?5?$CB?$DN?50?$AA@ 10113244     ShowSelectCert.obj
 0002:00005254       ??_C@_0DC@BBKMJDPM@pEntries?9?$DOpFunc?5?$DN?$DN?5?$CI?$CIATL?3?3_ATL_C@ 10113254     ShowSelectCert.obj
 0002:00005288       ??_C@_0L@DBHNDLKF@pThis?5?$CB?$DN?50?$AA@ 10113288     ShowSelectCert.obj
 0002:00005294       __GUID_0000010f_0000_0000_c000_000000000046 10113294     ShowSelectCert.obj
 0002:000052a4       __GUID_bd3f23c0_d43e_11cf_893b_00aa00bdce1a 101132a4     ShowSelectCert.obj
 0002:000052b4       __GUID_b6ea2051_048a_11d1_82b9_00c04fb9942e 101132b4     ShowSelectCert.obj
 0002:000052c4       __GUID_b2d0778b_ac99_4c58_a5c8_e7724e5316b5 101132c4     ShowSelectCert.obj
 0002:000052d4       __GUID_6d5140c1_7436_11ce_8034_00aa006009fa 101132d4     ShowSelectCert.obj
 0002:000052e4       __GUID_fc4801a3_2ba9_11cf_a229_00aa003d7352 101132e4     ShowSelectCert.obj
 0002:000052f4       __GUID_0000011b_0000_0000_c000_000000000046 101132f4     ShowSelectCert.obj
 0002:00005304       __GUID_b196b289_bab4_101a_b69c_00aa00341d07 10113304     ShowSelectCert.obj
 0002:00005314       __GUID_00000114_0000_0000_c000_000000000046 10113314     ShowSelectCert.obj
 0002:00005324       __GUID_00000119_0000_0000_c000_000000000046 10113324     ShowSelectCert.obj
 0002:00005334       __GUID_9c2cad80_3424_11cf_b670_00aa004cd6d8 10113334     ShowSelectCert.obj
 0002:00005344       __GUID_922eada0_3424_11cf_b670_00aa004cd6d8 10113344     ShowSelectCert.obj
 0002:00005354       __GUID_00000118_0000_0000_c000_000000000046 10113354     ShowSelectCert.obj
 0002:00005364       __GUID_00020400_0000_0000_c000_000000000046 10113364     ShowSelectCert.obj
 0002:00005374       ??_C@_0O@IEKIGPOE@CAxHostWindow?$AA@ 10113374     ShowSelectCert.obj
 0002:00005388       ?_entries@?1??_GetEntries@CAxHostWindow@ATL@@SGPBU_ATL_INTMAP_ENTRY@3@XZ@4QBU43@B 10113388     ShowSelectCert.obj
 0002:00005460       ??_7?$CComContainedObject@VCAxHostWindow@ATL@@@ATL@@6B?$IDispatchImpl@UIAxWinAmbientDispatchEx@@$1?_GUID_b2d0778b_ac99_4c58_a5c8_e7724e5316b5@@3U__s_GUID@@B$1?m_libid@CAtlModule@ATL@@2U_GUID@@A$0PPPP@$0PPPP@VCComTypeInfoHolder@ATL@@@1@@ 10113460     ShowSelectCert.obj
 0002:000054f0       ??_7?$CComContainedObject@VCAxHostWindow@ATL@@@ATL@@6BIDocHostUIHandler@@@ 101134f0     ShowSelectCert.obj
 0002:00005538       ??_7?$CComContainedObject@VCAxHostWindow@ATL@@@ATL@@6BIAdviseSink@@@ 10113538     ShowSelectCert.obj
 0002:00005558       ??_7?$CComContainedObject@VCAxHostWindow@ATL@@@ATL@@6BIServiceProvider@@@ 10113558     ShowSelectCert.obj
 0002:00005568       ??_7?$CComContainedObject@VCAxHostWindow@ATL@@@ATL@@6B?$IObjectWithSiteImpl@VCAxHostWindow@ATL@@@1@@ 10113568     ShowSelectCert.obj
 0002:00005580       ??_7?$CComContainedObject@VCAxHostWindow@ATL@@@ATL@@6BIOleContainer@@@ 10113580     ShowSelectCert.obj
 0002:00005598       ??_7?$CComContainedObject@VCAxHostWindow@ATL@@@ATL@@6BIOleControlSite@@@ 10113598     ShowSelectCert.obj
 0002:000055c0       ??_7?$CComContainedObject@VCAxHostWindow@ATL@@@ATL@@6BIOleInPlaceSiteWindowless@@@ 101135c0     ShowSelectCert.obj
 0002:00005638       ??_7?$CComContainedObject@VCAxHostWindow@ATL@@@ATL@@6BIOleClientSite@@@ 10113638     ShowSelectCert.obj
 0002:0000565c       ??_7?$CComContainedObject@VCAxHostWindow@ATL@@@ATL@@6BIAxWinHostWindowLic@@@ 1011365c     ShowSelectCert.obj
 0002:00005688       ??_7?$CComContainedObject@VCAxHostWindow@ATL@@@ATL@@6B?$CWindowImpl@VCAxHostWindow@ATL@@VCWindow@2@V?$CWinTraits@$0FGAAAAAA@$0A@@2@@1@@ 10113688     ShowSelectCert.obj
 0002:0000569c       ??_C@_0M@NJNLJPMN@lParam?5?$CB?$DN?50?$AA@ 1011369c     ShowSelectCert.obj
 0002:000056a8       __GUID_d30c1661_cdaf_11d0_8a3e_00c04fc9e26e 101136a8     ShowSelectCert.obj
 0002:000056b8       __GUID_7fd52380_4e07_101b_ae2d_08002b2ec713 101136b8     ShowSelectCert.obj
 0002:000056c8       ??_C@_06FGFHJIJL@?$CD32770?$AA@ 101136c8     ShowSelectCert.obj
 0002:000056d0       __GUID_b196b28f_bab4_101a_b69c_00aa00341d07 101136d0     ShowSelectCert.obj
 0002:000056e0       __GUID_8856f961_340a_11d0_a96b_00c04fd705a2 101136e0     ShowSelectCert.obj
 0002:000056f0       __GUID_25336920_03f9_11cf_8fd0_00aa00686f13 101136f0     ShowSelectCert.obj
 0002:00005700       __GUID_00000122_0000_0000_c000_000000000046 10113700     ShowSelectCert.obj
 0002:00005710       ??_C@_0BC@PLOCGENL@ppDropTarget?5?$CB?$DN?50?$AA@ 10113710     ShowSelectCert.obj
 0002:00005724       ??_C@_0BA@NNOLHPBE@ppDispatch?5?$CB?$DN?50?$AA@ 10113724     ShowSelectCert.obj
 0002:00005734       ??_C@_0BA@INEFCEPO@ppchURLOut?5?$CB?$DN?50?$AA@ 10113734     ShowSelectCert.obj
 0002:00005744       __GUID_0000010e_0000_0000_c000_000000000046 10113744     ShowSelectCert.obj
 0002:00005754       ??_C@_0N@KFNKBCLH@ppDORet?5?$CB?$DN?50?$AA@ 10113754     ShowSelectCert.obj
 0002:00005764       ??_C@_0BH@JHFFPENB@pbAllowWindowless?5?$CB?$DN?50?$AA@ 10113764     ShowSelectCert.obj
 0002:0000577c       ??_C@_0BE@DDJGHAOM@pclrBackground?5?$CB?$DN?50?$AA@ 1011377c     ShowSelectCert.obj
 0002:00005790       ??_C@_0BE@LIPPFLE@pclrForeground?5?$CB?$DN?50?$AA@ 10113790     ShowSelectCert.obj
 0002:000057a4       ??_C@_0BD@GDKLOMEM@plcidLocaleID?5?$CB?$DN?50?$AA@ 101137a4     ShowSelectCert.obj
 0002:000057b8       ??_C@_0BA@OPEFOKNK@pbUserMode?5?$CB?$DN?50?$AA@ 101137b8     ShowSelectCert.obj
 0002:000057c8       ??_C@_0BI@NOFOIMNO@pbDisplayAsDefault?5?$CB?$DN?50?$AA@ 101137c8     ShowSelectCert.obj
 0002:000057e0       __GUID_bef6e003_a874_101a_8bba_00aa00300cab 101137e0     ShowSelectCert.obj
 0002:000057f0       ??_C@_0L@LJCFDACO@pFont?5?$CB?$DN?50?$AA@ 101137f0     ShowSelectCert.obj
 0002:000057fc       ??_C@_0BG@FLHHODIE@pbMessageReflect?5?$CB?$DN?50?$AA@ 101137fc     ShowSelectCert.obj
 0002:00005814       ??_C@_0BE@JEDDFNM@pbShowHatching?5?$CB?$DN?50?$AA@ 10113814     ShowSelectCert.obj
 0002:00005828       ??_C@_0BF@IJHKDPOI@pdwDocHostFlags?5?$CB?$DN?50?$AA@ 10113828     ShowSelectCert.obj
 0002:00005840       ??_C@_0CA@LFBHCFDK@pdwDocHostDoubleClickFlags?5?$CB?$DN?50?$AA@ 10113840     ShowSelectCert.obj
 0002:00005860       ??_C@_0BI@OGJLKJIH@pbAllowContextMenu?5?$CB?$DN?50?$AA@ 10113860     ShowSelectCert.obj
 0002:00005878       ??_C@_0BD@CGGOPJAM@pbAllowShowUI?5?$CB?$DN?50?$AA@ 10113878     ShowSelectCert.obj
 0002:0000588c       ??_C@_0BI@IKNLNBPD@pbstrOptionKeyPath?5?$CB?$DN?50?$AA@ 1011388c     ShowSelectCert.obj
 0002:000058a4       ??_C@_0BN@CCGAKCJM@?$CBhr?5?$CG?$CG?5?$CCNo?5ServiceProvider?$CB?$CC?$AA@ 101138a4     ShowSelectCert.obj
 0002:000058c4       ??_C@_0BE@MNNNBAEJ@No?5ServiceProvider?$CB?$AA@ 101138c4     ShowSelectCert.obj
 0002:000058d8       ??_C@_0BK@HFBNDALM@ATL?3?5?$CFs?5not?5implemented?4?6?$AA@ 101138d8     ShowSelectCert.obj
 0002:000058f4       ??_C@_0BL@CNPLMFBE@IOleClientSite?3?3SaveObject?$AA@ 101138f4     ShowSelectCert.obj
 0002:00005910       ??_C@_0BL@HDINKMHC@IOleClientSite?3?3GetMoniker?$AA@ 10113910     ShowSelectCert.obj
 0002:0000592c       ??_C@_0BB@IKOGDFNC@ppContainer?5?$CB?$DN?50?$AA@ 1011392c     ShowSelectCert.obj
 0002:00005940       ??_C@_0BO@KEMGAJPK@IOleClientSite?3?3GetContainer?6?$AA@ 10113940     ShowSelectCert.obj
 0002:00005960       ??_C@_0BN@FMNOCGEC@IOleClientSite?3?3ShowObject?$AN?6?$AA@ 10113960     ShowSelectCert.obj
 0002:00005980       ??_C@_0BN@BIBMKNOD@IOleClientSite?3?3OnShowWindow?$AA@ 10113980     ShowSelectCert.obj
 0002:000059a0       ??_C@_0CH@INFDHCMD@IOleClientSite?3?3RequestNewObject@ 101139a0     ShowSelectCert.obj
 0002:000059c8       ??_C@_0CG@NBALHJKL@IOleInPlaceSite?3?3ContextSensitiv@ 101139c8     ShowSelectCert.obj
 0002:000059f0       __GUID_00000113_0000_0000_c000_000000000046 101139f0     ShowSelectCert.obj
 0002:00005a00       ??_C@_0CB@FKHKLPMP@m_spInPlaceObjectWindowless?5?$DN?$DN?50@ 10113a00     ShowSelectCert.obj
 0002:00005a24       ??_C@_0BG@DFBPOHKH@m_bInPlaceActive?5?$DN?$DN?50?$AA@ 10113a24     ShowSelectCert.obj
 0002:00005a3c       ??_C@_0BP@BDGDJPEF@IOleInPlaceSite?3?3OnUIActivate?6?$AA@ 10113a3c     ShowSelectCert.obj
 0002:00005a5c       ??_C@_0BE@OHNINIJH@m_spInPlaceUIWindow?$AA@ 10113a5c     ShowSelectCert.obj
 0002:00005a70       __GUID_00000115_0000_0000_c000_000000000046 10113a70     ShowSelectCert.obj
 0002:00005a80       ??_C@_0BB@OJFGBHML@m_spInPlaceFrame?$AA@ 10113a80     ShowSelectCert.obj
 0002:00005a94       __GUID_00000116_0000_0000_c000_000000000046 10113a94     ShowSelectCert.obj
 0002:00005aa4       ??_C@_05LAPONLG@false?$AA@ 10113aa4     ShowSelectCert.obj
 0002:00005aac       ??_C@_0BI@LMFIJFLF@IOleInPlaceSite?3?3Scroll?$AA@ 10113aac     ShowSelectCert.obj
 0002:00005ac4       ??_C@_0CB@DPJACDKI@IOleInPlaceSite?3?3OnUIDeactivate?6@ 10113ac4     ShowSelectCert.obj
 0002:00005ae8       ??_C@_0CC@DHNOFCHL@IOleInPlaceSite?3?3DiscardUndoStat@ 10113ae8     ShowSelectCert.obj
 0002:00005b0c       ??_C@_0CD@HDPLACCC@IOleInPlaceSite?3?3DeactivateAndUn@ 10113b0c     ShowSelectCert.obj
 0002:00005b30       ??_C@_0CB@EMPHOJEH@IOleInPlaceSite?3?3OnPosRectChange@ 10113b30     ShowSelectCert.obj
 0002:00005b54       __GUID_1c2056cc_5ef4_101b_8bc8_00aa003e3b29 10113b54     ShowSelectCert.obj
 0002:00005b64       ??_C@_0BP@OACOCMEL@CAxHostWindow?3?3TransformCoords?$AA@ 10113b64     ShowSelectCert.obj
 0002:00005b84       ??_C@_0CB@LHNPGPLG@CAxHostWindow?3?3ShowPropertyFrame@ 10113b84     ShowSelectCert.obj
 0002:00005ba8       ??_C@_0CA@JLJFMEKB@CAxHostWindow?3?3ParseDisplayName?$AA@ 10113ba8     ShowSelectCert.obj
 0002:00005bc8       __GUID_00000100_0000_0000_c000_000000000046 10113bc8     ShowSelectCert.obj
 0002:00005bd8       ??_C@_1M@IJFAIKMG@?$AAA?$AAX?$AAW?$AAI?$AAN?$AA?$AA@ 10113bd8     ShowSelectCert.obj
 0002:00005be4       __GUID_0000010d_0000_0000_c000_000000000046 10113be4     ShowSelectCert.obj
 0002:00005bf4       __GUID_00000127_0000_0000_c000_000000000046 10113bf4     ShowSelectCert.obj
 0002:00005c04       __GUID_3af24292_0c96_11ce_a0cf_00aa00600ab8 10113c04     ShowSelectCert.obj
 0002:00005c14       __GUID_00000112_0000_0000_c000_000000000046 10113c14     ShowSelectCert.obj
 0002:00005c24       ??_C@_0BG@FBJLDDEB@?3?3IsWindow?$CIhWndChild?$CJ?$AA@ 10113c24     ShowSelectCert.obj
 0002:00005c3c       ??_C@_0M@HHBDEBO@ppvObj?5?$CB?$DN?50?$AA@ 10113c3c     ShowSelectCert.obj
 0002:00005c48       ??_C@_0P@MGJHNDPC@hDCScreen?5?$CB?$DN?50?$AA@ 10113c48     ShowSelectCert.obj
 0002:00005c58       ??_C@_08IMNICHFN@ppT?5?$CB?$DN?50?$AA@ 10113c58     ShowSelectCert.obj
 0002:00005c64       ??_C@_0BO@GGAAJPMM@IObjectWithSiteImpl?3?3SetSite?6?$AA@ 10113c64     ShowSelectCert.obj
 0002:00005c84       ??_C@_07HFHBNNAN@ppvSite?$AA@ 10113c84     ShowSelectCert.obj
 0002:00005c8c       ??_C@_0BO@JHCMIMLB@IObjectWithSiteImpl?3?3GetSite?6?$AA@ 10113c8c     ShowSelectCert.obj
 0002:00005cac       ??_C@_0M@NNHBFKBG@ppInfo?5?$CB?$DN?50?$AA@ 10113cac     ShowSelectCert.obj
 0002:00005cb8       ??_C@_0FB@GGFNIACC@?7IDispatchImpl?0?5CStockPropImpl?0?5@ 10113cb8     ShowSelectCert.obj
 0002:00005d0c       ??_C@_0DE@PFCDKHBK@?7Verify?5TypelibID?5and?5major?5vers@ 10113d0c     ShowSelectCert.obj
 0002:00005d40       ??_C@_0DG@JANIJOBP@ERROR?5?3?5Unable?5to?5load?5Typelibra@ 10113d40     ShowSelectCert.obj
 0002:00005d78       ??_C@_0DN@OOAEELGE@?7See?5IDispatchImpl?5overview?5help@ 10113d78     ShowSelectCert.obj
 0002:00005db8       ??_C@_0GE@IPBGNBKO@Warning?5?3?5CComTypeInfoHolder?3?3Ge@ 10113db8     ShowSelectCert.obj
 0002:00005e20       ??_C@_0EG@JLAFHAGH@ERROR?5?3?5Unable?5to?5lock?5critical?5@ 10113e20     ShowSelectCert.obj
 0002:00005e68       ??_C@_0GE@MNEAPMLF@?$CBInlineIsEqualGUID?$CI?$CKm_plibid?0?5GU@ 10113e68     ShowSelectCert.obj
 0002:00005ecc       ??_C@_0DG@CJCBGKEH@Did?5you?5forget?5to?5pass?5the?5LIBID@ 10113ecc     ShowSelectCert.obj
 0002:00005f04       ??_C@_0BO@GHLKPFE@m_plibid?5?$CB?$DN?50?5?$CG?$CG?5m_pguid?5?$CB?$DN?50?$AA@ 10113f04     ShowSelectCert.obj
 0002:00005f24       ??_C@_07PJPEDDJP@dw?5?$CB?$DN?50?$AA@ 10113f24     ShowSelectCert.obj
 0002:00005f2c       __GUID_00000117_0000_0000_c000_000000000046 10113f2c     ShowSelectCert.obj
 0002:00005f3c       __GUID_b196b288_bab4_101a_b69c_00aa00341d07 10113f3c     ShowSelectCert.obj
 0002:00005f4c       ??_7?$CComObject@V?$CComEnum@UIEnumUnknown@@$1?_GUID_00000100_0000_0000_c000_000000000046@@3U__s_GUID@@BPAUIUnknown@@V?$_CopyInterface@UIUnknown@@@ATL@@VCComSingleThreadModel@6@@ATL@@@ATL@@6B@ 10113f4c     ShowSelectCert.obj
 0002:00005f6c       __GUID_00000109_0000_0000_c000_000000000046 10113f6c     ShowSelectCert.obj
 0002:00005f7c       ??_C@_09BEHAHIFA@_CComEnum?$AA@ 10113f7c     ShowSelectCert.obj
 0002:00005f88       ?_entries@?1??_GetEntries@?$CComEnum@UIEnumUnknown@@$1?_GUID_00000100_0000_0000_c000_000000000046@@3U__s_GUID@@BPAUIUnknown@@V?$_CopyInterface@UIUnknown@@@ATL@@VCComSingleThreadModel@6@@ATL@@SGPBU_ATL_INTMAP_ENTRY@3@XZ@4QBU43@B 10113f88     ShowSelectCert.obj
 0002:00005fb0       ??_C@_0FA@KBNNCCJL@C?3?2Program?5Files?2Microsoft?5Visua@ 10113fb0     ShowSelectCert.obj
 0002:00006000       ??_C@_09HIEJFN@m_bLocked?$AA@ 10114000     ShowSelectCert.obj
 0002:0000600c       ??_C@_0L@MPGHMANA@?$CBm_bLocked?$AA@ 1011400c     ShowSelectCert.obj
 0002:00006018       __GUID_00020412_0000_0000_c000_000000000046 10114018     ShowSelectCert.obj
 0002:00006028       __GUID_00020401_0000_0000_c000_000000000046 10114028     ShowSelectCert.obj
 0002:00006038       ??_C@_06CIAHICCP@pThunk?$AA@ 10114038     ShowSelectCert.obj
 0002:00006040       ??_7?$CComObject@VCAxFrameWindow@ATL@@@ATL@@6BIOleInPlaceFrame@@@ 10114040     ShowSelectCert.obj
 0002:0000607c       ??_7?$CComObject@VCAxFrameWindow@ATL@@@ATL@@6B?$CWindowImpl@VCAxFrameWindow@ATL@@VCWindow@2@V?$CWinTraits@$0FGAAAAAA@$0A@@2@@1@@ 1011407c     ShowSelectCert.obj
 0002:0000608c       ??_C@_0BD@LIOMMJMF@AXWIN?5Frame?5Window?$AA@ 1011408c     ShowSelectCert.obj
 0002:000060a0       ??_C@_0L@JIHHHPOK@phwnd?5?$CB?$DN?50?$AA@ 101140a0     ShowSelectCert.obj
 0002:000060ac       ??_C@_0P@MFMDEJMN@CAxFrameWindow?$AA@ 101140ac     ShowSelectCert.obj
 0002:000060bc       ?_entries@?1??_GetEntries@CAxFrameWindow@ATL@@SGPBU_ATL_INTMAP_ENTRY@3@XZ@4QBU43@B 101140bc     ShowSelectCert.obj
 0002:000060f8       ??_7?$CComObject@VCAxUIWindow@ATL@@@ATL@@6BIOleInPlaceUIWindow@@@ 101140f8     ShowSelectCert.obj
 0002:0000611c       ??_7?$CComObject@VCAxUIWindow@ATL@@@ATL@@6B?$CWindowImpl@VCAxUIWindow@ATL@@VCWindow@2@V?$CWinTraits@$0FGAAAAAA@$0A@@2@@1@@ 1011411c     ShowSelectCert.obj
 0002:0000612c       ??_C@_0BA@FJBCDDKK@AXWIN?5UI?5Window?$AA@ 1011412c     ShowSelectCert.obj
 0002:0000613c       ??_C@_0M@EHKCMBND@CAxUIWindow?$AA@ 1011413c     ShowSelectCert.obj
 0002:00006148       ?_entries@?1??_GetEntries@CAxUIWindow@ATL@@SGPBU_ATL_INTMAP_ENTRY@3@XZ@4QBU43@B 10114148     ShowSelectCert.obj
 0002:00006178       ??_C@_0BB@BIGOECOI@p?9?$DOpWndProc?5?$CB?$DN?50?$AA@ 10114178     ShowSelectCert.obj
 0002:0000618c       ??_C@_0DK@EAELIHNL@ERROR?5?3?5Could?5not?5obtain?5Window?5@ 1011418c     ShowSelectCert.obj
 0002:000061c8       ??_C@_0L@KAMJMGHJ@pProc?5?$CB?$DN?50?$AA@ 101141c8     ShowSelectCert.obj
 0002:000061d8       ??_C@_0EL@KHCGDDHE@ERROR?5?3?5Unable?5to?5lock?5critical?5@ 101141d8     ShowSelectCert.obj
 0002:00006224       ??_C@_0DN@BIGELNIF@ERROR?5?3?5Invalid?5Arguments?5to?5Atl@ 10114224     ShowSelectCert.obj
 0002:00006264       ??_C@_09OOFFBKGI@ATL?3?$CF8?48X?$AA@ 10114264     ShowSelectCert.obj
 0002:00006270       ??_C@_04LOGEFONP@bRet?$AA@ 10114270     ShowSelectCert.obj
 0002:000062a4       _IID_IePad                 101142a4     Signature.obj
 0002:000062b4       _LIBID_SECUREPADLib        101142b4     Signature.obj
 0002:000062c4       _CLSID_ePad                101142c4     Signature.obj
 0002:0000d198       ??_7SigException@@6B@      1011b198     Signature.obj
 0002:0000d1a0       ??_C@_0CG@PAOIECBF@s?5?$DN?$DN?50?5?$HM?$HM?5?$CIconst?5wchar_t?$CK?$CJ?5?$CKthis@ 1011b1a0     Signature.obj
 0002:0000d1c8       ??_C@_0EJ@DPIMAKHN@C?3?2Program?5Files?2Microsoft?5Visua@ 1011b1c8     Signature.obj
 0002:0000d214       __GUID_0d61aa35_48d5_47f5_8249_f685f75250fd 1011b214     Signature.obj
 0002:0000d224       __GUID_0674a7d1_0a9c_4fe4_b914_96bcc6edc4cf 1011b224     Signature.obj
 0002:0000d234       __GUID_f18805cc_5075_4d36_bb01_76a4caf6ee31 1011b234     Signature.obj
 0002:0000d244       __GUID_c8be4864_227a_4a1b_84ee_473681bd4872 1011b244     Signature.obj
 0002:0000d254       __GUID_0a06154b_8ff9_48b2_a819_b68c327fc773 1011b254     Signature.obj
 0002:0000d264       __GUID_12f2bf07_dc45_4684_a4bc_8a5f44984777 1011b264     Signature.obj
 0002:0000d274       __GUID_d8f3211f_302f_45db_8187_cdf6b7677d90 1011b274     Signature.obj
 0002:0000d284       ??_7CBufferVariant@@6B@    1011b284     Signature.obj
 0002:0000d288       __GUID_b15c7688_86e5_48bd_9c71_1e131cd191a9 1011b288     Signature.obj
 0002:0000d298       ??_C@_0BO@OBIGOAOM@AtlIsValidString?$CI?5pszFormat?5?$CJ?$AA@ 1011b298     Signature.obj
 0002:0000d2b8       ??_7?$basic_ios@DU?$char_traits@D@std@@@std@@6B@ 1011b2b8     Signature.obj
 0002:0000d2bc       ??_7?$basic_ofstream@DU?$char_traits@D@std@@@std@@6B@ 1011b2bc     Signature.obj
 0002:0000d2c0       ??_8?$basic_ofstream@DU?$char_traits@D@std@@@std@@7B@ 1011b2c0     Signature.obj
 0002:0000d2c8       ??_7?$basic_ostream@DU?$char_traits@D@std@@@std@@6B@ 1011b2c8     Signature.obj
 0002:0000d2cc       ??_7?$basic_filebuf@DU?$char_traits@D@std@@@std@@6B@ 1011b2cc     Signature.obj
 0002:0000d300       ??_7?$basic_streambuf@DU?$char_traits@D@std@@@std@@6B@ 1011b300     Signature.obj
 0002:0000d334       ?npos@?$basic_string@DU?$char_traits@D@std@@V?$_DebugHeapAllocator@D@2@@std@@2IB 1011b334     Signature.obj
 0002:0000d338       ??_C@_0FD@MKDEOELP@C?3?2Program?5Files?2Microsoft?5Visua@ 1011b338     Signature.obj
 0002:0000d38c       ??_C@_0BA@GOIMFHNK@pStringMgr?5?$CB?$DN?50?$AA@ 1011b38c     Signature.obj
 0002:0000d39c       ??_C@_0L@OIIMFBNE@nRefs?5?$CB?$DN?50?$AA@ 1011b39c     Signature.obj
 0002:0000d3a8       ??_8?$basic_ostream@DU?$char_traits@D@std@@@std@@7B@ 1011b3a8     Signature.obj
 0002:0000d3b0       ??_C@_0EH@FCAPEONK@C?3?2Program?5Files?2Microsoft?5Visua@ 1011b3b0     Signature.obj
 0002:0000d3f8       ??_C@_0BA@GNIEOBOF@nNewLength?5?$DO?$DN?50?$AA@ 1011b3f8     Signature.obj
 0002:0000d408       ??_C@_0EJ@EMNMEGHE@C?3?2Program?5Files?2Microsoft?5Visua@ 1011b408     Signature.obj
 0002:0000d458       ??_C@_0EG@DKHIMJLN@C?3?2Program?5Files?2Microsoft?5Visua@ 1011b458     Signature.obj
 0002:0000d4a0       ??_C@_0CD@EEFFJEGJ@nLength?5?$DM?$DN?5GetData?$CI?$CJ?9?$DOnAllocLeng@ 1011b4a0     Signature.obj
 0002:0000d4c4       ??_C@_0N@ILOMLJGA@nLength?5?$DO?$DN?50?$AA@ 1011b4c4     Signature.obj
 0002:0000d4d4       ??_C@_08EPJLHIJG@bad?5cast?$AA@ 1011b4d4     Signature.obj
 0002:0000d4e0       ??_C@_0EH@NBFKEDIC@C?3?2Program?5Files?2Microsoft?5Visua@ 1011b4e0     Signature.obj
 0002:0000d528       ??_C@_01GFHCPBMG@C?$AA@    1011b528     Signature.obj
 0002:0000d52c       ??_7?$ctype@D@std@@6B@     1011b52c     Signature.obj
 0002:0000d550       ??_7ctype_base@std@@6B@    1011b550     Signature.obj
 0002:0000d554       ??_7?$codecvt@DDH@std@@6B@ 1011b554     Signature.obj
 0002:0000d574       ??_7codecvt_base@std@@6B@  1011b574     Signature.obj
 0002:0000d584       ??_C@_0CB@GFHAPKDK@pOldData?9?$DOnAllocLength?5?$DM?5nLength@ 1011b584     Signature.obj
 0002:0000d5a8       ??_C@_0EM@CKDPENDE@cbItem?5?$DO?$DN?5?$CIbDialogEx?5?$DP?5sizeof?$CIDL@ 1011b5a8     Signature.obj
 0002:0000dc88       __real@41efffffffe00000    1011bc88     Sntp.obj
 0002:0000dc90       __real@0000000000000000    1011bc90     Sntp.obj
 0002:0000dc98       __real@3fe0000000000000    1011bc98     Sntp.obj
 0002:0000dca0       __real@4000000000000000    1011bca0     Sntp.obj
 0002:0000e5c0       _CLSID_StdGlobalInterfaceTable 1011c5c0     StdAfx.obj
 0002:0000e5d0       _IID_ISignature            1011c5d0     XMLSign.obj
 0002:0000e5e0       _LIBID_XMLSIGNLib          1011c5e0     XMLSign.obj
 0002:0000e5f0       _CLSID_Signature           1011c5f0     XMLSign.obj
 0002:0000f018       ??_C@_1BC@KAILKFFG@?$AAR?$AAE?$AAG?$AAI?$AAS?$AAT?$AAR?$AAY?$AA?$AA@ 1011d018     XMLSign.obj
 0002:0000f02c       ??_C@_1BG@JBACFMF@?$AAM?$AAo?$AAd?$AAu?$AAl?$AAe?$AA_?$AAR?$AAa?$AAw?$AA?$AA@ 1011d02c     XMLSign.obj
 0002:0000f044       ??_C@_1O@MNLDABAF@?$AAM?$AAo?$AAd?$AAu?$AAl?$AAe?$AA?$AA@ 1011d044     XMLSign.obj
 0002:0000f054       ??_C@_0BJ@MKNPNODP@0?5?$CB?$DN?5pMapEntries?9?$DOszData?$AA@ 1011d054     XMLSign.obj
 0002:0000f070       ??_7CRegObject@ATL@@6B@    1011d070     XMLSign.obj
 0002:0000f088       ??_C@_0FA@NNGGBFPH@C?3?2Program?5Files?2Microsoft?5Visua@ 1011d088     XMLSign.obj
 0002:0000f0d8       ??_C@_0FA@KFANAKFG@?$CCstatically?5linked?5in?5CRegObject@ 1011d0d8     XMLSign.obj
 0002:0000f128       ??_C@_0EO@FOFJGMBM@statically?5linked?5in?5CRegObject?5@ 1011d128     XMLSign.obj
 0002:0000f178       ??_C@_0BP@DILLEFPO@lpszKey?5?$CB?$DN?50?5?$CG?$CG?5lpszValue?5?$CB?$DN?50?$AA@ 1011d178     XMLSign.obj
 0002:0000f198       ??_C@_0BI@LNHJMEOP@Failed?5to?5LoadResource?6?$AA@ 1011d198     XMLSign.obj
 0002:0000f1b0       ??_C@_0CJ@COPMGFKA@Failed?5to?5FindResource?5on?5ID?3?$CFs?5@ 1011d1b0     XMLSign.obj
 0002:0000f1dc       ??_C@_0CJ@KJDBLEOI@Failed?5to?5FindResource?5on?5ID?3?$CFd?5@ 1011d1dc     XMLSign.obj
 0002:0000f208       ??_C@_0BN@HGJLNPOD@Failed?5to?5LoadLibrary?5on?5?$CFs?6?$AA@ 1011d208     XMLSign.obj
 0002:0000f228       ??_C@_0CC@MOJNOPNN@Failed?5to?5register?0?5cleaning?5up?$CB@ 1011d228     XMLSign.obj
 0002:0000f24c       ??_C@_0CJ@JJEGIHLG@Syntax?5error?0?5expecting?5a?5?$HL?0?5fou@ 1011d24c     XMLSign.obj
 0002:0000f278       ??_C@_0BN@HJIJAHEL@HKeyFromString?5failed?5on?5?$CFs?6?$AA@ 1011d278     XMLSign.obj
 0002:0000f298       ??_C@_01EEMJAFIK@?6?$AA@   1011d298     XMLSign.obj
 0002:0000f29c       ??_C@_0BE@NLNNHLLF@HKEY_CURRENT_CONFIG?$AA@ 1011d29c     XMLSign.obj
 0002:0000f2b0       ??_C@_0O@MJDLIIGK@HKEY_DYN_DATA?$AA@ 1011d2b0     XMLSign.obj
 0002:0000f2c0       ??_C@_0BG@IDBEHNDO@HKEY_PERFORMANCE_DATA?$AA@ 1011d2c0     XMLSign.obj
 0002:0000f2d8       ??_C@_0L@OEMMANAM@HKEY_USERS?$AA@ 1011d2d8     XMLSign.obj
 0002:0000f2e4       ??_C@_0BD@GIIFIKDM@HKEY_LOCAL_MACHINE?$AA@ 1011d2e4     XMLSign.obj
 0002:0000f2f8       ??_C@_0BC@GMMMKLBI@HKEY_CURRENT_USER?$AA@ 1011d2f8     XMLSign.obj
 0002:0000f30c       ??_C@_0BC@JBJOLKMF@HKEY_CLASSES_ROOT?$AA@ 1011d30c     XMLSign.obj
 0002:0000f320       ??_C@_04LEMDOLAJ@HKCC?$AA@ 1011d320     XMLSign.obj
 0002:0000f328       ??_C@_04POMNGLEL@HKDD?$AA@ 1011d328     XMLSign.obj
 0002:0000f330       ??_C@_04OFOCGAOH@HKPD?$AA@ 1011d330     XMLSign.obj
 0002:0000f338       ??_C@_03DLBIJLAB@HKU?$AA@  1011d338     XMLSign.obj
 0002:0000f33c       ??_C@_04CBBMIBLK@HKLM?$AA@ 1011d33c     XMLSign.obj
 0002:0000f344       ??_C@_04KIFLFONO@HKCU?$AA@ 1011d344     XMLSign.obj
 0002:0000f34c       ??_C@_04OHBKMIBJ@HKCR?$AA@ 1011d34c     XMLSign.obj
 0002:0000f358       ?map@?2??HKeyFromString@CRegParser@ATL@@KAPAUHKEY__@@PAD@Z@4QBUkeymap@23@B 1011d358     XMLSign.obj
 0002:0000f3c8       ??_C@_0CE@HPLFHOFC@NextToken?5?3?5Unexpected?5End?5of?5Fi@ 1011d3c8     XMLSign.obj
 0002:0000f3ec       ??_C@_0BK@LLGNALDE@Error?5no?5closing?5?$CF?5found?6?$AA@ 1011d3ec     XMLSign.obj
 0002:0000f408       ??_C@_0N@HMGHIDAH@ppszReg?5?$CB?$DN?50?$AA@ 1011d408     XMLSign.obj
 0002:0000f418       ??_C@_0N@FCNKJMCG@lpszReg?5?$CB?$DN?50?$AA@ 1011d418     XMLSign.obj
 0002:0000f428       ??_C@_06JALMKDEH@p?5?$CB?$DN?50?$AA@ 1011d428     XMLSign.obj
 0002:0000f430       ??_C@_0BF@KHDDAOIJ@Map?5Entry?5not?5found?6?$AA@ 1011d430     XMLSign.obj
 0002:0000f448       ??_C@_0BB@FDAMNOMP@Deleting?5Key?5?$CFs?6?$AA@ 1011d448     XMLSign.obj
 0002:0000f45c       ??_C@_0CH@OEJDLABI@Deleting?5non?9empty?5subkey?5?$CFs?5by?5@ 1011d45c     XMLSign.obj
 0002:0000f484       ??_C@_0BG@OEFMOOAA@Ending?5Recovery?5Mode?6?$AA@ 1011d484     XMLSign.obj
 0002:0000f49c       ??_C@_0CM@LEFFDKCG@Ignoring?5Open?5key?5on?5?$CFs?5?3?5In?5Rec@ 1011d49c     XMLSign.obj
 0002:0000f4c8       ??_C@_0P@IONAJCEO@Opened?5Key?5?$CFs?6?$AA@ 1011d4c8     XMLSign.obj
 0002:0000f4d8       ??_C@_0BB@POOIJOEN@Creating?5key?5?$CFs?6?$AA@ 1011d4d8     XMLSign.obj
 0002:0000f4ec       ??_C@_0N@GKIPNAL@Deleting?5?$CFs?6?$AA@ 1011d4ec     XMLSign.obj
 0002:0000f4fc       ??_C@_0O@EHICPHFJ@Num?5Els?5?$DN?5?$CFd?6?$AA@ 1011d4fc     XMLSign.obj
 0002:0000f50c       ??_C@_0M@BNMKLGID@m_hKey?5?$DN?$DN?50?$AA@ 1011d50c     XMLSign.obj
 0002:0000f518       ??_C@_0M@LINKMMAA@m_hKey?5?$CB?$DN?50?$AA@ 1011d518     XMLSign.obj
 0002:0000f524       ??_C@_0BA@PCGOHLCP@hKeyParent?5?$CB?$DN?50?$AA@ 1011d524     XMLSign.obj
 0002:0000f534       ??_C@_0L@LBABFFHO@lRes?5?$DN?$DN?50L?$AA@ 1011d534     XMLSign.obj
 0002:0000f540       ??_C@_0DP@JOHDIOJH@CRegKey?3?3RecurseDeleteKey?5?3?5Fail@ 1011d540     XMLSign.obj
 0002:0000f580       ??_C@_0CN@BAKOHBFP@Binary?5Data?5does?5not?5fall?5on?5BYT@ 1011d580     XMLSign.obj
 0002:0000f5b0       ??_C@_0BI@NDCHGJG@Setting?5Value?5?$CFd?5at?5?$CFs?6?$AA@ 1011d5b0     XMLSign.obj
 0002:0000f5c8       ??_C@_0BI@MFJDFJCO@Setting?5Value?5?$CFs?5at?5?$CFs?6?$AA@ 1011d5c8     XMLSign.obj
 0002:0000f5e0       ??_C@_07DLHCIBDH@default?$AA@ 1011d5e0     XMLSign.obj
 0002:0000f5e8       ??_C@_0BH@IHOFLOMJ@?$CFs?5Type?5not?5supported?6?$AA@ 1011d5e8     XMLSign.obj
 0002:0000f600       ??_C@_0CH@EEDIHPHE@?$CIdwType?5?$DN?$DN?5?$CI?51?5?$CJ?$CJ?5?$HM?$HM?5?$CIdwType?5?$DN?$DN?5@ 1011d600     XMLSign.obj
 0002:0000f628       ??_C@_0O@DKGIOJGA@pszValue?5?$CB?$DN?50?$AA@ 1011d628     XMLSign.obj
 0002:0000f638       ??_C@_0CL@PILPOMLI@Bogus?5value?5?$CFc?5passed?5as?5binary?5@ 1011d638     XMLSign.obj
 0002:0000f664       ??_C@_0BG@OFKLEKA@Should?5not?5be?5here?$CB?$CB?6?$AA@ 1011d664     XMLSign.obj
 0002:0000f67c       ?pMap@?1??GetCategoryMap@CSignature@@SAPBU_ATL_CATMAP_ENTRY@ATL@@XZ@4QBU34@B 1011d67c     XMLSign.obj
 0002:0000f698       ??_C@_0EH@BABLPHCB@ERROR?5?3?5Unable?5to?5lock?5critical?5@ 1011d698     XMLSign.obj
 0002:0000f6e0       ??_C@_0BI@LFOHFLDB@?2Implemented?5Categories?$AA@ 1011d6e0     XMLSign.obj
 0002:0000f6f8       ??_C@_0BF@CCIMKLEB@?2Required?5Categories?$AA@ 1011d6f8     XMLSign.obj
 0002:0000f710       ??_C@_06JHNIBAJK@CLSID?2?$AA@ 1011d710     XMLSign.obj
 0002:0000f718       ??_C@_0BD@OCKIHNLB@pEntry?9?$DOiType?5?$DN?$DN?52?$AA@ 1011d718     XMLSign.obj
 0002:0000f72c       __GUID_0002e012_0000_0000_c000_000000000046 1011d72c     XMLSign.obj
 0002:0000f740       ??_C@_0HE@GOKGCPDA@0?5?$CG?$CG?5?$CCUse?5OBJECT_ENTRY_NON_CREAT@ 1011d740     XMLSign.obj
 0002:0000f7b4       ??_7?$CComObjectCached@VCComClassFactory@ATL@@@ATL@@6B@ 1011d7b4     XMLSign.obj
 0002:0000f7dc       __GUID_00000001_0000_0000_c000_000000000046 1011d7dc     XMLSign.obj
 0002:0000f7ec       ??_C@_0BB@PADCHBLN@CComClassFactory?$AA@ 1011d7ec     XMLSign.obj
 0002:0000f800       ?_entries@?1??_GetEntries@CComClassFactory@ATL@@SGPBU_ATL_INTMAP_ENTRY@3@XZ@4QBU43@B 1011d800     XMLSign.obj
 0002:0000f824       ??_7CComClassFactory@ATL@@6B@ 1011d824     XMLSign.obj
 0002:0000f840       ??_C@_0FH@OCMNPHBO@CComClassFactory?3?5asked?5for?5non?5@ 1011d840     XMLSign.obj
 0002:0000f898       ??_C@_0BJ@HNHMIKBN@m_pfnCreateInstance?5?$CB?$DN?50?$AA@ 1011d898     XMLSign.obj
 0002:0000f8b4       ??_7?$CComObject@VCSignature@@@ATL@@6BIObjectWithSite@@@ 1011d8b4     XMLSign.obj
 0002:0000f8c8       ??_7?$CComObject@VCSignature@@@ATL@@6BIOleCommandTarget@@@ 1011d8c8     XMLSign.obj
 0002:0000f8e0       ??_7?$CComObject@VCSignature@@@ATL@@6B?$IDispatchImpl@UISignature@@$1?IID_ISignature@@3U_GUID@@B$1?LIBID_XMLSIGNLib@@3U3@B$00$0A@VCComTypeInfoHolder@ATL@@@1@@ 1011d8e0     XMLSign.obj
 0002:0000fc64       __GUID_b722bccb_4e68_101b_a2bc_00aa00404770 1011dc64     XMLSign.obj
 0002:0000fc74       __GUID_62ec64dc_b26d_46ce_9e33_24289bcf5f63 1011dc74     XMLSign.obj
 0002:0000fc84       ??_C@_0L@KEHCEMNB@CSignature?$AA@ 1011dc84     XMLSign.obj
 0002:0000fc90       ?_entries@?1??_GetEntries@CSignature@@SGPBU_ATL_INTMAP_ENTRY@ATL@@XZ@4QBU34@B 1011dc90     XMLSign.obj
 0002:0000fcd8       ??_7?$CComAggObject@VCSignature@@@ATL@@6B@ 1011dcd8     XMLSign.obj
 0002:0000fce8       ??_7?$CComContainedObject@VCSignature@@@ATL@@6BIObjectWithSite@@@ 1011dce8     XMLSign.obj
 0002:0000fcfc       ??_7?$CComContainedObject@VCSignature@@@ATL@@6BIOleCommandTarget@@@ 1011dcfc     XMLSign.obj
 0002:0000fd10       ??_7?$CComContainedObject@VCSignature@@@ATL@@6B?$IDispatchImpl@UISignature@@$1?IID_ISignature@@3U_GUID@@B$1?LIBID_XMLSIGNLib@@3U3@B$00$0A@VCComTypeInfoHolder@ATL@@@1@@ 1011dd10     XMLSign.obj
 0002:00010090       ??_C@_0CA@JANIBNGM@pComModule?9?$DOm_hInstTypeLib?5?$CB?$DN?50?$AA@ 1011e090     XMLSign.obj
 0002:000100b0       ??_C@_0BA@MLGHOEGD@pComModule?5?$CB?$DN?50?$AA@ 1011e0b0     XMLSign.obj
 0002:000100c0       ??_C@_04LFHHJFCN@?4tlb?$AA@ 1011e0c0     XMLSign.obj
 0002:000100c8       ??_C@_0BC@OFPPHOIH@hInstTypeLib?5?$CB?$DN?50?$AA@ 1011e0c8     XMLSign.obj
 0002:000100dc       ??_C@_0CB@IHBDCFNI@pbstrPath?5?$CB?$DN?50?5?$CG?$CG?5ppTypeLib?5?$CB?$DN?50@ 1011e0dc     XMLSign.obj
 0002:00010100       ??_C@_0O@PGKIMHP@_pModule?5?$DN?$DN?50?$AA@ 1011e100     XMLSign.obj
 0002:00010110       ??_7CComModule@ATL@@6B@    1011e110     XMLSign.obj
 0002:00010138       ??_C@_0M@GKCENBEN@m_pGIT?5?$CB?$DN?50?$AA@ 1011e138     XMLSign.obj
 0002:00010144       __GUID_00000146_0000_0000_c000_000000000046 1011e144     XMLSign.obj
 0002:00010154       ??_C@_0L@NJOPLADJ@ppGIT?5?$CB?$DN?50?$AA@ 1011e154     XMLSign.obj
 0002:00010160       ??_C@_0DN@JALIHHGH@ERROR?5?3?5Unable?5to?5initialize?5cri@ 1011e160     XMLSign.obj
 0002:000101a0       ??_C@_0BB@JLCMIEMB@_pAtlModule?5?$DN?$DN?50?$AA@ 1011e1a0     XMLSign.obj
 0002:000101b4       ??_C@_1M@PPPPCDEP@?$AAA?$AAP?$AAP?$AAI?$AAD?$AA?$AA@ 1011e1b4     XMLSign.obj
 0002:000101c0       ??_C@_11LOCGONAA@?$AA?$AA@ 1011e1c0     XMLSign.obj
 0002:00011d78       _CERT_CertExtensionTemplate 1011fd78     xmlsigd_nss:nsscert.obj
 0002:00011dc8       _CERT_SequenceOfCertExtensionTemplate 1011fdc8     xmlsigd_nss:nsscert.obj
 0002:00011e18       _CERT_RDNTemplate          1011fe18     xmlsigd_nss:nsscert.obj
 0002:00011e28       _SEC_SkipTemplate          1011fe28     xmlsigd_nss:nsscert.obj
 0002:000137fc       _xmlStringText             101217fc     libxml2:tree.obj
 0002:00013804       _xmlStringTextNoenc        10121804     libxml2:tree.obj
 0002:00013810       _xmlStringComment          10121810     libxml2:tree.obj
 0002:00013818       ??_C@_0CB@EEDGOPFB@xmlSplitQName2?5?3?5out?5of?5memory?$CB?6@ 10121818     libxml2:tree.obj
 0002:0001383c       ??_C@_0BL@GAPNPLD@xmlNewDtd?5?3?5malloc?5failed?6?$AA@ 1012183c     libxml2:tree.obj
 0002:00013858       ??_C@_0CE@DBKMPNBA@xmlCreateIntSubset?5?3?5malloc?5fail@ 10121858     libxml2:tree.obj
 0002:0001387c       ??_C@_0BL@JOIFGEKF@xmlNewDoc?5?3?5malloc?5failed?6?$AA@ 1012187c     libxml2:tree.obj
 0002:00013898       ??_C@_03HLLJOCDO@1?40?$AA@ 10121898     libxml2:tree.obj
 0002:0001389c       ??_C@_0BK@MFAKGHPE@xmlNewPI?5?3?5malloc?5failed?6?$AA@ 1012189c     libxml2:tree.obj
 0002:000138b8       ??_C@_0BM@KOPLBDEN@xmlNewNode?5?3?5malloc?5failed?6?$AA@ 101218b8     libxml2:tree.obj
 0002:000138d4       ??_C@_0BM@KGHJJDBL@xmlNewText?5?3?5malloc?5failed?6?$AA@ 101218d4     libxml2:tree.obj
 0002:000138f0       ??_C@_0BP@LGCHHPJE@xmlNewCharRef?5?3?5malloc?5failed?6?$AA@ 101218f0     libxml2:tree.obj
 0002:00013910       ??_C@_0CB@DFPCDPDA@xmlNewReference?5?3?5malloc?5failed?6@ 10121910     libxml2:tree.obj
 0002:00013934       ??_C@_0BP@GDINBFHD@xmlNewTextLen?5?3?5malloc?5failed?6?$AA@ 10121934     libxml2:tree.obj
 0002:00013954       ??_C@_0BP@BCPIOPLI@xmlNewComment?5?3?5malloc?5failed?6?$AA@ 10121954     libxml2:tree.obj
 0002:00013974       ??_C@_0CC@OPJOOKID@xmlNewCDataBlock?5?3?5malloc?5failed@ 10121974     libxml2:tree.obj
 0002:00013998       ??_C@_02DKCKIIND@?$CFs?$AA@ 10121998     libxml2:tree.obj
 0002:0001399c       ??_C@_01OGPIMHDM@?$DP?$AA@ 1012199c     libxml2:tree.obj
 0002:0001399e       ??_C@_00CNPNBAHC@?$AA@     1012199e     libxml2:tree.obj
 0002:000139a0       ??_C@_01KMDKNFGN@?1?$AA@   101219a0     libxml2:tree.obj
 0002:000139a4       ??_C@_0CA@GIPAMKCC@xmlGetNsList?5?3?5realloc?5failed?$CB?6?$AA@ 101219a4     libxml2:tree.obj
 0002:000139c4       ??_C@_0BP@KPEOODJP@xmlGetNsList?5?3?5out?5of?5memory?$CB?6?$AA@ 101219c4     libxml2:tree.obj
 0002:000139e4       ??_C@_0CF@GLDAAHFK@http?3?1?1www?4w3?4org?1XML?11998?1names@ 101219e4     libxml2:tree.obj
 0002:00013a0c       ??_C@_0BN@PMGCAOEF@xmlSearchNs?5?3?5malloc?5failed?6?$AA@ 10121a0c     libxml2:tree.obj
 0002:00013a2c       ??_C@_03PJHHNEEI@xml?$AA@  10121a2c     libxml2:tree.obj
 0002:00013a30       ??_C@_0CD@JEOKJDGN@xmlSearchNsByHref?5?3?5malloc?5faile@ 10121a30     libxml2:tree.obj
 0002:00013a54       ??_C@_01JLIPDDHJ@?3?$AA@   10121a54     libxml2:tree.obj
 0002:00013a58       ??_C@_0CC@PBEHJAJG@xmlBufferCreate?5?3?5out?5of?5memory?$CB@ 10121a58     libxml2:tree.obj
 0002:00013a7c       ??_C@_0CC@MEJMLBDK@xmlBufferResize?5?3?5out?5of?5memory?$CB@ 10121a7c     libxml2:tree.obj
 0002:00013aa0       ??_C@_0BP@HMOJBGI@xmlBufferAdd?5?3?5out?5of?5memory?$CB?6?$AA@ 10121aa0     libxml2:tree.obj
 0002:00013ac0       ??_C@_0CD@JMGOLMP@xmlBufferAddHead?5?3?5out?5of?5memory@ 10121ac0     libxml2:tree.obj
 0002:00013ae4       ??_C@_0CA@KMKKAEGP@xmlBufferCCat?5?3?5out?5of?5memory?$CB?6?$AA@ 10121ae4     libxml2:tree.obj
 0002:00013b04       ??_C@_01BJJEKLCA@?$CC?$AA@ 10121b04     libxml2:tree.obj
 0002:00013b08       ??_C@_01GEODFPGF@?8?$AA@   10121b08     libxml2:tree.obj
 0002:00013b0c       ??_C@_0CN@NNJDEOEN@xmlAttrSerializeContent?5?3?5char?5o@ 10121b0c     libxml2:tree.obj
 0002:00013b3c       ??_C@_06EPJFDPIN@?$CG?$CDx?$CFX?$DL?$AA@ 10121b3c     libxml2:tree.obj
 0002:00013b44       ??_C@_05PNCJDOGL@?$CG?$CD?$CFd?$DL?$AA@ 10121b44     libxml2:tree.obj
 0002:00013b4c       ??_C@_0L@GJIJNDEK@ISO?98859?91?$AA@ 10121b4c     libxml2:tree.obj
 0002:00013b58       ??_C@_0CL@KAEHMDPO@xmlAttrSerializeContent?5?3?5input?5@ 10121b58     libxml2:tree.obj
 0002:00013b84       ??_C@_05JKJFEODM@?$CGamp?$DL?$AA@ 10121b84     libxml2:tree.obj
 0002:00013b8c       ??_C@_04LOOHDCEI@?$CGgt?$DL?$AA@ 10121b8c     libxml2:tree.obj
 0002:00013b94       ??_C@_04GJOGLFEJ@?$CGlt?$DL?$AA@ 10121b94     libxml2:tree.obj
 0002:00013b9c       ??_C@_06DDLNFFBN@?$CGquot?$DL?$AA@ 10121b9c     libxml2:tree.obj
 0002:00013ba4       ??_C@_04NCNDODLB@?$CG?$CD9?$DL?$AA@ 10121ba4     libxml2:tree.obj
 0002:00013bac       ??_C@_05ELKBMGJG@?$CG?$CD13?$DL?$AA@ 10121bac     libxml2:tree.obj
 0002:00013bb4       ??_C@_05EJOHHIMP@?$CG?$CD10?$DL?$AA@ 10121bb4     libxml2:tree.obj
 0002:00013bbc       ??_C@_01ICJEACDI@?$DL?$AA@ 10121bbc     libxml2:tree.obj
 0002:00013bc0       ??_C@_01HNPIGOCE@?$CG?$AA@ 10121bc0     libxml2:tree.obj
 0002:00013bc4       ??_C@_01NEMOKFLO@?$DN?$AA@ 10121bc4     libxml2:tree.obj
 0002:00013bc8       ??_C@_06BMFGKBOJ@?5xmlns?$AA@ 10121bc8     libxml2:tree.obj
 0002:00013bd0       ??_C@_07PMGDNCAE@?5xmlns?3?$AA@ 10121bd0     libxml2:tree.obj
 0002:00013bd8       ??_C@_02ILLPBGAO@?$DN?$CC?$AA@ 10121bd8     libxml2:tree.obj
 0002:00013bdc       ??_C@_01CLKCMJKC@?5?$AA@   10121bdc     libxml2:tree.obj
 0002:00013be0       ??_C@_02DPNDACHE@?$DM?1?$AA@ 10121be0     libxml2:tree.obj
 0002:00013be4       ??_C@_01PPODPGHN@?$DO?$AA@ 10121be4     libxml2:tree.obj
 0002:00013be8       ??_C@_02HCGKDMEN@?1?$DO?$AA@ 10121be8     libxml2:tree.obj
 0002:00013bec       ??_C@_01MNNFJEPP@?$DM?$AA@ 10121bec     libxml2:tree.obj
 0002:00013bf0       ??_C@_03MCHNFBAC@?$FN?$FN?$DO?$AA@ 10121bf0     libxml2:tree.obj
 0002:00013bf4       ??_C@_09BLLNCBLF@?$DM?$CB?$FLCDATA?$FL?$AA@ 10121bf4     libxml2:tree.obj
 0002:00013c00       ??_C@_03PNLDJJMO@?9?9?$DO?$AA@ 10121c00     libxml2:tree.obj
 0002:00013c04       ??_C@_04FFDNBKGC@?$DM?$CB?9?9?$AA@ 10121c04     libxml2:tree.obj
 0002:00013c0c       ??_C@_02GOEMJPDN@?$DP?$DO?$AA@ 10121c0c     libxml2:tree.obj
 0002:00013c10       ??_C@_02HFBBBACF@?$DM?$DP?$AA@ 10121c10     libxml2:tree.obj
 0002:00013c14       ??_C@_0DI@KKENBPON@http?3?1?1www?4w3?4org?1TR?1xhtml1?1DTD?1@ 10121c14     libxml2:tree.obj
 0002:00013c4c       ??_C@_0DE@CCGEPDJH@http?3?1?1www?4w3?4org?1TR?1xhtml1?1DTD?1@ 10121c4c     libxml2:tree.obj
 0002:00013c80       ??_C@_0DC@BHABDBDI@http?3?1?1www?4w3?4org?1TR?1xhtml1?1DTD?1@ 10121c80     libxml2:tree.obj
 0002:00013cb4       ??_C@_0CH@FHDGMIJF@?9?1?1W3C?1?1DTD?5XHTML?51?40?5Transition@ 10121cb4     libxml2:tree.obj
 0002:00013cdc       ??_C@_0CD@EONGLKJJ@?9?1?1W3C?1?1DTD?5XHTML?51?40?5Frameset?1?1@ 10121cdc     libxml2:tree.obj
 0002:00013d00       ??_C@_0CB@LIHKBLCO@?9?1?1W3C?1?1DTD?5XHTML?51?40?5Strict?1?1EN@ 10121d00     libxml2:tree.obj
 0002:00013d24       ??_C@_05LJDNNBIK@param?$AA@ 10121d24     libxml2:tree.obj
 0002:00013d2c       ??_C@_04HLJJCGEF@meta?$AA@ 10121d2c     libxml2:tree.obj
 0002:00013d34       ??_C@_04OHHBHOGB@link?$AA@ 10121d34     libxml2:tree.obj
 0002:00013d3c       ??_C@_07JMLOFMGP@isindex?$AA@ 10121d3c     libxml2:tree.obj
 0002:00013d44       ??_C@_05DFJCHPDH@input?$AA@ 10121d44     libxml2:tree.obj
 0002:00013d4c       ??_C@_03PCCGDNHJ@img?$AA@  10121d4c     libxml2:tree.obj
 0002:00013d50       ??_C@_02FLHDKHAB@hr?$AA@   10121d50     libxml2:tree.obj
 0002:00013d54       ??_C@_05MIJNFGED@frame?$AA@ 10121d54     libxml2:tree.obj
 0002:00013d5c       ??_C@_03HNOLNALI@col?$AA@  10121d5c     libxml2:tree.obj
 0002:00013d60       ??_C@_08IOLGIJGJ@basefont?$AA@ 10121d60     libxml2:tree.obj
 0002:00013d6c       ??_C@_04BHIIPFEC@base?$AA@ 10121d6c     libxml2:tree.obj
 0002:00013d74       ??_C@_02FGOECCNH@br?$AA@   10121d74     libxml2:tree.obj
 0002:00013d78       ??_C@_04GOEDGNCF@area?$AA@ 10121d78     libxml2:tree.obj
 0002:00013d80       ??_C@_0BN@BMFLMPPL@http?3?1?1www?4w3?4org?11999?1xhtml?$AA@ 10121d80     libxml2:tree.obj
 0002:00013da0       ??_C@_0BK@HEOHNBNM@xmlNewNs?5?3?5malloc?5failed?6?$AA@ 10121da0     libxml2:tree.obj
 0002:00013dbc       ??_C@_04IOHABJIC@lang?$AA@ 10121dbc     libxml2:tree.obj
 0002:00013dc4       ??_C@_08ILAKLJGO@preserve?$AA@ 10121dc4     libxml2:tree.obj
 0002:00013dd0       ??_C@_05OLNILLAB@space?$AA@ 10121dd0     libxml2:tree.obj
 0002:00013dd8       ??_C@_04KODJDHBJ@urn?3?$AA@ 10121dd8     libxml2:tree.obj
 0002:00013de0       ??_C@_06FNAPNHDD@ftp?3?1?1?$AA@ 10121de0     libxml2:tree.obj
 0002:00013de8       ??_C@_07FGAOOBMN@http?3?1?1?$AA@ 10121de8     libxml2:tree.obj
 0002:00013df0       ??_C@_04CMBCJJJD@href?$AA@ 10121df0     libxml2:tree.obj
 0002:00013df8       ??_C@_04NEODDMOL@head?$AA@ 10121df8     libxml2:tree.obj
 0002:00013e00       ??_C@_04PNIFHPHN@html?$AA@ 10121e00     libxml2:tree.obj
 0002:00013e08       ??_C@_07BKMHDFJP@?$CF?420s?$CFd?$AA@ 10121e08     libxml2:tree.obj
 0002:00013e10       ??_C@_09DFKPACFI@default?$CFd?$AA@ 10121e10     libxml2:tree.obj
 0002:00013e1c       ??_C@_05BNPGKEDD@?$CF?420s?$AA@ 10121e1c     libxml2:tree.obj
 0002:00013e24       ??_C@_02CFBPIAHD@?$FN?$DO?$AA@ 10121e24     libxml2:tree.obj
 0002:00013e28       ??_C@_03OEIPKGAG@?5?$FL?6?$AA@ 10121e28     libxml2:tree.obj
 0002:00013e2c       ??_C@_08PAGGLANP@?5SYSTEM?5?$AA@ 10121e2c     libxml2:tree.obj
 0002:00013e38       ??_C@_08GBBLECIH@?5PUBLIC?5?$AA@ 10121e38     libxml2:tree.obj
 0002:00013e44       ??_C@_0L@JKHDJBPI@?$DM?$CBDOCTYPE?5?$AA@ 10121e44     libxml2:tree.obj
 0002:00013e50       ??_C@_07OHOHIONL@?5lang?$DN?$CC?$AA@ 10121e50     libxml2:tree.obj
 0002:00013e58       ??_C@_0M@NGPFCPAA@?5xml?3lang?$DN?$CC?$AA@ 10121e58     libxml2:tree.obj
 0002:00013e64       ??_C@_05OCPGBOOB@?5id?$DN?$CC?$AA@ 10121e64     libxml2:tree.obj
 0002:00013e6c       ??_C@_06PKBNCBKI@iframe?$AA@ 10121e6c     libxml2:tree.obj
 0002:00013e74       ??_C@_04MLMMMEIO@form?$AA@ 10121e74     libxml2:tree.obj
 0002:00013e7c       ??_C@_06MJBNHHFM@applet?$AA@ 10121e7c     libxml2:tree.obj
 0002:00013e84       ??_C@_03HBNNNHNM@map?$AA@  10121e84     libxml2:tree.obj
 0002:00013e88       ??_C@_03FEJMGOGI@div?$AA@  10121e88     libxml2:tree.obj
 0002:00013e8c       ??_C@_01JBBJJEPG@p?$AA@    10121e8c     libxml2:tree.obj
 0002:00013e90       ??_C@_01MCMALHOG@a?$AA@    10121e90     libxml2:tree.obj
 0002:00013e94       ??_C@_04MEMAJGDJ@name?$AA@ 10121e94     libxml2:tree.obj
 0002:00013e9c       ??_C@_02EGCJHIOB@id?$AA@   10121e9c     libxml2:tree.obj
 0002:00013ea0       ??_C@_05IAKJCFIM@style?$AA@ 10121ea0     libxml2:tree.obj
 0002:00013ea8       ??_C@_06OLONEIEH@script?$AA@ 10121ea8     libxml2:tree.obj
 0002:00013eb0       ??_C@_03PBCCILOI@?$DO?$DM?1?$AA@ 10121eb0     libxml2:tree.obj
 0002:00013eb4       ??_C@_03MFNJFHN@?5?1?$DO?$AA@ 10121eb4     libxml2:tree.obj
 0002:00013eb8       ??_C@_0CG@NOKOIAPK@?5xmlns?$DN?$CChttp?3?1?1www?4w3?4org?11999?1x@ 10121eb8     libxml2:tree.obj
 0002:00013ee0       ??_C@_05EGJIMALK@UTF?98?$AA@ 10121ee0     libxml2:tree.obj
 0002:00013ee8       ??_C@_03KCOJOIAE@?$DP?$DO?6?$AA@ 10121ee8     libxml2:tree.obj
 0002:00013eec       ??_C@_0BB@FFDPHLPI@?5standalone?$DN?$CCno?$CC?$AA@ 10121eec     libxml2:tree.obj
 0002:00013f00       ??_C@_0BC@MEICOMAE@?5standalone?$DN?$CCyes?$CC?$AA@ 10121f00     libxml2:tree.obj
 0002:00013f14       ??_C@_0L@GJNPICMJ@?5encoding?$DN?$AA@ 10121f14     libxml2:tree.obj
 0002:00013f20       ??_C@_05FLCMBAOK@?$CC1?40?$CC?$AA@ 10121f20     libxml2:tree.obj
 0002:00013f28       ??_C@_0P@CNJADHFP@?$DM?$DPxml?5version?$DN?$AA@ 10121f28     libxml2:tree.obj
 0002:00013f38       ??_C@_0CA@GPIEDLNK@xmlDocDumpFormatMemoryEnc?3?5?5?$CFs?6?$AA@ 10121f38     libxml2:tree.obj
 0002:00013f58       ??_C@_0DM@DCMBLBLL@Failed?5to?5allocate?5memory?5for?5do@ 10121f58     libxml2:tree.obj
 0002:00013f94       ??_C@_0DO@ONKIKPBE@xmlDocDumpFormatMemoryEnc?3?5Faile@ 10121f94     libxml2:tree.obj
 0002:00013fd4       ??_C@_0BB@OPOFOJJL@?$CFs?3?5?5?$CFs?5?$CFs?5?8?$CFs?8?6?$AA@ 10121fd4     libxml2:tree.obj
 0002:00013fe8       ??_C@_0BK@LNGHMDOC@xmlDocDumpFormatMemoryEnc?$AA@ 10121fe8     libxml2:tree.obj
 0002:00014004       ??_C@_0CI@LIEPNHEM@Failed?5to?5identify?5encoding?5hand@ 10122004     libxml2:tree.obj
 0002:0001402c       ??_C@_0O@MOAAPJCO@character?5set?$AA@ 1012202c     libxml2:tree.obj
 0002:0001403c       ??_C@_0DI@CEPOPMHB@xmlDocDumpFormatMemoryEnc?3?5Sourc@ 1012203c     libxml2:tree.obj
 0002:00014074       ??_C@_0DN@NANDLLJH@xmlDocDumpFormatMemoryEnc?3?5?5Null@ 10122074     libxml2:tree.obj
 0002:000140b4       ??_C@_0DI@IJLIELCP@xmlDocDumpFormatMemoryEnc?3?5?5Null@ 101220b4     libxml2:tree.obj
 0002:000140ec       ??_C@_0BN@HINMGAOF@xmlNodeDump?3?5out?5of?5memory?$CB?6?$AA@ 101220ec     libxml2:tree.obj
 0002:0001410c       ??_C@_0DB@MFIIPIMN@xmlStringGetNodeList?3?5invalid?5de@ 1012210c     libxml2:tree.obj
 0002:00014140       ??_C@_0DF@MDFMKACH@xmlStringGetNodeList?3?5invalid?5he@ 10122140     libxml2:tree.obj
 0002:00014178       ??_C@_0BM@DADBJEPL@xmlNewProp?5?3?5malloc?5failed?6?$AA@ 10122178     libxml2:tree.obj
 0002:00014194       ??_C@_0CF@KJLMHKIF@xmlNewNsPropEatName?5?3?5malloc?5fai@ 10122194     libxml2:tree.obj
 0002:000141bc       ??_C@_0BP@EMHFIJBO@xmlNewDocProp?5?3?5malloc?5failed?6?$AA@ 101221bc     libxml2:tree.obj
 0002:000141dc       ??_C@_0CD@ICLCBKOB@xmlStaticCopyNode?5?3?5malloc?5faile@ 101221dc     libxml2:tree.obj
 0002:00014200       ??_C@_02KNHHEEKP@?5?5?$AA@ 10122200     libxml2:globals.obj
 0002:00014204       ??_C@_05FCKPBBIE@20508?$AA@ 10122204     libxml2:globals.obj
 0002:00014310       ??_C@_0P@HPOCOPDB@xml?9stylesheet?$AA@ 10122310     libxml2:parser.obj
 0002:00014320       ??_C@_0BC@FGIAPMHM@realloc?5failed?5?$CB?6?$AA@ 10122320     libxml2:parser.obj
 0002:00014334       ??_C@_0DE@JPFDFPMO@Excessive?5depth?5in?5document?3?5cha@ 10122334     libxml2:parser.obj
 0002:00014368       ??_C@_0BC@LEKDBCEK@Popping?5input?5?$CFd?6?$AA@ 10122368     libxml2:parser.obj
 0002:0001437c       ??_C@_0CG@OKCDDFLF@xmlParseStringCharRef?3?5invalid?5v@ 1012237c     libxml2:parser.obj
 0002:000143a4       ??_C@_0DB@EJFBNJEE@xmlParseStringCharRef?3?5invalid?5x@ 101223a4     libxml2:parser.obj
 0002:000143d8       ??_C@_0CO@HEBODCDE@xmlParseStringCharRef?3?5invalid?5d@ 101223d8     libxml2:parser.obj
 0002:00014408       ??_C@_0DC@BPCOPKNJ@xmlParseStringCharRef?3?5invalid?5h@ 10122408     libxml2:parser.obj
 0002:0001443c       ??_C@_0BL@NMJALFKD@malloc?5of?5?$CFld?5byte?5failed?6?$AA@ 1012243c     libxml2:parser.obj
 0002:00014458       ??_C@_0CI@BIPEAKCO@xmlStrncat?3?5realloc?5of?5?$CFld?5byte?5@ 10122458     libxml2:parser.obj
 0002:00014480       ??_C@_0BO@FLLENLHN@xmlSplitQName?3?5out?5of?5memory?6?$AA@ 10122480     libxml2:parser.obj
 0002:000144a0       ??_C@_0CI@GHNHPHHB@Name?5?$CFs?5is?5not?5XML?5Namespace?5com@ 101224a0     libxml2:parser.obj
 0002:000144c8       ??_C@_0CD@CHMBFACA@xmlParseStringName?3?5out?5of?5memor@ 101224c8     libxml2:parser.obj
 0002:000144ec       ??_C@_0BN@MALFACIE@Catalog?5PI?5syntax?5error?3?5?$CFs?6?$AA@ 101224ec     libxml2:parser.obj
 0002:0001450c       ??_C@_07MFFOOIHD@catalog?$AA@ 1012250c     libxml2:parser.obj
 0002:00014514       ??_C@_0CI@IBLNHJAD@xmlParseStringEntityRef?3?5expecti@ 10122514     libxml2:parser.obj
 0002:0001453c       ??_C@_0DA@CCPGIFBP@Attempt?5to?5reference?5the?5paramet@ 1012253c     libxml2:parser.obj
 0002:0001456c       ??_C@_0DI@FDECCCAO@?8?$DM?8?5in?5entity?5?8?$CFs?8?5is?5not?5allowe@ 1012256c     libxml2:parser.obj
 0002:000145a4       ??_C@_02KCAKIFL@lt?$AA@    101225a4     libxml2:parser.obj
 0002:000145a8       ??_C@_0CL@HLODLGOA@Attribute?5references?5external?5en@ 101225a8     libxml2:parser.obj
 0002:000145d4       ??_C@_0CI@ILCMJJAO@Entity?5reference?5to?5unparsed?5ent@ 101225d4     libxml2:parser.obj
 0002:000145fc       ??_C@_0BJ@KIKIJMLK@Entity?5?8?$CFs?8?5not?5defined?6?$AA@ 101225fc     libxml2:parser.obj
 0002:00014618       ??_C@_0CC@PKJKLMCM@xmlParseStringEntityRef?3?5no?5name@ 10122618     libxml2:parser.obj
 0002:0001463c       ??_C@_0CK@FDOCGOND@xmlParseStringPEReference?3?5expec@ 1012263c     libxml2:parser.obj
 0002:00014668       ??_C@_0CL@BLGDJGPF@Internal?3?5?$CF?$CF?$CFs?$DL?5is?5not?5a?5paramet@ 10122668     libxml2:parser.obj
 0002:00014694       ??_C@_0BO@KINMDPMC@PEReference?3?5?$CF?$CF?$CFs?$DL?5not?5found?6?$AA@ 10122694     libxml2:parser.obj
 0002:000146b4       ??_C@_0CE@PLGLFALL@xmlParseStringPEReference?3?5no?5na@ 101226b4     libxml2:parser.obj
 0002:000146d8       ??_C@_0BL@PCJMIHOO@realloc?5of?5?$CFd?5byte?5failed?6?$AA@ 101226d8     libxml2:parser.obj
 0002:000146f4       ??_C@_0BK@IPAFCGLL@malloc?5of?5?$CFd?5byte?5failed?6?$AA@ 101226f4     libxml2:parser.obj
 0002:00014710       ??_C@_0P@PCJPAHLM@out?5of?5memory?6?$AA@ 10122710     libxml2:parser.obj
 0002:00014720       ??_C@_0BK@IPLLKNJK@Pushing?5input?5?$CFd?5?3?5?$CF?430s?6?$AA@ 10122720     libxml2:parser.obj
 0002:0001473c       ??_C@_08FFIMCMGN@?$CFs?$CI?$CFd?$CJ?3?5?$AA@ 1012273c     libxml2:parser.obj
 0002:00014748       ??_C@_0CD@EMAKBCPD@new?5blanks?5wrapper?5for?5entity?3?5?$CF@ 10122748     libxml2:parser.obj
 0002:0001476c       ??_C@_0DI@PLBGGDII@internal?3?5xmlNewBlanksWrapperInp@ 1012276c     libxml2:parser.obj
 0002:000147a4       ??_C@_0P@BHJOIPMJ@realloc?5failed?$AA@ 101227a4     libxml2:parser.obj
 0002:000147b4       ??_C@_0CF@DIAKJGNK@String?5decoding?5PE?5Reference?3?5?$CF?4@ 101227b4     libxml2:parser.obj
 0002:000147dc       ??_C@_0CG@LFKKPPEA@internal?5error?5entity?5has?5no?5con@ 101227dc     libxml2:parser.obj
 0002:00014804       ??_C@_0CJ@JICBMJMM@String?5decoding?5Entity?5Reference@ 10122804     libxml2:parser.obj
 0002:00014830       ??_C@_0CH@FFEACJHO@xmlStringDecodeEntities?3?5malloc?5@ 10122830     libxml2:parser.obj
 0002:00014858       ??_C@_0CA@EGIBMKIO@Detected?5entity?5reference?5loop?6?$AA@ 10122858     libxml2:parser.obj
 0002:00014878       ??_C@_0BP@MNOPAOAJ@SystemLiteral?5?$CC?5or?5?8?5expected?6?$AA@ 10122878     libxml2:parser.obj
 0002:00014898       ??_C@_0BJ@CGBDHPF@Unfinished?5PubidLiteral?6?$AA@ 10122898     libxml2:parser.obj
 0002:000148b4       ??_C@_0CH@JLOGCBKF@xmlParseVersionInfo?5?3?5expected?5?8@ 101228b4     libxml2:parser.obj
 0002:000148dc       ??_C@_0BJ@PCCDBIPA@String?5not?5closed?6?$CF?450s?6?$AA@ 101228dc     libxml2:parser.obj
 0002:000148f8       ??_C@_0CE@OPEFODOL@xmlParseVersionInfo?5?3?5expected?5?8@ 101228f8     libxml2:parser.obj
 0002:0001491c       ??_C@_0BL@JCBOLCNE@Invalid?5XML?5encoding?5name?6?$AA@ 1012291c     libxml2:parser.obj
 0002:00014938       ??_C@_0BJ@FCHADMKI@Unsupported?5encoding?5?$CFs?6?$AA@ 10122938     libxml2:parser.obj
 0002:00014954       ??_C@_0CI@PABNMFJK@xmlParseEncodingDecl?5?3?5expected?5@ 10122954     libxml2:parser.obj
 0002:0001497c       ??_C@_0CF@DJCKMLGF@xmlParseEncodingDecl?5?3?5expected?5@ 1012297c     libxml2:parser.obj
 0002:000149a4       ??_C@_0DB@KBCOOELK@extra?5content?5at?5the?5end?5of?5well@ 101229a4     libxml2:parser.obj
 0002:000149d8       ??_C@_0BM@EKHFMHPO@chunk?5is?5not?5well?5balanced?6?$AA@ 101229d8     libxml2:parser.obj
 0002:000149f4       ??_C@_0L@OLLEMIAI@pseudoroot?$AA@ 101229f4     libxml2:parser.obj
 0002:00014a00       ??_C@_0CD@MBPGIKJL@Text?5declaration?5?8?$DM?$DPxml?8?5require@ 10122a00     libxml2:parser.obj
 0002:00014a24       ??_C@_0CI@JIDBBHHF@parsing?5XML?5declaration?3?5?8?$DP?$DO?8?5ex@ 10122a24     libxml2:parser.obj
 0002:00014a4c       ??_C@_0CH@HDIECFOA@XML?5declaration?5must?5end?9up?5with@ 10122a4c     libxml2:parser.obj
 0002:00014a74       ??_C@_0BD@LJKHCJDH@Space?5needed?5here?6?$AA@ 10122a74     libxml2:parser.obj
 0002:00014a88       ??_C@_0BM@OIPNJGND@Space?5needed?5after?5?8?$DM?$DPxml?8?6?$AA@ 10122a88     libxml2:parser.obj
 0002:00014aa4       ??_C@_0CL@NDEHLALK@xmlParserHandlePEReference?3?5expe@ 10122aa4     libxml2:parser.obj
 0002:00014ad0       ??_C@_0DK@CMGLGNON@xmlParserHandlePEReference?3?5?$CFs?5i@ 10122ad0     libxml2:parser.obj
 0002:00014b0c       ??_C@_0CF@BKLGAEMF@xmlParserHandlePEReference?3?5no?5n@ 10122b0c     libxml2:parser.obj
 0002:00014b34       ??_C@_0BB@MFPJKDDB@PEReference?3?5?$CFs?6?$AA@ 10122b34     libxml2:parser.obj
 0002:00014b48       ??_C@_0BI@CBJCPNEK@PEReference?5in?5epilog?$CB?6?$AA@ 10122b48     libxml2:parser.obj
 0002:00014b60       ??_C@_0BI@OGDAMIDD@PEReference?5in?5prolog?$CB?6?$AA@ 10122b60     libxml2:parser.obj
 0002:00014b78       ??_C@_0BE@CAKPCGDN@PEReference?5at?5EOF?6?$AA@ 10122b78     libxml2:parser.obj
 0002:00014b8c       ??_C@_0CE@MJFKDIAP@xmlParseNameComplex?3?5out?5of?5memo@ 10122b8c     libxml2:parser.obj
 0002:00014bb0       ??_C@_0CA@GMGPFDCD@xmlParseNmtoken?3?5out?5of?5memory?6?$AA@ 10122bb0     libxml2:parser.obj
 0002:00014bd0       ??_C@_0BO@KNLIFPHG@EntityValue?3?5?$CC?5or?5?8?5expected?6?$AA@ 10122bd0     libxml2:parser.obj
 0002:00014bf0       ??_C@_0BJ@NNANCPBJ@EntityValue?3?5?$CC?5expected?6?$AA@ 10122bf0     libxml2:parser.obj
 0002:00014c0c       ??_C@_0DI@DDAPIKK@EntityValue?3?5PEReferences?5forbid@ 10122c0c     libxml2:parser.obj
 0002:00014c44       ??_C@_0DM@GJGLHMKL@EntityValue?3?5?8?$CFc?8?5forbidden?5exce@ 10122c44     libxml2:parser.obj
 0002:00014c80       ??_C@_0BK@PPFHJEEL@Unfinished?5SystemLiteral?6?$AA@ 10122c80     libxml2:parser.obj
 0002:00014c9c       ??_C@_0CH@KEMKONAO@Sequence?5?8?$FN?$FN?$DO?8?5not?5allowed?5in?5co@ 10122c9c     libxml2:parser.obj
 0002:00014cc4       ??_C@_0CE@NFFOCGJJ@xmlParseExternalID?3?5PUBLIC?0?5no?5U@ 10122cc4     libxml2:parser.obj
 0002:00014ce8       ??_C@_0CM@PJLPICDD@Space?5required?5after?5the?5Public?5@ 10122ce8     libxml2:parser.obj
 0002:00014d14       ??_C@_0DC@MEKKPKJA@xmlParseExternalID?3?5PUBLIC?0?5no?5P@ 10122d14     libxml2:parser.obj
 0002:00014d48       ??_C@_0BP@EHONNEAJ@Space?5required?5after?5?8PUBLIC?8?6?$AA@ 10122d48     libxml2:parser.obj
 0002:00014d68       ??_C@_0CE@PLKGPFKF@xmlParseExternalID?3?5SYSTEM?0?5no?5U@ 10122d68     libxml2:parser.obj
 0002:00014d8c       ??_C@_0BP@CCMMHADN@Space?5required?5after?5?8SYSTEM?8?6?$AA@ 10122d8c     libxml2:parser.obj
 0002:00014dac       ??_C@_0DD@BIJIOHJJ@Comment?5doesn?8t?5start?5and?5stop?5i@ 10122dac     libxml2:parser.obj
 0002:00014de0       ??_C@_0DA@OMOBDNCF@Comment?5must?5not?5contain?5?8?9?9?8?5?$CId@ 10122de0     libxml2:parser.obj
 0002:00014e10       ??_C@_0CD@MHPLKFMN@Comment?5not?5terminated?5?6?$DM?$CB?9?9?$CF?450@ 10122e10     libxml2:parser.obj
 0002:00014e34       ??_C@_0CJ@IOBJBLHK@NmToken?5expected?5in?5ATTLIST?5enum@ 10122e34     libxml2:parser.obj
 0002:00014e60       ??_C@_0CM@HCEIDKOE@?8?$CJ?8?5required?5to?5finish?5ATTLIST?5e@ 10122e60     libxml2:parser.obj
 0002:00014e8c       ??_C@_0CL@OCIFPDNL@?8?$CI?8?5required?5to?5start?5ATTLIST?5en@ 10122e8c     libxml2:parser.obj
 0002:00014eb8       ??_C@_0CC@HAEHMHLE@CData?5section?5not?5finished?6?$CF?450s@ 10122eb8     libxml2:parser.obj
 0002:00014edc       ??_C@_0BM@DPBFCCHH@CData?5section?5not?5finished?6?$AA@ 10122edc     libxml2:parser.obj
 0002:00014ef8       ??_C@_0BM@FPCGLJAO@Standalone?5value?5not?5found?6?$AA@ 10122ef8     libxml2:parser.obj
 0002:00014f14       ??_C@_0BD@CIMNJKIF@String?5not?5closed?6?$AA@ 10122f14     libxml2:parser.obj
 0002:00014f28       ??_C@_0CH@ILJPNKCC@standalone?5accepts?5only?5?8yes?8?5or@ 10122f28     libxml2:parser.obj
 0002:00014f50       ??_C@_0CL@HAJECGCO@XML?5standalone?5declaration?5?3?5exp@ 10122f50     libxml2:parser.obj
 0002:00014f7c       ??_C@_0BD@KLGEONFL@Blank?5needed?5here?6?$AA@ 10122f7c     libxml2:parser.obj
 0002:00014f90       ??_C@_0BK@MGCDLOCB@Unsupported?5version?5?8?$CFs?8?6?$AA@ 10122f90     libxml2:parser.obj
 0002:00014fac       ??_C@_0CJ@IFNCLLIA@Malformed?5declaration?5expecting?5@ 10122fac     libxml2:parser.obj
 0002:00014fd8       ??_C@_0BM@BPKNILCI@Blank?5needed?5after?5?8?$DM?$DPxml?8?6?$AA@ 10122fd8     libxml2:parser.obj
 0002:00014ff4       ??_C@_0CA@KOKIDNAD@xmlParseCharRef?3?5invalid?5value?6?$AA@ 10122ff4     libxml2:parser.obj
 0002:00015014       ??_C@_0CI@IOGMLJOB@xmlParseCharRef?3?5invalid?5decimal@ 10123014     libxml2:parser.obj
 0002:0001503c       ??_C@_0CL@KEGPHPPF@xmlParseCharRef?3?5invalid?5xmlChar@ 1012303c     libxml2:parser.obj
 0002:00015068       ??_C@_0CM@KDKFEHGF@xmlParseCharRef?3?5invalid?5hexadec@ 10123068     libxml2:parser.obj
 0002:00015094       ??_C@_0BL@LFMJIKLP@XML?5parser?3?5out?5of?5memory?6?$AA@ 10123094     libxml2:parser.obj
 0002:000150b0       ??_C@_0CN@KJOCGNCM@xmlParsePITarget?3?5invalid?5name?5p@ 101230b0     libxml2:parser.obj
 0002:000150e0       ??_C@_0BB@MIJLHIHE@Invalid?5PI?5name?6?$AA@ 101230e0     libxml2:parser.obj
 0002:000150f4       ??_C@_0DL@PMHMGOPA@XML?5declaration?5allowed?5only?5at?5@ 101230f4     libxml2:parser.obj
 0002:00015130       ??_C@_0BN@MIEIJLEE@xmlParsePI?5?3?5no?5target?5name?6?$AA@ 10123130     libxml2:parser.obj
 0002:00015150       ??_C@_0BC@IDENENGP@oasis?9xml?9catalog?$AA@ 10123150     libxml2:parser.obj
 0002:00015164       ??_C@_0CB@PICBFDLO@xmlParsePI?3?5PI?5?$CFs?5never?5end?5?4?4?4?6@ 10123164     libxml2:parser.obj
 0002:00015188       ??_C@_0CC@GLHNOOGJ@xmlParsePI?3?5PI?5?$CFs?5space?5expected@ 10123188     libxml2:parser.obj
 0002:000151ac       ??_C@_0DK@LAKAFNGA@PI?5declaration?5doesn?8t?5start?5and@ 101231ac     libxml2:parser.obj
 0002:000151e8       ??_C@_0CM@GDCBHPNJ@?8?$DO?8?5required?5to?5close?5NOTATION?5d@ 101231e8     libxml2:parser.obj
 0002:00015218       ??_C@_0EA@DCHCOJDP@Notation?5declaration?5doesn?8t?5sta@ 10123218     libxml2:parser.obj
 0002:00015258       ??_C@_0CJ@PMDGLIHG@Space?5required?5after?5the?5NOTATIO@ 10123258     libxml2:parser.obj
 0002:00015284       ??_C@_0BO@HHJDMHCC@NOTATION?3?5Name?5expected?5here?6?$AA@ 10123284     libxml2:parser.obj
 0002:000152a4       ??_C@_0CD@ILKLDDEI@Space?5required?5after?5?8?$DM?$CBNOTATION@ 101232a4     libxml2:parser.obj
 0002:000152c8       ??_C@_0DO@BLCODNOK@Entity?5declaration?5doesn?8t?5start@ 101232c8     libxml2:parser.obj
 0002:00015308       ??_C@_0CO@GFOAPJBJ@xmlParseEntityDecl?3?5entity?5?$CFs?5no@ 10123308     libxml2:parser.obj
 0002:00015338       ??_C@_04PADNKBEK@fake?$AA@ 10123338     libxml2:parser.obj
 0002:00015340       ??_C@_0CA@CHJJOFGL@SAX?5compatibility?5mode?5document?$AA@ 10123340     libxml2:parser.obj
 0002:00015360       ??_C@_0BO@GLBCJEIC@Space?5required?5after?5?8NDATA?8?6?$AA@ 10123360     libxml2:parser.obj
 0002:00015380       ??_C@_0BP@NPDMAEIM@Space?5required?5before?5?8NDATA?8?6?$AA@ 10123380     libxml2:parser.obj
 0002:000153a0       ??_C@_0BK@IIEEBKOG@Fragment?5not?5allowed?3?5?$CFs?6?$AA@ 101233a0     libxml2:parser.obj
 0002:000153bc       ??_C@_0BB@JHEINHI@Invalid?5URI?3?5?$CFs?6?$AA@ 101233bc     libxml2:parser.obj
 0002:000153d0       ??_C@_0BH@JGFFKKEI@Entity?5value?5required?6?$AA@ 101233d0     libxml2:parser.obj
 0002:000153e8       ??_C@_0CG@IGJCKADK@Space?5required?5after?5the?5entity?5@ 101233e8     libxml2:parser.obj
 0002:00015410       ??_C@_0BN@GJOFDJCB@xmlParseEntityDecl?3?5no?5name?6?$AA@ 10123410     libxml2:parser.obj
 0002:00015430       ??_C@_0BK@HMDOMFDK@Space?5required?5after?5?8?$CF?8?6?$AA@ 10123430     libxml2:parser.obj
 0002:0001544c       ??_C@_0CB@NEOBPNBE@Space?5required?5after?5?8?$DM?$CBENTITY?8?6@ 1012344c     libxml2:parser.obj
 0002:00015470       ??_C@_0CH@MHDABFNP@Name?5expected?5in?5NOTATION?5declar@ 10123470     libxml2:parser.obj
 0002:00015498       ??_C@_0CN@IAEMADFG@?8?$CJ?8?5required?5to?5finish?5NOTATION?5@ 10123498     libxml2:parser.obj
 0002:000154c8       ??_C@_0CC@LDENHOFN@?8?$CI?8?5required?5to?5start?5?8NOTATION?8@ 101234c8     libxml2:parser.obj
 0002:000154ec       ??_C@_0CB@FOEKPMO@Space?5required?5after?5?8NOTATION?8?6@ 101234ec     libxml2:parser.obj
 0002:00015510       ??_C@_0DG@JGKGBFLD@xmlParseElementMixedContentDecl?5@ 10123510     libxml2:parser.obj
 0002:00015548       ??_C@_0DI@DGKKJLMF@xmlParseElementMixedContentDecl?5@ 10123548     libxml2:parser.obj
 0002:00015580       ??_C@_0DB@BEFMOJIK@xmlParseElementMixedContentDecl?5@ 10123580     libxml2:parser.obj
 0002:000155b8       ??_C@_0EH@KGLJHJPD@Element?5content?5declaration?5does@ 101235b8     libxml2:parser.obj
 0002:00015600       ??_C@_0DO@MGFPGBNJ@xmlParseElementChildrenContentDe@ 10123600     libxml2:parser.obj
 0002:00015640       ??_C@_0DE@IJONAOBP@xmlParseElementChildrenContentDe@ 10123640     libxml2:parser.obj
 0002:00015674       ??_C@_0DE@GCMBDCCN@xmlParseElementChildrenContentDe@ 10123674     libxml2:parser.obj
 0002:000156a8       ??_C@_0DL@OALCAIPJ@xmlParseElementChildrenContentDe@ 101236a8     libxml2:parser.obj
 0002:000156e4       ??_C@_0CO@FLMKOMHK@xmlParseElementContentDecl?5?3?5?$CFs?5@ 101236e4     libxml2:parser.obj
 0002:00015714       ??_C@_0DF@CHNHOLDO@xmlParseElementDecl?3?5?8EMPTY?8?0?5?8A@ 10123714     libxml2:parser.obj
 0002:0001574c       ??_C@_0DO@COHAOPDG@PEReference?3?5forbidden?5within?5ma@ 1012374c     libxml2:parser.obj
 0002:0001578c       ??_C@_0DP@KIKIPMFE@Element?5declaration?5doesn?8t?5star@ 1012378c     libxml2:parser.obj
 0002:000157cc       ??_C@_0CO@JHMLLAMD@xmlParseElementDecl?3?5expected?5?8?$DO@ 101237cc     libxml2:parser.obj
 0002:000157fc       ??_C@_0CH@MFBAJJC@Space?5required?5after?5the?5element@ 101237fc     libxml2:parser.obj
 0002:00015824       ??_C@_0CK@LMDMNJGO@xmlParseElementDecl?3?5no?5name?5for@ 10123824     libxml2:parser.obj
 0002:00015850       ??_C@_0CA@CIGPNPNK@Space?5required?5after?5?8ELEMENT?8?6?$AA@ 10123850     libxml2:parser.obj
 0002:00015870       ??_C@_0CC@DNPJLMIE@xmlParseEntityRef?3?5expecting?5?8?$DL?8@ 10123870     libxml2:parser.obj
 0002:00015894       ??_C@_0BM@NMGBIIDP@xmlParseEntityRef?3?5no?5name?6?$AA@ 10123894     libxml2:parser.obj
 0002:000158b0       ??_C@_0CE@MMCOOKCE@xmlParsePEReference?3?5expecting?5?8@ 101238b0     libxml2:parser.obj
 0002:000158d4       ??_C@_0BO@LLDAMDGH@xmlParsePEReference?3?5no?5name?6?$AA@ 101238d4     libxml2:parser.obj
 0002:000158f4       ??_C@_0BP@EFDCAMCC@DOCTYPE?5improperly?5terminated?6?$AA@ 101238f4     libxml2:parser.obj
 0002:00015914       ??_C@_0CJ@JPAMJNGL@xmlParseDocTypeDecl?5?3?5no?5DOCTYPE@ 10123914     libxml2:parser.obj
 0002:00015940       ??_C@_0CA@PJGJPBIH@xmlParseEndTag?3?5?8?$DM?1?8?5not?5found?6?$AA@ 10123940     libxml2:parser.obj
 0002:00015960       ??_C@_0CC@FNFADON@Ending?5tag?5error?5for?3?5?$CFs?5line?5?$CFd@ 10123960     libxml2:parser.obj
 0002:00015984       ??_C@_0DE@OCMDIBAP@Opening?5and?5ending?5tag?5mismatch?3@ 10123984     libxml2:parser.obj
 0002:000159b8       ??_C@_0BI@FHDFFDFP@End?5tag?5?3?5expected?5?8?$DO?8?6?$AA@ 101239b8     libxml2:parser.obj
 0002:000159d0       ??_C@_0BL@LHBGJFJA@AttValue?3?5?$CC?5or?5?8?5expected?6?$AA@ 101239d0     libxml2:parser.obj
 0002:000159ec       ??_C@_0BG@NKOFEMFC@AttValue?3?5?8?5expected?6?$AA@ 101239ec     libxml2:parser.obj
 0002:00015a04       ??_C@_0DA@NCLANFMD@Unescaped?5?8?$DM?8?5not?5allowed?5in?5att@ 10123a04     libxml2:parser.obj
 0002:00015a34       ??_C@_0CA@EHKCFABD@xmlParseAttValue?3?5malloc?5failed?$AA@ 10123a34     libxml2:parser.obj
 0002:00015a54       ??_C@_0CE@GJABOOEC@XML?5conditional?5section?5not?5clos@ 10123a54     libxml2:parser.obj
 0002:00015a78       ??_C@_0DM@LGLHIHGG@XML?5conditional?5section?5INCLUDE?5@ 10123a78     libxml2:parser.obj
 0002:00015ab4       ??_C@_0CE@MPDEOLDN@Leaving?5IGNORE?5Conditional?5Secti@ 10123ab4     libxml2:parser.obj
 0002:00015ad8       ??_C@_0CF@BNLECKJM@Entering?5IGNORE?5Conditional?5Sect@ 10123ad8     libxml2:parser.obj
 0002:00015b00       ??_C@_0CF@KBFPDCLM@Leaving?5INCLUDE?5Conditional?5Sect@ 10123b00     libxml2:parser.obj
 0002:00015b28       ??_C@_0CG@PHPFKEGC@Content?5error?5in?5the?5external?5su@ 10123b28     libxml2:parser.obj
 0002:00015b50       ??_C@_0CG@FMCBAD@Entering?5INCLUDE?5Conditional?5Sec@ 10123b50     libxml2:parser.obj
 0002:00015b78       ??_C@_0CG@NLFNHNPI@XML?5conditional?5section?5?8?$FL?8?5expe@ 10123b78     libxml2:parser.obj
 0002:00015ba0       ??_C@_0CP@DNIBELFI@external?5parsed?5entities?5cannot?5@ 10123ba0     libxml2:parser.obj
 0002:00015bd0       ??_C@_07DALNPEGO@nbktext?$AA@ 10123bd0     libxml2:parser.obj
 0002:00015bd8       ??_C@_0BP@EMEPAPOI@Internal?3?5invalid?5entity?5type?6?$AA@ 10123bd8     libxml2:parser.obj
 0002:00015bf8       ??_C@_04FNNDIGBC@?$CDx?$CFX?$AA@ 10123bf8     libxml2:parser.obj
 0002:00015c00       ??_C@_03FDCLAKJL@?$CD?$CFd?$AA@ 10123c00     libxml2:parser.obj
 0002:00015c04       ??_C@_0CG@FCFCBOFE@detected?5an?5error?5in?5element?5con@ 10123c04     libxml2:parser.obj
 0002:00015c2c       ??_C@_0BD@DKOGENJF@Document?5is?5empty?6?$AA@ 10123c2c     libxml2:parser.obj
 0002:00015c40       ??_C@_0CL@MHGJEBGE@Attribute?5default?5value?5declarat@ 10123c40     libxml2:parser.obj
 0002:00015c6c       ??_C@_0BP@LOJANMBO@Space?5required?5after?5?8?$CDFIXED?8?6?$AA@ 10123c6c     libxml2:parser.obj
 0002:00015c90       ??_C@_0EG@JGLJABBC@Attribute?5list?5declaration?5doesn@ 10123c90     libxml2:parser.obj
 0002:00015cd8       ??_C@_0DE@JNDOOBGJ@xmlParseAttributeListDecl?3?5detec@ 10123cd8     libxml2:parser.obj
 0002:00015d0c       ??_C@_0DC@NGABIAJF@Space?5required?5after?5the?5attribu@ 10123d0c     libxml2:parser.obj
 0002:00015d40       ??_C@_0CJ@EMHJKDCH@Space?5required?5after?5the?5attribu@ 10123d40     libxml2:parser.obj
 0002:00015d6c       ??_C@_0CJ@BMNHNBNL@Space?5required?5after?5the?5attribu@ 10123d6c     libxml2:parser.obj
 0002:00015d98       ??_C@_0CA@GKDLKFPE@ATTLIST?3?5no?5name?5for?5Attribute?6?$AA@ 10123d98     libxml2:parser.obj
 0002:00015db8       ??_C@_0BO@PIKFFONH@ATTLIST?3?5no?5name?5for?5Element?6?$AA@ 10123db8     libxml2:parser.obj
 0002:00015dd8       ??_C@_0CC@DODLEJBN@Space?5required?5after?5?8?$DM?$CBATTLIST?8@ 10123dd8     libxml2:parser.obj
 0002:00015dfc       ??_C@_0CK@HCHNLPIJ@Extra?5content?5at?5the?5end?5of?5the?5@ 10123dfc     libxml2:parser.obj
 0002:00015e28       ??_C@_0DO@IJLBCNCA@xmlParseInternalSubset?3?5error?5de@ 10123e28     libxml2:parser.obj
 0002:00015e68       ??_C@_0CO@GBDLCOMB@Specification?5mandate?5value?5for?5@ 10123e68     libxml2:parser.obj
 0002:00015e98       ??_C@_0EF@GNALPKCP@Invalid?5value?5?$CC?$CFs?$CC?5for?5xml?3space@ 10123e98     libxml2:parser.obj
 0002:00015ee0       ??_C@_09HKHFJOKD@xml?3space?$AA@ 10123ee0     libxml2:parser.obj
 0002:00015eec       ??_C@_0CD@OAOAJGL@Malformed?5value?5for?5xml?3lang?5?3?5?$CF@ 10123eec     libxml2:parser.obj
 0002:00015f10       ??_C@_08EHDJCMMM@xml?3lang?$AA@ 10123f10     libxml2:parser.obj
 0002:00015f1c       ??_C@_0BO@BHLKDNI@error?5parsing?5attribute?5name?6?$AA@ 10123f1c     libxml2:parser.obj
 0002:00015f3c       ??_C@_0CO@KAECIKGE@xmlParseStartTag?3?5problem?5parsin@ 10123f3c     libxml2:parser.obj
 0002:00015f6c       ??_C@_0BM@FKPAGOOK@attributes?5construct?5error?6?$AA@ 10123f6c     libxml2:parser.obj
 0002:00015f88       ??_C@_0BM@MHOMIJHJ@realloc?5of?5?$CFld?5byte?5failed?6?$AA@ 10123f88     libxml2:parser.obj
 0002:00015fa4       ??_C@_0BI@LJKBJNKP@Attribute?5?$CFs?5redefined?6?$AA@ 10123fa4     libxml2:parser.obj
 0002:00015fbc       ??_C@_0CI@FEOPKDBB@xmlParseStartTag?3?5invalid?5elemen@ 10123fbc     libxml2:parser.obj
 0002:00015fe4       ??_C@_0CL@LKDFGLKB@Couldn?8t?5find?5end?5of?5Start?5Tag?5?$CF@ 10123fe4     libxml2:parser.obj
 0002:00016010       ??_C@_0CJ@JPBGMEM@Premature?5end?5of?5data?5in?5tag?5?$CFs?5@ 10124010     libxml2:parser.obj
 0002:0001603c       ??_C@_0CD@NCHPNICC@Start?5tag?5expected?0?5?8?$DM?8?5not?5foun@ 1012403c     libxml2:parser.obj
 0002:00016060       ??_C@_0CK@FAJBIKFJ@http?3?1?1www?4w3?4org?12001?1XMLSchema@ 10124060     libxml2:xmlschemas.obj
 0002:0001608c       ??_C@_0CB@PJCCKICC@http?3?1?1www?4w3?4org?12001?1XMLSchema@ 1012408c     libxml2:xmlschemas.obj
 0002:000160b0       ??_C@_0P@HKFKDJCC@Out?5of?5memory?6?$AA@ 101240b0     libxml2:xmlschemas.obj
 0002:000160c0       ??_C@_03OFAPEBGM@?$CFs?6?$AA@ 101240c0     libxml2:xmlschemas.obj
 0002:000160c4       ??_C@_0BA@PKAFFJNF@?$CFs?3?5element?5?$CFs?6?$AA@ 101240c4     libxml2:xmlschemas.obj
 0002:000160d4       ??_C@_0BD@KMEDMLK@?$CFs?3?5element?5?$CFs?3?$CFs?6?$AA@ 101240d4     libxml2:xmlschemas.obj
 0002:000160e8       ??_C@_0N@IGBBLHJK@?$CFs?3?5file?5?$CFs?6?$AA@ 101240e8     libxml2:xmlschemas.obj
 0002:000160f8       ??_C@_0BF@OAJOEFAN@?$CFs?3?5file?5?$CFs?5line?5?$CFd?6?$AA@ 101240f8     libxml2:xmlschemas.obj
 0002:00016110       ??_C@_0BI@KJMFOADH@?$CFs?3?5file?5?$CFs?5element?5?$CFs?6?$AA@ 10124110     libxml2:xmlschemas.obj
 0002:00016128       ??_C@_0BL@OMBOPGG@?$CFs?3?5file?5?$CFs?5element?5?$CFs?3?$CFs?6?$AA@ 10124128     libxml2:xmlschemas.obj
 0002:00016144       ??_C@_0CA@OCDIDOOG@?$CFs?3?5file?5?$CFs?5line?5?$CFd?5element?5?$CFs?6?$AA@ 10124144     libxml2:xmlschemas.obj
 0002:00016164       ??_C@_0CD@FODNNGBK@?$CFs?3?5file?5?$CFs?5line?5?$CFd?5element?5?$CFs?3?$CF@ 10124164     libxml2:xmlschemas.obj
 0002:00016188       ??_C@_0BC@LNDMHOBB@compilation?5error?$AA@ 10124188     libxml2:xmlschemas.obj
 0002:0001619c       ??_C@_0BN@KGFOBBMF@Notation?5?$CFs?5already?5defined?6?$AA@ 1012419c     libxml2:xmlschemas.obj
 0002:000161bc       ??_C@_0BO@EMLDLGNE@Attribute?5?$CFs?5already?5defined?6?$AA@ 101241bc     libxml2:xmlschemas.obj
 0002:000161dc       ??_C@_0CE@HHPGLFFB@Attribute?5group?5?$CFs?5already?5defin@ 101241dc     libxml2:xmlschemas.obj
 0002:00016200       ??_C@_0BM@CFGEBLLG@Element?5?$CFs?5already?5defined?6?$AA@ 10124200     libxml2:xmlschemas.obj
 0002:0001621c       ??_C@_0P@GAGCABOM@privatieelem?$CFd?$AA@ 1012421c     libxml2:xmlschemas.obj
 0002:0001622c       ??_C@_0BJ@OKMOKFBE@Type?5?$CFs?5already?5defined?6?$AA@ 1012422c     libxml2:xmlschemas.obj
 0002:00016248       ??_C@_0BK@NNAGPAHN@Group?5?$CFs?5already?5defined?6?$AA@ 10124248     libxml2:xmlschemas.obj
 0002:00016264       ??_C@_0DA@MFEGNOAP@Attribute?5?$CFs?3?5the?5QName?5prefix?5?$CF@ 10124264     libxml2:xmlschemas.obj
 0002:00016294       ??_C@_0CB@FNPFDON@invalid?5value?5for?5minOccurs?3?5?$CFs?6@ 10124294     libxml2:xmlschemas.obj
 0002:000162b8       ??_C@_09PBKAIKML@unbounded?$AA@ 101242b8     libxml2:xmlschemas.obj
 0002:000162c4       ??_C@_09OBPGLENH@maxOccurs?$AA@ 101242c4     libxml2:xmlschemas.obj
 0002:000162d0       ??_C@_09OAPKCOGD@minOccurs?$AA@ 101242d0     libxml2:xmlschemas.obj
 0002:000162dc       ??_C@_0CL@LABCAMBG@Attribute?5?$CFs?3?5the?5value?5?$CFs?5is?5no@ 101242dc     libxml2:xmlschemas.obj
 0002:00016308       ??_C@_04LOAJBDKD@true?$AA@ 10124308     libxml2:xmlschemas.obj
 0002:00016310       ??_C@_0BH@JGDFLELF@Unknown?5facet?5type?5?$CFs?6?$AA@ 10124310     libxml2:xmlschemas.obj
 0002:00016328       ??_C@_0CH@KGEOIBLP@Facet?5?$CFs?5has?5unexpected?5child?5co@ 10124328     libxml2:xmlschemas.obj
 0002:00016350       ??_C@_0L@HOGAMHHM@annotation?$AA@ 10124350     libxml2:xmlschemas.obj
 0002:0001635c       ??_C@_09KIHADLGO@minLength?$AA@ 1012435c     libxml2:xmlschemas.obj
 0002:00016368       ??_C@_09KJHMKBNK@maxLength?$AA@ 10124368     libxml2:xmlschemas.obj
 0002:00016374       ??_C@_06IJDLPEM@length?$AA@ 10124374     libxml2:xmlschemas.obj
 0002:0001637c       ??_C@_0L@CCEMGGFL@whiteSpace?$AA@ 1012437c     libxml2:xmlschemas.obj
 0002:00016388       ??_C@_0M@FJOIDAAJ@enumeration?$AA@ 10124388     libxml2:xmlschemas.obj
 0002:00016394       ??_C@_07CHFOACKJ@pattern?$AA@ 10124394     libxml2:xmlschemas.obj
 0002:0001639c       ??_C@_0P@EPJLKDGA@fractionDigits?$AA@ 1012439c     libxml2:xmlschemas.obj
 0002:000163ac       ??_C@_0M@PGNNBCIB@totalDigits?$AA@ 101243ac     libxml2:xmlschemas.obj
 0002:000163b8       ??_C@_0N@IEJNIJII@maxExclusive?$AA@ 101243b8     libxml2:xmlschemas.obj
 0002:000163c8       ??_C@_0N@EBHLFCPN@maxInclusive?$AA@ 101243c8     libxml2:xmlschemas.obj
 0002:000163d8       ??_C@_0N@MENCPBPO@minExclusive?$AA@ 101243d8     libxml2:xmlschemas.obj
 0002:000163e8       ??_C@_0N@BDECKIL@minInclusive?$AA@ 101243e8     libxml2:xmlschemas.obj
 0002:000163f8       ??_C@_0BH@LAHCBIKA@Facet?5?$CFs?5has?5no?5value?6?$AA@ 101243f8     libxml2:xmlschemas.obj
 0002:00016410       ??_C@_05MFEJDJP@value?$AA@ 10124410     libxml2:xmlschemas.obj
 0002:00016418       ??_C@_0CE@KBDDIAGH@Sequence?5?$CFs?5has?5unexpected?5conte@ 10124418     libxml2:xmlschemas.obj
 0002:0001643c       ??_C@_06BGELAONC@any?5?$CFd?$AA@ 1012443c     libxml2:xmlschemas.obj
 0002:00016444       ??_C@_0CE@LIJGANDB@notation?5?$CFs?5has?5unexpected?5conte@ 10124444     libxml2:xmlschemas.obj
 0002:00016468       ??_C@_0BG@DHBIDCLH@Notation?5has?5no?5name?6?$AA@ 10124468     libxml2:xmlschemas.obj
 0002:00016480       ??_C@_0CI@HANHFADO@anyAttribute?5?$CFs?5has?5unexpected?5c@ 10124480     libxml2:xmlschemas.obj
 0002:000164a8       ??_C@_0DN@OHLCJPMH@anyAttribute?5has?5unexpected?5cont@ 101244a8     libxml2:xmlschemas.obj
 0002:000164e8       ??_C@_03BLIDKLB@lax?$AA@   101244e8     libxml2:xmlschemas.obj
 0002:000164ec       ??_C@_04DLBGLKG@skip?$AA@  101244ec     libxml2:xmlschemas.obj
 0002:000164f4       ??_C@_06OLFOGHEN@strict?$AA@ 101244f4     libxml2:xmlschemas.obj
 0002:000164fc       ??_C@_0BA@LJOIJHLO@processContents?$AA@ 101244fc     libxml2:xmlschemas.obj
 0002:0001650c       ??_C@_0L@BOOOGLFF@anyattr?5?$CFd?$AA@ 1012450c     libxml2:xmlschemas.obj
 0002:00016518       ??_C@_0CF@MJCLGCKM@attribute?5?$CFs?5has?5unexpected?5cont@ 10124518     libxml2:xmlschemas.obj
 0002:00016540       ??_C@_0L@FMMGGLOP@simpleType?$AA@ 10124540     libxml2:xmlschemas.obj
 0002:0001654c       ??_C@_04GPMDFGEJ@type?$AA@ 1012454c     libxml2:xmlschemas.obj
 0002:00016554       ??_C@_0L@MDLGMDOC@anonattr?$CFd?$AA@ 10124554     libxml2:xmlschemas.obj
 0002:00016560       ??_C@_0BP@PFAABGHK@Attribute?5has?5no?5name?5nor?5ref?6?$AA@ 10124560     libxml2:xmlschemas.obj
 0002:00016580       ??_C@_03GCDGINBO@ref?$AA@  10124580     libxml2:xmlschemas.obj
 0002:00016584       ??_C@_0CL@GJJDDGJJ@attribute?5group?5?$CFs?5has?5unexpecte@ 10124584     libxml2:xmlschemas.obj
 0002:000165b0       ??_C@_0BO@MDEMDPPE@Unimplemented?5block?5at?5?$CFs?3?$CFd?6?$AA@ 101245b0     libxml2:xmlschemas.obj
 0002:000165d0       ??_C@_0CJ@PPLCKFHO@?2projects?2Mvs?2libxml2?92?45?48?2xmls@ 101245d0     libxml2:xmlschemas.obj
 0002:000165fc       ??_C@_0N@DDKCLMJG@anyAttribute?$AA@ 101245fc     libxml2:xmlschemas.obj
 0002:0001660c       ??_C@_0P@KIDCOMBF@attributeGroup?$AA@ 1012460c     libxml2:xmlschemas.obj
 0002:0001661c       ??_C@_09HGIEBAJ@attribute?$AA@ 1012461c     libxml2:xmlschemas.obj
 0002:00016628       ??_C@_0BA@OEOGOHBI@anonattrgroup?$CFd?$AA@ 10124628     libxml2:xmlschemas.obj
 0002:00016638       ??_C@_0CE@HGMBPHMG@AttributeGroup?5has?5no?5name?5nor?5r@ 10124638     libxml2:xmlschemas.obj
 0002:0001665c       ??_C@_0CB@EPCNMJLH@Union?5?$CFs?5has?5unexpected?5content?6@ 1012465c     libxml2:xmlschemas.obj
 0002:00016680       ??_C@_0M@OEMIGMAO@memberTypes?$AA@ 10124680     libxml2:xmlschemas.obj
 0002:0001668c       ??_C@_08DIAICHEB@union?5?$CFd?$AA@ 1012468c     libxml2:xmlschemas.obj
 0002:00016698       ??_C@_0CA@JMBDPAFL@List?5?$CFs?5has?5unexpected?5content?6?$AA@ 10124698     libxml2:xmlschemas.obj
 0002:000166b8       ??_C@_07BNHGCAKC@list?5?$CFd?$AA@ 101246b8     libxml2:xmlschemas.obj
 0002:000166c0       ??_C@_0BP@KOPEAFOJ@All?5?$CFs?5has?5unexpected?5content?6?$AA@ 101246c0     libxml2:xmlschemas.obj
 0002:000166e0       ??_C@_07HCLJNICE@element?$AA@ 101246e0     libxml2:xmlschemas.obj
 0002:000166e8       ??_C@_05JPLAHKPM@all?$CFd?$AA@ 101246e8     libxml2:xmlschemas.obj
 0002:000166f0       ??_C@_0BP@IMJOLAE@Import?5has?5unexpected?5content?6?$AA@ 101246f0     libxml2:xmlschemas.obj
 0002:00016710       ??_C@_0DN@DAEFHNAH@Redefining?5import?5for?5namespace?5@ 10124710     libxml2:xmlschemas.obj
 0002:00016750       ??_C@_0EC@LDBHCNP@Redefining?5import?5for?5default?5na@ 10124750     libxml2:xmlschemas.obj
 0002:00016794       ??_C@_0BG@JGFLNGCP@the?5default?5namespace?$AA@ 10124794     libxml2:xmlschemas.obj
 0002:000167ac       ??_C@_0CI@ILCMEFGB@Internal?3?5failed?5to?5build?5import@ 101247ac     libxml2:xmlschemas.obj
 0002:000167d4       ??_C@_0DD@KGPMKIGL@Import?5schemaLocation?5attribute?5@ 101247d4     libxml2:xmlschemas.obj
 0002:00016808       ??_C@_0P@DEMHLMFE@schemaLocation?$AA@ 10124808     libxml2:xmlschemas.obj
 0002:00016818       ??_C@_0CO@POGHPCEL@Import?5namespace?5attribute?5is?5no@ 10124818     libxml2:xmlschemas.obj
 0002:00016848       ??_C@_09KPMGAFNI@namespace?$AA@ 10124848     libxml2:xmlschemas.obj
 0002:00016854       ??_C@_0CO@FIMLLICH@Failed?5to?5allocate?5new?5schama?5pa@ 10124854     libxml2:xmlschemas.obj
 0002:00016884       ??_C@_0CO@BGOOHEME@Found?5unexpected?5type?5?$CFd?5in?5?$CFs?5c@ 10124884     libxml2:xmlschemas.obj
 0002:000168b4       ??_C@_01NBENCBCI@?$CK?$AA@ 101248b4     libxml2:xmlschemas.obj
 0002:000168b8       ??_C@_0DC@HEHMBHJM@Found?5unexpected?5type?5?$DN?5NULL?5in?5@ 101248b8     libxml2:xmlschemas.obj
 0002:000168ec       ??_C@_0CJ@HLPBFOCB@Content?5model?5of?5?$CFs?5is?5not?5deter@ 101248ec     libxml2:xmlschemas.obj
 0002:00016918       ??_C@_0CE@NHDKOACN@failed?5to?5compile?5?$CFs?5content?5mod@ 10124918     libxml2:xmlschemas.obj
 0002:0001693c       ??_C@_0CE@DKDPKMNP@Cannot?5create?5automata?5for?5elem?5@ 1012493c     libxml2:xmlschemas.obj
 0002:00016960       ??_C@_0CH@BLBJAFML@Schemas?3?5element?5?$CFs?5type?5?$CFs?5not?5@ 10124960     libxml2:xmlschemas.obj
 0002:00016988       ??_C@_0DA@BCAGNCDC@Schemas?3?5element?5?$CFs?5have?5both?5ty@ 10124988     libxml2:xmlschemas.obj
 0002:000169b8       ??_C@_0CJ@JEPFLACE@Schemas?3?5element?5?$CFs?5ref?5to?5?$CFs?5no@ 101249b8     libxml2:xmlschemas.obj
 0002:000169e4       ??_C@_0CP@PEHKIBAD@Schemas?3?5element?5?$CFs?5have?5both?5re@ 101249e4     libxml2:xmlschemas.obj
 0002:00016a14       ??_C@_0CM@LIILHNLF@Schemas?3?5base?5type?5?$CFs?5of?5type?5?$CFs@ 10124a14     libxml2:xmlschemas.obj
 0002:00016a40       ??_C@_0CJ@MADIMCKI@Schemas?3?5type?5?$CFs?5base?5type?5?$CFs?5no@ 10124a40     libxml2:xmlschemas.obj
 0002:00016a6c       ??_C@_0DH@EGEEOLOO@Schemas?3?5attribute?5?$CFs?5has?5no?5att@ 10124a6c     libxml2:xmlschemas.obj
 0002:00016aa4       ??_C@_0DE@HCEAMBFL@Schemas?3?5attribute?5group?5?$CFs?5refe@ 10124aa4     libxml2:xmlschemas.obj
 0002:00016ad8       ??_C@_0DB@EFHJMCNI@Schemas?3?5attribute?5?$CFs?5has?5no?5typ@ 10124ad8     libxml2:xmlschemas.obj
 0002:00016b0c       ??_C@_0CO@LNBDHFOH@Schemas?3?5attribute?5?$CFs?5reference?5@ 10124b0c     libxml2:xmlschemas.obj
 0002:00016b3c       ??_C@_0CJ@KPCBMCAA@Schemas?3?5attribute?5?$CFs?5type?5?$CFs?5no@ 10124b3c     libxml2:xmlschemas.obj
 0002:00016b68       ??_C@_0P@DAONFGNJ@Internal?5Error?$AA@ 10124b68     libxml2:xmlschemas.obj
 0002:00016b78       ??_C@_0CH@JNPJNNAH@Failed?5to?5validate?5type?5with?5fac@ 10124b78     libxml2:xmlschemas.obj
 0002:00016ba0       ??_C@_0CJ@COAOOOBB@Internal?3?5List?5type?5?$CFs?5has?5no?5ba@ 10124ba0     libxml2:xmlschemas.obj
 0002:00016bcc       ??_C@_0CC@CCNCGDND@Failed?5to?5validate?5basic?5type?5?$CFs@ 10124bcc     libxml2:xmlschemas.obj
 0002:00016bf0       ??_C@_0BP@BMILGAPL@Attribute?5?$CFs?5on?5?$CFs?5is?5unknown?6?$AA@ 10124bf0     libxml2:xmlschemas.obj
 0002:00016c10       ??_C@_0DA@CKEOBDAB@Internal?5error?3?5xmlSchemaValidat@ 10124c10     libxml2:xmlschemas.obj
 0002:00016c40       ??_C@_0DA@IHDKCMCI@Element?5?$CFs?3?5attribute?5?$CFs?5should?5@ 10124c40     libxml2:xmlschemas.obj
 0002:00016c70       ??_C@_0BK@PJGHNDDL@noNamespaceSchemaLocation?$AA@ 10124c70     libxml2:xmlschemas.obj
 0002:00016c8c       ??_C@_0BA@JKDKICDN@schemasLocation?$AA@ 10124c8c     libxml2:xmlschemas.obj
 0002:00016c9c       ??_C@_03ILAMHENH@nil?$AA@  10124c9c     libxml2:xmlschemas.obj
 0002:00016ca0       ??_C@_0CJ@ILOGIDNJ@Element?5?$CFs?5content?5is?5not?5a?5simp@ 10124ca0     libxml2:xmlschemas.obj
 0002:00016ccc       ??_C@_0DI@HIODGOHP@Internal?5error?3?5xmlSchemaValidat@ 10124ccc     libxml2:xmlschemas.obj
 0002:00016d04       ??_C@_0CM@EKEONLGF@Internal?5error?3?5xmlSchemaValidat@ 10124d04     libxml2:xmlschemas.obj
 0002:00016d30       ??_C@_0CK@GIHKONJK@Element?5?$CFs?3?5node?5type?5?$CFd?5unexpec@ 10124d30     libxml2:xmlschemas.obj
 0002:00016d5c       ??_C@_0CM@MFKIHNFJ@Element?5?$CFs?3?5child?5?$CFs?5should?5not?5@ 10124d5c     libxml2:xmlschemas.obj
 0002:00016d88       ??_C@_0CO@MNKAOOEE@Element?5?$CFs?3?5failed?5to?5validate?5b@ 10124d88     libxml2:xmlschemas.obj
 0002:00016db8       ??_C@_0CI@IFLHLNDO@attribute?5?$CFs?5on?5?$CFs?5does?5not?5matc@ 10124db8     libxml2:xmlschemas.obj
 0002:00016de0       ??_C@_0DA@IBEBNDDM@Internal?5error?3?5attribute?5?$CFs?5typ@ 10124de0     libxml2:xmlschemas.obj
 0002:00016e10       ??_C@_0DC@MDBKKMPI@Failed?5to?5allocate?5new?5schama?5va@ 10124e10     libxml2:xmlschemas.obj
 0002:00016e44       ??_C@_0CB@NLLKKFLP@Group?5?$CFs?5has?5unexpected?5content?6@ 10124e44     libxml2:xmlschemas.obj
 0002:00016e68       ??_C@_08IBBDGPOF@sequence?$AA@ 10124e68     libxml2:xmlschemas.obj
 0002:00016e74       ??_C@_06DDDNEJEA@choice?$AA@ 10124e74     libxml2:xmlschemas.obj
 0002:00016e7c       ??_C@_03NFKEKGGK@all?$AA@  10124e7c     libxml2:xmlschemas.obj
 0002:00016e80       ??_C@_0M@LMFDJBKG@anongroup?$CFd?$AA@ 10124e80     libxml2:xmlschemas.obj
 0002:00016e8c       ??_C@_0BL@FKJLLIHA@Group?5has?5no?5name?5nor?5ref?6?$AA@ 10124e8c     libxml2:xmlschemas.obj
 0002:00016ea8       ??_C@_0CF@DIKGJCGC@Extension?5?$CFs?5has?5unexpected?5cont@ 10124ea8     libxml2:xmlschemas.obj
 0002:00016ed0       ??_C@_05MGJOOGAJ@group?$AA@ 10124ed0     libxml2:xmlschemas.obj
 0002:00016ed8       ??_C@_0BK@IHBPLPLB@Extension?5?$CFs?5has?5no?5base?6?$AA@ 10124ed8     libxml2:xmlschemas.obj
 0002:00016ef4       ??_C@_0N@FAPBPNDJ@extension?5?$CFd?$AA@ 10124ef4     libxml2:xmlschemas.obj
 0002:00016f04       ??_C@_0CJ@LPMOGJFE@SimpleContent?5?$CFs?5has?5unexpected?5@ 10124f04     libxml2:xmlschemas.obj
 0002:00016f30       ??_C@_09ODADEDNA@extension?$AA@ 10124f30     libxml2:xmlschemas.obj
 0002:00016f3c       ??_C@_0M@FBFLGGFO@restriction?$AA@ 10124f3c     libxml2:xmlschemas.obj
 0002:00016f48       ??_C@_0BC@CKNBPPNE@complexContent?5?$CFd?$AA@ 10124f48     libxml2:xmlschemas.obj
 0002:00016f5c       ??_C@_0CK@PJNNPMED@ComplexContent?5?$CFs?5has?5unexpected@ 10124f5c     libxml2:xmlschemas.obj
 0002:00016f88       ??_C@_0CH@DDKBNPIN@ComplexType?5?$CFs?5has?5unexpected?5co@ 10124f88     libxml2:xmlschemas.obj
 0002:00016fb0       ??_C@_0P@LGKPFEB@complexContent?$AA@ 10124fb0     libxml2:xmlschemas.obj
 0002:00016fc0       ??_C@_0O@EFHOFDNO@simpleContent?$AA@ 10124fc0     libxml2:xmlschemas.obj
 0002:00016fd0       ??_C@_0BJ@MKPMDCCD@complexType?5has?5no?5name?6?$AA@ 10124fd0     libxml2:xmlschemas.obj
 0002:00016fec       ??_C@_0L@HCIAKKLD@anontype?$CFd?$AA@ 10124fec     libxml2:xmlschemas.obj
 0002:00016ff8       ??_C@_0CO@HJNEOGGO@Schemas?3?5type?5?$CFs?5whiteSpace?5valu@ 10124ff8     libxml2:xmlschemas.obj
 0002:00017028       ??_C@_08MHKDLKBN@collapse?$AA@ 10125028     libxml2:xmlschemas.obj
 0002:00017034       ??_C@_07CLEHDIEJ@replace?$AA@ 10125034     libxml2:xmlschemas.obj
 0002:0001703c       ??_C@_0CK@FEFFBLNK@Schemas?3?5type?5?$CFs?5facet?5regexp?5?$CFs@ 1012503c     libxml2:xmlschemas.obj
 0002:00017068       ??_C@_0CP@GEBOHHGB@Schemas?3?5type?5?$CFs?5enumeration?5val@ 10125068     libxml2:xmlschemas.obj
 0002:00017098       ??_C@_0CJ@IBDHMFJP@Schemas?3?5type?5?$CFs?5facet?5value?5?$CFs?5@ 10125098     libxml2:xmlschemas.obj
 0002:000170c4       ??_C@_0BD@IEOLADAC@nonNegativeInteger?$AA@ 101250c4     libxml2:xmlschemas.obj
 0002:000170d8       ??_C@_0CO@CKGDLMFB@Internal?5error?3?5xmlSchemaValidat@ 101250d8     libxml2:xmlschemas.obj
 0002:00017108       ??_C@_0CC@GBMIAHON@Element?5?$CFs?5content?5check?5failure@ 10125108     libxml2:xmlschemas.obj
 0002:0001712c       ??_C@_0CB@OJPKCIPF@Element?5?$CFs?5content?5check?5failed?6@ 1012512c     libxml2:xmlschemas.obj
 0002:00017150       ??_C@_0CH@LHNMPKNH@Element?5?$CFs?3?5missing?5child?5?$CFs?5fou@ 10125150     libxml2:xmlschemas.obj
